ARM GAS  /tmp/ccXL6Rl7.s 			page 1


   1              		.syntax unified
   2              		.cpu cortex-m3
   3              		.fpu softvfp
   4              		.eabi_attribute 20, 1
   5              		.eabi_attribute 21, 1
   6              		.eabi_attribute 23, 3
   7              		.eabi_attribute 24, 1
   8              		.eabi_attribute 25, 1
   9              		.eabi_attribute 26, 1
  10              		.eabi_attribute 30, 2
  11              		.eabi_attribute 34, 1
  12              		.eabi_attribute 18, 4
  13              		.thumb
  14              		.file	"chdynamic.c"
  15              		.text
  16              	.Ltext0:
  17              		.cfi_sections	.debug_frame
  18              		.section	.text.chThdAddRef,"ax",%progbits
  19              		.align	2
  20              		.p2align 4,,15
  21              		.global	chThdAddRef
  22              		.thumb
  23              		.thumb_func
  24              		.type	chThdAddRef, %function
  25              	chThdAddRef:
  26              	.LFB7:
  27              		.file 1 "/home/nicolas/Escritorio/Embebidos/stamp_repo/files/code/ext/ChibiOS/os/kernel/src/chdyna
  28              		.loc 1 52 0
  29              		.cfi_startproc
  30              		@ args = 0, pretend = 0, frame = 0
  31              		@ frame_needed = 0, uses_anonymous_args = 0
  32              		@ link register save eliminated.
  33              	.LVL0:
  34              	.LBB2:
  35              		.loc 1 54 0
  36 0000 2023     		movs	r3, #32
  37              	@ 54 "/home/nicolas/Escritorio/Embebidos/stamp_repo/files/code/ext/ChibiOS/os/kernel/src/chdynamic.
  38 0002 83F31188 		msr     BASEPRI, r3
  39              	@ 0 "" 2
  40              		.thumb
  41              	.LBE2:
  42              		.loc 1 56 0
  43 0006 827F     		ldrb	r2, [r0, #30]	@ zero_extendqisi2
  44              	.LBB3:
  45              		.loc 1 57 0
  46 0008 0023     		movs	r3, #0
  47              	.LBE3:
  48              		.loc 1 56 0
  49 000a 0132     		adds	r2, r2, #1
  50 000c 8277     		strb	r2, [r0, #30]
  51              	.LBB4:
  52              		.loc 1 57 0
  53              	@ 57 "/home/nicolas/Escritorio/Embebidos/stamp_repo/files/code/ext/ChibiOS/os/kernel/src/chdynamic.
  54 000e 83F31188 		msr     BASEPRI, r3
  55              	@ 0 "" 2
  56              		.thumb
  57              	.LBE4:
ARM GAS  /tmp/ccXL6Rl7.s 			page 2


  58              		.loc 1 59 0
  59 0012 7047     		bx	lr
  60              		.cfi_endproc
  61              	.LFE7:
  62              		.size	chThdAddRef, .-chThdAddRef
  63              		.section	.text.chThdRelease,"ax",%progbits
  64              		.align	2
  65              		.p2align 4,,15
  66              		.global	chThdRelease
  67              		.thumb
  68              		.thumb_func
  69              		.type	chThdRelease, %function
  70              	chThdRelease:
  71              	.LFB8:
  72              		.loc 1 74 0
  73              		.cfi_startproc
  74              		@ args = 0, pretend = 0, frame = 0
  75              		@ frame_needed = 0, uses_anonymous_args = 0
  76              		@ link register save eliminated.
  77              	.LVL1:
  78              		.loc 1 74 0
  79 0000 0146     		mov	r1, r0
  80              	.LBB5:
  81              		.loc 1 77 0
  82 0002 2023     		movs	r3, #32
  83              	@ 77 "/home/nicolas/Escritorio/Embebidos/stamp_repo/files/code/ext/ChibiOS/os/kernel/src/chdynamic.
  84 0004 83F31188 		msr     BASEPRI, r3
  85              	@ 0 "" 2
  86              		.thumb
  87              	.LBE5:
  88              		.loc 1 79 0
  89 0008 827F     		ldrb	r2, [r0, #30]	@ zero_extendqisi2
  90              	.LBB6:
  91              		.loc 1 80 0
  92 000a 0023     		movs	r3, #0
  93              	.LBE6:
  94              		.loc 1 79 0
  95 000c 013A     		subs	r2, r2, #1
  96 000e D2B2     		uxtb	r2, r2
  97 0010 8277     		strb	r2, [r0, #30]
  98              	.LVL2:
  99              	.LBB7:
 100              		.loc 1 80 0
 101              	@ 80 "/home/nicolas/Escritorio/Embebidos/stamp_repo/files/code/ext/ChibiOS/os/kernel/src/chdynamic.
 102 0012 83F31188 		msr     BASEPRI, r3
 103              	@ 0 "" 2
 104              		.thumb
 105              	.LBE7:
 106              		.loc 1 85 0
 107 0016 12B9     		cbnz	r2, .L2
 108              		.loc 1 85 0 is_stmt 0 discriminator 1
 109 0018 037F     		ldrb	r3, [r0, #28]	@ zero_extendqisi2
 110 001a 0E2B     		cmp	r3, #14
 111 001c 00D0     		beq	.L7
 112              	.L2:
 113 001e 7047     		bx	lr
 114              	.L7:
ARM GAS  /tmp/ccXL6Rl7.s 			page 3


 115              		.loc 1 86 0 is_stmt 1
 116 0020 437F     		ldrb	r3, [r0, #29]	@ zero_extendqisi2
 117 0022 03F00303 		and	r3, r3, #3
 118 0026 012B     		cmp	r3, #1
 119 0028 02D0     		beq	.L4
 120 002a 022B     		cmp	r3, #2
 121 002c 07D0     		beq	.L5
 122 002e 7047     		bx	lr
 123              	.L4:
 124              		.loc 1 90 0
 125 0030 0269     		ldr	r2, [r0, #16]
 126              	.LVL3:
 127 0032 4369     		ldr	r3, [r0, #20]
 128 0034 1A61     		str	r2, [r3, #16]
 129 0036 0269     		ldr	r2, [r0, #16]
 130 0038 5361     		str	r3, [r2, #20]
 131              		.loc 1 92 0
 132 003a FFF7FEBF 		b	chHeapFree
 133              	.LVL4:
 134              	.L5:
 135              		.loc 1 98 0
 136 003e 0269     		ldr	r2, [r0, #16]
 137              	.LVL5:
 138 0040 4369     		ldr	r3, [r0, #20]
 139              		.loc 1 100 0
 140 0042 406C     		ldr	r0, [r0, #68]
 141              	.LVL6:
 142              		.loc 1 98 0
 143 0044 1A61     		str	r2, [r3, #16]
 144 0046 0A69     		ldr	r2, [r1, #16]
 145 0048 5361     		str	r3, [r2, #20]
 146              		.loc 1 100 0
 147 004a FFF7FEBF 		b	chPoolFree
 148              	.LVL7:
 149              		.cfi_endproc
 150              	.LFE8:
 151              		.size	chThdRelease, .-chThdRelease
 152 004e 00BF     		.section	.text.chThdCreateFromHeap,"ax",%progbits
 153              		.align	2
 154              		.p2align 4,,15
 155              		.global	chThdCreateFromHeap
 156              		.thumb
 157              		.thumb_func
 158              		.type	chThdCreateFromHeap, %function
 159              	chThdCreateFromHeap:
 160              	.LFB9:
 161              		.loc 1 131 0
 162              		.cfi_startproc
 163              		@ args = 4, pretend = 0, frame = 0
 164              		@ frame_needed = 0, uses_anonymous_args = 0
 165              	.LVL8:
 166 0000 F0B5     		push	{r4, r5, r6, r7, lr}
 167              		.cfi_def_cfa_offset 20
 168              		.cfi_offset 4, -20
 169              		.cfi_offset 5, -16
 170              		.cfi_offset 6, -12
 171              		.cfi_offset 7, -8
ARM GAS  /tmp/ccXL6Rl7.s 			page 4


 172              		.cfi_offset 14, -4
 173 0002 83B0     		sub	sp, sp, #12
 174              		.cfi_def_cfa_offset 32
 175              		.loc 1 131 0
 176 0004 1646     		mov	r6, r2
 177 0006 1D46     		mov	r5, r3
 178 0008 0F46     		mov	r7, r1
 179              		.loc 1 135 0
 180 000a FFF7FEFF 		bl	chHeapAlloc
 181              	.LVL9:
 182              		.loc 1 136 0
 183 000e 98B1     		cbz	r0, .L9
 184              	.LBB8:
 185              		.loc 1 148 0
 186 0010 2023     		movs	r3, #32
 187              	@ 148 "/home/nicolas/Escritorio/Embebidos/stamp_repo/files/code/ext/ChibiOS/os/kernel/src/chdynamic
 188 0012 83F31188 		msr     BASEPRI, r3
 189              	@ 0 "" 2
 190              		.thumb
 191              	.LBE8:
 192              		.loc 1 149 0
 193 0016 089B     		ldr	r3, [sp, #32]
 194 0018 3946     		mov	r1, r7
 195 001a 0093     		str	r3, [sp]
 196 001c 3246     		mov	r2, r6
 197 001e 2B46     		mov	r3, r5
 198 0020 FFF7FEFF 		bl	chThdCreateI
 199              	.LVL10:
 200              		.loc 1 150 0
 201 0024 0123     		movs	r3, #1
 202 0026 4377     		strb	r3, [r0, #29]
 203              		.loc 1 151 0
 204 0028 0021     		movs	r1, #0
 205              		.loc 1 149 0
 206 002a 0446     		mov	r4, r0
 207              	.LVL11:
 208              		.loc 1 151 0
 209 002c FFF7FEFF 		bl	chSchWakeupS
 210              	.LVL12:
 211              	.LBB9:
 212              		.loc 1 152 0
 213 0030 0023     		movs	r3, #0
 214              	@ 152 "/home/nicolas/Escritorio/Embebidos/stamp_repo/files/code/ext/ChibiOS/os/kernel/src/chdynamic
 215 0032 83F31188 		msr     BASEPRI, r3
 216              	@ 0 "" 2
 217              		.thumb
 218              	.LBE9:
 219              		.loc 1 153 0
 220 0036 2046     		mov	r0, r4
 221              	.LVL13:
 222              	.L9:
 223              		.loc 1 154 0
 224 0038 03B0     		add	sp, sp, #12
 225              		.cfi_def_cfa_offset 20
 226              		@ sp needed
 227 003a F0BD     		pop	{r4, r5, r6, r7, pc}
 228              		.cfi_endproc
ARM GAS  /tmp/ccXL6Rl7.s 			page 5


 229              	.LFE9:
 230              		.size	chThdCreateFromHeap, .-chThdCreateFromHeap
 231              		.section	.text.chThdCreateFromMemoryPool,"ax",%progbits
 232              		.align	2
 233              		.p2align 4,,15
 234              		.global	chThdCreateFromMemoryPool
 235              		.thumb
 236              		.thumb_func
 237              		.type	chThdCreateFromMemoryPool, %function
 238              	chThdCreateFromMemoryPool:
 239              	.LFB10:
 240              		.loc 1 180 0
 241              		.cfi_startproc
 242              		@ args = 0, pretend = 0, frame = 0
 243              		@ frame_needed = 0, uses_anonymous_args = 0
 244              	.LVL14:
 245 0000 2DE9F041 		push	{r4, r5, r6, r7, r8, lr}
 246              		.cfi_def_cfa_offset 24
 247              		.cfi_offset 4, -24
 248              		.cfi_offset 5, -20
 249              		.cfi_offset 6, -16
 250              		.cfi_offset 7, -12
 251              		.cfi_offset 8, -8
 252              		.cfi_offset 14, -4
 253 0004 82B0     		sub	sp, sp, #8
 254              		.cfi_def_cfa_offset 32
 255              		.loc 1 180 0
 256 0006 0F46     		mov	r7, r1
 257 0008 1646     		mov	r6, r2
 258 000a 9846     		mov	r8, r3
 259 000c 0546     		mov	r5, r0
 260              		.loc 1 186 0
 261 000e FFF7FEFF 		bl	chPoolAlloc
 262              	.LVL15:
 263              		.loc 1 187 0
 264 0012 A0B1     		cbz	r0, .L13
 265              	.LBB10:
 266              		.loc 1 199 0
 267 0014 2023     		movs	r3, #32
 268              	@ 199 "/home/nicolas/Escritorio/Embebidos/stamp_repo/files/code/ext/ChibiOS/os/kernel/src/chdynamic
 269 0016 83F31188 		msr     BASEPRI, r3
 270              	@ 0 "" 2
 271              		.thumb
 272              	.LBE10:
 273              		.loc 1 200 0
 274 001a 6968     		ldr	r1, [r5, #4]
 275 001c 3A46     		mov	r2, r7
 276 001e 3346     		mov	r3, r6
 277 0020 CDF80080 		str	r8, [sp]
 278 0024 FFF7FEFF 		bl	chThdCreateI
 279              	.LVL16:
 280              		.loc 1 201 0
 281 0028 0223     		movs	r3, #2
 282 002a 4377     		strb	r3, [r0, #29]
 283              		.loc 1 202 0
 284 002c 4564     		str	r5, [r0, #68]
 285              		.loc 1 203 0
ARM GAS  /tmp/ccXL6Rl7.s 			page 6


 286 002e 0021     		movs	r1, #0
 287              		.loc 1 200 0
 288 0030 0446     		mov	r4, r0
 289              	.LVL17:
 290              		.loc 1 203 0
 291 0032 FFF7FEFF 		bl	chSchWakeupS
 292              	.LVL18:
 293              	.LBB11:
 294              		.loc 1 204 0
 295 0036 0023     		movs	r3, #0
 296              	@ 204 "/home/nicolas/Escritorio/Embebidos/stamp_repo/files/code/ext/ChibiOS/os/kernel/src/chdynamic
 297 0038 83F31188 		msr     BASEPRI, r3
 298              	@ 0 "" 2
 299              		.thumb
 300              	.LBE11:
 301              		.loc 1 205 0
 302 003c 2046     		mov	r0, r4
 303              	.LVL19:
 304              	.L13:
 305              		.loc 1 206 0
 306 003e 02B0     		add	sp, sp, #8
 307              		.cfi_def_cfa_offset 24
 308              		@ sp needed
 309 0040 BDE8F081 		pop	{r4, r5, r6, r7, r8, pc}
 310              		.cfi_endproc
 311              	.LFE10:
 312              		.size	chThdCreateFromMemoryPool, .-chThdCreateFromMemoryPool
 313              		.text
 314              	.Letext0:
 315              		.file 2 "/opt/gcc-arm-none-eabi-4_9-2015q3/lib/gcc/arm-none-eabi/4.9.3/include/stddef.h"
 316              		.file 3 "/opt/gcc-arm-none-eabi-4_9-2015q3/arm-none-eabi/include/machine/_default_types.h"
 317              		.file 4 "/opt/gcc-arm-none-eabi-4_9-2015q3/arm-none-eabi/include/sys/_stdint.h"
 318              		.file 5 "/home/nicolas/Escritorio/Embebidos/stamp_repo/files/code/ext/ChibiOS/os/ports/GCC/ARMCMx/
 319              		.file 6 "/home/nicolas/Escritorio/Embebidos/stamp_repo/files/code/ext/ChibiOS/os/kernel/include/ch
 320              		.file 7 "/home/nicolas/Escritorio/Embebidos/stamp_repo/files/code/ext/ChibiOS/os/kernel/include/ch
 321              		.file 8 "/home/nicolas/Escritorio/Embebidos/stamp_repo/files/code/ext/ChibiOS/os/ports/GCC/ARMCMx/
 322              		.file 9 "/home/nicolas/Escritorio/Embebidos/stamp_repo/files/code/ext/ChibiOS/os/kernel/include/ch
 323              		.file 10 "/home/nicolas/Escritorio/Embebidos/stamp_repo/files/code/ext/ChibiOS/os/kernel/include/c
 324              		.file 11 "/home/nicolas/Escritorio/Embebidos/stamp_repo/files/code/ext/ChibiOS/os/kernel/include/c
 325              		.file 12 "/home/nicolas/Escritorio/Embebidos/stamp_repo/files/code/ext/ChibiOS/os/kernel/include/c
 326              		.file 13 "/home/nicolas/Escritorio/Embebidos/stamp_repo/files/code/ext/ChibiOS/os/kernel/include/c