ARM GAS  /tmp/ccIqE2Rd.s 			page 1


   1              		.syntax unified
   2              		.cpu cortex-m3
   3              		.fpu softvfp
   4              		.eabi_attribute 20, 1
   5              		.eabi_attribute 21, 1
   6              		.eabi_attribute 23, 3
   7              		.eabi_attribute 24, 1
   8              		.eabi_attribute 25, 1
   9              		.eabi_attribute 26, 1
  10              		.eabi_attribute 30, 2
  11              		.eabi_attribute 34, 1
  12              		.eabi_attribute 18, 4
  13              		.thumb
  14              		.file	"chmtx.c"
  15              		.text
  16              	.Ltext0:
  17              		.cfi_sections	.debug_frame
  18              		.section	.text.chMtxInit,"ax",%progbits
  19              		.align	2
  20              		.p2align 4,,15
  21              		.global	chMtxInit
  22              		.thumb
  23              		.thumb_func
  24              		.type	chMtxInit, %function
  25              	chMtxInit:
  26              	.LFB7:
  27              		.file 1 "/home/nicolas/Escritorio/Embebidos/stamp_repo/files/code/ext/ChibiOS/os/kernel/src/chmtx.
  28              		.loc 1 86 0
  29              		.cfi_startproc
  30              		@ args = 0, pretend = 0, frame = 0
  31              		@ frame_needed = 0, uses_anonymous_args = 0
  32              		@ link register save eliminated.
  33              	.LVL0:
  34              		.loc 1 91 0
  35 0000 0023     		movs	r3, #0
  36              		.loc 1 90 0
  37 0002 4060     		str	r0, [r0, #4]
  38 0004 0060     		str	r0, [r0]
  39              		.loc 1 91 0
  40 0006 8360     		str	r3, [r0, #8]
  41 0008 7047     		bx	lr
  42              		.cfi_endproc
  43              	.LFE7:
  44              		.size	chMtxInit, .-chMtxInit
  45 000a 00BF     		.section	.text.chMtxLockS,"ax",%progbits
  46              		.align	2
  47              		.p2align 4,,15
  48              		.global	chMtxLockS
  49              		.thumb
  50              		.thumb_func
  51              		.type	chMtxLockS, %function
  52              	chMtxLockS:
  53              	.LFB9:
  54              		.loc 1 121 0
  55              		.cfi_startproc
  56              		@ args = 0, pretend = 0, frame = 0
  57              		@ frame_needed = 0, uses_anonymous_args = 0
ARM GAS  /tmp/ccIqE2Rd.s 			page 2


  58              	.LVL1:
  59 0000 F8B5     		push	{r3, r4, r5, r6, r7, lr}
  60              		.cfi_def_cfa_offset 24
  61              		.cfi_offset 3, -24
  62              		.cfi_offset 4, -20
  63              		.cfi_offset 5, -16
  64              		.cfi_offset 6, -12
  65              		.cfi_offset 7, -8
  66              		.cfi_offset 14, -4
  67              		.loc 1 128 0
  68 0002 8268     		ldr	r2, [r0, #8]
  69              		.loc 1 122 0
  70 0004 2F4B     		ldr	r3, .L28
  71 0006 DC69     		ldr	r4, [r3, #28]
  72              	.LVL2:
  73              		.loc 1 128 0
  74 0008 002A     		cmp	r2, #0
  75 000a 55D0     		beq	.L3
  76              	.LBB33:
  77              		.loc 1 135 0
  78 000c A168     		ldr	r1, [r4, #8]
  79 000e 9368     		ldr	r3, [r2, #8]
  80 0010 0546     		mov	r5, r0
  81              	.LVL3:
  82 0012 9942     		cmp	r1, r3
  83 0014 06D9     		bls	.L5
  84              	.LVL4:
  85              	.L10:
  86              		.loc 1 139 0
  87 0016 137F     		ldrb	r3, [r2, #28]	@ zero_extendqisi2
  88              		.loc 1 137 0
  89 0018 9160     		str	r1, [r2, #8]
  90              		.loc 1 139 0
  91 001a 042B     		cmp	r3, #4
  92 001c 33D0     		beq	.L6
  93 001e 052B     		cmp	r3, #5
  94 0020 1DD0     		beq	.L7
  95 0022 9BB1     		cbz	r3, .L27
  96              	.LVL5:
  97              	.L5:
  98              	.LBB34:
  99              	.LBB35:
 100              		.file 2 "/home/nicolas/Escritorio/Embebidos/stamp_repo/files/code/ext/ChibiOS/os/kernel/include/ch
 101              		.loc 2 43 0
 102 0024 2B46     		mov	r3, r5
 103 0026 03E0     		b	.L18
 104              	.LVL6:
 105              	.L17:
 106              		.loc 2 46 0
 107 0028 9968     		ldr	r1, [r3, #8]
 108 002a A268     		ldr	r2, [r4, #8]
 109 002c 9142     		cmp	r1, r2
 110 002e 02D3     		bcc	.L19
 111              	.L18:
 112              		.loc 2 45 0
 113 0030 1B68     		ldr	r3, [r3]
 114              	.LVL7:
ARM GAS  /tmp/ccIqE2Rd.s 			page 3


 115              		.loc 2 46 0
 116 0032 9D42     		cmp	r5, r3
 117 0034 F8D1     		bne	.L17
 118              	.L19:
 119              		.loc 2 48 0
 120 0036 5A68     		ldr	r2, [r3, #4]
 121              		.loc 2 47 0
 122 0038 2360     		str	r3, [r4]
 123              		.loc 2 48 0
 124 003a 6260     		str	r2, [r4, #4]
 125              		.loc 2 49 0
 126 003c 5C60     		str	r4, [r3, #4]
 127 003e 1460     		str	r4, [r2]
 128              	.LBE35:
 129              	.LBE34:
 130              		.loc 1 174 0
 131 0040 6562     		str	r5, [r4, #36]
 132              		.loc 1 175 0
 133 0042 0420     		movs	r0, #4
 134              	.LBE33:
 135              		.loc 1 187 0
 136 0044 BDE8F840 		pop	{r3, r4, r5, r6, r7, lr}
 137              		.cfi_remember_state
 138              		.cfi_restore 14
 139              		.cfi_restore 7
 140              		.cfi_restore 6
 141              		.cfi_restore 5
 142              		.cfi_restore 4
 143              		.cfi_restore 3
 144              		.cfi_def_cfa_offset 0
 145              	.LVL8:
 146              	.LBB58:
 147              		.loc 1 175 0
 148 0048 FFF7FEBF 		b	chSchGoSleepS
 149              	.LVL9:
 150              	.L27:
 151              		.cfi_restore_state
 152              	.LBB36:
 153              	.LBB37:
 154              		.loc 2 75 0
 155 004c 92E80A00 		ldmia	r2, {r1, r3}
 156 0050 1960     		str	r1, [r3]
 157              	.LBE37:
 158              	.LBE36:
 159              		.loc 1 167 0
 160 0052 1046     		mov	r0, r2
 161              	.LBB39:
 162              	.LBB38:
 163              		.loc 2 76 0
 164 0054 1268     		ldr	r2, [r2]
 165              	.LVL10:
 166 0056 5360     		str	r3, [r2, #4]
 167              	.LBE38:
 168              	.LBE39:
 169              		.loc 1 167 0
 170 0058 FFF7FEFF 		bl	chSchReadyI
 171              	.LVL11:
ARM GAS  /tmp/ccIqE2Rd.s 			page 4


 172              		.loc 1 168 0
 173 005c E2E7     		b	.L5
 174              	.LVL12:
 175              	.L7:
 176              	.LBB40:
 177              	.LBB41:
 178              		.loc 2 75 0
 179 005e 1768     		ldr	r7, [r2]
 180 0060 5068     		ldr	r0, [r2, #4]
 181              	.LBE41:
 182              	.LBE40:
 183              		.loc 1 158 0
 184 0062 566A     		ldr	r6, [r2, #36]
 185              	.LVL13:
 186              	.LBB44:
 187              	.LBB42:
 188              		.loc 2 75 0
 189 0064 0760     		str	r7, [r0]
 190              		.loc 2 76 0
 191 0066 1768     		ldr	r7, [r2]
 192              	.LBE42:
 193              	.LBE44:
 194              	.LBB45:
 195              	.LBB46:
 196              		.loc 2 43 0
 197 0068 3346     		mov	r3, r6
 198              	.LBE46:
 199              	.LBE45:
 200              	.LBB48:
 201              	.LBB43:
 202              		.loc 2 76 0
 203 006a 7860     		str	r0, [r7, #4]
 204 006c 02E0     		b	.L15
 205              	.LVL14:
 206              	.L14:
 207              	.LBE43:
 208              	.LBE48:
 209              	.LBB49:
 210              	.LBB47:
 211              		.loc 2 46 0
 212 006e 9868     		ldr	r0, [r3, #8]
 213 0070 8842     		cmp	r0, r1
 214 0072 02D3     		bcc	.L16
 215              	.L15:
 216              		.loc 2 45 0
 217 0074 1B68     		ldr	r3, [r3]
 218              	.LVL15:
 219              		.loc 2 46 0
 220 0076 9E42     		cmp	r6, r3
 221 0078 F9D1     		bne	.L14
 222              	.L16:
 223              		.loc 2 48 0
 224 007a 5968     		ldr	r1, [r3, #4]
 225              		.loc 2 47 0
 226 007c 1360     		str	r3, [r2]
 227              		.loc 2 48 0
 228 007e 5160     		str	r1, [r2, #4]
ARM GAS  /tmp/ccIqE2Rd.s 			page 5


 229              		.loc 2 49 0
 230 0080 5A60     		str	r2, [r3, #4]
 231 0082 0A60     		str	r2, [r1]
 232 0084 CEE7     		b	.L5
 233              	.LVL16:
 234              	.L6:
 235              	.LBE47:
 236              	.LBE49:
 237              	.LBB50:
 238              	.LBB51:
 239              		.loc 2 75 0
 240 0086 1768     		ldr	r7, [r2]
 241 0088 5068     		ldr	r0, [r2, #4]
 242              	.LBE51:
 243              	.LBE50:
 244              		.loc 1 142 0
 245 008a 566A     		ldr	r6, [r2, #36]
 246              	.LVL17:
 247              	.LBB54:
 248              	.LBB52:
 249              		.loc 2 75 0
 250 008c 0760     		str	r7, [r0]
 251              		.loc 2 76 0
 252 008e 1768     		ldr	r7, [r2]
 253              	.LBE52:
 254              	.LBE54:
 255              		.loc 1 142 0
 256 0090 3346     		mov	r3, r6
 257              	.LBB55:
 258              	.LBB53:
 259              		.loc 2 76 0
 260 0092 7860     		str	r0, [r7, #4]
 261 0094 02E0     		b	.L12
 262              	.LVL18:
 263              	.L9:
 264              	.LBE53:
 265              	.LBE55:
 266              	.LBB56:
 267              	.LBB57:
 268              		.loc 2 46 0
 269 0096 9868     		ldr	r0, [r3, #8]
 270 0098 8842     		cmp	r0, r1
 271 009a 02D3     		bcc	.L13
 272              	.L12:
 273              		.loc 2 45 0
 274 009c 1B68     		ldr	r3, [r3]
 275              	.LVL19:
 276              		.loc 2 46 0
 277 009e 9E42     		cmp	r6, r3
 278 00a0 F9D1     		bne	.L9
 279              	.L13:
 280              		.loc 2 48 0
 281 00a2 5968     		ldr	r1, [r3, #4]
 282              		.loc 2 47 0
 283 00a4 1360     		str	r3, [r2]
 284              		.loc 2 48 0
 285 00a6 5160     		str	r1, [r2, #4]
ARM GAS  /tmp/ccIqE2Rd.s 			page 6


 286              		.loc 2 49 0
 287 00a8 5A60     		str	r2, [r3, #4]
 288 00aa 0A60     		str	r2, [r1]
 289              	.LBE57:
 290              	.LBE56:
 291              		.loc 1 143 0
 292 00ac B268     		ldr	r2, [r6, #8]
 293              	.LVL20:
 294              		.loc 1 135 0
 295 00ae A168     		ldr	r1, [r4, #8]
 296 00b0 9368     		ldr	r3, [r2, #8]
 297              	.LVL21:
 298 00b2 8B42     		cmp	r3, r1
 299 00b4 AFD3     		bcc	.L10
 300 00b6 B5E7     		b	.L5
 301              	.LVL22:
 302              	.L3:
 303              	.LBE58:
 304              		.loc 1 184 0
 305 00b8 E36B     		ldr	r3, [r4, #60]
 306              		.loc 1 183 0
 307 00ba 8460     		str	r4, [r0, #8]
 308              		.loc 1 184 0
 309 00bc C360     		str	r3, [r0, #12]
 310              		.loc 1 185 0
 311 00be E063     		str	r0, [r4, #60]
 312 00c0 F8BD     		pop	{r3, r4, r5, r6, r7, pc}
 313              	.LVL23:
 314              	.L29:
 315 00c2 00BF     		.align	2
 316              	.L28:
 317 00c4 00000000 		.word	rlist
 318              		.cfi_endproc
 319              	.LFE9:
 320              		.size	chMtxLockS, .-chMtxLockS
 321              		.section	.text.chMtxLock,"ax",%progbits
 322              		.align	2
 323              		.p2align 4,,15
 324              		.global	chMtxLock
 325              		.thumb
 326              		.thumb_func
 327              		.type	chMtxLock, %function
 328              	chMtxLock:
 329              	.LFB8:
 330              		.loc 1 103 0
 331              		.cfi_startproc
 332              		@ args = 0, pretend = 0, frame = 0
 333              		@ frame_needed = 0, uses_anonymous_args = 0
 334              	.LVL24:
 335 0000 08B5     		push	{r3, lr}
 336              		.cfi_def_cfa_offset 8
 337              		.cfi_offset 3, -8
 338              		.cfi_offset 14, -4
 339              	.LBB59:
 340              		.loc 1 105 0
 341 0002 2023     		movs	r3, #32
 342              	@ 105 "/home/nicolas/Escritorio/Embebidos/stamp_repo/files/code/ext/ChibiOS/os/kernel/src/chmtx.c" 
ARM GAS  /tmp/ccIqE2Rd.s 			page 7


 343 0004 83F31188 		msr     BASEPRI, r3
 344              	@ 0 "" 2
 345              		.thumb
 346              	.LBE59:
 347              		.loc 1 107 0
 348 0008 FFF7FEFF 		bl	chMtxLockS
 349              	.LVL25:
 350              	.LBB60:
 351              		.loc 1 109 0
 352 000c 0023     		movs	r3, #0
 353              	@ 109 "/home/nicolas/Escritorio/Embebidos/stamp_repo/files/code/ext/ChibiOS/os/kernel/src/chmtx.c" 
 354 000e 83F31188 		msr     BASEPRI, r3
 355              	@ 0 "" 2
 356              		.thumb
 357 0012 08BD     		pop	{r3, pc}
 358              	.LBE60:
 359              		.cfi_endproc
 360              	.LFE8:
 361              		.size	chMtxLock, .-chMtxLock
 362              		.section	.text.chMtxTryLock,"ax",%progbits
 363              		.align	2
 364              		.p2align 4,,15
 365              		.global	chMtxTryLock
 366              		.thumb
 367              		.thumb_func
 368              		.type	chMtxTryLock, %function
 369              	chMtxTryLock:
 370              	.LFB10:
 371              		.loc 1 206 0
 372              		.cfi_startproc
 373              		@ args = 0, pretend = 0, frame = 0
 374              		@ frame_needed = 0, uses_anonymous_args = 0
 375              		@ link register save eliminated.
 376              	.LVL26:
 377              		.loc 1 206 0
 378 0000 0246     		mov	r2, r0
 379              	.LBB67:
 380              		.loc 1 209 0
 381 0002 2023     		movs	r3, #32
 382              	@ 209 "/home/nicolas/Escritorio/Embebidos/stamp_repo/files/code/ext/ChibiOS/os/kernel/src/chmtx.c" 
 383 0004 83F31188 		msr     BASEPRI, r3
 384              	@ 0 "" 2
 385              	.LVL27:
 386              		.thumb
 387              	.LBE67:
 388              	.LBB68:
 389              	.LBB69:
 390              		.loc 1 239 0
 391 0008 8368     		ldr	r3, [r0, #8]
 392              		.loc 1 240 0
 393 000a 0020     		movs	r0, #0
 394              	.LVL28:
 395              		.loc 1 239 0
 396 000c 1BB1     		cbz	r3, .L35
 397              	.LBE69:
 398              	.LBE68:
 399              	.LBB73:
ARM GAS  /tmp/ccIqE2Rd.s 			page 8


 400              		.loc 1 213 0
 401 000e 0023     		movs	r3, #0
 402              	@ 213 "/home/nicolas/Escritorio/Embebidos/stamp_repo/files/code/ext/ChibiOS/os/kernel/src/chmtx.c" 
 403 0010 83F31188 		msr     BASEPRI, r3
 404              	@ 0 "" 2
 405              		.thumb
 406              	.LBE73:
 407              		.loc 1 215 0
 408 0014 7047     		bx	lr
 409              	.L35:
 410              	.LVL29:
 411              	.LBB74:
 412              	.LBB72:
 413              	.LBB70:
 414              	.LBB71:
 415              		.loc 1 241 0
 416 0016 054B     		ldr	r3, .L36
 417              		.loc 1 243 0
 418 0018 0120     		movs	r0, #1
 419              		.loc 1 241 0
 420 001a DB69     		ldr	r3, [r3, #28]
 421              		.loc 1 242 0
 422 001c D96B     		ldr	r1, [r3, #60]
 423              		.loc 1 241 0
 424 001e 9360     		str	r3, [r2, #8]
 425              		.loc 1 242 0
 426 0020 D160     		str	r1, [r2, #12]
 427              		.loc 1 243 0
 428 0022 DA63     		str	r2, [r3, #60]
 429              	.LBE71:
 430              	.LBE70:
 431              	.LBE72:
 432              	.LBE74:
 433              	.LBB75:
 434              		.loc 1 213 0
 435 0024 0023     		movs	r3, #0
 436              	@ 213 "/home/nicolas/Escritorio/Embebidos/stamp_repo/files/code/ext/ChibiOS/os/kernel/src/chmtx.c" 
 437 0026 83F31188 		msr     BASEPRI, r3
 438              	@ 0 "" 2
 439              		.thumb
 440              	.LBE75:
 441              		.loc 1 215 0
 442 002a 7047     		bx	lr
 443              	.L37:
 444              		.align	2
 445              	.L36:
 446 002c 00000000 		.word	rlist
 447              		.cfi_endproc
 448              	.LFE10:
 449              		.size	chMtxTryLock, .-chMtxTryLock
 450              		.section	.text.chMtxTryLockS,"ax",%progbits
 451              		.align	2
 452              		.p2align 4,,15
 453              		.global	chMtxTryLockS
 454              		.thumb
 455              		.thumb_func
 456              		.type	chMtxTryLockS, %function
ARM GAS  /tmp/ccIqE2Rd.s 			page 9


 457              	chMtxTryLockS:
 458              	.LFB11:
 459              		.loc 1 234 0
 460              		.cfi_startproc
 461              		@ args = 0, pretend = 0, frame = 0
 462              		@ frame_needed = 0, uses_anonymous_args = 0
 463              		@ link register save eliminated.
 464              	.LVL30:
 465              		.loc 1 239 0
 466 0000 8268     		ldr	r2, [r0, #8]
 467              		.loc 1 234 0
 468 0002 0346     		mov	r3, r0
 469              		.loc 1 239 0
 470 0004 0AB1     		cbz	r2, .L41
 471              		.loc 1 240 0
 472 0006 0020     		movs	r0, #0
 473              	.LVL31:
 474              		.loc 1 245 0
 475 0008 7047     		bx	lr
 476              	.LVL32:
 477              	.L41:
 478              	.LBB78:
 479              	.LBB79:
 480              		.loc 1 241 0
 481 000a 044A     		ldr	r2, .L42
 482              		.loc 1 243 0
 483 000c 0120     		movs	r0, #1
 484              	.LVL33:
 485              		.loc 1 241 0
 486 000e D269     		ldr	r2, [r2, #28]
 487              		.loc 1 242 0
 488 0010 D16B     		ldr	r1, [r2, #60]
 489              		.loc 1 241 0
 490 0012 9A60     		str	r2, [r3, #8]
 491              		.loc 1 242 0
 492 0014 D960     		str	r1, [r3, #12]
 493              		.loc 1 243 0
 494 0016 D363     		str	r3, [r2, #60]
 495 0018 7047     		bx	lr
 496              	.L43:
 497 001a 00BF     		.align	2
 498              	.L42:
 499 001c 00000000 		.word	rlist
 500              	.LBE79:
 501              	.LBE78:
 502              		.cfi_endproc
 503              	.LFE11:
 504              		.size	chMtxTryLockS, .-chMtxTryLockS
 505              		.section	.text.chMtxUnlock,"ax",%progbits
 506              		.align	2
 507              		.p2align 4,,15
 508              		.global	chMtxUnlock
 509              		.thumb
 510              		.thumb_func
 511              		.type	chMtxUnlock, %function
 512              	chMtxUnlock:
 513              	.LFB12:
ARM GAS  /tmp/ccIqE2Rd.s 			page 10


 514              		.loc 1 257 0
 515              		.cfi_startproc
 516              		@ args = 0, pretend = 0, frame = 0
 517              		@ frame_needed = 0, uses_anonymous_args = 0
 518              		.loc 1 258 0
 519 0000 174A     		ldr	r2, .L55
 520              		.loc 1 257 0
 521 0002 38B5     		push	{r3, r4, r5, lr}
 522              		.cfi_def_cfa_offset 16
 523              		.cfi_offset 3, -16
 524              		.cfi_offset 4, -12
 525              		.cfi_offset 5, -8
 526              		.cfi_offset 14, -4
 527              		.loc 1 258 0
 528 0004 D069     		ldr	r0, [r2, #28]
 529              	.LVL34:
 530              	.LBB80:
 531              		.loc 1 261 0
 532 0006 2023     		movs	r3, #32
 533              	@ 261 "/home/nicolas/Escritorio/Embebidos/stamp_repo/files/code/ext/ChibiOS/os/kernel/src/chmtx.c" 
 534 0008 83F31188 		msr     BASEPRI, r3
 535              	@ 0 "" 2
 536              		.thumb
 537              	.LBE80:
 538              		.loc 1 270 0
 539 000c C46B     		ldr	r4, [r0, #60]
 540              	.LVL35:
 541              		.loc 1 273 0
 542 000e 2568     		ldr	r5, [r4]
 543              		.loc 1 271 0
 544 0010 E368     		ldr	r3, [r4, #12]
 545              		.loc 1 273 0
 546 0012 A542     		cmp	r5, r4
 547              		.loc 1 271 0
 548 0014 C363     		str	r3, [r0, #60]
 549              		.loc 1 273 0
 550 0016 1CD0     		beq	.L45
 551              	.LBB81:
 552              		.loc 1 278 0
 553 0018 016C     		ldr	r1, [r0, #64]
 554              	.LVL36:
 555              		.loc 1 280 0
 556 001a 4BB1     		cbz	r3, .L46
 557              	.L48:
 558              		.loc 1 284 0
 559 001c 1A68     		ldr	r2, [r3]
 560 001e 9A42     		cmp	r2, r3
 561 0020 03D0     		beq	.L47
 562              		.loc 1 284 0 is_stmt 0 discriminator 1
 563 0022 9268     		ldr	r2, [r2, #8]
 564 0024 9142     		cmp	r1, r2
 565 0026 38BF     		it	cc
 566 0028 1146     		movcc	r1, r2
 567              	.LVL37:
 568              	.L47:
 569              		.loc 1 286 0 is_stmt 1
 570 002a DB68     		ldr	r3, [r3, #12]
ARM GAS  /tmp/ccIqE2Rd.s 			page 11


 571              	.LVL38:
 572              		.loc 1 280 0
 573 002c 002B     		cmp	r3, #0
 574 002e F5D1     		bne	.L48
 575              	.L46:
 576              	.LBB82:
 577              	.LBB83:
 578              		.loc 2 62 0
 579 0030 2B68     		ldr	r3, [r5]
 580              	.LVL39:
 581              	.LBE83:
 582              	.LBE82:
 583              		.loc 1 295 0
 584 0032 EA6B     		ldr	r2, [r5, #60]
 585              		.loc 1 290 0
 586 0034 8160     		str	r1, [r0, #8]
 587              	.LVL40:
 588              	.LBB86:
 589              	.LBB84:
 590              		.loc 2 62 0
 591 0036 2360     		str	r3, [r4]
 592              	.LBE84:
 593              	.LBE86:
 594              		.loc 1 297 0
 595 0038 2846     		mov	r0, r5
 596              	.LVL41:
 597              	.LBB87:
 598              	.LBB85:
 599              		.loc 2 62 0
 600 003a 5C60     		str	r4, [r3, #4]
 601              	.LBE85:
 602              	.LBE87:
 603              		.loc 1 297 0
 604 003c 0021     		movs	r1, #0
 605              	.LVL42:
 606              		.loc 1 294 0
 607 003e A560     		str	r5, [r4, #8]
 608              		.loc 1 295 0
 609 0040 E260     		str	r2, [r4, #12]
 610              		.loc 1 296 0
 611 0042 EC63     		str	r4, [r5, #60]
 612              		.loc 1 297 0
 613 0044 FFF7FEFF 		bl	chSchWakeupS
 614              	.LVL43:
 615              	.LBE81:
 616              	.LBB88:
 617              		.loc 1 301 0
 618 0048 0023     		movs	r3, #0
 619              	@ 301 "/home/nicolas/Escritorio/Embebidos/stamp_repo/files/code/ext/ChibiOS/os/kernel/src/chmtx.c" 
 620 004a 83F31188 		msr     BASEPRI, r3
 621              	@ 0 "" 2
 622              		.thumb
 623              	.LBE88:
 624              		.loc 1 303 0
 625 004e 2046     		mov	r0, r4
 626 0050 38BD     		pop	{r3, r4, r5, pc}
 627              	.LVL44:
ARM GAS  /tmp/ccIqE2Rd.s 			page 12


 628              	.L45:
 629              		.loc 1 300 0
 630 0052 0023     		movs	r3, #0
 631 0054 A360     		str	r3, [r4, #8]
 632              	.LBB89:
 633              		.loc 1 301 0
 634 0056 0023     		movs	r3, #0
 635              	@ 301 "/home/nicolas/Escritorio/Embebidos/stamp_repo/files/code/ext/ChibiOS/os/kernel/src/chmtx.c" 
 636 0058 83F31188 		msr     BASEPRI, r3
 637              	@ 0 "" 2
 638              		.thumb
 639              	.LBE89:
 640              		.loc 1 303 0
 641 005c 2046     		mov	r0, r4
 642              	.LVL45:
 643 005e 38BD     		pop	{r3, r4, r5, pc}
 644              	.LVL46:
 645              	.L56:
 646              		.align	2
 647              	.L55:
 648 0060 00000000 		.word	rlist
 649              		.cfi_endproc
 650              	.LFE12:
 651              		.size	chMtxUnlock, .-chMtxUnlock
 652              		.section	.text.chMtxUnlockS,"ax",%progbits
 653              		.align	2
 654              		.p2align 4,,15
 655              		.global	chMtxUnlockS
 656              		.thumb
 657              		.thumb_func
 658              		.type	chMtxUnlockS, %function
 659              	chMtxUnlockS:
 660              	.LFB13:
 661              		.loc 1 317 0
 662              		.cfi_startproc
 663              		@ args = 0, pretend = 0, frame = 0
 664              		@ frame_needed = 0, uses_anonymous_args = 0
 665 0000 38B5     		push	{r3, r4, r5, lr}
 666              		.cfi_def_cfa_offset 16
 667              		.cfi_offset 3, -16
 668              		.cfi_offset 4, -12
 669              		.cfi_offset 5, -8
 670              		.cfi_offset 14, -4
 671              		.loc 1 318 0
 672 0002 124B     		ldr	r3, .L68
 673 0004 D869     		ldr	r0, [r3, #28]
 674              	.LVL47:
 675              		.loc 1 331 0
 676 0006 C46B     		ldr	r4, [r0, #60]
 677              	.LVL48:
 678              		.loc 1 334 0
 679 0008 2568     		ldr	r5, [r4]
 680              		.loc 1 332 0
 681 000a E368     		ldr	r3, [r4, #12]
 682              		.loc 1 334 0
 683 000c A542     		cmp	r5, r4
 684              		.loc 1 332 0
ARM GAS  /tmp/ccIqE2Rd.s 			page 13


 685 000e C363     		str	r3, [r0, #60]
 686              		.loc 1 334 0
 687 0010 18D0     		beq	.L58
 688              	.LBB90:
 689              		.loc 1 339 0
 690 0012 016C     		ldr	r1, [r0, #64]
 691              	.LVL49:
 692              		.loc 1 341 0
 693 0014 4BB1     		cbz	r3, .L59
 694              	.L61:
 695              		.loc 1 345 0
 696 0016 1A68     		ldr	r2, [r3]
 697 0018 9A42     		cmp	r2, r3
 698 001a 03D0     		beq	.L60
 699              		.loc 1 345 0 is_stmt 0 discriminator 1
 700 001c 9268     		ldr	r2, [r2, #8]
 701 001e 9142     		cmp	r1, r2
 702 0020 38BF     		it	cc
 703 0022 1146     		movcc	r1, r2
 704              	.LVL50:
 705              	.L60:
 706              		.loc 1 347 0 is_stmt 1
 707 0024 DB68     		ldr	r3, [r3, #12]
 708              	.LVL51:
 709              		.loc 1 341 0
 710 0026 002B     		cmp	r3, #0
 711 0028 F5D1     		bne	.L61
 712              	.L59:
 713              		.loc 1 354 0
 714 002a EA6B     		ldr	r2, [r5, #60]
 715              	.LBB91:
 716              	.LBB92:
 717              		.loc 2 62 0
 718 002c 2B68     		ldr	r3, [r5]
 719              	.LVL52:
 720              	.LBE92:
 721              	.LBE91:
 722              		.loc 1 349 0
 723 002e 8160     		str	r1, [r0, #8]
 724              	.LVL53:
 725              	.LBB95:
 726              	.LBB93:
 727              		.loc 2 62 0
 728 0030 2360     		str	r3, [r4]
 729              	.LBE93:
 730              	.LBE95:
 731              		.loc 1 356 0
 732 0032 2846     		mov	r0, r5
 733              	.LVL54:
 734              	.LBB96:
 735              	.LBB94:
 736              		.loc 2 62 0
 737 0034 5C60     		str	r4, [r3, #4]
 738              	.LBE94:
 739              	.LBE96:
 740              		.loc 1 353 0
 741 0036 A560     		str	r5, [r4, #8]
ARM GAS  /tmp/ccIqE2Rd.s 			page 14


 742              		.loc 1 354 0
 743 0038 E260     		str	r2, [r4, #12]
 744              		.loc 1 355 0
 745 003a EC63     		str	r4, [r5, #60]
 746              		.loc 1 356 0
 747 003c FFF7FEFF 		bl	chSchReadyI
 748              	.LVL55:
 749              	.LBE90:
 750              		.loc 1 361 0
 751 0040 2046     		mov	r0, r4
 752 0042 38BD     		pop	{r3, r4, r5, pc}
 753              	.LVL56:
 754              	.L58:
 755              		.loc 1 359 0
 756 0044 0023     		movs	r3, #0
 757 0046 A360     		str	r3, [r4, #8]
 758              		.loc 1 361 0
 759 0048 2046     		mov	r0, r4
 760              	.LVL57:
 761 004a 38BD     		pop	{r3, r4, r5, pc}
 762              	.LVL58:
 763              	.L69:
 764              		.align	2
 765              	.L68:
 766 004c 00000000 		.word	rlist
 767              		.cfi_endproc
 768              	.LFE13:
 769              		.size	chMtxUnlockS, .-chMtxUnlockS
 770              		.section	.text.chMtxUnlockAll,"ax",%progbits
 771              		.align	2
 772              		.p2align 4,,15
 773              		.global	chMtxUnlockAll
 774              		.thumb
 775              		.thumb_func
 776              		.type	chMtxUnlockAll, %function
 777              	chMtxUnlockAll:
 778              	.LFB14:
 779              		.loc 1 374 0
 780              		.cfi_startproc
 781              		@ args = 0, pretend = 0, frame = 0
 782              		@ frame_needed = 0, uses_anonymous_args = 0
 783              		.loc 1 375 0
 784 0000 134A     		ldr	r2, .L82
 785              		.loc 1 374 0
 786 0002 70B5     		push	{r4, r5, r6, lr}
 787              		.cfi_def_cfa_offset 16
 788              		.cfi_offset 4, -16
 789              		.cfi_offset 5, -12
 790              		.cfi_offset 6, -8
 791              		.cfi_offset 14, -4
 792              	.LBB97:
 793              		.loc 1 377 0
 794 0004 2023     		movs	r3, #32
 795              	.LBE97:
 796              		.loc 1 375 0
 797 0006 D469     		ldr	r4, [r2, #28]
 798              	.LVL59:
ARM GAS  /tmp/ccIqE2Rd.s 			page 15


 799              	.LBB98:
 800              		.loc 1 377 0
 801              	@ 377 "/home/nicolas/Escritorio/Embebidos/stamp_repo/files/code/ext/ChibiOS/os/kernel/src/chmtx.c" 
 802 0008 83F31188 		msr     BASEPRI, r3
 803              	@ 0 "" 2
 804              		.thumb
 805              	.LBE98:
 806              		.loc 1 378 0
 807 000c E36B     		ldr	r3, [r4, #60]
 808 000e D3B1     		cbz	r3, .L71
 809              	.LBB99:
 810              		.loc 1 390 0
 811 0010 0026     		movs	r6, #0
 812 0012 0BE0     		b	.L74
 813              	.LVL60:
 814              	.L81:
 815              	.LBB100:
 816              		.loc 1 385 0
 817 0014 D56B     		ldr	r5, [r2, #60]
 818              	.LBB101:
 819              	.LBB102:
 820              		.loc 2 62 0
 821 0016 1168     		ldr	r1, [r2]
 822              	.LBE102:
 823              	.LBE101:
 824              		.loc 1 387 0
 825 0018 1046     		mov	r0, r2
 826              	.LBB104:
 827              	.LBB103:
 828              		.loc 2 62 0
 829 001a 1960     		str	r1, [r3]
 830 001c 4B60     		str	r3, [r1, #4]
 831              	.LBE103:
 832              	.LBE104:
 833              		.loc 1 384 0
 834 001e 9A60     		str	r2, [r3, #8]
 835              		.loc 1 385 0
 836 0020 DD60     		str	r5, [r3, #12]
 837              		.loc 1 386 0
 838 0022 D363     		str	r3, [r2, #60]
 839              		.loc 1 387 0
 840 0024 FFF7FEFF 		bl	chSchReadyI
 841              	.LVL61:
 842              	.LBE100:
 843              	.LBE99:
 844              		.loc 1 391 0
 845 0028 E36B     		ldr	r3, [r4, #60]
 846 002a 43B1     		cbz	r3, .L80
 847              	.L74:
 848              	.LVL62:
 849              	.LBB105:
 850              		.loc 1 382 0
 851 002c 1A68     		ldr	r2, [r3]
 852              	.LVL63:
 853              		.loc 1 381 0
 854 002e D968     		ldr	r1, [r3, #12]
 855              		.loc 1 382 0
ARM GAS  /tmp/ccIqE2Rd.s 			page 16


 856 0030 9A42     		cmp	r2, r3
 857              		.loc 1 381 0
 858 0032 E163     		str	r1, [r4, #60]
 859              		.loc 1 382 0
 860 0034 EED1     		bne	.L81
 861              		.loc 1 390 0
 862 0036 9E60     		str	r6, [r3, #8]
 863              	.LBE105:
 864              		.loc 1 391 0
 865 0038 E36B     		ldr	r3, [r4, #60]
 866              	.LVL64:
 867 003a 002B     		cmp	r3, #0
 868 003c F6D1     		bne	.L74
 869              	.LVL65:
 870              	.L80:
 871              		.loc 1 392 0
 872 003e 236C     		ldr	r3, [r4, #64]
 873 0040 A360     		str	r3, [r4, #8]
 874              		.loc 1 393 0
 875 0042 FFF7FEFF 		bl	chSchRescheduleS
 876              	.LVL66:
 877              	.L71:
 878              	.LBB106:
 879              		.loc 1 395 0
 880 0046 0023     		movs	r3, #0
 881              	@ 395 "/home/nicolas/Escritorio/Embebidos/stamp_repo/files/code/ext/ChibiOS/os/kernel/src/chmtx.c" 
 882 0048 83F31188 		msr     BASEPRI, r3
 883              	@ 0 "" 2
 884              		.thumb
 885 004c 70BD     		pop	{r4, r5, r6, pc}
 886              	.LVL67:
 887              	.L83:
 888 004e 00BF     		.align	2
 889              	.L82:
 890 0050 00000000 		.word	rlist
 891              	.LBE106:
 892              		.cfi_endproc
 893              	.LFE14:
 894              		.size	chMtxUnlockAll, .-chMtxUnlockAll
 895              		.text
 896              	.Letext0:
 897              		.file 3 "/opt/gcc-arm-none-eabi-4_9-2015q3/arm-none-eabi/include/machine/_default_types.h"
 898              		.file 4 "/opt/gcc-arm-none-eabi-4_9-2015q3/arm-none-eabi/include/sys/_stdint.h"
 899              		.file 5 "/home/nicolas/Escritorio/Embebidos/stamp_repo/files/code/ext/ChibiOS/os/ports/GCC/ARMCMx/
 900              		.file 6 "/home/nicolas/Escritorio/Embebidos/stamp_repo/files/code/ext/ChibiOS/os/kernel/include/ch
 901              		.file 7 "/home/nicolas/Escritorio/Embebidos/stamp_repo/files/code/ext/ChibiOS/os/kernel/include/ch
 902              		.file 8 "/home/nicolas/Escritorio/Embebidos/stamp_repo/files/code/ext/ChibiOS/os/ports/GCC/ARMCMx/
 903              		.file 9 "/home/nicolas/Escritorio/Embebidos/stamp_repo/files/code/ext/ChibiOS/os/kernel/include/ch
 904              		.file 10 "/home/nicolas/Escritorio/Embebidos/stamp_repo/files/code/ext/ChibiOS/os/kernel/include/c