ARM GAS  /tmp/ccIqE2Rd.s 			page 1


   1              		.syntax unified
   2              		.cpu cortex-m3
   3              		.fpu softvfp
   4              		.eabi_attribute 20, 1
   5              		.eabi_attribute 21, 1
   6              		.eabi_attribute 23, 3
   7              		.eabi_attribute 24, 1
   8              		.eabi_attribute 25, 1
   9              		.eabi_attribute 26, 1
  10              		.eabi_attribute 30, 2
  11              		.eabi_attribute 34, 1
  12              		.eabi_attribute 18, 4
  13              		.thumb
  14              		.file	"chmtx.c"
  15              		.text
  16              	.Ltext0:
  17              		.cfi_sections	.debug_frame
  18              		.section	.text.chMtxInit,"ax",%progbits
  19              		.align	2
  20              		.p2align 4,,15
  21              		.global	chMtxInit
  22              		.thumb
  23              		.thumb_func
  24              		.type	chMtxInit, %function
  25              	chMtxInit:
  26              	.LFB7:
  27              		.file 1 "/home/nicolas/Escritorio/Embebidos/stamp_repo/files/code/ext/ChibiOS/os/kernel/src/chmtx.
  28              		.loc 1 86 0
  29              		.cfi_startproc
  30              		@ args = 0, pretend = 0, frame = 0
  31              		@ frame_needed = 0, uses_anonymous_args = 0
  32              		@ link register save eliminated.
  33              	.LVL0:
  34              		.loc 1 91 0
  35 0000 0023     		movs	r3, #0
  36              		.loc 1 90 0
  37 0002 4060     		str	r0, [r0, #4]
  38 0004 0060     		str	r0, [r0]
  39              		.loc 1 91 0
  40 0006 8360     		str	r3, [r0, #8]
  41 0008 7047     		bx	lr
  42              		.cfi_endproc
  43              	.LFE7:
  44              		.size	chMtxInit, .-chMtxInit
  45 000a 00BF     		.section	.text.chMtxLockS,"ax",%progbits
  46              		.align	2
  47              		.p2align 4,,15
  48              		.global	chMtxLockS
  49              		.thumb
  50              		.thumb_func
  51              		.type	chMtxLockS, %function
  52              	chMtxLockS:
  53              	.LFB9:
  54              		.loc 1 121 0
  55              		.cfi_startproc
  56              		@ args = 0, pretend = 0, frame = 0
  57              		@ frame_needed = 0, uses_anonymous_args = 0
ARM GAS  /tmp/ccIqE2Rd.s 			page 2


  58              	.LVL1:
  59 0000 F8B5     		push	{r3, r4, r5, r6, r7, lr}
  60              		.cfi_def_cfa_offset 24
  61              		.cfi_offset 3, -24
  62              		.cfi_offset 4, -20
  63              		.cfi_offset 5, -16
  64              		.cfi_offset 6, -12
  65              		.cfi_offset 7, -8
  66              		.cfi_offset 14, -4
  67              		.loc 1 128 0
  68 0002 8268     		ldr	r2, [r0, #8]
  69              		.loc 1 122 0
  70 0004 2F4B     		ldr	r3, .L28
  71 0006 DC69     		ldr	r4, [r3, #28]
  72              	.LVL2:
  73              		.loc 1 128 0
  74 0008 002A     		cmp	r2, #0
  75 000a 55D0     		beq	.L3
  76              	.LBB33:
  77              		.loc 1 135 0
  78 000c A168     		ldr	r1, [r4, #8]
  79 000e 9368     		ldr	r3, [r2, #8]
  80 0010 0546     		mov	r5, r0
  81              	.LVL3:
  82 0012 9942     		cmp	r1, r3
  83 0014 06D9     		bls	.L5
  84              	.LVL4:
  85              	.L10:
  86              		.loc 1 139 0
  87 0016 137F     		ldrb	r3, [r2, #28]	@ zero_extendqisi2
  88              		.loc 1 137 0
  89 0018 9160     		str	r1, [r2, #8]
  90              		.loc 1 139 0
  91 001a 042B     		cmp	r3, #4
  92 001c 33D0     		beq	.L6
  93 001e 052B     		cmp	r3, #5
  94 0020 1DD0     		beq	.L7
  95 0022 9BB1     		cbz	r3, .L27
  96              	.LVL5:
  97              	.L5:
  98              	.LBB34:
  99              	.LBB35:
 100              		.file 2 "/home/nicolas/Escritorio/Embebidos/stamp_repo/files/code/ext/ChibiOS/os/kernel/include/ch
 101              		.loc 2 43 0
 102 0024 2B46     		mov	r3, r5
 103 0026 03E0     		b	.L18
 104              	.LVL6:
 105              	.L17:
 106              		.loc 2 46 0
 107 0028 9968     		ldr	r1, [r3, #8]
 108 002a A268     		ldr	r2, [r4, #8]
 109 002c 9142     		cmp	r1, r2
 110 002e 02D3     		bcc	.L19
 111              	.L18:
 112              		.loc 2 45 0
 113 0030 1B68     		ldr	r3, [r3]
 114              	.LVL7:
ARM GAS  /tmp/ccIqE2Rd.s 			page 3


 115              		.loc 2 46 0
 116 0032 9D42     		cmp	r5, r3
 117 0034 F8D1     		bne	.L17
 118              	.L19:
 119              		.loc 2 48 0
 120 0036 5A68     		ldr	r2, [r3, #4]
 121              		.loc 2 47 0
 122 0038 2360     		str	r3, [r4]
 123              		.loc 2 48 0
 124 003a 6260     		str	r2, [r4, #4]
 125              		.loc 2 49 0
 126 003c 5C60     		str	r4, [r3, #4]
 127 003e 1460     		str	r4, [r2]
 128              	.LBE35:
 129              	.LBE34:
 130              		.loc 1 174 0
 131 0040 6562     		str	r5, [r4, #36]
 132              		.loc 1 175 0
 133 0042 0420     		movs	r0, #4
 134              	.LBE33:
 135              		.loc 1 187 0
 136 0044 BDE8F840 		pop	{r3, r4, r5, r6, r7, lr}
 137              		.cfi_remember_state
 138              		.cfi_restore 14
 139              		.cfi_restore 7
 140              		.cfi_restore 6
 141              		.cfi_restore 5
 142              		.cfi_restore 4
 143              		.cfi_restore 3
 144              		.cfi_def_cfa_offset 0
 145              	.LVL8:
 146              	.LBB58:
 147              		.loc 1 175 0
 148 0048 FFF7FEBF 		b	chSchGoSleepS
 149              	.LVL9:
 150              	.L27:
 151              		.cfi_restore_state
 152              	.LBB36:
 153              	.LBB37:
 154              		.loc 2 75 0
 155 004c 92E80A00 		ldmia	r2, {r1, r3}
 156 0050 1960     		str	r1, [r3]
 157              	.LBE37:
 158              	.LBE36:
 159              		.loc 1 167 0
 160 0052 1046     		mov	r0, r2
 161              	.LBB39:
 162              	.LBB38:
 163              		.loc 2 76 0
 164 0054 1268     		ldr	r2, [r2]
 165              	.LVL10:
 166 0056 5360     		str	r3, [r2, #4]
 167              	.LBE38:
 168              	.LBE39:
 169              		.loc 1 167 0
 170 0058 FFF7FEFF 		bl	chSchReadyI
 171              	.LVL11:
ARM GAS  /tmp/ccIqE2Rd.s 			page 4


 172              		.loc 1 168 0
 173 005c E2E7     		b	.L5
 174              	.LVL12:
 175              	.L7:
 176              	.LBB40:
 177              	.LBB41:
 178              		.loc 2 75 0
 179 005e 1768     		ldr	r7, [r2]
 180 0060 5068     		ldr	r0, [r2, #4]
 181              	.LBE41:
 182              	.LBE40:
 183              		.loc 1 158 0
 184 0062 566A     		ldr	r6, [r2, #36]
 185              	.LVL13:
 186              	.LBB44:
 187              	.LBB42:
 188              		.loc 2 75 0
 189 0064 0760     		str	r7, [r0]
 190              		.loc 2 76 0
 191 0066 1768     		ldr	r7, [r2]
 192              	.LBE42:
 193              	.LBE44:
 194              	.LBB45:
 195              	.LBB46:
 196              		.loc 2 43 0
 197 0068 3346     		mov	r3, r6
 198              	.LBE46:
 199              	.LBE45:
 200              	.LBB48:
 201              	.LBB43:
 202              		.loc 2 76 0
 203 006a 7860     		str	r0, [r7, #4]
 204 006c 02E0     		b	.L15
 205              	.LVL14:
 206              	.L14:
 207              	.LBE43:
 208              	.LBE48:
 209              	.LBB49:
 210              	.LBB47:
 211              		.loc 2 46 0
 212 006e 9868     		ldr	r0, [r3, #8]
 213 0070 8842     		cmp	r0, r1
 214 0072 02D3     		bcc	.L16
 215              	.L15:
 216              		.loc 2 45 0
 217 0074 1B68     		ldr	r3, [r3]
 218              	.LVL15:
 219              		.loc 2 46 0
 220 0076 9E42     		cmp	r6, r3
 221 0078 F9D1     		bne	.L14
 222              	.L16:
 223              		.loc 2 48 0
 224 007a 5968     		ldr	r1, [r3, #4]
 225              		.loc 2 47 0
 226 007c 1360     		str	r3, [r2]
 227              		.loc 2 48 0
 228 007e 5160     		str	r1, [r2, #4]
ARM GAS  /tmp/ccIqE2Rd.s 			page 5


 229              		.loc 2 49 0
 230 0080 5A60     		str	r2, [r3, #4]
 231 0082 0A60     		str	r2, [r1]
 232 0084 CEE7     		b	.L5
 233              	.LVL16:
 234              	.L6:
 235              	.LBE47:
 236              	.LBE49:
 237              	.LBB50:
 238              	.LBB51:
 239              		.loc 2 75 0
 240 0086 1768     		ldr	r7, [r2]
 241 0088 5068     		ldr	r0, [r2, #4]
 242              	.LBE51:
 243              	.LBE50:
 244              		.loc 1 142 0
 245 008a 566A     		ldr	r6, [r2, #36]
 246              	.LVL17:
 247              	.LBB54:
 248              	.LBB52:
 249              		.loc 2 75 0
 250 008c 0760     		str	r7, [r0]
 251              		.loc 2 76 0
 252 008e 1768     		ldr	r7, [r2]
 253              	.LBE52:
 254              	.LBE54:
 255              		.loc 1 142 0
 256 0090 3346     		mov	r3, r6
 257              	.LBB55:
 258              	.LBB53:
 259              		.loc 2 76 0
 260 0092 7860     		str	r0, [r7, #4]
 261 0094 02E0     		b	.L12
 262              	.LVL18:
 263              	.L9:
 264              	.LBE53:
 265              	.LBE55:
 266              	.LBB56:
 267              	.LBB57:
 268              		.loc 2 46 0
 269 0096 9868     		ldr	r0, [r3, #8]
 270 0098 8842     		cmp	r0, r1
 271 009a 02D3     		bcc	.L13
 272              	.L12:
 273              		.loc 2 45 0
 274 009c 1B68     		ldr	r3, [r3]
 275              	.LVL19:
 276              		.loc 2 46 0
 277 009e 9E42     		cmp	r6, r3
 278 00a0 F9D1     		bne	.L9
 279              	.L13:
 280              		.loc 2 48 0
 281 00a2 5968     		ldr	r1, [r3, #4]
 282              		.loc 2 47 0
 283 00a4 1360     		str	r3, [r2]
 284              		.loc 2 48 0
 285 00a6 5160     		str	r1, [r2, #4]
ARM GAS  /tmp/ccIqE2Rd.s 			page 6


 286              		.loc 2 49 0
 287 00a8 5A60     		str	r2, [r3, #4]
 288 00aa 0A60     		str	r2, [r1]
 289              	.LBE57:
 290              	.LBE56:
 291              		.loc 1 143 0
 292 00ac B268     		ldr	r2, [r6, #8]
 293              	.LVL20:
 294              		.loc 1 135 0
 295 00ae A168     		ldr	r1, [r4, #8]
 296 00b0 9368     		ldr	r3, [r2, #8]
 297              	.LVL21:
 298 00b2 8B42     		cmp	r3, r1
 299 00b4 AFD3     		bcc	.L10
 300 00b6 B5E7     		b	.L5
 301              	.LVL22:
 302              	.L3:
 303              	.LBE58:
 304              		.loc 1 184 0
 305 00b8 E36B     		ldr	r3, [r4, #60]
 306              		.loc 1 183 0
 307 00ba 8460     		str	r4, [r0, #8]
 308              		.loc 1 184 0
 309 00bc C360     		str	r3, [r0, #12]
 310              		.loc 1 185 0
 311 00be E063     		str	r0, [r4, #60]
 312 00c0 F8BD     		pop	{r3, r4, r5, r6, r7, pc}
 313              	.LVL23:
 314              	.L29:
 315 00c2 00BF     		.align	2
 316              	.L28:
 317 00c4 00000000 		.word	rlist
 318              		.cfi_endproc
 319              	.LFE9:
 320              		.size	chMtxLockS, .-chMtxLockS
 321              		.section	.text.chMtxLock,"ax",%progbits
 322              		.align	2
 323              		.p2align 4,,15
 324              		.global	chMtxLock
 325              		.thumb
 326              		.thumb_func
 327              		.type	chMtxLock, %function
 328              	chMtxLock:
 329              	.LFB8:
 330              		.loc 1 103 0
 331              		.cfi_startproc
 332              		@ args = 0, pretend = 0, frame = 0
 333              		@ frame_needed = 0, uses_anonymous_args = 0
 334              	.LVL24:
 335 0000 08B5     		push	{r3, lr}
 336              		.cfi_def_cfa_offset 8
 337              		.cfi_offset 3, -8
 338              		.cfi_offset 14, -4
 339              	.LBB59:
 340              		.loc 1 105 0
 341 0002 2023     		movs	r3, #32
 342              	@ 105 "/home/nicolas/Escritorio/Embebidos/stamp_repo/files/code/ext/ChibiOS/os/kernel/src/chmtx.c" 
ARM GAS  /tmp/ccIqE2Rd.s 			page 7


 343 0004 83F31188 		msr     BASEPRI, r3
 344              	@ 0 "" 2
 345              		.thumb
 346              	.LBE59:
 347              		.loc 1 107 0
 348 0008 FFF7FEFF 		bl	chMtxLockS
 349              	.LVL25:
 350              	.LBB60:
 351              		.loc 1 109 0
 352 000c 0023     		movs	r3, #0
 353              	@ 109 "/home/nicolas/Escritorio/Embebidos/stamp_repo/files/code/ext/ChibiOS/os/kernel/src/chmtx.c" 
 354 000e 83F31188 		msr     BASEPRI, r3
 355              	@ 0 "" 2
 356              		.thumb
 357 0012 08BD     		pop	{r3, pc}
 358              	.LBE60:
 359              		.cfi_endproc
 360              	.LFE8:
 361              		.size	chMtxLock, .-chMtxLock
 362              		.section	.text.chMtxTryLock,"ax",%progbits
 363              		.align	2
 364              		.p2align 4,,15
 365              		.global	chMtxTryLock
 366              		.thumb
 367              		.thumb_func
 368              		.type	chMtxTryLock, %function
 369              	chMtxTryLock:
 370              	.LFB10:
 371              		.loc 1 206 0
 372              		.cfi_startproc
 373              		@ args = 0, pretend = 0, frame = 0
 374              		@ frame_needed = 0, uses_anonymous_args = 0
 375              		@ link register save eliminated.
 376              	.LVL26:
 377              		.loc 1 206 0
 378 0000 0246     		mov	r2, r0
 379              	.LBB67:
 380              		.loc 1 209 0
 381 0002 2023     		movs	r3, #32
 382              	@ 209 "/home/nicolas/Escritorio/Embebidos/stamp_repo/files/code/ext/ChibiOS/os/kernel/src/chmtx.c" 
 383 0004 83F31188 		msr     BASEPRI, r3
 384              	@ 0 "" 2
 385              	.LVL27:
 386              		.thumb
 387              	.LBE67:
 388              	.LBB68:
 389              	.LBB69:
 390              		.loc 1 239 0
 391 0008 8368     		ldr	r3, [r0, #8]
 392              		.loc 1 240 0
 393 000a 0020     		movs	r0, #0
 394              	.LVL28:
 395              		.loc 1 239 0
 396 000c 1BB1     		cbz	r3, .L35
 397              	.LBE69:
 398              	.LBE68:
 399              	.LBB73:
ARM GAS  /tmp/ccIqE2Rd.s 			page 8


 400              		.loc 1 213 0
 401 000e 0023     		movs	r3, #0
 402              	@ 213 "/home/nicolas/Escritorio/Embebidos/stamp_repo/files/code/ext/ChibiOS/os/kernel/src/chmtx.c" 
 403 0010 83F31188 		msr     BASEPRI, r3
 404              	@ 0 "" 2
 405              		.thumb
 406              	.LBE73:
 407              		.loc 1 215 0
 408 0014 7047     		bx	lr
 409              	.L35:
 410              	.LVL29:
 411              	.LBB74:
 412              	.LBB72:
 413              	.LBB70:
 414              	.LBB71:
 415              		.loc 1 241 0
 416 0016 054B     		ldr	r3, .L36
 417              		.loc 1 243 0
 418 0018 0120     		movs	r0, #1
 419              		.loc 1 241 0
 420 001a DB69     		ldr	r3, [r3, #28]
 421              		.loc 1 242 0
 422 001c D96B     		ldr	r1, [r3, #60]
 423              		.loc 1 241 0
 424 001e 9360     		str	r3, [r2, #8]
 425              		.loc 1 242 0
 426 0020 D160     		str	r1, [r2, #12]
 427              		.loc 1 243 0
 428 0022 DA63     		str	r2, [r3, #60]
 429              	.LBE71:
 430              	.LBE70:
 431              	.LBE72:
 432              	.LBE74:
 433              	.LBB75:
 434              		.loc 1 213 0
 435 0024 0023     		movs	r3, #0
 436              	@ 213 "/home/nicolas/Escritorio/Embebidos/stamp_repo/files/code/ext/ChibiOS/os/kernel/src/chmtx.c" 
 437 0026 83F31188 		msr     BASEPRI, r3
 438              	@ 0 "" 2
 439              		.thumb
 440              	.LBE75:
 441              		.loc 1 215 0
 442 002a 7047     		bx	lr
 443              	.L37:
 444              		.align	2
 445              	.L36:
 446 002c 00000000 		.word	rlist
 447              		.cfi_endproc
 448              	.LFE10:
 449              		.size	chMtxTryLock, .-chMtxTryLock
 450              		.section	.text.chMtxTryLockS,"ax",%progbits
 451              		.align	2
 452              		.p2align 4,,15
 453              		.global	chMtxTryLockS
 454              		.thumb
 455              		.thumb_func
 456              		.type	chMtxTryLockS, %function
ARM GAS  /tmp/ccIqE2Rd.s 			page 9


 457              	chMtxTryLockS:
 458              	.LFB11:
 459              		.loc 1 234 0
 460              		.cfi_startproc
 461              		@ args = 0, pretend = 0, frame = 0
 462              		@ frame_needed = 0, uses_anonymous_args = 0
 463              		@ link register save eliminated.
 464              	.LVL30:
 465              		.loc 1 239 0
 466 0000 8268     		ldr	r2, [r0, #8]
 467              		.loc 1 234 0
 468 0002 0346     		mov	r3, r0
 469              		.loc 1 239 0
 470 0004 0AB1     		cbz	r2, .L41
 471              		.loc 1 240 0
 472 0006 0020     		movs	r0, #0
 473              	.LVL31:
 474              		.loc 1 245 0
 475 0008 7047     		bx	lr
 476              	.LVL32:
 477              	.L41:
 478              	.LBB78:
 479              	.LBB79:
 480              		.loc 1 241 0
 481 000a 044A     		ldr	r2, .L42
 482              		.loc 1 243 0
 483 000c 0120     		movs	r0, #1
 484              	.LVL33:
 485              		.loc 1 241 0
 486 000e D269     		ldr	r2, [r2, #28]
 487              		.loc 1 242 0
 488 0010 D16B     		ldr	r1, [r2, #60]
 489              		.loc 1 241 0
 490 0012 9A60     		str	r2, [r3, #8]
 491              		.loc 1 242 0
 492 0014 D960     		str	r1, [r3, #12]
 493              		.loc 1 243 0
 494 0016 D363     		str	r3, [r2, #60]
 495 0018 7047     		bx	lr
 496              	.L43:
 497 001a 00BF     		.align	2
 498              	.L42:
 499 001c 00000000 		.word	rlist
 500              	.LBE79:
 501              	.LBE78:
 502              		.cfi_endproc
 503              	.LFE11:
 504              		.size	chMtxTryLockS, .-chMtxTryLockS
 505              		.section	.text.chMtxUnlock,"ax",%progbits
 506              		.align	2
 507              		.p2align 4,,15
 508              		.global	chMtxUnlock
 509              		.thumb
 510              		.thumb_func
 511              		.type	chMtxUnlock, %function
 512              	chMtxUnlock:
 513              	.LFB12:
ARM GAS  /tmp/ccIqE2Rd.s 			page 10


 514              		.loc 1 257 0
 515              		.cfi_startproc
 516              		@ args = 0, pretend = 0, frame = 0
 517              		@ frame_needed = 0, uses_anonymous_args = 0
 518              		.loc 1 258 0
 519 0000 174A     		ldr	r2, .L55
 520              		.loc 1 257 0
 521 0002 38B5     		push	{r3, r4, r5, lr}
 522              		.cfi_def_cfa_offset 16
 523              		.cfi_offset 3, -16
 524              		.cfi_offset 4, -12
 525              		.cfi_offset 5, -8
 526              		.cfi_offset 14, -4
 527              		.loc 1 258 0
 528 0004 D069     		ldr	r0, [r2, #28]
 529              	.LVL34:
 530              	.LBB80:
 531              		.loc 1 261 0
 532 0006 2023     		movs	r3, #32
 533              	@ 261 "/home/nicolas/Escritorio/Embebidos/stamp_repo/files/code/ext/ChibiOS/os/kernel/src/chmtx.c" 
 534 0008 83F31188 		msr     BASEPRI, r3
 535              	@ 0 "" 2
 536              		.thumb
 537              	.LBE80:
 538              		.loc 1 270 0
 539 000c C46B     		ldr	r4, [r0, #60]
 540              	.LVL35:
 541              		.loc 1 273 0
 542 000e 2568     		ldr	r5, [r4]
 543              		.loc 1 271 0
 544 0010 E368     		ldr	r3, [r4, #12]
 545              		.loc 1 273 0
 546 0012 A542     		cmp	r5, r4
 547              		.loc 1 271 0
 548 0014 C363     		str	r3, [r0, #60]
 549              		.loc 1 273 0
 550 0016 1CD0     		beq	.L45
 551              	.LBB81:
 552              		.loc 1 278 0
 553 0018 016C     		ldr	r1, [r0, #64]
 554              	.LVL36:
 555              		.loc 1 280 0
 556 001a 4BB1     		cbz	r3, .L46
 557              	.L48:
 558              		.loc 1 284 0
 559 001c 1A68     		ldr	r2, [r3]
 560 001e 9A42     		cmp	r2, r3
 561 0020 03D0     		beq	.L47
 562              		.loc 1 284 0 is_stmt 0 discriminator 1
 563 0022 9268     		ldr	r2, [r2, #8]
 564 0024 9142     		cmp	r1, r2
 565 0026 38BF     		it	cc
 566 0028 1146     		movcc	r1, r2
 567              	.LVL37:
 568              	.L47:
 569              		.loc 1 286 0 is_stmt 1
 570 002a DB68     		ldr	r3, [r3, #12]
ARM GAS  /tmp/ccIqE2Rd.s 			page 11


 571              	.LVL38:
 572              		.loc 1 280 0
 573 002c 002B     		cmp	r3, #0
 574 002e F5D1     		bne	.L48
 575              	.L46:
 576              	.LBB82:
 577              	.LBB83:
 578              		.loc 2 62 0
 579 0030 2B68     		ldr	r3, [r5]
 580              	.LVL39:
 581              	.LBE83:
 582              	.LBE82:
 583              		.loc 1 295 0
 584 0032 EA6B     		ldr	r2, [r5, #60]
 585              		.loc 1 290 0
 586 0034 8160     		str	r1, [r0, #8]
 587              	.LVL40:
 588              	.LBB86:
 589              	.LBB84:
 590              		.loc 2 62 0
 591 0036 2360     		str	r3, [r4]
 592              	.LBE84:
 593              	.LBE86:
 594              		.loc 1 297 0
 595 0038 2846     		mov	r0, r5
 596              	.LVL41:
 597              	.LBB87:
 598              	.LBB85:
 599              		.loc 2 62 0
 600 003a 5C60     		str	r4, [r3, #4]
 601              	.LBE85:
 602              	.LBE87:
 603              		.loc 1 297 0
 604 003c 0021     		movs	r1, #0
 605              	.LVL42:
 606              		.loc 1 294 0
 607 003e A560     		str	r5, [r4, #8]
 608              		.loc 1 295 0
 609 0040 E260     		str	r2, [r4, #12]
 610              		.loc 1 296 0
 611 0042 EC63     		str	r4, [r5, #60]
 612              		.loc 1 297 0
 613 0044 FFF7FEFF 		bl	chSchWakeupS
 614              	.LVL43:
 615              	.LBE81:
 616              	.LBB88:
 617              		.loc 1 301 0
 618 0048 0023     		movs	r3, #0
 619              	@ 301 "/home/nicolas/Escritorio/Embebidos/stamp_repo/files/code/ext/ChibiOS/os/kernel/src/chmtx.c" 
 620 004a 83F31188 		msr     BASEPRI, r3
 621              	@ 0 "" 2
 622              		.thumb
 623              	.LBE88:
 624              		.loc 1 303 0
 625 004e 2046     		mov	r0, r4
 626 0050 38BD     		pop	{r3, r4, r5, pc}
 627              	.LVL44:
ARM GAS  /tmp/ccIqE2Rd.s 			page 12


 628              	.L45:
 629              		.loc 1 300 0
 630 0052 0023     		movs	r3, #0
 631 0054 A360     		str	r3, [r4, #8]
 632              	.LBB89:
 633              		.loc 1 301 0
 634 0056 0023     		movs	r3, #0
 635              	@ 301 "/home/nicolas/Escritorio/Embebidos/stamp_repo/files/code/ext/ChibiOS/os/kernel/src/chmtx.c" 
 636 0058 83F31188 		msr     BASEPRI, r3
 637              	@ 0 "" 2
 638              		.thumb
 639              	.LBE89:
 640              		.loc 1 303 0
 641 005c 2046     		mov	r0, r4
 642              	.LVL45:
 643 005e 38BD     		pop	{r3, r4, r5, pc}
 644              	.LVL46:
 645              	.L56:
 646              		.align	2
 647              	.L55:
 648 0060 00000000 		.word	rlist
 649              		.cfi_endproc
 650              	.LFE12:
 651              		.size	chMtxUnlock, .-chMtxUnlock
 652              		.section	.text.chMtxUnlockS,"ax",%progbits
 653              		.align	2
 654              		.p2align 4,,15
 655              		.global	chMtxUnlockS
 656              		.thumb
 657              		.thumb_func
 658              		.type	chMtxUnlockS, %function
 659              	chMtxUnlockS:
 660              	.LFB13:
 661              		.loc 1 317 0
 662              		.cfi_startproc
 663              		@ args = 0, pretend = 0, frame = 0
 664              		@ frame_needed = 0, uses_anonymous_args = 0
 665 0000 38B5     		push	{r3, r4, r5, lr}
 666              		.cfi_def_cfa_offset 16
 667              		.cfi_offset 3, -16
 668              		.cfi_offset 4, -12
 669              		.cfi_offset 5, -8
 670              		.cfi_offset 14, -4
 671              		.loc 1 318 0
 672 0002 124B     		ldr	r3, .L68
 673 0004 D869     		ldr	r0, [r3, #28]
 674              	.LVL47:
 675              		.loc 1 331 0
 676 0006 C46B     		ldr	r4, [r0, #60]
 677              	.LVL48:
 678              		.loc 1 334 0
 679 0008 2568     		ldr	r5, [r4]
 680              		.loc 1 332 0
 681 000a E368     		ldr	r3, [r4, #12]
 682              		.loc 1 334 0
 683 000c A542     		cmp	r5, r4
 684              		.loc 1 332 0
ARM GAS  /tmp/ccIqE2Rd.s 			page 13


 685 000e C363     		str	r3, [r0, #60]
 686              		.loc 1 334 0
 687 0010 18D0     		beq	.L58
 688              	.LBB90:
 689              		.loc 1 339 0
 690 0012 016C     		ldr	r1, [r0, #64]
 691              	.LVL49:
 692              		.loc 1 341 0
 693 0014 4BB1     		cbz	r3, .L59
 694              	.L61:
 695              		.loc 1 345 0
 696 0016 1A68     		ldr	r2, [r3]
 697 0018 9A42     		cmp	r2, r3
 698 001a 03D0     		beq	.L60
 699              		.loc 1 345 0 is_stmt 0 discriminator 1
 700 001c 9268     		ldr	r2, [r2, #8]
 701 001e 9142     		cmp	r1, r2
 702 0020 38BF     		it	cc
 703 0022 1146     		movcc	r1, r2
 704              	.LVL50:
 705              	.L60:
 706              		.loc 1 347 0 is_stmt 1
 707 0024 DB68     		ldr	r3, [r3, #12]
 708              	.LVL51:
 709              		.loc 1 341 0
 710 0026 002B     		cmp	r3, #0
 711 0028 F5D1     		bne	.L61
 712              	.L59:
 713              		.loc 1 354 0
 714 002a EA6B     		ldr	r2, [r5, #60]
 715              	.LBB91:
 716              	.LBB92:
 717              		.loc 2 62 0
 718 002c 2B68     		ldr	r3, [r5]
 719              	.LVL52:
 720              	.LBE92:
 721              	.LBE91:
 722              		.loc 1 349 0
 723 002e 8160     		str	r1, [r0, #8]
 724              	.LVL53:
 725              	.LBB95:
 726              	.LBB93:
 727              		.loc 2 62 0
 728 0030 2360     		str	r3, [r4]
 729              	.LBE93:
 730              	.LBE95:
 731              		.loc 1 356 0
 732 0032 2846     		mov	r0, r5
 733              	.LVL54:
 734              	.LBB96:
 735              	.LBB94:
 736              		.loc 2 62 0
 737 0034 5C60     		str	r4, [r3, #4]
 738              	.LBE94:
 739              	.LBE96:
 740              		.loc 1 353 0
 741 0036 A560     		str	r5, [r4, #8]
ARM GAS  /tmp/ccIqE2Rd.s 			page 14


 742              		.loc 1 354 0
 743 0038 E260     		str	r2, [r4, #12]
 744              		.loc 1 355 0
 745 003a EC63     		str	r4, [r5, #60]
 746              		.loc 1 356 0
 747 003c FFF7FEFF 		bl	chSchReadyI
 748              	.LVL55:
 749              	.LBE90:
 750              		.loc 1 361 0
 751 0040 2046     		mov	r0, r4
 752 0042 38BD     		pop	{r3, r4, r5, pc}
 753              	.LVL56:
 754              	.L58:
 755              		.loc 1 359 0
 756 0044 0023     		movs	r3, #0
 757 0046 A360     		str	r3, [r4, #8]
 758              		.loc 1 361 0
 759 0048 2046     		mov	r0, r4
 760              	.LVL57:
 761 004a 38BD     		pop	{r3, r4, r5, pc}
 762              	.LVL58:
 763              	.L69:
 764              		.align	2
 765              	.L68:
 766 004c 00000000 		.word	rlist
 767              		.cfi_endproc
 768              	.LFE13:
 769              		.size	chMtxUnlockS, .-chMtxUnlockS
 770              		.section	.text.chMtxUnlockAll,"ax",%progbits
 771              		.align	2
 772              		.p2align 4,,15
 773              		.global	chMtxUnlockAll
 774              		.thumb
 775              		.thumb_func
 776              		.type	chMtxUnlockAll, %function
 777              	chMtxUnlockAll:
 778              	.LFB14:
 779              		.loc 1 374 0
 780              		.cfi_startproc
 781              		@ args = 0, pretend = 0, frame = 0
 782              		@ frame_needed = 0, uses_anonymous_args = 0
 783              		.loc 1 375 0
 784 0000 134A     		ldr	r2, .L82
 785              		.loc 1 374 0
 786 0002 70B5     		push	{r4, r5, r6, lr}
 787              		.cfi_def_cfa_offset 16
 788              		.cfi_offset 4, -16
 789              		.cfi_offset 5, -12
 790              		.cfi_offset 6, -8
 791              		.cfi_offset 14, -4
 792              	.LBB97:
 793              		.loc 1 377 0
 794 0004 2023     		movs	r3, #32
 795              	.LBE97:
 796              		.loc 1 375 0
 797 0006 D469     		ldr	r4, [r2, #28]
 798              	.LVL59:
ARM GAS  /tmp/ccIqE2Rd.s 			page 15


 799              	.LBB98:
 800              		.loc 1 377 0
 801              	@ 377 "/home/nicolas/Escritorio/Embebidos/stamp_repo/files/code/ext/ChibiOS/os/kernel/src/chmtx.c" 
 802 0008 83F31188 		msr     BASEPRI, r3
 803              	@ 0 "" 2
 804              		.thumb
 805              	.LBE98:
 806              		.loc 1 378 0
 807 000c E36B     		ldr	r3, [r4, #60]
 808 000e D3B1     		cbz	r3, .L71
 809              	.LBB99:
 810              		.loc 1 390 0
 811 0010 0026     		movs	r6, #0
 812 0012 0BE0     		b	.L74
 813              	.LVL60:
 814              	.L81:
 815              	.LBB100:
 816              		.loc 1 385 0
 817 0014 D56B     		ldr	r5, [r2, #60]
 818              	.LBB101:
 819              	.LBB102:
 820              		.loc 2 62 0
 821 0016 1168     		ldr	r1, [r2]
 822              	.LBE102:
 823              	.LBE101:
 824              		.loc 1 387 0
 825 0018 1046     		mov	r0, r2
 826              	.LBB104:
 827              	.LBB103:
 828              		.loc 2 62 0
 829 001a 1960     		str	r1, [r3]
 830 001c 4B60     		str	r3, [r1, #4]
 831              	.LBE103:
 832              	.LBE104:
 833              		.loc 1 384 0
 834 001e 9A60     		str	r2, [r3, #8]
 835              		.loc 1 385 0
 836 0020 DD60     		str	r5, [r3, #12]
 837              		.loc 1 386 0
 838 0022 D363     		str	r3, [r2, #60]
 839              		.loc 1 387 0
 840 0024 FFF7FEFF 		bl	chSchReadyI
 841              	.LVL61:
 842              	.LBE100:
 843              	.LBE99:
 844              		.loc 1 391 0
 845 0028 E36B     		ldr	r3, [r4, #60]
 846 002a 43B1     		cbz	r3, .L80
 847              	.L74:
 848              	.LVL62:
 849              	.LBB105:
 850              		.loc 1 382 0
 851 002c 1A68     		ldr	r2, [r3]
 852              	.LVL63:
 853              		.loc 1 381 0
 854 002e D968     		ldr	r1, [r3, #12]
 855              		.loc 1 382 0
ARM GAS  /tmp/ccIqE2Rd.s 			page 16


 856 0030 9A42     		cmp	r2, r3
 857              		.loc 1 381 0
 858 0032 E163     		str	r1, [r4, #60]
 859              		.loc 1 382 0
 860 0034 EED1     		bne	.L81
 861              		.loc 1 390 0
 862 0036 9E60     		str	r6, [r3, #8]
 863              	.LBE105:
 864              		.loc 1 391 0
 865 0038 E36B     		ldr	r3, [r4, #60]
 866              	.LVL64:
 867 003a 002B     		cmp	r3, #0
 868 003c F6D1     		bne	.L74
 869              	.LVL65:
 870              	.L80:
 871              		.loc 1 392 0
 872 003e 236C     		ldr	r3, [r4, #64]
 873 0040 A360     		str	r3, [r4, #8]
 874              		.loc 1 393 0
 875 0042 FFF7FEFF 		bl	chSchRescheduleS
 876              	.LVL66:
 877              	.L71:
 878              	.LBB106:
 879              		.loc 1 395 0
 880 0046 0023     		movs	r3, #0
 881              	@ 395 "/home/nicolas/Escritorio/Embebidos/stamp_repo/files/code/ext/ChibiOS/os/kernel/src/chmtx.c" 
 882 0048 83F31188 		msr     BASEPRI, r3
 883              	@ 0 "" 2
 884              		.thumb
 885 004c 70BD     		pop	{r4, r5, r6, pc}
 886              	.LVL67:
 887              	.L83:
 888 004e 00BF     		.align	2
 889              	.L82:
 890 0050 00000000 		.word	rlist
 891              	.LBE106:
 892              		.cfi_endproc
 893              	.LFE14:
 894              		.size	chMtxUnlockAll, .-chMtxUnlockAll
 895              		.text
 896              	.Letext0:
 897              		.file 3 "/opt/gcc-arm-none-eabi-4_9-2015q3/arm-none-eabi/include/machine/_default_types.h"
 898              		.file 4 "/opt/gcc-arm-none-eabi-4_9-2015q3/arm-none-eabi/include/sys/_stdint.h"
 899              		.file 5 "/home/nicolas/Escritorio/Embebidos/stamp_repo/files/code/ext/ChibiOS/os/ports/GCC/ARMCMx/
 900              		.file 6 "/home/nicolas/Escritorio/Embebidos/stamp_repo/files/code/ext/ChibiOS/os/kernel/include/ch
 901              		.file 7 "/home/nicolas/Escritorio/Embebidos/stamp_repo/files/code/ext/ChibiOS/os/kernel/include/ch
 902              		.file 8 "/home/nicolas/Escritorio/Embebidos/stamp_repo/files/code/ext/ChibiOS/os/ports/GCC/ARMCMx/
 903              		.file 9 "/home/nicolas/Escritorio/Embebidos/stamp_repo/files/code/ext/ChibiOS/os/kernel/include/ch
 904              		.file 10 "/home/nicolas/Escritorio/Embebidos/stamp_repo/files/code/ext/ChibiOS/os/kernel/include/c
 905              		.section	.debug_info,"",%progbits
 906              	.Ldebug_info0:
 907 0000 E4090000 		.4byte	0x9e4
 908 0004 0400     		.2byte	0x4
 909 0006 00000000 		.4byte	.Ldebug_abbrev0
 910 000a 04       		.byte	0x4
 911 000b 01       		.uleb128 0x1
 912 000c 17000000 		.4byte	.LASF80
ARM GAS  /tmp/ccIqE2Rd.s 			page 17


 913 0010 01       		.byte	0x1
 914 0011 E8030000 		.4byte	.LASF81
 915 0015 58010000 		.4byte	.Ldebug_ranges0+0x158
 916 0019 00000000 		.4byte	0
 917 001d 00000000 		.4byte	.Ldebug_line0
 918 0021 02       		.uleb128 0x2
 919 0022 04       		.byte	0x4
 920 0023 05       		.byte	0x5
 921 0024 696E7400 		.ascii	"int\000"
 922 0028 03       		.uleb128 0x3
 923 0029 04       		.byte	0x4
 924 002a 07       		.byte	0x7
 925 002b CB010000 		.4byte	.LASF0
 926 002f 03       		.uleb128 0x3
 927 0030 01       		.byte	0x1
 928 0031 06       		.byte	0x6
 929 0032 3D010000 		.4byte	.LASF1
 930 0036 04       		.uleb128 0x4
 931 0037 0D000000 		.4byte	.LASF5
 932 003b 03       		.byte	0x3
 933 003c 1D       		.byte	0x1d
 934 003d 41000000 		.4byte	0x41
 935 0041 03       		.uleb128 0x3
 936 0042 01       		.byte	0x1
 937 0043 08       		.byte	0x8
 938 0044 C4020000 		.4byte	.LASF2
 939 0048 03       		.uleb128 0x3
 940 0049 02       		.byte	0x2
 941 004a 05       		.byte	0x5
 942 004b DC020000 		.4byte	.LASF3
 943 004f 03       		.uleb128 0x3
 944 0050 02       		.byte	0x2
 945 0051 07       		.byte	0x7
 946 0052 F2010000 		.4byte	.LASF4
 947 0056 04       		.uleb128 0x4
 948 0057 75030000 		.4byte	.LASF6
 949 005b 03       		.byte	0x3
 950 005c 3F       		.byte	0x3f
 951 005d 61000000 		.4byte	0x61
 952 0061 03       		.uleb128 0x3
 953 0062 04       		.byte	0x4
 954 0063 05       		.byte	0x5
 955 0064 60010000 		.4byte	.LASF7
 956 0068 04       		.uleb128 0x4
 957 0069 A4010000 		.4byte	.LASF8
 958 006d 03       		.byte	0x3
 959 006e 41       		.byte	0x41
 960 006f 73000000 		.4byte	0x73
 961 0073 03       		.uleb128 0x3
 962 0074 04       		.byte	0x4
 963 0075 07       		.byte	0x7
 964 0076 D8010000 		.4byte	.LASF9
 965 007a 03       		.uleb128 0x3
 966 007b 08       		.byte	0x8
 967 007c 05       		.byte	0x5
 968 007d 2F010000 		.4byte	.LASF10
 969 0081 03       		.uleb128 0x3
ARM GAS  /tmp/ccIqE2Rd.s 			page 18


 970 0082 08       		.byte	0x8
 971 0083 07       		.byte	0x7
 972 0084 FC000000 		.4byte	.LASF11
 973 0088 04       		.uleb128 0x4
 974 0089 D9030000 		.4byte	.LASF12
 975 008d 04       		.byte	0x4
 976 008e 14       		.byte	0x14
 977 008f 36000000 		.4byte	0x36
 978 0093 04       		.uleb128 0x4
 979 0094 BC020000 		.4byte	.LASF13
 980 0098 04       		.byte	0x4
 981 0099 1F       		.byte	0x1f
 982 009a 56000000 		.4byte	0x56
 983 009e 04       		.uleb128 0x4
 984 009f 2B030000 		.4byte	.LASF14
 985 00a3 04       		.byte	0x4
 986 00a4 20       		.byte	0x20
 987 00a5 68000000 		.4byte	0x68
 988 00a9 04       		.uleb128 0x4
 989 00aa 51010000 		.4byte	.LASF15
 990 00ae 05       		.byte	0x5
 991 00af 2E       		.byte	0x2e
 992 00b0 93000000 		.4byte	0x93
 993 00b4 04       		.uleb128 0x4
 994 00b5 2A020000 		.4byte	.LASF16
 995 00b9 05       		.byte	0x5
 996 00ba 2F       		.byte	0x2f
 997 00bb 88000000 		.4byte	0x88
 998 00bf 04       		.uleb128 0x4
 999 00c0 69010000 		.4byte	.LASF17
 1000 00c4 05       		.byte	0x5
 1001 00c5 30       		.byte	0x30
 1002 00c6 88000000 		.4byte	0x88
 1003 00ca 04       		.uleb128 0x4
 1004 00cb A5020000 		.4byte	.LASF18
 1005 00cf 05       		.byte	0x5
 1006 00d0 31       		.byte	0x31
 1007 00d1 88000000 		.4byte	0x88
 1008 00d5 04       		.uleb128 0x4
 1009 00d6 B4020000 		.4byte	.LASF19
 1010 00da 05       		.byte	0x5
 1011 00db 32       		.byte	0x32
 1012 00dc 9E000000 		.4byte	0x9e
 1013 00e0 04       		.uleb128 0x4
 1014 00e1 05020000 		.4byte	.LASF20
 1015 00e5 05       		.byte	0x5
 1016 00e6 33       		.byte	0x33
 1017 00e7 93000000 		.4byte	0x93
 1018 00eb 04       		.uleb128 0x4
 1019 00ec 3E020000 		.4byte	.LASF21
 1020 00f0 05       		.byte	0x5
 1021 00f1 35       		.byte	0x35
 1022 00f2 9E000000 		.4byte	0x9e
 1023 00f6 04       		.uleb128 0x4
 1024 00f7 60030000 		.4byte	.LASF22
 1025 00fb 05       		.byte	0x5
 1026 00fc 36       		.byte	0x36
ARM GAS  /tmp/ccIqE2Rd.s 			page 19


 1027 00fd 9E000000 		.4byte	0x9e
 1028 0101 04       		.uleb128 0x4
 1029 0102 B8010000 		.4byte	.LASF23
 1030 0106 05       		.byte	0x5
 1031 0107 37       		.byte	0x37
 1032 0108 93000000 		.4byte	0x93
 1033 010c 04       		.uleb128 0x4
 1034 010d 0B030000 		.4byte	.LASF24
 1035 0111 06       		.byte	0x6
 1036 0112 2A       		.byte	0x2a
 1037 0113 17010000 		.4byte	0x117
 1038 0117 05       		.uleb128 0x5
 1039 0118 0B030000 		.4byte	.LASF24
 1040 011c 48       		.byte	0x48
 1041 011d 07       		.byte	0x7
 1042 011e 5E       		.byte	0x5e
 1043 011f 08020000 		.4byte	0x208
 1044 0123 06       		.uleb128 0x6
 1045 0124 FC020000 		.4byte	.LASF25
 1046 0128 07       		.byte	0x7
 1047 0129 5F       		.byte	0x5f
 1048 012a 29020000 		.4byte	0x229
 1049 012e 00       		.byte	0
 1050 012f 06       		.uleb128 0x6
 1051 0130 AD020000 		.4byte	.LASF26
 1052 0134 07       		.byte	0x7
 1053 0135 61       		.byte	0x61
 1054 0136 29020000 		.4byte	0x229
 1055 013a 04       		.byte	0x4
 1056 013b 06       		.uleb128 0x6
 1057 013c 28010000 		.4byte	.LASF27
 1058 0140 07       		.byte	0x7
 1059 0141 63       		.byte	0x63
 1060 0142 D5000000 		.4byte	0xd5
 1061 0146 08       		.byte	0x8
 1062 0147 06       		.uleb128 0x6
 1063 0148 55040000 		.4byte	.LASF28
 1064 014c 07       		.byte	0x7
 1065 014d 64       		.byte	0x64
 1066 014e E2020000 		.4byte	0x2e2
 1067 0152 0C       		.byte	0xc
 1068 0153 06       		.uleb128 0x6
 1069 0154 8B010000 		.4byte	.LASF29
 1070 0158 07       		.byte	0x7
 1071 0159 66       		.byte	0x66
 1072 015a 29020000 		.4byte	0x229
 1073 015e 10       		.byte	0x10
 1074 015f 06       		.uleb128 0x6
 1075 0160 70020000 		.4byte	.LASF30
 1076 0164 07       		.byte	0x7
 1077 0165 67       		.byte	0x67
 1078 0166 29020000 		.4byte	0x229
 1079 016a 14       		.byte	0x14
 1080 016b 06       		.uleb128 0x6
 1081 016c BB030000 		.4byte	.LASF31
 1082 0170 07       		.byte	0x7
 1083 0171 6E       		.byte	0x6e
ARM GAS  /tmp/ccIqE2Rd.s 			page 20


 1084 0172 EE030000 		.4byte	0x3ee
 1085 0176 18       		.byte	0x18
 1086 0177 06       		.uleb128 0x6
 1087 0178 E6020000 		.4byte	.LASF32
 1088 017c 07       		.byte	0x7
 1089 017d 79       		.byte	0x79
 1090 017e BF000000 		.4byte	0xbf
 1091 0182 1C       		.byte	0x1c
 1092 0183 06       		.uleb128 0x6
 1093 0184 03030000 		.4byte	.LASF33
 1094 0188 07       		.byte	0x7
 1095 0189 7D       		.byte	0x7d
 1096 018a B4000000 		.4byte	0xb4
 1097 018e 1D       		.byte	0x1d
 1098 018f 06       		.uleb128 0x6
 1099 0190 C2030000 		.4byte	.LASF34
 1100 0194 07       		.byte	0x7
 1101 0195 82       		.byte	0x82
 1102 0196 CA000000 		.4byte	0xca
 1103 019a 1E       		.byte	0x1e
 1104 019b 06       		.uleb128 0x6
 1105 019c 8B030000 		.4byte	.LASF35
 1106 01a0 07       		.byte	0x7
 1107 01a1 89       		.byte	0x89
 1108 01a2 0A030000 		.4byte	0x30a
 1109 01a6 20       		.byte	0x20
 1110 01a7 07       		.uleb128 0x7
 1111 01a8 705F7500 		.ascii	"p_u\000"
 1112 01ac 07       		.byte	0x7
 1113 01ad AE       		.byte	0xae
 1114 01ae B9030000 		.4byte	0x3b9
 1115 01b2 24       		.byte	0x24
 1116 01b3 06       		.uleb128 0x6
 1117 01b4 5B040000 		.4byte	.LASF36
 1118 01b8 07       		.byte	0x7
 1119 01b9 B3       		.byte	0xb3
 1120 01ba 4F020000 		.4byte	0x24f
 1121 01be 28       		.byte	0x28
 1122 01bf 06       		.uleb128 0x6
 1123 01c0 99030000 		.4byte	.LASF37
 1124 01c4 07       		.byte	0x7
 1125 01c5 B9       		.byte	0xb9
 1126 01c6 2F020000 		.4byte	0x22f
 1127 01ca 2C       		.byte	0x2c
 1128 01cb 06       		.uleb128 0x6
 1129 01cc 00000000 		.4byte	.LASF38
 1130 01d0 07       		.byte	0x7
 1131 01d1 BD       		.byte	0xbd
 1132 01d2 E0000000 		.4byte	0xe0
 1133 01d6 34       		.byte	0x34
 1134 01d7 06       		.uleb128 0x6
 1135 01d8 20030000 		.4byte	.LASF39
 1136 01dc 07       		.byte	0x7
 1137 01dd C3       		.byte	0xc3
 1138 01de EB000000 		.4byte	0xeb
 1139 01e2 38       		.byte	0x38
 1140 01e3 06       		.uleb128 0x6
ARM GAS  /tmp/ccIqE2Rd.s 			page 21


 1141 01e4 D2020000 		.4byte	.LASF40
 1142 01e8 07       		.byte	0x7
 1143 01e9 CA       		.byte	0xca
 1144 01ea 00040000 		.4byte	0x400
 1145 01ee 3C       		.byte	0x3c
 1146 01ef 06       		.uleb128 0x6
 1147 01f0 6A030000 		.4byte	.LASF41
 1148 01f4 07       		.byte	0x7
 1149 01f5 CE       		.byte	0xce
 1150 01f6 D5000000 		.4byte	0xd5
 1151 01fa 40       		.byte	0x40
 1152 01fb 06       		.uleb128 0x6
 1153 01fc 49010000 		.4byte	.LASF42
 1154 0200 07       		.byte	0x7
 1155 0201 D4       		.byte	0xd4
 1156 0202 65020000 		.4byte	0x265
 1157 0206 44       		.byte	0x44
 1158 0207 00       		.byte	0
 1159 0208 08       		.uleb128 0x8
 1160 0209 08       		.byte	0x8
 1161 020a 06       		.byte	0x6
 1162 020b 61       		.byte	0x61
 1163 020c 29020000 		.4byte	0x229
 1164 0210 06       		.uleb128 0x6
 1165 0211 FC020000 		.4byte	.LASF25
 1166 0215 06       		.byte	0x6
 1167 0216 62       		.byte	0x62
 1168 0217 29020000 		.4byte	0x229
 1169 021b 00       		.byte	0
 1170 021c 06       		.uleb128 0x6
 1171 021d AD020000 		.4byte	.LASF26
 1172 0221 06       		.byte	0x6
 1173 0222 64       		.byte	0x64
 1174 0223 29020000 		.4byte	0x229
 1175 0227 04       		.byte	0x4
 1176 0228 00       		.byte	0
 1177 0229 09       		.uleb128 0x9
 1178 022a 04       		.byte	0x4
 1179 022b 0C010000 		.4byte	0x10c
 1180 022f 04       		.uleb128 0x4
 1181 0230 7E020000 		.4byte	.LASF43
 1182 0234 06       		.byte	0x6
 1183 0235 66       		.byte	0x66
 1184 0236 08020000 		.4byte	0x208
 1185 023a 08       		.uleb128 0x8
 1186 023b 04       		.byte	0x4
 1187 023c 06       		.byte	0x6
 1188 023d 6B       		.byte	0x6b
 1189 023e 4F020000 		.4byte	0x24f
 1190 0242 06       		.uleb128 0x6
 1191 0243 FC020000 		.4byte	.LASF25
 1192 0247 06       		.byte	0x6
 1193 0248 6D       		.byte	0x6d
 1194 0249 29020000 		.4byte	0x229
 1195 024d 00       		.byte	0
 1196 024e 00       		.byte	0
 1197 024f 04       		.uleb128 0x4
ARM GAS  /tmp/ccIqE2Rd.s 			page 22


 1198 0250 32020000 		.4byte	.LASF44
 1199 0254 06       		.byte	0x6
 1200 0255 70       		.byte	0x70
 1201 0256 3A020000 		.4byte	0x23a
 1202 025a 04       		.uleb128 0x4
 1203 025b AF010000 		.4byte	.LASF45
 1204 025f 08       		.byte	0x8
 1205 0260 D7       		.byte	0xd7
 1206 0261 65020000 		.4byte	0x265
 1207 0265 0A       		.uleb128 0xa
 1208 0266 04       		.byte	0x4
 1209 0267 05       		.uleb128 0x5
 1210 0268 92030000 		.4byte	.LASF46
 1211 026c 24       		.byte	0x24
 1212 026d 08       		.byte	0x8
 1213 026e FE       		.byte	0xfe
 1214 026f E2020000 		.4byte	0x2e2
 1215 0273 0B       		.uleb128 0xb
 1216 0274 723400   		.ascii	"r4\000"
 1217 0277 08       		.byte	0x8
 1218 0278 1101     		.2byte	0x111
 1219 027a 5A020000 		.4byte	0x25a
 1220 027e 00       		.byte	0
 1221 027f 0B       		.uleb128 0xb
 1222 0280 723500   		.ascii	"r5\000"
 1223 0283 08       		.byte	0x8
 1224 0284 1201     		.2byte	0x112
 1225 0286 5A020000 		.4byte	0x25a
 1226 028a 04       		.byte	0x4
 1227 028b 0B       		.uleb128 0xb
 1228 028c 723600   		.ascii	"r6\000"
 1229 028f 08       		.byte	0x8
 1230 0290 1301     		.2byte	0x113
 1231 0292 5A020000 		.4byte	0x25a
 1232 0296 08       		.byte	0x8
 1233 0297 0B       		.uleb128 0xb
 1234 0298 723700   		.ascii	"r7\000"
 1235 029b 08       		.byte	0x8
 1236 029c 1401     		.2byte	0x114
 1237 029e 5A020000 		.4byte	0x25a
 1238 02a2 0C       		.byte	0xc
 1239 02a3 0B       		.uleb128 0xb
 1240 02a4 723800   		.ascii	"r8\000"
 1241 02a7 08       		.byte	0x8
 1242 02a8 1501     		.2byte	0x115
 1243 02aa 5A020000 		.4byte	0x25a
 1244 02ae 10       		.byte	0x10
 1245 02af 0B       		.uleb128 0xb
 1246 02b0 723900   		.ascii	"r9\000"
 1247 02b3 08       		.byte	0x8
 1248 02b4 1601     		.2byte	0x116
 1249 02b6 5A020000 		.4byte	0x25a
 1250 02ba 14       		.byte	0x14
 1251 02bb 0B       		.uleb128 0xb
 1252 02bc 72313000 		.ascii	"r10\000"
 1253 02c0 08       		.byte	0x8
 1254 02c1 1701     		.2byte	0x117
ARM GAS  /tmp/ccIqE2Rd.s 			page 23


 1255 02c3 5A020000 		.4byte	0x25a
 1256 02c7 18       		.byte	0x18
 1257 02c8 0B       		.uleb128 0xb
 1258 02c9 72313100 		.ascii	"r11\000"
 1259 02cd 08       		.byte	0x8
 1260 02ce 1801     		.2byte	0x118
 1261 02d0 5A020000 		.4byte	0x25a
 1262 02d4 1C       		.byte	0x1c
 1263 02d5 0B       		.uleb128 0xb
 1264 02d6 6C7200   		.ascii	"lr\000"
 1265 02d9 08       		.byte	0x8
 1266 02da 1901     		.2byte	0x119
 1267 02dc 5A020000 		.4byte	0x25a
 1268 02e0 20       		.byte	0x20
 1269 02e1 00       		.byte	0
 1270 02e2 0C       		.uleb128 0xc
 1271 02e3 EA010000 		.4byte	.LASF47
 1272 02e7 04       		.byte	0x4
 1273 02e8 08       		.byte	0x8
 1274 02e9 2301     		.2byte	0x123
 1275 02eb FD020000 		.4byte	0x2fd
 1276 02ef 0B       		.uleb128 0xb
 1277 02f0 72313300 		.ascii	"r13\000"
 1278 02f4 08       		.byte	0x8
 1279 02f5 2401     		.2byte	0x124
 1280 02f7 FD020000 		.4byte	0x2fd
 1281 02fb 00       		.byte	0
 1282 02fc 00       		.byte	0
 1283 02fd 09       		.uleb128 0x9
 1284 02fe 04       		.byte	0x4
 1285 02ff 67020000 		.4byte	0x267
 1286 0303 03       		.uleb128 0x3
 1287 0304 04       		.byte	0x4
 1288 0305 07       		.byte	0x7
 1289 0306 5D020000 		.4byte	.LASF48
 1290 030a 0D       		.uleb128 0xd
 1291 030b F6000000 		.4byte	0xf6
 1292 030f 08       		.uleb128 0x8
 1293 0310 20       		.byte	0x20
 1294 0311 09       		.byte	0x9
 1295 0312 5E       		.byte	0x5e
 1296 0313 6C030000 		.4byte	0x36c
 1297 0317 06       		.uleb128 0x6
 1298 0318 34030000 		.4byte	.LASF49
 1299 031c 09       		.byte	0x9
 1300 031d 5F       		.byte	0x5f
 1301 031e 2F020000 		.4byte	0x22f
 1302 0322 00       		.byte	0
 1303 0323 06       		.uleb128 0x6
 1304 0324 EE020000 		.4byte	.LASF50
 1305 0328 09       		.byte	0x9
 1306 0329 60       		.byte	0x60
 1307 032a D5000000 		.4byte	0xd5
 1308 032e 08       		.byte	0x8
 1309 032f 06       		.uleb128 0x6
 1310 0330 78020000 		.4byte	.LASF51
 1311 0334 09       		.byte	0x9
ARM GAS  /tmp/ccIqE2Rd.s 			page 24


 1312 0335 62       		.byte	0x62
 1313 0336 E2020000 		.4byte	0x2e2
 1314 033a 0C       		.byte	0xc
 1315 033b 06       		.uleb128 0x6
 1316 033c 0B020000 		.4byte	.LASF52
 1317 0340 09       		.byte	0x9
 1318 0341 65       		.byte	0x65
 1319 0342 29020000 		.4byte	0x229
 1320 0346 10       		.byte	0x10
 1321 0347 06       		.uleb128 0x6
 1322 0348 9D020000 		.4byte	.LASF53
 1323 034c 09       		.byte	0x9
 1324 034d 66       		.byte	0x66
 1325 034e 29020000 		.4byte	0x229
 1326 0352 14       		.byte	0x14
 1327 0353 06       		.uleb128 0x6
 1328 0354 43040000 		.4byte	.LASF54
 1329 0358 09       		.byte	0x9
 1330 0359 6A       		.byte	0x6a
 1331 035a 01010000 		.4byte	0x101
 1332 035e 18       		.byte	0x18
 1333 035f 06       		.uleb128 0x6
 1334 0360 93020000 		.4byte	.LASF55
 1335 0364 09       		.byte	0x9
 1336 0365 6C       		.byte	0x6c
 1337 0366 29020000 		.4byte	0x229
 1338 036a 1C       		.byte	0x1c
 1339 036b 00       		.byte	0
 1340 036c 04       		.uleb128 0x4
 1341 036d C9030000 		.4byte	.LASF56
 1342 0371 09       		.byte	0x9
 1343 0372 6E       		.byte	0x6e
 1344 0373 0F030000 		.4byte	0x30f
 1345 0377 05       		.uleb128 0x5
 1346 0378 57020000 		.4byte	.LASF57
 1347 037c 10       		.byte	0x10
 1348 037d 0A       		.byte	0xa
 1349 037e 2C       		.byte	0x2c
 1350 037f A8030000 		.4byte	0x3a8
 1351 0383 06       		.uleb128 0x6
 1352 0384 58010000 		.4byte	.LASF58
 1353 0388 0A       		.byte	0xa
 1354 0389 2D       		.byte	0x2d
 1355 038a 2F020000 		.4byte	0x22f
 1356 038e 00       		.byte	0
 1357 038f 06       		.uleb128 0x6
 1358 0390 4D040000 		.4byte	.LASF59
 1359 0394 0A       		.byte	0xa
 1360 0395 2F       		.byte	0x2f
 1361 0396 29020000 		.4byte	0x229
 1362 039a 08       		.byte	0x8
 1363 039b 06       		.uleb128 0x6
 1364 039c 59030000 		.4byte	.LASF60
 1365 03a0 0A       		.byte	0xa
 1366 03a1 31       		.byte	0x31
 1367 03a2 A8030000 		.4byte	0x3a8
 1368 03a6 0C       		.byte	0xc
ARM GAS  /tmp/ccIqE2Rd.s 			page 25


 1369 03a7 00       		.byte	0
 1370 03a8 09       		.uleb128 0x9
 1371 03a9 04       		.byte	0x4
 1372 03aa 77030000 		.4byte	0x377
 1373 03ae 04       		.uleb128 0x4
 1374 03af 57020000 		.4byte	.LASF57
 1375 03b3 0A       		.byte	0xa
 1376 03b4 33       		.byte	0x33
 1377 03b5 77030000 		.4byte	0x377
 1378 03b9 0E       		.uleb128 0xe
 1379 03ba 04       		.byte	0x4
 1380 03bb 07       		.byte	0x7
 1381 03bc 90       		.byte	0x90
 1382 03bd EE030000 		.4byte	0x3ee
 1383 03c1 0F       		.uleb128 0xf
 1384 03c2 06000000 		.4byte	.LASF61
 1385 03c6 07       		.byte	0x7
 1386 03c7 97       		.byte	0x97
 1387 03c8 E0000000 		.4byte	0xe0
 1388 03cc 0F       		.uleb128 0xf
 1389 03cd 13010000 		.4byte	.LASF62
 1390 03d1 07       		.byte	0x7
 1391 03d2 9E       		.byte	0x9e
 1392 03d3 E0000000 		.4byte	0xe0
 1393 03d7 0F       		.uleb128 0xf
 1394 03d8 E1030000 		.4byte	.LASF63
 1395 03dc 07       		.byte	0x7
 1396 03dd A5       		.byte	0xa5
 1397 03de 65020000 		.4byte	0x265
 1398 03e2 0F       		.uleb128 0xf
 1399 03e3 F5020000 		.4byte	.LASF64
 1400 03e7 07       		.byte	0x7
 1401 03e8 AC       		.byte	0xac
 1402 03e9 EB000000 		.4byte	0xeb
 1403 03ed 00       		.byte	0
 1404 03ee 09       		.uleb128 0x9
 1405 03ef 04       		.byte	0x4
 1406 03f0 F4030000 		.4byte	0x3f4
 1407 03f4 10       		.uleb128 0x10
 1408 03f5 F9030000 		.4byte	0x3f9
 1409 03f9 03       		.uleb128 0x3
 1410 03fa 01       		.byte	0x1
 1411 03fb 08       		.byte	0x8
 1412 03fc 48030000 		.4byte	.LASF65
 1413 0400 09       		.uleb128 0x9
 1414 0401 04       		.byte	0x4
 1415 0402 AE030000 		.4byte	0x3ae
 1416 0406 11       		.uleb128 0x11
 1417 0407 8B020000 		.4byte	.LASF66
 1418 040b 02       		.byte	0x2
 1419 040c 49       		.byte	0x49
 1420 040d 29020000 		.4byte	0x229
 1421 0411 03       		.byte	0x3
 1422 0412 21040000 		.4byte	0x421
 1423 0416 12       		.uleb128 0x12
 1424 0417 747000   		.ascii	"tp\000"
 1425 041a 02       		.byte	0x2
ARM GAS  /tmp/ccIqE2Rd.s 			page 26


 1426 041b 49       		.byte	0x49
 1427 041c 29020000 		.4byte	0x229
 1428 0420 00       		.byte	0
 1429 0421 13       		.uleb128 0x13
 1430 0422 7F030000 		.4byte	.LASF82
 1431 0426 02       		.byte	0x2
 1432 0427 29       		.byte	0x29
 1433 0428 03       		.byte	0x3
 1434 0429 4D040000 		.4byte	0x44d
 1435 042d 12       		.uleb128 0x12
 1436 042e 747000   		.ascii	"tp\000"
 1437 0431 02       		.byte	0x2
 1438 0432 29       		.byte	0x29
 1439 0433 29020000 		.4byte	0x229
 1440 0437 12       		.uleb128 0x12
 1441 0438 74717000 		.ascii	"tqp\000"
 1442 043c 02       		.byte	0x2
 1443 043d 29       		.byte	0x29
 1444 043e 4D040000 		.4byte	0x44d
 1445 0442 14       		.uleb128 0x14
 1446 0443 637000   		.ascii	"cp\000"
 1447 0446 02       		.byte	0x2
 1448 0447 2B       		.byte	0x2b
 1449 0448 29020000 		.4byte	0x229
 1450 044c 00       		.byte	0
 1451 044d 09       		.uleb128 0x9
 1452 044e 04       		.byte	0x4
 1453 044f 2F020000 		.4byte	0x22f
 1454 0453 15       		.uleb128 0x15
 1455 0454 7D010000 		.4byte	.LASF76
 1456 0458 01       		.byte	0x1
 1457 0459 EA       		.byte	0xea
 1458 045a A9000000 		.4byte	0xa9
 1459 045e 01       		.byte	0x1
 1460 045f 6E040000 		.4byte	0x46e
 1461 0463 12       		.uleb128 0x12
 1462 0464 6D7000   		.ascii	"mp\000"
 1463 0467 01       		.byte	0x1
 1464 0468 EA       		.byte	0xea
 1465 0469 00040000 		.4byte	0x400
 1466 046d 00       		.byte	0
 1467 046e 11       		.uleb128 0x11
 1468 046f 4D030000 		.4byte	.LASF67
 1469 0473 02       		.byte	0x2
 1470 0474 3B       		.byte	0x3b
 1471 0475 29020000 		.4byte	0x229
 1472 0479 03       		.byte	0x3
 1473 047a 94040000 		.4byte	0x494
 1474 047e 12       		.uleb128 0x12
 1475 047f 74717000 		.ascii	"tqp\000"
 1476 0483 02       		.byte	0x2
 1477 0484 3B       		.byte	0x3b
 1478 0485 4D040000 		.4byte	0x44d
 1479 0489 14       		.uleb128 0x14
 1480 048a 747000   		.ascii	"tp\000"
 1481 048d 02       		.byte	0x2
 1482 048e 3C       		.byte	0x3c
ARM GAS  /tmp/ccIqE2Rd.s 			page 27


 1483 048f 29020000 		.4byte	0x229
 1484 0493 00       		.byte	0
 1485 0494 16       		.uleb128 0x16
 1486 0495 B1030000 		.4byte	.LASF68
 1487 0499 01       		.byte	0x1
 1488 049a 56       		.byte	0x56
 1489 049b 00000000 		.4byte	.LFB7
 1490 049f 0A000000 		.4byte	.LFE7-.LFB7
 1491 04a3 01       		.uleb128 0x1
 1492 04a4 9C       		.byte	0x9c
 1493 04a5 B6040000 		.4byte	0x4b6
 1494 04a9 17       		.uleb128 0x17
 1495 04aa 6D7000   		.ascii	"mp\000"
 1496 04ad 01       		.byte	0x1
 1497 04ae 56       		.byte	0x56
 1498 04af 00040000 		.4byte	0x400
 1499 04b3 01       		.uleb128 0x1
 1500 04b4 50       		.byte	0x50
 1501 04b5 00       		.byte	0
 1502 04b6 16       		.uleb128 0x16
 1503 04b7 72010000 		.4byte	.LASF69
 1504 04bb 01       		.byte	0x1
 1505 04bc 79       		.byte	0x79
 1506 04bd 00000000 		.4byte	.LFB9
 1507 04c1 C8000000 		.4byte	.LFE9-.LFB9
 1508 04c5 01       		.uleb128 0x1
 1509 04c6 9C       		.byte	0x9c
 1510 04c7 17060000 		.4byte	0x617
 1511 04cb 18       		.uleb128 0x18
 1512 04cc 6D7000   		.ascii	"mp\000"
 1513 04cf 01       		.byte	0x1
 1514 04d0 79       		.byte	0x79
 1515 04d1 00040000 		.4byte	0x400
 1516 04d5 00000000 		.4byte	.LLST0
 1517 04d9 19       		.uleb128 0x19
 1518 04da 63747000 		.ascii	"ctp\000"
 1519 04de 01       		.byte	0x1
 1520 04df 7A       		.byte	0x7a
 1521 04e0 29020000 		.4byte	0x229
 1522 04e4 51000000 		.4byte	.LLST1
 1523 04e8 1A       		.uleb128 0x1a
 1524 04e9 00000000 		.4byte	.Ldebug_ranges0+0
 1525 04ed 19       		.uleb128 0x19
 1526 04ee 747000   		.ascii	"tp\000"
 1527 04f1 01       		.byte	0x1
 1528 04f2 84       		.byte	0x84
 1529 04f3 29020000 		.4byte	0x229
 1530 04f7 7B000000 		.4byte	.LLST2
 1531 04fb 1B       		.uleb128 0x1b
 1532 04fc 21040000 		.4byte	0x421
 1533 0500 24000000 		.4byte	.LBB34
 1534 0504 1C000000 		.4byte	.LBE34-.LBB34
 1535 0508 01       		.byte	0x1
 1536 0509 AD       		.byte	0xad
 1537 050a 34050000 		.4byte	0x534
 1538 050e 1C       		.uleb128 0x1c
 1539 050f 37040000 		.4byte	0x437
ARM GAS  /tmp/ccIqE2Rd.s 			page 28


 1540 0513 AF000000 		.4byte	.LLST3
 1541 0517 1C       		.uleb128 0x1c
 1542 0518 2D040000 		.4byte	0x42d
 1543 051c DF000000 		.4byte	.LLST4
 1544 0520 1D       		.uleb128 0x1d
 1545 0521 24000000 		.4byte	.LBB35
 1546 0525 1C000000 		.4byte	.LBE35-.LBB35
 1547 0529 1E       		.uleb128 0x1e
 1548 052a 42040000 		.4byte	0x442
 1549 052e FE000000 		.4byte	.LLST5
 1550 0532 00       		.byte	0
 1551 0533 00       		.byte	0
 1552 0534 1F       		.uleb128 0x1f
 1553 0535 06040000 		.4byte	0x406
 1554 0539 4C000000 		.4byte	.LBB36
 1555 053d 18000000 		.4byte	.Ldebug_ranges0+0x18
 1556 0541 01       		.byte	0x1
 1557 0542 A7       		.byte	0xa7
 1558 0543 51050000 		.4byte	0x551
 1559 0547 1C       		.uleb128 0x1c
 1560 0548 16040000 		.4byte	0x416
 1561 054c 1C010000 		.4byte	.LLST6
 1562 0550 00       		.byte	0
 1563 0551 1F       		.uleb128 0x1f
 1564 0552 06040000 		.4byte	0x406
 1565 0556 5E000000 		.4byte	.LBB40
 1566 055a 30000000 		.4byte	.Ldebug_ranges0+0x30
 1567 055e 01       		.byte	0x1
 1568 055f 9E       		.byte	0x9e
 1569 0560 6E050000 		.4byte	0x56e
 1570 0564 1C       		.uleb128 0x1c
 1571 0565 16040000 		.4byte	0x416
 1572 0569 3A010000 		.4byte	.LLST7
 1573 056d 00       		.byte	0
 1574 056e 1F       		.uleb128 0x1f
 1575 056f 21040000 		.4byte	0x421
 1576 0573 68000000 		.4byte	.LBB45
 1577 0577 50000000 		.4byte	.Ldebug_ranges0+0x50
 1578 057b 01       		.byte	0x1
 1579 057c 9E       		.byte	0x9e
 1580 057d A3050000 		.4byte	0x5a3
 1581 0581 1C       		.uleb128 0x1c
 1582 0582 37040000 		.4byte	0x437
 1583 0586 4D010000 		.4byte	.LLST8
 1584 058a 1C       		.uleb128 0x1c
 1585 058b 2D040000 		.4byte	0x42d
 1586 058f 60010000 		.4byte	.LLST9
 1587 0593 1A       		.uleb128 0x1a
 1588 0594 50000000 		.4byte	.Ldebug_ranges0+0x50
 1589 0598 1E       		.uleb128 0x1e
 1590 0599 42040000 		.4byte	0x442
 1591 059d 73010000 		.4byte	.LLST10
 1592 05a1 00       		.byte	0
 1593 05a2 00       		.byte	0
 1594 05a3 1F       		.uleb128 0x1f
 1595 05a4 06040000 		.4byte	0x406
 1596 05a8 86000000 		.4byte	.LBB50
ARM GAS  /tmp/ccIqE2Rd.s 			page 29


 1597 05ac 68000000 		.4byte	.Ldebug_ranges0+0x68
 1598 05b0 01       		.byte	0x1
 1599 05b1 8E       		.byte	0x8e
 1600 05b2 C0050000 		.4byte	0x5c0
 1601 05b6 1C       		.uleb128 0x1c
 1602 05b7 16040000 		.4byte	0x416
 1603 05bb 91010000 		.4byte	.LLST11
 1604 05bf 00       		.byte	0
 1605 05c0 1B       		.uleb128 0x1b
 1606 05c1 21040000 		.4byte	0x421
 1607 05c5 96000000 		.4byte	.LBB56
 1608 05c9 16000000 		.4byte	.LBE56-.LBB56
 1609 05cd 01       		.byte	0x1
 1610 05ce 8E       		.byte	0x8e
 1611 05cf F9050000 		.4byte	0x5f9
 1612 05d3 1C       		.uleb128 0x1c
 1613 05d4 37040000 		.4byte	0x437
 1614 05d8 B0010000 		.4byte	.LLST12
 1615 05dc 1C       		.uleb128 0x1c
 1616 05dd 2D040000 		.4byte	0x42d
 1617 05e1 C3010000 		.4byte	.LLST13
 1618 05e5 1D       		.uleb128 0x1d
 1619 05e6 96000000 		.4byte	.LBB57
 1620 05ea 16000000 		.4byte	.LBE57-.LBB57
 1621 05ee 1E       		.uleb128 0x1e
 1622 05ef 42040000 		.4byte	0x442
 1623 05f3 E2010000 		.4byte	.LLST14
 1624 05f7 00       		.byte	0
 1625 05f8 00       		.byte	0
 1626 05f9 20       		.uleb128 0x20
 1627 05fa 4C000000 		.4byte	.LVL9
 1628 05fe A4090000 		.4byte	0x9a4
 1629 0602 0C060000 		.4byte	0x60c
 1630 0606 21       		.uleb128 0x21
 1631 0607 01       		.uleb128 0x1
 1632 0608 50       		.byte	0x50
 1633 0609 01       		.uleb128 0x1
 1634 060a 34       		.byte	0x34
 1635 060b 00       		.byte	0
 1636 060c 22       		.uleb128 0x22
 1637 060d 5C000000 		.4byte	.LVL11
 1638 0611 B5090000 		.4byte	0x9b5
 1639 0615 00       		.byte	0
 1640 0616 00       		.byte	0
 1641 0617 16       		.uleb128 0x16
 1642 0618 66020000 		.4byte	.LASF70
 1643 061c 01       		.byte	0x1
 1644 061d 67       		.byte	0x67
 1645 061e 00000000 		.4byte	.LFB8
 1646 0622 14000000 		.4byte	.LFE8-.LFB8
 1647 0626 01       		.uleb128 0x1
 1648 0627 9C       		.byte	0x9c
 1649 0628 82060000 		.4byte	0x682
 1650 062c 18       		.uleb128 0x18
 1651 062d 6D7000   		.ascii	"mp\000"
 1652 0630 01       		.byte	0x1
 1653 0631 67       		.byte	0x67
ARM GAS  /tmp/ccIqE2Rd.s 			page 30


 1654 0632 00040000 		.4byte	0x400
 1655 0636 00020000 		.4byte	.LLST15
 1656 063a 23       		.uleb128 0x23
 1657 063b 02000000 		.4byte	.LBB59
 1658 063f 06000000 		.4byte	.LBE59-.LBB59
 1659 0643 55060000 		.4byte	0x655
 1660 0647 24       		.uleb128 0x24
 1661 0648 746D7000 		.ascii	"tmp\000"
 1662 064c 01       		.byte	0x1
 1663 064d 69       		.byte	0x69
 1664 064e 9E000000 		.4byte	0x9e
 1665 0652 01       		.uleb128 0x1
 1666 0653 53       		.byte	0x53
 1667 0654 00       		.byte	0
 1668 0655 23       		.uleb128 0x23
 1669 0656 0C000000 		.4byte	.LBB60
 1670 065a 08000000 		.4byte	.LBE60-.LBB60
 1671 065e 70060000 		.4byte	0x670
 1672 0662 24       		.uleb128 0x24
 1673 0663 746D7000 		.ascii	"tmp\000"
 1674 0667 01       		.byte	0x1
 1675 0668 6D       		.byte	0x6d
 1676 0669 9E000000 		.4byte	0x9e
 1677 066d 01       		.uleb128 0x1
 1678 066e 53       		.byte	0x53
 1679 066f 00       		.byte	0
 1680 0670 25       		.uleb128 0x25
 1681 0671 0C000000 		.4byte	.LVL25
 1682 0675 B6040000 		.4byte	0x4b6
 1683 0679 21       		.uleb128 0x21
 1684 067a 01       		.uleb128 0x1
 1685 067b 50       		.byte	0x50
 1686 067c 03       		.uleb128 0x3
 1687 067d F3       		.byte	0xf3
 1688 067e 01       		.uleb128 0x1
 1689 067f 50       		.byte	0x50
 1690 0680 00       		.byte	0
 1691 0681 00       		.byte	0
 1692 0682 26       		.uleb128 0x26
 1693 0683 4A020000 		.4byte	.LASF71
 1694 0687 01       		.byte	0x1
 1695 0688 CE       		.byte	0xce
 1696 0689 A9000000 		.4byte	0xa9
 1697 068d 00000000 		.4byte	.LFB10
 1698 0691 30000000 		.4byte	.LFE10-.LFB10
 1699 0695 01       		.uleb128 0x1
 1700 0696 9C       		.byte	0x9c
 1701 0697 0F070000 		.4byte	0x70f
 1702 069b 18       		.uleb128 0x18
 1703 069c 6D7000   		.ascii	"mp\000"
 1704 069f 01       		.byte	0x1
 1705 06a0 CE       		.byte	0xce
 1706 06a1 00040000 		.4byte	0x400
 1707 06a5 21020000 		.4byte	.LLST16
 1708 06a9 14       		.uleb128 0x14
 1709 06aa 6200     		.ascii	"b\000"
 1710 06ac 01       		.byte	0x1
ARM GAS  /tmp/ccIqE2Rd.s 			page 31


 1711 06ad CF       		.byte	0xcf
 1712 06ae A9000000 		.4byte	0xa9
 1713 06b2 23       		.uleb128 0x23
 1714 06b3 02000000 		.4byte	.LBB67
 1715 06b7 06000000 		.4byte	.LBE67-.LBB67
 1716 06bb CD060000 		.4byte	0x6cd
 1717 06bf 24       		.uleb128 0x24
 1718 06c0 746D7000 		.ascii	"tmp\000"
 1719 06c4 01       		.byte	0x1
 1720 06c5 D1       		.byte	0xd1
 1721 06c6 9E000000 		.4byte	0x9e
 1722 06ca 01       		.uleb128 0x1
 1723 06cb 53       		.byte	0x53
 1724 06cc 00       		.byte	0
 1725 06cd 1F       		.uleb128 0x1f
 1726 06ce 53040000 		.4byte	0x453
 1727 06d2 08000000 		.4byte	.LBB68
 1728 06d6 88000000 		.4byte	.Ldebug_ranges0+0x88
 1729 06da 01       		.byte	0x1
 1730 06db D3       		.byte	0xd3
 1731 06dc FB060000 		.4byte	0x6fb
 1732 06e0 1C       		.uleb128 0x1c
 1733 06e1 63040000 		.4byte	0x463
 1734 06e5 3F020000 		.4byte	.LLST17
 1735 06e9 1D       		.uleb128 0x1d
 1736 06ea 16000000 		.4byte	.LBB70
 1737 06ee 0E000000 		.4byte	.LBE70-.LBB70
 1738 06f2 27       		.uleb128 0x27
 1739 06f3 63040000 		.4byte	0x463
 1740 06f7 01       		.uleb128 0x1
 1741 06f8 52       		.byte	0x52
 1742 06f9 00       		.byte	0
 1743 06fa 00       		.byte	0
 1744 06fb 1A       		.uleb128 0x1a
 1745 06fc A0000000 		.4byte	.Ldebug_ranges0+0xa0
 1746 0700 24       		.uleb128 0x24
 1747 0701 746D7000 		.ascii	"tmp\000"
 1748 0705 01       		.byte	0x1
 1749 0706 D5       		.byte	0xd5
 1750 0707 9E000000 		.4byte	0x9e
 1751 070b 01       		.uleb128 0x1
 1752 070c 53       		.byte	0x53
 1753 070d 00       		.byte	0
 1754 070e 00       		.byte	0
 1755 070f 28       		.uleb128 0x28
 1756 0710 53040000 		.4byte	0x453
 1757 0714 00000000 		.4byte	.LFB11
 1758 0718 20000000 		.4byte	.LFE11-.LFB11
 1759 071c 01       		.uleb128 0x1
 1760 071d 9C       		.byte	0x9c
 1761 071e 3F070000 		.4byte	0x73f
 1762 0722 1C       		.uleb128 0x1c
 1763 0723 63040000 		.4byte	0x463
 1764 0727 5D020000 		.4byte	.LLST18
 1765 072b 1D       		.uleb128 0x1d
 1766 072c 0A000000 		.4byte	.LBB78
 1767 0730 16000000 		.4byte	.LBE78-.LBB78
ARM GAS  /tmp/ccIqE2Rd.s 			page 32


 1768 0734 1C       		.uleb128 0x1c
 1769 0735 63040000 		.4byte	0x463
 1770 0739 91020000 		.4byte	.LLST19
 1771 073d 00       		.byte	0
 1772 073e 00       		.byte	0
 1773 073f 29       		.uleb128 0x29
 1774 0740 1C010000 		.4byte	.LASF72
 1775 0744 01       		.byte	0x1
 1776 0745 0101     		.2byte	0x101
 1777 0747 00040000 		.4byte	0x400
 1778 074b 00000000 		.4byte	.LFB12
 1779 074f 64000000 		.4byte	.LFE12-.LFB12
 1780 0753 01       		.uleb128 0x1
 1781 0754 9C       		.byte	0x9c
 1782 0755 24080000 		.4byte	0x824
 1783 0759 2A       		.uleb128 0x2a
 1784 075a 63747000 		.ascii	"ctp\000"
 1785 075e 01       		.byte	0x1
 1786 075f 0201     		.2byte	0x102
 1787 0761 29020000 		.4byte	0x229
 1788 0765 AF020000 		.4byte	.LLST20
 1789 0769 2A       		.uleb128 0x2a
 1790 076a 756D7000 		.ascii	"ump\000"
 1791 076e 01       		.byte	0x1
 1792 076f 0301     		.2byte	0x103
 1793 0771 00040000 		.4byte	0x400
 1794 0775 D9020000 		.4byte	.LLST21
 1795 0779 2A       		.uleb128 0x2a
 1796 077a 6D7000   		.ascii	"mp\000"
 1797 077d 01       		.byte	0x1
 1798 077e 0301     		.2byte	0x103
 1799 0780 00040000 		.4byte	0x400
 1800 0784 F7020000 		.4byte	.LLST22
 1801 0788 23       		.uleb128 0x23
 1802 0789 06000000 		.4byte	.LBB80
 1803 078d 06000000 		.4byte	.LBE80-.LBB80
 1804 0791 A4070000 		.4byte	0x7a4
 1805 0795 2B       		.uleb128 0x2b
 1806 0796 746D7000 		.ascii	"tmp\000"
 1807 079a 01       		.byte	0x1
 1808 079b 0501     		.2byte	0x105
 1809 079d 9E000000 		.4byte	0x9e
 1810 07a1 01       		.uleb128 0x1
 1811 07a2 53       		.byte	0x53
 1812 07a3 00       		.byte	0
 1813 07a4 23       		.uleb128 0x23
 1814 07a5 18000000 		.4byte	.LBB81
 1815 07a9 30000000 		.4byte	.LBE81-.LBB81
 1816 07ad 0F080000 		.4byte	0x80f
 1817 07b1 2C       		.uleb128 0x2c
 1818 07b2 747000   		.ascii	"tp\000"
 1819 07b5 01       		.byte	0x1
 1820 07b6 1201     		.2byte	0x112
 1821 07b8 29020000 		.4byte	0x229
 1822 07bc 2D       		.uleb128 0x2d
 1823 07bd 22020000 		.4byte	.LASF73
 1824 07c1 01       		.byte	0x1
ARM GAS  /tmp/ccIqE2Rd.s 			page 33


 1825 07c2 1601     		.2byte	0x116
 1826 07c4 D5000000 		.4byte	0xd5
 1827 07c8 0A030000 		.4byte	.LLST23
 1828 07cc 2E       		.uleb128 0x2e
 1829 07cd 6E040000 		.4byte	0x46e
 1830 07d1 30000000 		.4byte	.LBB82
 1831 07d5 B8000000 		.4byte	.Ldebug_ranges0+0xb8
 1832 07d9 01       		.byte	0x1
 1833 07da 2501     		.2byte	0x125
 1834 07dc F9070000 		.4byte	0x7f9
 1835 07e0 1C       		.uleb128 0x1c
 1836 07e1 7E040000 		.4byte	0x47e
 1837 07e5 1D030000 		.4byte	.LLST24
 1838 07e9 1A       		.uleb128 0x1a
 1839 07ea B8000000 		.4byte	.Ldebug_ranges0+0xb8
 1840 07ee 1E       		.uleb128 0x1e
 1841 07ef 89040000 		.4byte	0x489
 1842 07f3 30030000 		.4byte	.LLST25
 1843 07f7 00       		.byte	0
 1844 07f8 00       		.byte	0
 1845 07f9 25       		.uleb128 0x25
 1846 07fa 48000000 		.4byte	.LVL43
 1847 07fe CA090000 		.4byte	0x9ca
 1848 0802 21       		.uleb128 0x21
 1849 0803 01       		.uleb128 0x1
 1850 0804 51       		.byte	0x51
 1851 0805 01       		.uleb128 0x1
 1852 0806 30       		.byte	0x30
 1853 0807 21       		.uleb128 0x21
 1854 0808 01       		.uleb128 0x1
 1855 0809 50       		.byte	0x50
 1856 080a 02       		.uleb128 0x2
 1857 080b 75       		.byte	0x75
 1858 080c 00       		.sleb128 0
 1859 080d 00       		.byte	0
 1860 080e 00       		.byte	0
 1861 080f 1A       		.uleb128 0x1a
 1862 0810 D8000000 		.4byte	.Ldebug_ranges0+0xd8
 1863 0814 2B       		.uleb128 0x2b
 1864 0815 746D7000 		.ascii	"tmp\000"
 1865 0819 01       		.byte	0x1
 1866 081a 2D01     		.2byte	0x12d
 1867 081c 9E000000 		.4byte	0x9e
 1868 0820 01       		.uleb128 0x1
 1869 0821 53       		.byte	0x53
 1870 0822 00       		.byte	0
 1871 0823 00       		.byte	0
 1872 0824 29       		.uleb128 0x29
 1873 0825 BE010000 		.4byte	.LASF74
 1874 0829 01       		.byte	0x1
 1875 082a 3D01     		.2byte	0x13d
 1876 082c 00040000 		.4byte	0x400
 1877 0830 00000000 		.4byte	.LFB13
 1878 0834 50000000 		.4byte	.LFE13-.LFB13
 1879 0838 01       		.uleb128 0x1
 1880 0839 9C       		.byte	0x9c
 1881 083a D0080000 		.4byte	0x8d0
ARM GAS  /tmp/ccIqE2Rd.s 			page 34


 1882 083e 2A       		.uleb128 0x2a
 1883 083f 63747000 		.ascii	"ctp\000"
 1884 0843 01       		.byte	0x1
 1885 0844 3E01     		.2byte	0x13e
 1886 0846 29020000 		.4byte	0x229
 1887 084a 43030000 		.4byte	.LLST26
 1888 084e 2A       		.uleb128 0x2a
 1889 084f 756D7000 		.ascii	"ump\000"
 1890 0853 01       		.byte	0x1
 1891 0854 3F01     		.2byte	0x13f
 1892 0856 00040000 		.4byte	0x400
 1893 085a 61030000 		.4byte	.LLST27
 1894 085e 2A       		.uleb128 0x2a
 1895 085f 6D7000   		.ascii	"mp\000"
 1896 0862 01       		.byte	0x1
 1897 0863 3F01     		.2byte	0x13f
 1898 0865 00040000 		.4byte	0x400
 1899 0869 7F030000 		.4byte	.LLST28
 1900 086d 1D       		.uleb128 0x1d
 1901 086e 12000000 		.4byte	.LBB90
 1902 0872 2E000000 		.4byte	.LBE90-.LBB90
 1903 0876 2C       		.uleb128 0x2c
 1904 0877 747000   		.ascii	"tp\000"
 1905 087a 01       		.byte	0x1
 1906 087b 4F01     		.2byte	0x14f
 1907 087d 29020000 		.4byte	0x229
 1908 0881 2D       		.uleb128 0x2d
 1909 0882 22020000 		.4byte	.LASF73
 1910 0886 01       		.byte	0x1
 1911 0887 5301     		.2byte	0x153
 1912 0889 D5000000 		.4byte	0xd5
 1913 088d 92030000 		.4byte	.LLST29
 1914 0891 2E       		.uleb128 0x2e
 1915 0892 6E040000 		.4byte	0x46e
 1916 0896 2C000000 		.4byte	.LBB91
 1917 089a F0000000 		.4byte	.Ldebug_ranges0+0xf0
 1918 089e 01       		.byte	0x1
 1919 089f 6001     		.2byte	0x160
 1920 08a1 BE080000 		.4byte	0x8be
 1921 08a5 1C       		.uleb128 0x1c
 1922 08a6 7E040000 		.4byte	0x47e
 1923 08aa A5030000 		.4byte	.LLST30
 1924 08ae 1A       		.uleb128 0x1a
 1925 08af F0000000 		.4byte	.Ldebug_ranges0+0xf0
 1926 08b3 1E       		.uleb128 0x1e
 1927 08b4 89040000 		.4byte	0x489
 1928 08b8 B8030000 		.4byte	.LLST31
 1929 08bc 00       		.byte	0
 1930 08bd 00       		.byte	0
 1931 08be 25       		.uleb128 0x25
 1932 08bf 40000000 		.4byte	.LVL55
 1933 08c3 B5090000 		.4byte	0x9b5
 1934 08c7 21       		.uleb128 0x21
 1935 08c8 01       		.uleb128 0x1
 1936 08c9 50       		.byte	0x50
 1937 08ca 02       		.uleb128 0x2
 1938 08cb 75       		.byte	0x75
ARM GAS  /tmp/ccIqE2Rd.s 			page 35


 1939 08cc 00       		.sleb128 0
 1940 08cd 00       		.byte	0
 1941 08ce 00       		.byte	0
 1942 08cf 00       		.byte	0
 1943 08d0 2F       		.uleb128 0x2f
 1944 08d1 13020000 		.4byte	.LASF75
 1945 08d5 01       		.byte	0x1
 1946 08d6 7601     		.2byte	0x176
 1947 08d8 00000000 		.4byte	.LFB14
 1948 08dc 54000000 		.4byte	.LFE14-.LFB14
 1949 08e0 01       		.uleb128 0x1
 1950 08e1 9C       		.byte	0x9c
 1951 08e2 99090000 		.4byte	0x999
 1952 08e6 2A       		.uleb128 0x2a
 1953 08e7 63747000 		.ascii	"ctp\000"
 1954 08eb 01       		.byte	0x1
 1955 08ec 7701     		.2byte	0x177
 1956 08ee 29020000 		.4byte	0x229
 1957 08f2 CB030000 		.4byte	.LLST32
 1958 08f6 30       		.uleb128 0x30
 1959 08f7 10010000 		.4byte	.Ldebug_ranges0+0x110
 1960 08fb 0E090000 		.4byte	0x90e
 1961 08ff 2B       		.uleb128 0x2b
 1962 0900 746D7000 		.ascii	"tmp\000"
 1963 0904 01       		.byte	0x1
 1964 0905 7901     		.2byte	0x179
 1965 0907 9E000000 		.4byte	0x9e
 1966 090b 01       		.uleb128 0x1
 1967 090c 53       		.byte	0x53
 1968 090d 00       		.byte	0
 1969 090e 30       		.uleb128 0x30
 1970 090f 28010000 		.4byte	.Ldebug_ranges0+0x128
 1971 0913 73090000 		.4byte	0x973
 1972 0917 2A       		.uleb128 0x2a
 1973 0918 756D7000 		.ascii	"ump\000"
 1974 091c 01       		.byte	0x1
 1975 091d 7C01     		.2byte	0x17c
 1976 091f 00040000 		.4byte	0x400
 1977 0923 DE030000 		.4byte	.LLST33
 1978 0927 1D       		.uleb128 0x1d
 1979 0928 14000000 		.4byte	.LBB100
 1980 092c 14000000 		.4byte	.LBE100-.LBB100
 1981 0930 2C       		.uleb128 0x2c
 1982 0931 747000   		.ascii	"tp\000"
 1983 0934 01       		.byte	0x1
 1984 0935 7F01     		.2byte	0x17f
 1985 0937 29020000 		.4byte	0x229
 1986 093b 2E       		.uleb128 0x2e
 1987 093c 6E040000 		.4byte	0x46e
 1988 0940 16000000 		.4byte	.LBB101
 1989 0944 40010000 		.4byte	.Ldebug_ranges0+0x140
 1990 0948 01       		.byte	0x1
 1991 0949 7F01     		.2byte	0x17f
 1992 094b 68090000 		.4byte	0x968
 1993 094f 1C       		.uleb128 0x1c
 1994 0950 7E040000 		.4byte	0x47e
 1995 0954 DE030000 		.4byte	.LLST33
ARM GAS  /tmp/ccIqE2Rd.s 			page 36


 1996 0958 1A       		.uleb128 0x1a
 1997 0959 40010000 		.4byte	.Ldebug_ranges0+0x140
 1998 095d 1E       		.uleb128 0x1e
 1999 095e 89040000 		.4byte	0x489
 2000 0962 FC030000 		.4byte	.LLST35
 2001 0966 00       		.byte	0
 2002 0967 00       		.byte	0
 2003 0968 22       		.uleb128 0x22
 2004 0969 28000000 		.4byte	.LVL61
 2005 096d B5090000 		.4byte	0x9b5
 2006 0971 00       		.byte	0
 2007 0972 00       		.byte	0
 2008 0973 23       		.uleb128 0x23
 2009 0974 46000000 		.4byte	.LBB106
 2010 0978 0E000000 		.4byte	.LBE106-.LBB106
 2011 097c 8F090000 		.4byte	0x98f
 2012 0980 2B       		.uleb128 0x2b
 2013 0981 746D7000 		.ascii	"tmp\000"
 2014 0985 01       		.byte	0x1
 2015 0986 8B01     		.2byte	0x18b
 2016 0988 9E000000 		.4byte	0x9e
 2017 098c 01       		.uleb128 0x1
 2018 098d 53       		.byte	0x53
 2019 098e 00       		.byte	0
 2020 098f 22       		.uleb128 0x22
 2021 0990 46000000 		.4byte	.LVL66
 2022 0994 E0090000 		.4byte	0x9e0
 2023 0998 00       		.byte	0
 2024 0999 31       		.uleb128 0x31
 2025 099a D3030000 		.4byte	.LASF83
 2026 099e 09       		.byte	0x9
 2027 099f 72       		.byte	0x72
 2028 09a0 6C030000 		.4byte	0x36c
 2029 09a4 32       		.uleb128 0x32
 2030 09a5 12030000 		.4byte	.LASF78
 2031 09a9 09       		.byte	0x9
 2032 09aa 96       		.byte	0x96
 2033 09ab B5090000 		.4byte	0x9b5
 2034 09af 33       		.uleb128 0x33
 2035 09b0 BF000000 		.4byte	0xbf
 2036 09b4 00       		.byte	0
 2037 09b5 34       		.uleb128 0x34
 2038 09b6 3C030000 		.4byte	.LASF77
 2039 09ba 09       		.byte	0x9
 2040 09bb 93       		.byte	0x93
 2041 09bc 29020000 		.4byte	0x229
 2042 09c0 CA090000 		.4byte	0x9ca
 2043 09c4 33       		.uleb128 0x33
 2044 09c5 29020000 		.4byte	0x229
 2045 09c9 00       		.byte	0
 2046 09ca 32       		.uleb128 0x32
 2047 09cb A4030000 		.4byte	.LASF79
 2048 09cf 09       		.byte	0x9
 2049 09d0 9C       		.byte	0x9c
 2050 09d1 E0090000 		.4byte	0x9e0
 2051 09d5 33       		.uleb128 0x33
 2052 09d6 29020000 		.4byte	0x229
ARM GAS  /tmp/ccIqE2Rd.s 			page 37


 2053 09da 33       		.uleb128 0x33
 2054 09db E0000000 		.4byte	0xe0
 2055 09df 00       		.byte	0
 2056 09e0 35       		.uleb128 0x35
 2057 09e1 93010000 		.4byte	.LASF84
 2058 09e5 09       		.byte	0x9
 2059 09e6 9F       		.byte	0x9f
 2060 09e7 00       		.byte	0
 2061              		.section	.debug_abbrev,"",%progbits
 2062              	.Ldebug_abbrev0:
 2063 0000 01       		.uleb128 0x1
 2064 0001 11       		.uleb128 0x11
 2065 0002 01       		.byte	0x1
 2066 0003 25       		.uleb128 0x25
 2067 0004 0E       		.uleb128 0xe
 2068 0005 13       		.uleb128 0x13
 2069 0006 0B       		.uleb128 0xb
 2070 0007 03       		.uleb128 0x3
 2071 0008 0E       		.uleb128 0xe
 2072 0009 55       		.uleb128 0x55
 2073 000a 17       		.uleb128 0x17
 2074 000b 11       		.uleb128 0x11
 2075 000c 01       		.uleb128 0x1
 2076 000d 10       		.uleb128 0x10
 2077 000e 17       		.uleb128 0x17
 2078 000f 00       		.byte	0
 2079 0010 00       		.byte	0
 2080 0011 02       		.uleb128 0x2
 2081 0012 24       		.uleb128 0x24
 2082 0013 00       		.byte	0
 2083 0014 0B       		.uleb128 0xb
 2084 0015 0B       		.uleb128 0xb
 2085 0016 3E       		.uleb128 0x3e
 2086 0017 0B       		.uleb128 0xb
 2087 0018 03       		.uleb128 0x3
 2088 0019 08       		.uleb128 0x8
 2089 001a 00       		.byte	0
 2090 001b 00       		.byte	0
 2091 001c 03       		.uleb128 0x3
 2092 001d 24       		.uleb128 0x24
 2093 001e 00       		.byte	0
 2094 001f 0B       		.uleb128 0xb
 2095 0020 0B       		.uleb128 0xb
 2096 0021 3E       		.uleb128 0x3e
 2097 0022 0B       		.uleb128 0xb
 2098 0023 03       		.uleb128 0x3
 2099 0024 0E       		.uleb128 0xe
 2100 0025 00       		.byte	0
 2101 0026 00       		.byte	0
 2102 0027 04       		.uleb128 0x4
 2103 0028 16       		.uleb128 0x16
 2104 0029 00       		.byte	0
 2105 002a 03       		.uleb128 0x3
 2106 002b 0E       		.uleb128 0xe
 2107 002c 3A       		.uleb128 0x3a
 2108 002d 0B       		.uleb128 0xb
 2109 002e 3B       		.uleb128 0x3b
ARM GAS  /tmp/ccIqE2Rd.s 			page 38


 2110 002f 0B       		.uleb128 0xb
 2111 0030 49       		.uleb128 0x49
 2112 0031 13       		.uleb128 0x13
 2113 0032 00       		.byte	0
 2114 0033 00       		.byte	0
 2115 0034 05       		.uleb128 0x5
 2116 0035 13       		.uleb128 0x13
 2117 0036 01       		.byte	0x1
 2118 0037 03       		.uleb128 0x3
 2119 0038 0E       		.uleb128 0xe
 2120 0039 0B       		.uleb128 0xb
 2121 003a 0B       		.uleb128 0xb
 2122 003b 3A       		.uleb128 0x3a
 2123 003c 0B       		.uleb128 0xb
 2124 003d 3B       		.uleb128 0x3b
 2125 003e 0B       		.uleb128 0xb
 2126 003f 01       		.uleb128 0x1
 2127 0040 13       		.uleb128 0x13
 2128 0041 00       		.byte	0
 2129 0042 00       		.byte	0
 2130 0043 06       		.uleb128 0x6
 2131 0044 0D       		.uleb128 0xd
 2132 0045 00       		.byte	0
 2133 0046 03       		.uleb128 0x3
 2134 0047 0E       		.uleb128 0xe
 2135 0048 3A       		.uleb128 0x3a
 2136 0049 0B       		.uleb128 0xb
 2137 004a 3B       		.uleb128 0x3b
 2138 004b 0B       		.uleb128 0xb
 2139 004c 49       		.uleb128 0x49
 2140 004d 13       		.uleb128 0x13
 2141 004e 38       		.uleb128 0x38
 2142 004f 0B       		.uleb128 0xb
 2143 0050 00       		.byte	0
 2144 0051 00       		.byte	0
 2145 0052 07       		.uleb128 0x7
 2146 0053 0D       		.uleb128 0xd
 2147 0054 00       		.byte	0
 2148 0055 03       		.uleb128 0x3
 2149 0056 08       		.uleb128 0x8
 2150 0057 3A       		.uleb128 0x3a
 2151 0058 0B       		.uleb128 0xb
 2152 0059 3B       		.uleb128 0x3b
 2153 005a 0B       		.uleb128 0xb
 2154 005b 49       		.uleb128 0x49
 2155 005c 13       		.uleb128 0x13
 2156 005d 38       		.uleb128 0x38
 2157 005e 0B       		.uleb128 0xb
 2158 005f 00       		.byte	0
 2159 0060 00       		.byte	0
 2160 0061 08       		.uleb128 0x8
 2161 0062 13       		.uleb128 0x13
 2162 0063 01       		.byte	0x1
 2163 0064 0B       		.uleb128 0xb
 2164 0065 0B       		.uleb128 0xb
 2165 0066 3A       		.uleb128 0x3a
 2166 0067 0B       		.uleb128 0xb
ARM GAS  /tmp/ccIqE2Rd.s 			page 39


 2167 0068 3B       		.uleb128 0x3b
 2168 0069 0B       		.uleb128 0xb
 2169 006a 01       		.uleb128 0x1
 2170 006b 13       		.uleb128 0x13
 2171 006c 00       		.byte	0
 2172 006d 00       		.byte	0
 2173 006e 09       		.uleb128 0x9
 2174 006f 0F       		.uleb128 0xf
 2175 0070 00       		.byte	0
 2176 0071 0B       		.uleb128 0xb
 2177 0072 0B       		.uleb128 0xb
 2178 0073 49       		.uleb128 0x49
 2179 0074 13       		.uleb128 0x13
 2180 0075 00       		.byte	0
 2181 0076 00       		.byte	0
 2182 0077 0A       		.uleb128 0xa
 2183 0078 0F       		.uleb128 0xf
 2184 0079 00       		.byte	0
 2185 007a 0B       		.uleb128 0xb
 2186 007b 0B       		.uleb128 0xb
 2187 007c 00       		.byte	0
 2188 007d 00       		.byte	0
 2189 007e 0B       		.uleb128 0xb
 2190 007f 0D       		.uleb128 0xd
 2191 0080 00       		.byte	0
 2192 0081 03       		.uleb128 0x3
 2193 0082 08       		.uleb128 0x8
 2194 0083 3A       		.uleb128 0x3a
 2195 0084 0B       		.uleb128 0xb
 2196 0085 3B       		.uleb128 0x3b
 2197 0086 05       		.uleb128 0x5
 2198 0087 49       		.uleb128 0x49
 2199 0088 13       		.uleb128 0x13
 2200 0089 38       		.uleb128 0x38
 2201 008a 0B       		.uleb128 0xb
 2202 008b 00       		.byte	0
 2203 008c 00       		.byte	0
 2204 008d 0C       		.uleb128 0xc
 2205 008e 13       		.uleb128 0x13
 2206 008f 01       		.byte	0x1
 2207 0090 03       		.uleb128 0x3
 2208 0091 0E       		.uleb128 0xe
 2209 0092 0B       		.uleb128 0xb
 2210 0093 0B       		.uleb128 0xb
 2211 0094 3A       		.uleb128 0x3a
 2212 0095 0B       		.uleb128 0xb
 2213 0096 3B       		.uleb128 0x3b
 2214 0097 05       		.uleb128 0x5
 2215 0098 01       		.uleb128 0x1
 2216 0099 13       		.uleb128 0x13
 2217 009a 00       		.byte	0
 2218 009b 00       		.byte	0
 2219 009c 0D       		.uleb128 0xd
 2220 009d 35       		.uleb128 0x35
 2221 009e 00       		.byte	0
 2222 009f 49       		.uleb128 0x49
 2223 00a0 13       		.uleb128 0x13
ARM GAS  /tmp/ccIqE2Rd.s 			page 40


 2224 00a1 00       		.byte	0
 2225 00a2 00       		.byte	0
 2226 00a3 0E       		.uleb128 0xe
 2227 00a4 17       		.uleb128 0x17
 2228 00a5 01       		.byte	0x1
 2229 00a6 0B       		.uleb128 0xb
 2230 00a7 0B       		.uleb128 0xb
 2231 00a8 3A       		.uleb128 0x3a
 2232 00a9 0B       		.uleb128 0xb
 2233 00aa 3B       		.uleb128 0x3b
 2234 00ab 0B       		.uleb128 0xb
 2235 00ac 01       		.uleb128 0x1
 2236 00ad 13       		.uleb128 0x13
 2237 00ae 00       		.byte	0
 2238 00af 00       		.byte	0
 2239 00b0 0F       		.uleb128 0xf
 2240 00b1 0D       		.uleb128 0xd
 2241 00b2 00       		.byte	0
 2242 00b3 03       		.uleb128 0x3
 2243 00b4 0E       		.uleb128 0xe
 2244 00b5 3A       		.uleb128 0x3a
 2245 00b6 0B       		.uleb128 0xb
 2246 00b7 3B       		.uleb128 0x3b
 2247 00b8 0B       		.uleb128 0xb
 2248 00b9 49       		.uleb128 0x49
 2249 00ba 13       		.uleb128 0x13
 2250 00bb 00       		.byte	0
 2251 00bc 00       		.byte	0
 2252 00bd 10       		.uleb128 0x10
 2253 00be 26       		.uleb128 0x26
 2254 00bf 00       		.byte	0
 2255 00c0 49       		.uleb128 0x49
 2256 00c1 13       		.uleb128 0x13
 2257 00c2 00       		.byte	0
 2258 00c3 00       		.byte	0
 2259 00c4 11       		.uleb128 0x11
 2260 00c5 2E       		.uleb128 0x2e
 2261 00c6 01       		.byte	0x1
 2262 00c7 03       		.uleb128 0x3
 2263 00c8 0E       		.uleb128 0xe
 2264 00c9 3A       		.uleb128 0x3a
 2265 00ca 0B       		.uleb128 0xb
 2266 00cb 3B       		.uleb128 0x3b
 2267 00cc 0B       		.uleb128 0xb
 2268 00cd 27       		.uleb128 0x27
 2269 00ce 19       		.uleb128 0x19
 2270 00cf 49       		.uleb128 0x49
 2271 00d0 13       		.uleb128 0x13
 2272 00d1 20       		.uleb128 0x20
 2273 00d2 0B       		.uleb128 0xb
 2274 00d3 01       		.uleb128 0x1
 2275 00d4 13       		.uleb128 0x13
 2276 00d5 00       		.byte	0
 2277 00d6 00       		.byte	0
 2278 00d7 12       		.uleb128 0x12
 2279 00d8 05       		.uleb128 0x5
 2280 00d9 00       		.byte	0
ARM GAS  /tmp/ccIqE2Rd.s 			page 41


 2281 00da 03       		.uleb128 0x3
 2282 00db 08       		.uleb128 0x8
 2283 00dc 3A       		.uleb128 0x3a
 2284 00dd 0B       		.uleb128 0xb
 2285 00de 3B       		.uleb128 0x3b
 2286 00df 0B       		.uleb128 0xb
 2287 00e0 49       		.uleb128 0x49
 2288 00e1 13       		.uleb128 0x13
 2289 00e2 00       		.byte	0
 2290 00e3 00       		.byte	0
 2291 00e4 13       		.uleb128 0x13
 2292 00e5 2E       		.uleb128 0x2e
 2293 00e6 01       		.byte	0x1
 2294 00e7 03       		.uleb128 0x3
 2295 00e8 0E       		.uleb128 0xe
 2296 00e9 3A       		.uleb128 0x3a
 2297 00ea 0B       		.uleb128 0xb
 2298 00eb 3B       		.uleb128 0x3b
 2299 00ec 0B       		.uleb128 0xb
 2300 00ed 27       		.uleb128 0x27
 2301 00ee 19       		.uleb128 0x19
 2302 00ef 20       		.uleb128 0x20
 2303 00f0 0B       		.uleb128 0xb
 2304 00f1 01       		.uleb128 0x1
 2305 00f2 13       		.uleb128 0x13
 2306 00f3 00       		.byte	0
 2307 00f4 00       		.byte	0
 2308 00f5 14       		.uleb128 0x14
 2309 00f6 34       		.uleb128 0x34
 2310 00f7 00       		.byte	0
 2311 00f8 03       		.uleb128 0x3
 2312 00f9 08       		.uleb128 0x8
 2313 00fa 3A       		.uleb128 0x3a
 2314 00fb 0B       		.uleb128 0xb
 2315 00fc 3B       		.uleb128 0x3b
 2316 00fd 0B       		.uleb128 0xb
 2317 00fe 49       		.uleb128 0x49
 2318 00ff 13       		.uleb128 0x13
 2319 0100 00       		.byte	0
 2320 0101 00       		.byte	0
 2321 0102 15       		.uleb128 0x15
 2322 0103 2E       		.uleb128 0x2e
 2323 0104 01       		.byte	0x1
 2324 0105 3F       		.uleb128 0x3f
 2325 0106 19       		.uleb128 0x19
 2326 0107 03       		.uleb128 0x3
 2327 0108 0E       		.uleb128 0xe
 2328 0109 3A       		.uleb128 0x3a
 2329 010a 0B       		.uleb128 0xb
 2330 010b 3B       		.uleb128 0x3b
 2331 010c 0B       		.uleb128 0xb
 2332 010d 27       		.uleb128 0x27
 2333 010e 19       		.uleb128 0x19
 2334 010f 49       		.uleb128 0x49
 2335 0110 13       		.uleb128 0x13
 2336 0111 20       		.uleb128 0x20
 2337 0112 0B       		.uleb128 0xb
ARM GAS  /tmp/ccIqE2Rd.s 			page 42


 2338 0113 01       		.uleb128 0x1
 2339 0114 13       		.uleb128 0x13
 2340 0115 00       		.byte	0
 2341 0116 00       		.byte	0
 2342 0117 16       		.uleb128 0x16
 2343 0118 2E       		.uleb128 0x2e
 2344 0119 01       		.byte	0x1
 2345 011a 3F       		.uleb128 0x3f
 2346 011b 19       		.uleb128 0x19
 2347 011c 03       		.uleb128 0x3
 2348 011d 0E       		.uleb128 0xe
 2349 011e 3A       		.uleb128 0x3a
 2350 011f 0B       		.uleb128 0xb
 2351 0120 3B       		.uleb128 0x3b
 2352 0121 0B       		.uleb128 0xb
 2353 0122 27       		.uleb128 0x27
 2354 0123 19       		.uleb128 0x19
 2355 0124 11       		.uleb128 0x11
 2356 0125 01       		.uleb128 0x1
 2357 0126 12       		.uleb128 0x12
 2358 0127 06       		.uleb128 0x6
 2359 0128 40       		.uleb128 0x40
 2360 0129 18       		.uleb128 0x18
 2361 012a 9742     		.uleb128 0x2117
 2362 012c 19       		.uleb128 0x19
 2363 012d 01       		.uleb128 0x1
 2364 012e 13       		.uleb128 0x13
 2365 012f 00       		.byte	0
 2366 0130 00       		.byte	0
 2367 0131 17       		.uleb128 0x17
 2368 0132 05       		.uleb128 0x5
 2369 0133 00       		.byte	0
 2370 0134 03       		.uleb128 0x3
 2371 0135 08       		.uleb128 0x8
 2372 0136 3A       		.uleb128 0x3a
 2373 0137 0B       		.uleb128 0xb
 2374 0138 3B       		.uleb128 0x3b
 2375 0139 0B       		.uleb128 0xb
 2376 013a 49       		.uleb128 0x49
 2377 013b 13       		.uleb128 0x13
 2378 013c 02       		.uleb128 0x2
 2379 013d 18       		.uleb128 0x18
 2380 013e 00       		.byte	0
 2381 013f 00       		.byte	0
 2382 0140 18       		.uleb128 0x18
 2383 0141 05       		.uleb128 0x5
 2384 0142 00       		.byte	0
 2385 0143 03       		.uleb128 0x3
 2386 0144 08       		.uleb128 0x8
 2387 0145 3A       		.uleb128 0x3a
 2388 0146 0B       		.uleb128 0xb
 2389 0147 3B       		.uleb128 0x3b
 2390 0148 0B       		.uleb128 0xb
 2391 0149 49       		.uleb128 0x49
 2392 014a 13       		.uleb128 0x13
 2393 014b 02       		.uleb128 0x2
 2394 014c 17       		.uleb128 0x17
ARM GAS  /tmp/ccIqE2Rd.s 			page 43


 2395 014d 00       		.byte	0
 2396 014e 00       		.byte	0
 2397 014f 19       		.uleb128 0x19
 2398 0150 34       		.uleb128 0x34
 2399 0151 00       		.byte	0
 2400 0152 03       		.uleb128 0x3
 2401 0153 08       		.uleb128 0x8
 2402 0154 3A       		.uleb128 0x3a
 2403 0155 0B       		.uleb128 0xb
 2404 0156 3B       		.uleb128 0x3b
 2405 0157 0B       		.uleb128 0xb
 2406 0158 49       		.uleb128 0x49
 2407 0159 13       		.uleb128 0x13
 2408 015a 02       		.uleb128 0x2
 2409 015b 17       		.uleb128 0x17
 2410 015c 00       		.byte	0
 2411 015d 00       		.byte	0
 2412 015e 1A       		.uleb128 0x1a
 2413 015f 0B       		.uleb128 0xb
 2414 0160 01       		.byte	0x1
 2415 0161 55       		.uleb128 0x55
 2416 0162 17       		.uleb128 0x17
 2417 0163 00       		.byte	0
 2418 0164 00       		.byte	0
 2419 0165 1B       		.uleb128 0x1b
 2420 0166 1D       		.uleb128 0x1d
 2421 0167 01       		.byte	0x1
 2422 0168 31       		.uleb128 0x31
 2423 0169 13       		.uleb128 0x13
 2424 016a 11       		.uleb128 0x11
 2425 016b 01       		.uleb128 0x1
 2426 016c 12       		.uleb128 0x12
 2427 016d 06       		.uleb128 0x6
 2428 016e 58       		.uleb128 0x58
 2429 016f 0B       		.uleb128 0xb
 2430 0170 59       		.uleb128 0x59
 2431 0171 0B       		.uleb128 0xb
 2432 0172 01       		.uleb128 0x1
 2433 0173 13       		.uleb128 0x13
 2434 0174 00       		.byte	0
 2435 0175 00       		.byte	0
 2436 0176 1C       		.uleb128 0x1c
 2437 0177 05       		.uleb128 0x5
 2438 0178 00       		.byte	0
 2439 0179 31       		.uleb128 0x31
 2440 017a 13       		.uleb128 0x13
 2441 017b 02       		.uleb128 0x2
 2442 017c 17       		.uleb128 0x17
 2443 017d 00       		.byte	0
 2444 017e 00       		.byte	0
 2445 017f 1D       		.uleb128 0x1d
 2446 0180 0B       		.uleb128 0xb
 2447 0181 01       		.byte	0x1
 2448 0182 11       		.uleb128 0x11
 2449 0183 01       		.uleb128 0x1
 2450 0184 12       		.uleb128 0x12
 2451 0185 06       		.uleb128 0x6
ARM GAS  /tmp/ccIqE2Rd.s 			page 44


 2452 0186 00       		.byte	0
 2453 0187 00       		.byte	0
 2454 0188 1E       		.uleb128 0x1e
 2455 0189 34       		.uleb128 0x34
 2456 018a 00       		.byte	0
 2457 018b 31       		.uleb128 0x31
 2458 018c 13       		.uleb128 0x13
 2459 018d 02       		.uleb128 0x2
 2460 018e 17       		.uleb128 0x17
 2461 018f 00       		.byte	0
 2462 0190 00       		.byte	0
 2463 0191 1F       		.uleb128 0x1f
 2464 0192 1D       		.uleb128 0x1d
 2465 0193 01       		.byte	0x1
 2466 0194 31       		.uleb128 0x31
 2467 0195 13       		.uleb128 0x13
 2468 0196 52       		.uleb128 0x52
 2469 0197 01       		.uleb128 0x1
 2470 0198 55       		.uleb128 0x55
 2471 0199 17       		.uleb128 0x17
 2472 019a 58       		.uleb128 0x58
 2473 019b 0B       		.uleb128 0xb
 2474 019c 59       		.uleb128 0x59
 2475 019d 0B       		.uleb128 0xb
 2476 019e 01       		.uleb128 0x1
 2477 019f 13       		.uleb128 0x13
 2478 01a0 00       		.byte	0
 2479 01a1 00       		.byte	0
 2480 01a2 20       		.uleb128 0x20
 2481 01a3 898201   		.uleb128 0x4109
 2482 01a6 01       		.byte	0x1
 2483 01a7 11       		.uleb128 0x11
 2484 01a8 01       		.uleb128 0x1
 2485 01a9 9542     		.uleb128 0x2115
 2486 01ab 19       		.uleb128 0x19
 2487 01ac 31       		.uleb128 0x31
 2488 01ad 13       		.uleb128 0x13
 2489 01ae 01       		.uleb128 0x1
 2490 01af 13       		.uleb128 0x13
 2491 01b0 00       		.byte	0
 2492 01b1 00       		.byte	0
 2493 01b2 21       		.uleb128 0x21
 2494 01b3 8A8201   		.uleb128 0x410a
 2495 01b6 00       		.byte	0
 2496 01b7 02       		.uleb128 0x2
 2497 01b8 18       		.uleb128 0x18
 2498 01b9 9142     		.uleb128 0x2111
 2499 01bb 18       		.uleb128 0x18
 2500 01bc 00       		.byte	0
 2501 01bd 00       		.byte	0
 2502 01be 22       		.uleb128 0x22
 2503 01bf 898201   		.uleb128 0x4109
 2504 01c2 00       		.byte	0
 2505 01c3 11       		.uleb128 0x11
 2506 01c4 01       		.uleb128 0x1
 2507 01c5 31       		.uleb128 0x31
 2508 01c6 13       		.uleb128 0x13
ARM GAS  /tmp/ccIqE2Rd.s 			page 45


 2509 01c7 00       		.byte	0
 2510 01c8 00       		.byte	0
 2511 01c9 23       		.uleb128 0x23
 2512 01ca 0B       		.uleb128 0xb
 2513 01cb 01       		.byte	0x1
 2514 01cc 11       		.uleb128 0x11
 2515 01cd 01       		.uleb128 0x1
 2516 01ce 12       		.uleb128 0x12
 2517 01cf 06       		.uleb128 0x6
 2518 01d0 01       		.uleb128 0x1
 2519 01d1 13       		.uleb128 0x13
 2520 01d2 00       		.byte	0
 2521 01d3 00       		.byte	0
 2522 01d4 24       		.uleb128 0x24
 2523 01d5 34       		.uleb128 0x34
 2524 01d6 00       		.byte	0
 2525 01d7 03       		.uleb128 0x3
 2526 01d8 08       		.uleb128 0x8
 2527 01d9 3A       		.uleb128 0x3a
 2528 01da 0B       		.uleb128 0xb
 2529 01db 3B       		.uleb128 0x3b
 2530 01dc 0B       		.uleb128 0xb
 2531 01dd 49       		.uleb128 0x49
 2532 01de 13       		.uleb128 0x13
 2533 01df 02       		.uleb128 0x2
 2534 01e0 18       		.uleb128 0x18
 2535 01e1 00       		.byte	0
 2536 01e2 00       		.byte	0
 2537 01e3 25       		.uleb128 0x25
 2538 01e4 898201   		.uleb128 0x4109
 2539 01e7 01       		.byte	0x1
 2540 01e8 11       		.uleb128 0x11
 2541 01e9 01       		.uleb128 0x1
 2542 01ea 31       		.uleb128 0x31
 2543 01eb 13       		.uleb128 0x13
 2544 01ec 00       		.byte	0
 2545 01ed 00       		.byte	0
 2546 01ee 26       		.uleb128 0x26
 2547 01ef 2E       		.uleb128 0x2e
 2548 01f0 01       		.byte	0x1
 2549 01f1 3F       		.uleb128 0x3f
 2550 01f2 19       		.uleb128 0x19
 2551 01f3 03       		.uleb128 0x3
 2552 01f4 0E       		.uleb128 0xe
 2553 01f5 3A       		.uleb128 0x3a
 2554 01f6 0B       		.uleb128 0xb
 2555 01f7 3B       		.uleb128 0x3b
 2556 01f8 0B       		.uleb128 0xb
 2557 01f9 27       		.uleb128 0x27
 2558 01fa 19       		.uleb128 0x19
 2559 01fb 49       		.uleb128 0x49
 2560 01fc 13       		.uleb128 0x13
 2561 01fd 11       		.uleb128 0x11
 2562 01fe 01       		.uleb128 0x1
 2563 01ff 12       		.uleb128 0x12
 2564 0200 06       		.uleb128 0x6
 2565 0201 40       		.uleb128 0x40
ARM GAS  /tmp/ccIqE2Rd.s 			page 46


 2566 0202 18       		.uleb128 0x18
 2567 0203 9742     		.uleb128 0x2117
 2568 0205 19       		.uleb128 0x19
 2569 0206 01       		.uleb128 0x1
 2570 0207 13       		.uleb128 0x13
 2571 0208 00       		.byte	0
 2572 0209 00       		.byte	0
 2573 020a 27       		.uleb128 0x27
 2574 020b 05       		.uleb128 0x5
 2575 020c 00       		.byte	0
 2576 020d 31       		.uleb128 0x31
 2577 020e 13       		.uleb128 0x13
 2578 020f 02       		.uleb128 0x2
 2579 0210 18       		.uleb128 0x18
 2580 0211 00       		.byte	0
 2581 0212 00       		.byte	0
 2582 0213 28       		.uleb128 0x28
 2583 0214 2E       		.uleb128 0x2e
 2584 0215 01       		.byte	0x1
 2585 0216 31       		.uleb128 0x31
 2586 0217 13       		.uleb128 0x13
 2587 0218 11       		.uleb128 0x11
 2588 0219 01       		.uleb128 0x1
 2589 021a 12       		.uleb128 0x12
 2590 021b 06       		.uleb128 0x6
 2591 021c 40       		.uleb128 0x40
 2592 021d 18       		.uleb128 0x18
 2593 021e 9742     		.uleb128 0x2117
 2594 0220 19       		.uleb128 0x19
 2595 0221 01       		.uleb128 0x1
 2596 0222 13       		.uleb128 0x13
 2597 0223 00       		.byte	0
 2598 0224 00       		.byte	0
 2599 0225 29       		.uleb128 0x29
 2600 0226 2E       		.uleb128 0x2e
 2601 0227 01       		.byte	0x1
 2602 0228 3F       		.uleb128 0x3f
 2603 0229 19       		.uleb128 0x19
 2604 022a 03       		.uleb128 0x3
 2605 022b 0E       		.uleb128 0xe
 2606 022c 3A       		.uleb128 0x3a
 2607 022d 0B       		.uleb128 0xb
 2608 022e 3B       		.uleb128 0x3b
 2609 022f 05       		.uleb128 0x5
 2610 0230 27       		.uleb128 0x27
 2611 0231 19       		.uleb128 0x19
 2612 0232 49       		.uleb128 0x49
 2613 0233 13       		.uleb128 0x13
 2614 0234 11       		.uleb128 0x11
 2615 0235 01       		.uleb128 0x1
 2616 0236 12       		.uleb128 0x12
 2617 0237 06       		.uleb128 0x6
 2618 0238 40       		.uleb128 0x40
 2619 0239 18       		.uleb128 0x18
 2620 023a 9742     		.uleb128 0x2117
 2621 023c 19       		.uleb128 0x19
 2622 023d 01       		.uleb128 0x1
ARM GAS  /tmp/ccIqE2Rd.s 			page 47


 2623 023e 13       		.uleb128 0x13
 2624 023f 00       		.byte	0
 2625 0240 00       		.byte	0
 2626 0241 2A       		.uleb128 0x2a
 2627 0242 34       		.uleb128 0x34
 2628 0243 00       		.byte	0
 2629 0244 03       		.uleb128 0x3
 2630 0245 08       		.uleb128 0x8
 2631 0246 3A       		.uleb128 0x3a
 2632 0247 0B       		.uleb128 0xb
 2633 0248 3B       		.uleb128 0x3b
 2634 0249 05       		.uleb128 0x5
 2635 024a 49       		.uleb128 0x49
 2636 024b 13       		.uleb128 0x13
 2637 024c 02       		.uleb128 0x2
 2638 024d 17       		.uleb128 0x17
 2639 024e 00       		.byte	0
 2640 024f 00       		.byte	0
 2641 0250 2B       		.uleb128 0x2b
 2642 0251 34       		.uleb128 0x34
 2643 0252 00       		.byte	0
 2644 0253 03       		.uleb128 0x3
 2645 0254 08       		.uleb128 0x8
 2646 0255 3A       		.uleb128 0x3a
 2647 0256 0B       		.uleb128 0xb
 2648 0257 3B       		.uleb128 0x3b
 2649 0258 05       		.uleb128 0x5
 2650 0259 49       		.uleb128 0x49
 2651 025a 13       		.uleb128 0x13
 2652 025b 02       		.uleb128 0x2
 2653 025c 18       		.uleb128 0x18
 2654 025d 00       		.byte	0
 2655 025e 00       		.byte	0
 2656 025f 2C       		.uleb128 0x2c
 2657 0260 34       		.uleb128 0x34
 2658 0261 00       		.byte	0
 2659 0262 03       		.uleb128 0x3
 2660 0263 08       		.uleb128 0x8
 2661 0264 3A       		.uleb128 0x3a
 2662 0265 0B       		.uleb128 0xb
 2663 0266 3B       		.uleb128 0x3b
 2664 0267 05       		.uleb128 0x5
 2665 0268 49       		.uleb128 0x49
 2666 0269 13       		.uleb128 0x13
 2667 026a 00       		.byte	0
 2668 026b 00       		.byte	0
 2669 026c 2D       		.uleb128 0x2d
 2670 026d 34       		.uleb128 0x34
 2671 026e 00       		.byte	0
 2672 026f 03       		.uleb128 0x3
 2673 0270 0E       		.uleb128 0xe
 2674 0271 3A       		.uleb128 0x3a
 2675 0272 0B       		.uleb128 0xb
 2676 0273 3B       		.uleb128 0x3b
 2677 0274 05       		.uleb128 0x5
 2678 0275 49       		.uleb128 0x49
 2679 0276 13       		.uleb128 0x13
ARM GAS  /tmp/ccIqE2Rd.s 			page 48


 2680 0277 02       		.uleb128 0x2
 2681 0278 17       		.uleb128 0x17
 2682 0279 00       		.byte	0
 2683 027a 00       		.byte	0
 2684 027b 2E       		.uleb128 0x2e
 2685 027c 1D       		.uleb128 0x1d
 2686 027d 01       		.byte	0x1
 2687 027e 31       		.uleb128 0x31
 2688 027f 13       		.uleb128 0x13
 2689 0280 52       		.uleb128 0x52
 2690 0281 01       		.uleb128 0x1
 2691 0282 55       		.uleb128 0x55
 2692 0283 17       		.uleb128 0x17
 2693 0284 58       		.uleb128 0x58
 2694 0285 0B       		.uleb128 0xb
 2695 0286 59       		.uleb128 0x59
 2696 0287 05       		.uleb128 0x5
 2697 0288 01       		.uleb128 0x1
 2698 0289 13       		.uleb128 0x13
 2699 028a 00       		.byte	0
 2700 028b 00       		.byte	0
 2701 028c 2F       		.uleb128 0x2f
 2702 028d 2E       		.uleb128 0x2e
 2703 028e 01       		.byte	0x1
 2704 028f 3F       		.uleb128 0x3f
 2705 0290 19       		.uleb128 0x19
 2706 0291 03       		.uleb128 0x3
 2707 0292 0E       		.uleb128 0xe
 2708 0293 3A       		.uleb128 0x3a
 2709 0294 0B       		.uleb128 0xb
 2710 0295 3B       		.uleb128 0x3b
 2711 0296 05       		.uleb128 0x5
 2712 0297 27       		.uleb128 0x27
 2713 0298 19       		.uleb128 0x19
 2714 0299 11       		.uleb128 0x11
 2715 029a 01       		.uleb128 0x1
 2716 029b 12       		.uleb128 0x12
 2717 029c 06       		.uleb128 0x6
 2718 029d 40       		.uleb128 0x40
 2719 029e 18       		.uleb128 0x18
 2720 029f 9742     		.uleb128 0x2117
 2721 02a1 19       		.uleb128 0x19
 2722 02a2 01       		.uleb128 0x1
 2723 02a3 13       		.uleb128 0x13
 2724 02a4 00       		.byte	0
 2725 02a5 00       		.byte	0
 2726 02a6 30       		.uleb128 0x30
 2727 02a7 0B       		.uleb128 0xb
 2728 02a8 01       		.byte	0x1
 2729 02a9 55       		.uleb128 0x55
 2730 02aa 17       		.uleb128 0x17
 2731 02ab 01       		.uleb128 0x1
 2732 02ac 13       		.uleb128 0x13
 2733 02ad 00       		.byte	0
 2734 02ae 00       		.byte	0
 2735 02af 31       		.uleb128 0x31
 2736 02b0 34       		.uleb128 0x34
ARM GAS  /tmp/ccIqE2Rd.s 			page 49


 2737 02b1 00       		.byte	0
 2738 02b2 03       		.uleb128 0x3
 2739 02b3 0E       		.uleb128 0xe
 2740 02b4 3A       		.uleb128 0x3a
 2741 02b5 0B       		.uleb128 0xb
 2742 02b6 3B       		.uleb128 0x3b
 2743 02b7 0B       		.uleb128 0xb
 2744 02b8 49       		.uleb128 0x49
 2745 02b9 13       		.uleb128 0x13
 2746 02ba 3F       		.uleb128 0x3f
 2747 02bb 19       		.uleb128 0x19
 2748 02bc 3C       		.uleb128 0x3c
 2749 02bd 19       		.uleb128 0x19
 2750 02be 00       		.byte	0
 2751 02bf 00       		.byte	0
 2752 02c0 32       		.uleb128 0x32
 2753 02c1 2E       		.uleb128 0x2e
 2754 02c2 01       		.byte	0x1
 2755 02c3 3F       		.uleb128 0x3f
 2756 02c4 19       		.uleb128 0x19
 2757 02c5 03       		.uleb128 0x3
 2758 02c6 0E       		.uleb128 0xe
 2759 02c7 3A       		.uleb128 0x3a
 2760 02c8 0B       		.uleb128 0xb
 2761 02c9 3B       		.uleb128 0x3b
 2762 02ca 0B       		.uleb128 0xb
 2763 02cb 27       		.uleb128 0x27
 2764 02cc 19       		.uleb128 0x19
 2765 02cd 3C       		.uleb128 0x3c
 2766 02ce 19       		.uleb128 0x19
 2767 02cf 01       		.uleb128 0x1
 2768 02d0 13       		.uleb128 0x13
 2769 02d1 00       		.byte	0
 2770 02d2 00       		.byte	0
 2771 02d3 33       		.uleb128 0x33
 2772 02d4 05       		.uleb128 0x5
 2773 02d5 00       		.byte	0
 2774 02d6 49       		.uleb128 0x49
 2775 02d7 13       		.uleb128 0x13
 2776 02d8 00       		.byte	0
 2777 02d9 00       		.byte	0
 2778 02da 34       		.uleb128 0x34
 2779 02db 2E       		.uleb128 0x2e
 2780 02dc 01       		.byte	0x1
 2781 02dd 3F       		.uleb128 0x3f
 2782 02de 19       		.uleb128 0x19
 2783 02df 03       		.uleb128 0x3
 2784 02e0 0E       		.uleb128 0xe
 2785 02e1 3A       		.uleb128 0x3a
 2786 02e2 0B       		.uleb128 0xb
 2787 02e3 3B       		.uleb128 0x3b
 2788 02e4 0B       		.uleb128 0xb
 2789 02e5 27       		.uleb128 0x27
 2790 02e6 19       		.uleb128 0x19
 2791 02e7 49       		.uleb128 0x49
 2792 02e8 13       		.uleb128 0x13
 2793 02e9 3C       		.uleb128 0x3c
ARM GAS  /tmp/ccIqE2Rd.s 			page 50


 2794 02ea 19       		.uleb128 0x19
 2795 02eb 01       		.uleb128 0x1
 2796 02ec 13       		.uleb128 0x13
 2797 02ed 00       		.byte	0
 2798 02ee 00       		.byte	0
 2799 02ef 35       		.uleb128 0x35
 2800 02f0 2E       		.uleb128 0x2e
 2801 02f1 00       		.byte	0
 2802 02f2 3F       		.uleb128 0x3f
 2803 02f3 19       		.uleb128 0x19
 2804 02f4 03       		.uleb128 0x3
 2805 02f5 0E       		.uleb128 0xe
 2806 02f6 3A       		.uleb128 0x3a
 2807 02f7 0B       		.uleb128 0xb
 2808 02f8 3B       		.uleb128 0x3b
 2809 02f9 0B       		.uleb128 0xb
 2810 02fa 27       		.uleb128 0x27
 2811 02fb 19       		.uleb128 0x19
 2812 02fc 3C       		.uleb128 0x3c
 2813 02fd 19       		.uleb128 0x19
 2814 02fe 00       		.byte	0
 2815 02ff 00       		.byte	0
 2816 0300 00       		.byte	0
 2817              		.section	.debug_loc,"",%progbits
 2818              	.Ldebug_loc0:
 2819              	.LLST0:
 2820 0000 00000000 		.4byte	.LVL1
 2821 0004 16000000 		.4byte	.LVL4
 2822 0008 0100     		.2byte	0x1
 2823 000a 50       		.byte	0x50
 2824 000b 16000000 		.4byte	.LVL4
 2825 000f 48000000 		.4byte	.LVL8
 2826 0013 0100     		.2byte	0x1
 2827 0015 55       		.byte	0x55
 2828 0016 48000000 		.4byte	.LVL8
 2829 001a 4B000000 		.4byte	.LVL9-1
 2830 001e 0500     		.2byte	0x5
 2831 0020 72       		.byte	0x72
 2832 0021 00       		.sleb128 0
 2833 0022 06       		.byte	0x6
 2834 0023 23       		.byte	0x23
 2835 0024 24       		.uleb128 0x24
 2836 0025 4B000000 		.4byte	.LVL9-1
 2837 0029 4C000000 		.4byte	.LVL9
 2838 002d 0400     		.2byte	0x4
 2839 002f F3       		.byte	0xf3
 2840 0030 01       		.uleb128 0x1
 2841 0031 50       		.byte	0x50
 2842 0032 9F       		.byte	0x9f
 2843 0033 4C000000 		.4byte	.LVL9
 2844 0037 B8000000 		.4byte	.LVL22
 2845 003b 0100     		.2byte	0x1
 2846 003d 55       		.byte	0x55
 2847 003e B8000000 		.4byte	.LVL22
 2848 0042 C8000000 		.4byte	.LFE9
 2849 0046 0100     		.2byte	0x1
 2850 0048 50       		.byte	0x50
ARM GAS  /tmp/ccIqE2Rd.s 			page 51


 2851 0049 00000000 		.4byte	0
 2852 004d 00000000 		.4byte	0
 2853              	.LLST1:
 2854 0051 08000000 		.4byte	.LVL2
 2855 0055 48000000 		.4byte	.LVL8
 2856 0059 0100     		.2byte	0x1
 2857 005b 54       		.byte	0x54
 2858 005c 48000000 		.4byte	.LVL8
 2859 0060 4B000000 		.4byte	.LVL9-1
 2860 0064 0200     		.2byte	0x2
 2861 0066 72       		.byte	0x72
 2862 0067 00       		.sleb128 0
 2863 0068 4C000000 		.4byte	.LVL9
 2864 006c C2000000 		.4byte	.LVL23
 2865 0070 0100     		.2byte	0x1
 2866 0072 54       		.byte	0x54
 2867 0073 00000000 		.4byte	0
 2868 0077 00000000 		.4byte	0
 2869              	.LLST2:
 2870 007b 12000000 		.4byte	.LVL3
 2871 007f 24000000 		.4byte	.LVL5
 2872 0083 0100     		.2byte	0x1
 2873 0085 52       		.byte	0x52
 2874 0086 4C000000 		.4byte	.LVL9
 2875 008a 56000000 		.4byte	.LVL10
 2876 008e 0100     		.2byte	0x1
 2877 0090 52       		.byte	0x52
 2878 0091 56000000 		.4byte	.LVL10
 2879 0095 5B000000 		.4byte	.LVL11-1
 2880 0099 0100     		.2byte	0x1
 2881 009b 50       		.byte	0x50
 2882 009c 5E000000 		.4byte	.LVL12
 2883 00a0 B8000000 		.4byte	.LVL22
 2884 00a4 0100     		.2byte	0x1
 2885 00a6 52       		.byte	0x52
 2886 00a7 00000000 		.4byte	0
 2887 00ab 00000000 		.4byte	0
 2888              	.LLST3:
 2889 00af 24000000 		.4byte	.LVL5
 2890 00b3 48000000 		.4byte	.LVL8
 2891 00b7 0100     		.2byte	0x1
 2892 00b9 55       		.byte	0x55
 2893 00ba 48000000 		.4byte	.LVL8
 2894 00be 4B000000 		.4byte	.LVL9-1
 2895 00c2 0500     		.2byte	0x5
 2896 00c4 72       		.byte	0x72
 2897 00c5 00       		.sleb128 0
 2898 00c6 06       		.byte	0x6
 2899 00c7 23       		.byte	0x23
 2900 00c8 24       		.uleb128 0x24
 2901 00c9 4B000000 		.4byte	.LVL9-1
 2902 00cd 4C000000 		.4byte	.LVL9
 2903 00d1 0400     		.2byte	0x4
 2904 00d3 F3       		.byte	0xf3
 2905 00d4 01       		.uleb128 0x1
 2906 00d5 50       		.byte	0x50
 2907 00d6 9F       		.byte	0x9f
ARM GAS  /tmp/ccIqE2Rd.s 			page 52


 2908 00d7 00000000 		.4byte	0
 2909 00db 00000000 		.4byte	0
 2910              	.LLST4:
 2911 00df 24000000 		.4byte	.LVL5
 2912 00e3 48000000 		.4byte	.LVL8
 2913 00e7 0100     		.2byte	0x1
 2914 00e9 54       		.byte	0x54
 2915 00ea 48000000 		.4byte	.LVL8
 2916 00ee 4B000000 		.4byte	.LVL9-1
 2917 00f2 0200     		.2byte	0x2
 2918 00f4 72       		.byte	0x72
 2919 00f5 00       		.sleb128 0
 2920 00f6 00000000 		.4byte	0
 2921 00fa 00000000 		.4byte	0
 2922              	.LLST5:
 2923 00fe 24000000 		.4byte	.LVL5
 2924 0102 28000000 		.4byte	.LVL6
 2925 0106 0100     		.2byte	0x1
 2926 0108 55       		.byte	0x55
 2927 0109 28000000 		.4byte	.LVL6
 2928 010d 48000000 		.4byte	.LVL8
 2929 0111 0100     		.2byte	0x1
 2930 0113 53       		.byte	0x53
 2931 0114 00000000 		.4byte	0
 2932 0118 00000000 		.4byte	0
 2933              	.LLST6:
 2934 011c 4C000000 		.4byte	.LVL9
 2935 0120 56000000 		.4byte	.LVL10
 2936 0124 0100     		.2byte	0x1
 2937 0126 52       		.byte	0x52
 2938 0127 56000000 		.4byte	.LVL10
 2939 012b 5B000000 		.4byte	.LVL11-1
 2940 012f 0100     		.2byte	0x1
 2941 0131 50       		.byte	0x50
 2942 0132 00000000 		.4byte	0
 2943 0136 00000000 		.4byte	0
 2944              	.LLST7:
 2945 013a 5E000000 		.4byte	.LVL12
 2946 013e 86000000 		.4byte	.LVL16
 2947 0142 0100     		.2byte	0x1
 2948 0144 52       		.byte	0x52
 2949 0145 00000000 		.4byte	0
 2950 0149 00000000 		.4byte	0
 2951              	.LLST8:
 2952 014d 64000000 		.4byte	.LVL13
 2953 0151 86000000 		.4byte	.LVL16
 2954 0155 0100     		.2byte	0x1
 2955 0157 56       		.byte	0x56
 2956 0158 00000000 		.4byte	0
 2957 015c 00000000 		.4byte	0
 2958              	.LLST9:
 2959 0160 64000000 		.4byte	.LVL13
 2960 0164 86000000 		.4byte	.LVL16
 2961 0168 0100     		.2byte	0x1
 2962 016a 52       		.byte	0x52
 2963 016b 00000000 		.4byte	0
 2964 016f 00000000 		.4byte	0
ARM GAS  /tmp/ccIqE2Rd.s 			page 53


 2965              	.LLST10:
 2966 0173 64000000 		.4byte	.LVL13
 2967 0177 6E000000 		.4byte	.LVL14
 2968 017b 0100     		.2byte	0x1
 2969 017d 56       		.byte	0x56
 2970 017e 6E000000 		.4byte	.LVL14
 2971 0182 86000000 		.4byte	.LVL16
 2972 0186 0100     		.2byte	0x1
 2973 0188 53       		.byte	0x53
 2974 0189 00000000 		.4byte	0
 2975 018d 00000000 		.4byte	0
 2976              	.LLST11:
 2977 0191 86000000 		.4byte	.LVL16
 2978 0195 AE000000 		.4byte	.LVL20
 2979 0199 0100     		.2byte	0x1
 2980 019b 52       		.byte	0x52
 2981 019c AE000000 		.4byte	.LVL20
 2982 01a0 B2000000 		.4byte	.LVL21
 2983 01a4 0200     		.2byte	0x2
 2984 01a6 73       		.byte	0x73
 2985 01a7 04       		.sleb128 4
 2986 01a8 00000000 		.4byte	0
 2987 01ac 00000000 		.4byte	0
 2988              	.LLST12:
 2989 01b0 8C000000 		.4byte	.LVL17
 2990 01b4 B8000000 		.4byte	.LVL22
 2991 01b8 0100     		.2byte	0x1
 2992 01ba 56       		.byte	0x56
 2993 01bb 00000000 		.4byte	0
 2994 01bf 00000000 		.4byte	0
 2995              	.LLST13:
 2996 01c3 8C000000 		.4byte	.LVL17
 2997 01c7 AE000000 		.4byte	.LVL20
 2998 01cb 0100     		.2byte	0x1
 2999 01cd 52       		.byte	0x52
 3000 01ce AE000000 		.4byte	.LVL20
 3001 01d2 B2000000 		.4byte	.LVL21
 3002 01d6 0200     		.2byte	0x2
 3003 01d8 73       		.byte	0x73
 3004 01d9 04       		.sleb128 4
 3005 01da 00000000 		.4byte	0
 3006 01de 00000000 		.4byte	0
 3007              	.LLST14:
 3008 01e2 8C000000 		.4byte	.LVL17
 3009 01e6 96000000 		.4byte	.LVL18
 3010 01ea 0100     		.2byte	0x1
 3011 01ec 56       		.byte	0x56
 3012 01ed 96000000 		.4byte	.LVL18
 3013 01f1 B2000000 		.4byte	.LVL21
 3014 01f5 0100     		.2byte	0x1
 3015 01f7 53       		.byte	0x53
 3016 01f8 00000000 		.4byte	0
 3017 01fc 00000000 		.4byte	0
 3018              	.LLST15:
 3019 0200 00000000 		.4byte	.LVL24
 3020 0204 0B000000 		.4byte	.LVL25-1
 3021 0208 0100     		.2byte	0x1
ARM GAS  /tmp/ccIqE2Rd.s 			page 54


 3022 020a 50       		.byte	0x50
 3023 020b 0B000000 		.4byte	.LVL25-1
 3024 020f 14000000 		.4byte	.LFE8
 3025 0213 0400     		.2byte	0x4
 3026 0215 F3       		.byte	0xf3
 3027 0216 01       		.uleb128 0x1
 3028 0217 50       		.byte	0x50
 3029 0218 9F       		.byte	0x9f
 3030 0219 00000000 		.4byte	0
 3031 021d 00000000 		.4byte	0
 3032              	.LLST16:
 3033 0221 00000000 		.4byte	.LVL26
 3034 0225 0C000000 		.4byte	.LVL28
 3035 0229 0100     		.2byte	0x1
 3036 022b 50       		.byte	0x50
 3037 022c 0C000000 		.4byte	.LVL28
 3038 0230 30000000 		.4byte	.LFE10
 3039 0234 0100     		.2byte	0x1
 3040 0236 52       		.byte	0x52
 3041 0237 00000000 		.4byte	0
 3042 023b 00000000 		.4byte	0
 3043              	.LLST17:
 3044 023f 08000000 		.4byte	.LVL27
 3045 0243 0C000000 		.4byte	.LVL28
 3046 0247 0100     		.2byte	0x1
 3047 0249 50       		.byte	0x50
 3048 024a 0C000000 		.4byte	.LVL28
 3049 024e 30000000 		.4byte	.LFE10
 3050 0252 0100     		.2byte	0x1
 3051 0254 52       		.byte	0x52
 3052 0255 00000000 		.4byte	0
 3053 0259 00000000 		.4byte	0
 3054              	.LLST18:
 3055 025d 00000000 		.4byte	.LVL30
 3056 0261 08000000 		.4byte	.LVL31
 3057 0265 0100     		.2byte	0x1
 3058 0267 50       		.byte	0x50
 3059 0268 08000000 		.4byte	.LVL31
 3060 026c 0A000000 		.4byte	.LVL32
 3061 0270 0100     		.2byte	0x1
 3062 0272 53       		.byte	0x53
 3063 0273 0A000000 		.4byte	.LVL32
 3064 0277 0E000000 		.4byte	.LVL33
 3065 027b 0100     		.2byte	0x1
 3066 027d 50       		.byte	0x50
 3067 027e 0E000000 		.4byte	.LVL33
 3068 0282 20000000 		.4byte	.LFE11
 3069 0286 0100     		.2byte	0x1
 3070 0288 53       		.byte	0x53
 3071 0289 00000000 		.4byte	0
 3072 028d 00000000 		.4byte	0
 3073              	.LLST19:
 3074 0291 0A000000 		.4byte	.LVL32
 3075 0295 0E000000 		.4byte	.LVL33
 3076 0299 0100     		.2byte	0x1
 3077 029b 50       		.byte	0x50
 3078 029c 0E000000 		.4byte	.LVL33
ARM GAS  /tmp/ccIqE2Rd.s 			page 55


 3079 02a0 20000000 		.4byte	.LFE11
 3080 02a4 0100     		.2byte	0x1
 3081 02a6 53       		.byte	0x53
 3082 02a7 00000000 		.4byte	0
 3083 02ab 00000000 		.4byte	0
 3084              	.LLST20:
 3085 02af 06000000 		.4byte	.LVL34
 3086 02b3 3A000000 		.4byte	.LVL41
 3087 02b7 0100     		.2byte	0x1
 3088 02b9 50       		.byte	0x50
 3089 02ba 52000000 		.4byte	.LVL44
 3090 02be 5E000000 		.4byte	.LVL45
 3091 02c2 0100     		.2byte	0x1
 3092 02c4 50       		.byte	0x50
 3093 02c5 5E000000 		.4byte	.LVL45
 3094 02c9 64000000 		.4byte	.LFE12
 3095 02cd 0200     		.2byte	0x2
 3096 02cf 72       		.byte	0x72
 3097 02d0 1C       		.sleb128 28
 3098 02d1 00000000 		.4byte	0
 3099 02d5 00000000 		.4byte	0
 3100              	.LLST21:
 3101 02d9 0E000000 		.4byte	.LVL35
 3102 02dd 60000000 		.4byte	.LVL46
 3103 02e1 0100     		.2byte	0x1
 3104 02e3 54       		.byte	0x54
 3105 02e4 60000000 		.4byte	.LVL46
 3106 02e8 64000000 		.4byte	.LFE12
 3107 02ec 0100     		.2byte	0x1
 3108 02ee 50       		.byte	0x50
 3109 02ef 00000000 		.4byte	0
 3110 02f3 00000000 		.4byte	0
 3111              	.LLST22:
 3112 02f7 1A000000 		.4byte	.LVL36
 3113 02fb 32000000 		.4byte	.LVL39
 3114 02ff 0100     		.2byte	0x1
 3115 0301 53       		.byte	0x53
 3116 0302 00000000 		.4byte	0
 3117 0306 00000000 		.4byte	0
 3118              	.LLST23:
 3119 030a 1A000000 		.4byte	.LVL36
 3120 030e 3E000000 		.4byte	.LVL42
 3121 0312 0100     		.2byte	0x1
 3122 0314 51       		.byte	0x51
 3123 0315 00000000 		.4byte	0
 3124 0319 00000000 		.4byte	0
 3125              	.LLST24:
 3126 031d 36000000 		.4byte	.LVL40
 3127 0321 52000000 		.4byte	.LVL44
 3128 0325 0100     		.2byte	0x1
 3129 0327 54       		.byte	0x54
 3130 0328 00000000 		.4byte	0
 3131 032c 00000000 		.4byte	0
 3132              	.LLST25:
 3133 0330 36000000 		.4byte	.LVL40
 3134 0334 52000000 		.4byte	.LVL44
 3135 0338 0100     		.2byte	0x1
ARM GAS  /tmp/ccIqE2Rd.s 			page 56


 3136 033a 55       		.byte	0x55
 3137 033b 00000000 		.4byte	0
 3138 033f 00000000 		.4byte	0
 3139              	.LLST26:
 3140 0343 06000000 		.4byte	.LVL47
 3141 0347 34000000 		.4byte	.LVL54
 3142 034b 0100     		.2byte	0x1
 3143 034d 50       		.byte	0x50
 3144 034e 44000000 		.4byte	.LVL56
 3145 0352 4A000000 		.4byte	.LVL57
 3146 0356 0100     		.2byte	0x1
 3147 0358 50       		.byte	0x50
 3148 0359 00000000 		.4byte	0
 3149 035d 00000000 		.4byte	0
 3150              	.LLST27:
 3151 0361 08000000 		.4byte	.LVL48
 3152 0365 4C000000 		.4byte	.LVL58
 3153 0369 0100     		.2byte	0x1
 3154 036b 54       		.byte	0x54
 3155 036c 4C000000 		.4byte	.LVL58
 3156 0370 50000000 		.4byte	.LFE13
 3157 0374 0100     		.2byte	0x1
 3158 0376 50       		.byte	0x50
 3159 0377 00000000 		.4byte	0
 3160 037b 00000000 		.4byte	0
 3161              	.LLST28:
 3162 037f 14000000 		.4byte	.LVL49
 3163 0383 2E000000 		.4byte	.LVL52
 3164 0387 0100     		.2byte	0x1
 3165 0389 53       		.byte	0x53
 3166 038a 00000000 		.4byte	0
 3167 038e 00000000 		.4byte	0
 3168              	.LLST29:
 3169 0392 14000000 		.4byte	.LVL49
 3170 0396 3F000000 		.4byte	.LVL55-1
 3171 039a 0100     		.2byte	0x1
 3172 039c 51       		.byte	0x51
 3173 039d 00000000 		.4byte	0
 3174 03a1 00000000 		.4byte	0
 3175              	.LLST30:
 3176 03a5 30000000 		.4byte	.LVL53
 3177 03a9 44000000 		.4byte	.LVL56
 3178 03ad 0100     		.2byte	0x1
 3179 03af 54       		.byte	0x54
 3180 03b0 00000000 		.4byte	0
 3181 03b4 00000000 		.4byte	0
 3182              	.LLST31:
 3183 03b8 30000000 		.4byte	.LVL53
 3184 03bc 44000000 		.4byte	.LVL56
 3185 03c0 0100     		.2byte	0x1
 3186 03c2 55       		.byte	0x55
 3187 03c3 00000000 		.4byte	0
 3188 03c7 00000000 		.4byte	0
 3189              	.LLST32:
 3190 03cb 08000000 		.4byte	.LVL59
 3191 03cf 4E000000 		.4byte	.LVL67
 3192 03d3 0100     		.2byte	0x1
ARM GAS  /tmp/ccIqE2Rd.s 			page 57


 3193 03d5 54       		.byte	0x54
 3194 03d6 00000000 		.4byte	0
 3195 03da 00000000 		.4byte	0
 3196              	.LLST33:
 3197 03de 14000000 		.4byte	.LVL60
 3198 03e2 27000000 		.4byte	.LVL61-1
 3199 03e6 0100     		.2byte	0x1
 3200 03e8 53       		.byte	0x53
 3201 03e9 2C000000 		.4byte	.LVL62
 3202 03ed 3A000000 		.4byte	.LVL64
 3203 03f1 0100     		.2byte	0x1
 3204 03f3 53       		.byte	0x53
 3205 03f4 00000000 		.4byte	0
 3206 03f8 00000000 		.4byte	0
 3207              	.LLST35:
 3208 03fc 14000000 		.4byte	.LVL60
 3209 0400 27000000 		.4byte	.LVL61-1
 3210 0404 0100     		.2byte	0x1
 3211 0406 52       		.byte	0x52
 3212 0407 2E000000 		.4byte	.LVL63
 3213 040b 3E000000 		.4byte	.LVL65
 3214 040f 0100     		.2byte	0x1
 3215 0411 52       		.byte	0x52
 3216 0412 00000000 		.4byte	0
 3217 0416 00000000 		.4byte	0
 3218              		.section	.debug_aranges,"",%progbits
 3219 0000 54000000 		.4byte	0x54
 3220 0004 0200     		.2byte	0x2
 3221 0006 00000000 		.4byte	.Ldebug_info0
 3222 000a 04       		.byte	0x4
 3223 000b 00       		.byte	0
 3224 000c 0000     		.2byte	0
 3225 000e 0000     		.2byte	0
 3226 0010 00000000 		.4byte	.LFB7
 3227 0014 0A000000 		.4byte	.LFE7-.LFB7
 3228 0018 00000000 		.4byte	.LFB9
 3229 001c C8000000 		.4byte	.LFE9-.LFB9
 3230 0020 00000000 		.4byte	.LFB8
 3231 0024 14000000 		.4byte	.LFE8-.LFB8
 3232 0028 00000000 		.4byte	.LFB10
 3233 002c 30000000 		.4byte	.LFE10-.LFB10
 3234 0030 00000000 		.4byte	.LFB11
 3235 0034 20000000 		.4byte	.LFE11-.LFB11
 3236 0038 00000000 		.4byte	.LFB12
 3237 003c 64000000 		.4byte	.LFE12-.LFB12
 3238 0040 00000000 		.4byte	.LFB13
 3239 0044 50000000 		.4byte	.LFE13-.LFB13
 3240 0048 00000000 		.4byte	.LFB14
 3241 004c 54000000 		.4byte	.LFE14-.LFB14
 3242 0050 00000000 		.4byte	0
 3243 0054 00000000 		.4byte	0
 3244              		.section	.debug_ranges,"",%progbits
 3245              	.Ldebug_ranges0:
 3246 0000 0C000000 		.4byte	.LBB33
 3247 0004 44000000 		.4byte	.LBE33
 3248 0008 48000000 		.4byte	.LBB58
 3249 000c B8000000 		.4byte	.LBE58
ARM GAS  /tmp/ccIqE2Rd.s 			page 58


 3250 0010 00000000 		.4byte	0
 3251 0014 00000000 		.4byte	0
 3252 0018 4C000000 		.4byte	.LBB36
 3253 001c 52000000 		.4byte	.LBE36
 3254 0020 54000000 		.4byte	.LBB39
 3255 0024 58000000 		.4byte	.LBE39
 3256 0028 00000000 		.4byte	0
 3257 002c 00000000 		.4byte	0
 3258 0030 5E000000 		.4byte	.LBB40
 3259 0034 62000000 		.4byte	.LBE40
 3260 0038 64000000 		.4byte	.LBB44
 3261 003c 68000000 		.4byte	.LBE44
 3262 0040 6A000000 		.4byte	.LBB48
 3263 0044 6E000000 		.4byte	.LBE48
 3264 0048 00000000 		.4byte	0
 3265 004c 00000000 		.4byte	0
 3266 0050 68000000 		.4byte	.LBB45
 3267 0054 6A000000 		.4byte	.LBE45
 3268 0058 6E000000 		.4byte	.LBB49
 3269 005c 86000000 		.4byte	.LBE49
 3270 0060 00000000 		.4byte	0
 3271 0064 00000000 		.4byte	0
 3272 0068 86000000 		.4byte	.LBB50
 3273 006c 8A000000 		.4byte	.LBE50
 3274 0070 8C000000 		.4byte	.LBB54
 3275 0074 90000000 		.4byte	.LBE54
 3276 0078 92000000 		.4byte	.LBB55
 3277 007c 96000000 		.4byte	.LBE55
 3278 0080 00000000 		.4byte	0
 3279 0084 00000000 		.4byte	0
 3280 0088 08000000 		.4byte	.LBB68
 3281 008c 0E000000 		.4byte	.LBE68
 3282 0090 16000000 		.4byte	.LBB74
 3283 0094 24000000 		.4byte	.LBE74
 3284 0098 00000000 		.4byte	0
 3285 009c 00000000 		.4byte	0
 3286 00a0 0E000000 		.4byte	.LBB73
 3287 00a4 14000000 		.4byte	.LBE73
 3288 00a8 24000000 		.4byte	.LBB75
 3289 00ac 2A000000 		.4byte	.LBE75
 3290 00b0 00000000 		.4byte	0
 3291 00b4 00000000 		.4byte	0
 3292 00b8 30000000 		.4byte	.LBB82
 3293 00bc 32000000 		.4byte	.LBE82
 3294 00c0 36000000 		.4byte	.LBB86
 3295 00c4 38000000 		.4byte	.LBE86
 3296 00c8 3A000000 		.4byte	.LBB87
 3297 00cc 3C000000 		.4byte	.LBE87
 3298 00d0 00000000 		.4byte	0
 3299 00d4 00000000 		.4byte	0
 3300 00d8 48000000 		.4byte	.LBB88
 3301 00dc 4E000000 		.4byte	.LBE88
 3302 00e0 56000000 		.4byte	.LBB89
 3303 00e4 5C000000 		.4byte	.LBE89
 3304 00e8 00000000 		.4byte	0
 3305 00ec 00000000 		.4byte	0
 3306 00f0 2C000000 		.4byte	.LBB91
ARM GAS  /tmp/ccIqE2Rd.s 			page 59


 3307 00f4 2E000000 		.4byte	.LBE91
 3308 00f8 30000000 		.4byte	.LBB95
 3309 00fc 32000000 		.4byte	.LBE95
 3310 0100 34000000 		.4byte	.LBB96
 3311 0104 36000000 		.4byte	.LBE96
 3312 0108 00000000 		.4byte	0
 3313 010c 00000000 		.4byte	0
 3314 0110 04000000 		.4byte	.LBB97
 3315 0114 06000000 		.4byte	.LBE97
 3316 0118 08000000 		.4byte	.LBB98
 3317 011c 0C000000 		.4byte	.LBE98
 3318 0120 00000000 		.4byte	0
 3319 0124 00000000 		.4byte	0
 3320 0128 10000000 		.4byte	.LBB99
 3321 012c 28000000 		.4byte	.LBE99
 3322 0130 2C000000 		.4byte	.LBB105
 3323 0134 38000000 		.4byte	.LBE105
 3324 0138 00000000 		.4byte	0
 3325 013c 00000000 		.4byte	0
 3326 0140 16000000 		.4byte	.LBB101
 3327 0144 18000000 		.4byte	.LBE101
 3328 0148 1A000000 		.4byte	.LBB104
 3329 014c 1E000000 		.4byte	.LBE104
 3330 0150 00000000 		.4byte	0
 3331 0154 00000000 		.4byte	0
 3332 0158 00000000 		.4byte	.LFB7
 3333 015c 0A000000 		.4byte	.LFE7
 3334 0160 00000000 		.4byte	.LFB9
 3335 0164 C8000000 		.4byte	.LFE9
 3336 0168 00000000 		.4byte	.LFB8
 3337 016c 14000000 		.4byte	.LFE8
 3338 0170 00000000 		.4byte	.LFB10
 3339 0174 30000000 		.4byte	.LFE10
 3340 0178 00000000 		.4byte	.LFB11
 3341 017c 20000000 		.4byte	.LFE11
 3342 0180 00000000 		.4byte	.LFB12
 3343 0184 64000000 		.4byte	.LFE12
 3344 0188 00000000 		.4byte	.LFB13
 3345 018c 50000000 		.4byte	.LFE13
 3346 0190 00000000 		.4byte	.LFB14
 3347 0194 54000000 		.4byte	.LFE14
 3348 0198 00000000 		.4byte	0
 3349 019c 00000000 		.4byte	0
 3350              		.section	.debug_line,"",%progbits
 3351              	.Ldebug_line0:
 3352 0000 1C040000 		.section	.debug_str,"MS",%progbits,1
 3352      02001C02 
 3352      00000201 
 3352      FB0E0D00 
 3352      01010101 
 3353              	.LASF38:
 3354 0000 705F6D73 		.ascii	"p_msg\000"
 3354      6700
 3355              	.LASF61:
 3356 0006 7264796D 		.ascii	"rdymsg\000"
 3356      736700
 3357              	.LASF5:
ARM GAS  /tmp/ccIqE2Rd.s 			page 60


 3358 000d 5F5F7569 		.ascii	"__uint8_t\000"
 3358      6E74385F 
 3358      7400
 3359              	.LASF80:
 3360 0017 474E5520 		.ascii	"GNU C 4.9.3 20150529 (release) [ARM/embedded-4_9-br"
 3360      4320342E 
 3360      392E3320 
 3360      32303135 
 3360      30353239 
 3361 004a 616E6368 		.ascii	"anch revision 227977] -mcpu=cortex-m3 -mno-thumb-in"
 3361      20726576 
 3361      6973696F 
 3361      6E203232 
 3361      37393737 
 3362 007d 74657277 		.ascii	"terwork -mthumb -ggdb -O2 -std=gnu99 -fomit-frame-p"
 3362      6F726B20 
 3362      2D6D7468 
 3362      756D6220 
 3362      2D676764 
 3363 00b0 6F696E74 		.ascii	"ointer -falign-functions=16 -ffunction-sections -fd"
 3363      6572202D 
 3363      66616C69 
 3363      676E2D66 
 3363      756E6374 
 3364 00e3 6174612D 		.ascii	"ata-sections -fno-common\000"
 3364      73656374 
 3364      696F6E73 
 3364      202D666E 
 3364      6F2D636F 
 3365              	.LASF11:
 3366 00fc 6C6F6E67 		.ascii	"long long unsigned int\000"
 3366      206C6F6E 
 3366      6720756E 
 3366      7369676E 
 3366      65642069 
 3367              	.LASF62:
 3368 0113 65786974 		.ascii	"exitcode\000"
 3368      636F6465 
 3368      00
 3369              	.LASF72:
 3370 011c 63684D74 		.ascii	"chMtxUnlock\000"
 3370      78556E6C 
 3370      6F636B00 
 3371              	.LASF27:
 3372 0128 705F7072 		.ascii	"p_prio\000"
 3372      696F00
 3373              	.LASF10:
 3374 012f 6C6F6E67 		.ascii	"long long int\000"
 3374      206C6F6E 
 3374      6720696E 
 3374      7400
 3375              	.LASF1:
 3376 013d 7369676E 		.ascii	"signed char\000"
 3376      65642063 
 3376      68617200 
 3377              	.LASF42:
 3378 0149 705F6D70 		.ascii	"p_mpool\000"
ARM GAS  /tmp/ccIqE2Rd.s 			page 61


 3378      6F6F6C00 
 3379              	.LASF15:
 3380 0151 626F6F6C 		.ascii	"bool_t\000"
 3380      5F7400
 3381              	.LASF58:
 3382 0158 6D5F7175 		.ascii	"m_queue\000"
 3382      65756500 
 3383              	.LASF7:
 3384 0160 6C6F6E67 		.ascii	"long int\000"
 3384      20696E74 
 3384      00
 3385              	.LASF17:
 3386 0169 74737461 		.ascii	"tstate_t\000"
 3386      74655F74 
 3386      00
 3387              	.LASF69:
 3388 0172 63684D74 		.ascii	"chMtxLockS\000"
 3388      784C6F63 
 3388      6B5300
 3389              	.LASF76:
 3390 017d 63684D74 		.ascii	"chMtxTryLockS\000"
 3390      78547279 
 3390      4C6F636B 
 3390      5300
 3391              	.LASF29:
 3392 018b 705F6E65 		.ascii	"p_newer\000"
 3392      77657200 
 3393              	.LASF84:
 3394 0193 63685363 		.ascii	"chSchRescheduleS\000"
 3394      68526573 
 3394      63686564 
 3394      756C6553 
 3394      00
 3395              	.LASF8:
 3396 01a4 5F5F7569 		.ascii	"__uint32_t\000"
 3396      6E743332 
 3396      5F7400
 3397              	.LASF45:
 3398 01af 72656761 		.ascii	"regarm_t\000"
 3398      726D5F74 
 3398      00
 3399              	.LASF23:
 3400 01b8 636E745F 		.ascii	"cnt_t\000"
 3400      7400
 3401              	.LASF74:
 3402 01be 63684D74 		.ascii	"chMtxUnlockS\000"
 3402      78556E6C 
 3402      6F636B53 
 3402      00
 3403              	.LASF0:
 3404 01cb 756E7369 		.ascii	"unsigned int\000"
 3404      676E6564 
 3404      20696E74 
 3404      00
 3405              	.LASF9:
 3406 01d8 6C6F6E67 		.ascii	"long unsigned int\000"
 3406      20756E73 
ARM GAS  /tmp/ccIqE2Rd.s 			page 62


 3406      69676E65 
 3406      6420696E 
 3406      7400
 3407              	.LASF47:
 3408 01ea 636F6E74 		.ascii	"context\000"
 3408      65787400 
 3409              	.LASF4:
 3410 01f2 73686F72 		.ascii	"short unsigned int\000"
 3410      7420756E 
 3410      7369676E 
 3410      65642069 
 3410      6E7400
 3411              	.LASF20:
 3412 0205 6D73675F 		.ascii	"msg_t\000"
 3412      7400
 3413              	.LASF52:
 3414 020b 725F6E65 		.ascii	"r_newer\000"
 3414      77657200 
 3415              	.LASF75:
 3416 0213 63684D74 		.ascii	"chMtxUnlockAll\000"
 3416      78556E6C 
 3416      6F636B41 
 3416      6C6C00
 3417              	.LASF73:
 3418 0222 6E657770 		.ascii	"newprio\000"
 3418      72696F00 
 3419              	.LASF16:
 3420 022a 746D6F64 		.ascii	"tmode_t\000"
 3420      655F7400 
 3421              	.LASF44:
 3422 0232 54687265 		.ascii	"ThreadsList\000"
 3422      6164734C 
 3422      69737400 
 3423              	.LASF21:
 3424 023e 6576656E 		.ascii	"eventmask_t\000"
 3424      746D6173 
 3424      6B5F7400 
 3425              	.LASF71:
 3426 024a 63684D74 		.ascii	"chMtxTryLock\000"
 3426      78547279 
 3426      4C6F636B 
 3426      00
 3427              	.LASF57:
 3428 0257 4D757465 		.ascii	"Mutex\000"
 3428      7800
 3429              	.LASF48:
 3430 025d 73697A65 		.ascii	"sizetype\000"
 3430      74797065 
 3430      00
 3431              	.LASF70:
 3432 0266 63684D74 		.ascii	"chMtxLock\000"
 3432      784C6F63 
 3432      6B00
 3433              	.LASF30:
 3434 0270 705F6F6C 		.ascii	"p_older\000"
 3434      64657200 
 3435              	.LASF51:
ARM GAS  /tmp/ccIqE2Rd.s 			page 63


 3436 0278 725F6374 		.ascii	"r_ctx\000"
 3436      7800
 3437              	.LASF43:
 3438 027e 54687265 		.ascii	"ThreadsQueue\000"
 3438      61647351 
 3438      75657565 
 3438      00
 3439              	.LASF66:
 3440 028b 64657175 		.ascii	"dequeue\000"
 3440      65756500 
 3441              	.LASF55:
 3442 0293 725F6375 		.ascii	"r_current\000"
 3442      7272656E 
 3442      7400
 3443              	.LASF53:
 3444 029d 725F6F6C 		.ascii	"r_older\000"
 3444      64657200 
 3445              	.LASF18:
 3446 02a5 74726566 		.ascii	"trefs_t\000"
 3446      735F7400 
 3447              	.LASF26:
 3448 02ad 705F7072 		.ascii	"p_prev\000"
 3448      657600
 3449              	.LASF19:
 3450 02b4 74707269 		.ascii	"tprio_t\000"
 3450      6F5F7400 
 3451              	.LASF13:
 3452 02bc 696E7433 		.ascii	"int32_t\000"
 3452      325F7400 
 3453              	.LASF2:
 3454 02c4 756E7369 		.ascii	"unsigned char\000"
 3454      676E6564 
 3454      20636861 
 3454      7200
 3455              	.LASF40:
 3456 02d2 705F6D74 		.ascii	"p_mtxlist\000"
 3456      786C6973 
 3456      7400
 3457              	.LASF3:
 3458 02dc 73686F72 		.ascii	"short int\000"
 3458      7420696E 
 3458      7400
 3459              	.LASF32:
 3460 02e6 705F7374 		.ascii	"p_state\000"
 3460      61746500 
 3461              	.LASF50:
 3462 02ee 725F7072 		.ascii	"r_prio\000"
 3462      696F00
 3463              	.LASF64:
 3464 02f5 65776D61 		.ascii	"ewmask\000"
 3464      736B00
 3465              	.LASF25:
 3466 02fc 705F6E65 		.ascii	"p_next\000"
 3466      787400
 3467              	.LASF33:
 3468 0303 705F666C 		.ascii	"p_flags\000"
 3468      61677300 
ARM GAS  /tmp/ccIqE2Rd.s 			page 64


 3469              	.LASF24:
 3470 030b 54687265 		.ascii	"Thread\000"
 3470      616400
 3471              	.LASF78:
 3472 0312 63685363 		.ascii	"chSchGoSleepS\000"
 3472      68476F53 
 3472      6C656570 
 3472      5300
 3473              	.LASF39:
 3474 0320 705F6570 		.ascii	"p_epending\000"
 3474      656E6469 
 3474      6E6700
 3475              	.LASF14:
 3476 032b 75696E74 		.ascii	"uint32_t\000"
 3476      33325F74 
 3476      00
 3477              	.LASF49:
 3478 0334 725F7175 		.ascii	"r_queue\000"
 3478      65756500 
 3479              	.LASF77:
 3480 033c 63685363 		.ascii	"chSchReadyI\000"
 3480      68526561 
 3480      64794900 
 3481              	.LASF65:
 3482 0348 63686172 		.ascii	"char\000"
 3482      00
 3483              	.LASF67:
 3484 034d 6669666F 		.ascii	"fifo_remove\000"
 3484      5F72656D 
 3484      6F766500 
 3485              	.LASF60:
 3486 0359 6D5F6E65 		.ascii	"m_next\000"
 3486      787400
 3487              	.LASF22:
 3488 0360 73797374 		.ascii	"systime_t\000"
 3488      696D655F 
 3488      7400
 3489              	.LASF41:
 3490 036a 705F7265 		.ascii	"p_realprio\000"
 3490      616C7072 
 3490      696F00
 3491              	.LASF6:
 3492 0375 5F5F696E 		.ascii	"__int32_t\000"
 3492      7433325F 
 3492      7400
 3493              	.LASF82:
 3494 037f 7072696F 		.ascii	"prio_insert\000"
 3494      5F696E73 
 3494      65727400 
 3495              	.LASF35:
 3496 038b 705F7469 		.ascii	"p_time\000"
 3496      6D6500
 3497              	.LASF46:
 3498 0392 696E7463 		.ascii	"intctx\000"
 3498      747800
 3499              	.LASF37:
 3500 0399 705F6D73 		.ascii	"p_msgqueue\000"
ARM GAS  /tmp/ccIqE2Rd.s 			page 65


 3500      67717565 
 3500      756500
 3501              	.LASF79:
 3502 03a4 63685363 		.ascii	"chSchWakeupS\000"
 3502      6857616B 
 3502      65757053 
 3502      00
 3503              	.LASF68:
 3504 03b1 63684D74 		.ascii	"chMtxInit\000"
 3504      78496E69 
 3504      7400
 3505              	.LASF31:
 3506 03bb 705F6E61 		.ascii	"p_name\000"
 3506      6D6500
 3507              	.LASF34:
 3508 03c2 705F7265 		.ascii	"p_refs\000"
 3508      667300
 3509              	.LASF56:
 3510 03c9 52656164 		.ascii	"ReadyList\000"
 3510      794C6973 
 3510      7400
 3511              	.LASF83:
 3512 03d3 726C6973 		.ascii	"rlist\000"
 3512      7400
 3513              	.LASF12:
 3514 03d9 75696E74 		.ascii	"uint8_t\000"
 3514      385F7400 
 3515              	.LASF63:
 3516 03e1 77746F62 		.ascii	"wtobjp\000"
 3516      6A7000
 3517              	.LASF81:
 3518 03e8 2F686F6D 		.ascii	"/home/nicolas/Escritorio/Embebidos/stamp_repo/files"
 3518      652F6E69 
 3518      636F6C61 
 3518      732F4573 
 3518      63726974 
 3519 041b 2F636F64 		.ascii	"/code/ext/ChibiOS/os/kernel/src/chmtx.c\000"
 3519      652F6578 
 3519      742F4368 
 3519      6962694F 
 3519      532F6F73 
 3520              	.LASF54:
 3521 0443 725F7072 		.ascii	"r_preempt\000"
 3521      65656D70 
 3521      7400
 3522              	.LASF59:
 3523 044d 6D5F6F77 		.ascii	"m_owner\000"
 3523      6E657200 
 3524              	.LASF28:
 3525 0455 705F6374 		.ascii	"p_ctx\000"
 3525      7800
 3526              	.LASF36:
 3527 045b 705F7761 		.ascii	"p_waiting\000"
 3527      6974696E 
 3527      6700
 3528              		.ident	"GCC: (GNU Tools for ARM Embedded Processors) 4.9.3 20150529 (release) [ARM/embedded-4_9-br
ARM GAS  /tmp/ccIqE2Rd.s 			page 66


DEFINED SYMBOLS
                            *ABS*:00000000 chmtx.c
     /tmp/ccIqE2Rd.s:19     .text.chMtxInit:00000000 $t
     /tmp/ccIqE2Rd.s:25     .text.chMtxInit:00000000 chMtxInit
     /tmp/ccIqE2Rd.s:46     .text.chMtxLockS:00000000 $t
     /tmp/ccIqE2Rd.s:52     .text.chMtxLockS:00000000 chMtxLockS
     /tmp/ccIqE2Rd.s:317    .text.chMtxLockS:000000c4 $d
     /tmp/ccIqE2Rd.s:322    .text.chMtxLock:00000000 $t
     /tmp/ccIqE2Rd.s:328    .text.chMtxLock:00000000 chMtxLock
     /tmp/ccIqE2Rd.s:363    .text.chMtxTryLock:00000000 $t
     /tmp/ccIqE2Rd.s:369    .text.chMtxTryLock:00000000 chMtxTryLock
     /tmp/ccIqE2Rd.s:446    .text.chMtxTryLock:0000002c $d
     /tmp/ccIqE2Rd.s:451    .text.chMtxTryLockS:00000000 $t
     /tmp/ccIqE2Rd.s:457    .text.chMtxTryLockS:00000000 chMtxTryLockS
     /tmp/ccIqE2Rd.s:499    .text.chMtxTryLockS:0000001c $d
     /tmp/ccIqE2Rd.s:506    .text.chMtxUnlock:00000000 $t
     /tmp/ccIqE2Rd.s:512    .text.chMtxUnlock:00000000 chMtxUnlock
     /tmp/ccIqE2Rd.s:648    .text.chMtxUnlock:00000060 $d
     /tmp/ccIqE2Rd.s:653    .text.chMtxUnlockS:00000000 $t
     /tmp/ccIqE2Rd.s:659    .text.chMtxUnlockS:00000000 chMtxUnlockS
     /tmp/ccIqE2Rd.s:766    .text.chMtxUnlockS:0000004c $d
     /tmp/ccIqE2Rd.s:771    .text.chMtxUnlockAll:00000000 $t
     /tmp/ccIqE2Rd.s:777    .text.chMtxUnlockAll:00000000 chMtxUnlockAll
     /tmp/ccIqE2Rd.s:890    .text.chMtxUnlockAll:00000050 $d
                     .debug_frame:00000010 $d

UNDEFINED SYMBOLS
chSchGoSleepS
chSchReadyI
rlist
chSchWakeupS
chSchRescheduleS
