ARM GAS  /tmp/cculx8jk.s 			page 1


   1              		.syntax unified
   2              		.cpu cortex-m3
   3              		.fpu softvfp
   4              		.eabi_attribute 20, 1
   5              		.eabi_attribute 21, 1
   6              		.eabi_attribute 23, 3
   7              		.eabi_attribute 24, 1
   8              		.eabi_attribute 25, 1
   9              		.eabi_attribute 26, 1
  10              		.eabi_attribute 30, 2
  11              		.eabi_attribute 34, 1
  12              		.eabi_attribute 18, 4
  13              		.thumb
  14              		.file	"serial_lld.c"
  15              		.text
  16              	.Ltext0:
  17              		.cfi_sections	.debug_frame
  18              		.section	.text.notify1,"ax",%progbits
  19              		.align	2
  20              		.p2align 4,,15
  21              		.thumb
  22              		.thumb_func
  23              		.type	notify1, %function
  24              	notify1:
  25              	.LFB40:
  26              		.file 1 "/home/nicolas/Escritorio/Embebidos/stamp_repo/files/code/ext/ChibiOS/os/hal/platforms/AT9
  27              		.loc 1 174 0
  28              		.cfi_startproc
  29              		@ args = 0, pretend = 0, frame = 0
  30              		@ frame_needed = 0, uses_anonymous_args = 0
  31              		@ link register save eliminated.
  32              	.LVL0:
  33              		.loc 1 177 0
  34 0000 014B     		ldr	r3, .L2
  35 0002 0222     		movs	r2, #2
  36 0004 9A60     		str	r2, [r3, #8]
  37 0006 7047     		bx	lr
  38              	.L3:
  39              		.align	2
  40              	.L2:
  41 0008 00060E40 		.word	1074660864
  42              		.cfi_endproc
  43              	.LFE40:
  44              		.size	notify1, .-notify1
  45              		.section	.text.notify2,"ax",%progbits
  46              		.align	2
  47              		.p2align 4,,15
  48              		.thumb
  49              		.thumb_func
  50              		.type	notify2, %function
  51              	notify2:
  52              	.LFB41:
  53              		.loc 1 183 0
  54              		.cfi_startproc
  55              		@ args = 0, pretend = 0, frame = 0
  56              		@ frame_needed = 0, uses_anonymous_args = 0
  57              		@ link register save eliminated.
ARM GAS  /tmp/cculx8jk.s 			page 2


  58              	.LVL1:
  59              		.loc 1 186 0
  60 0000 014B     		ldr	r3, .L5
  61 0002 0222     		movs	r2, #2
  62 0004 9A60     		str	r2, [r3, #8]
  63 0006 7047     		bx	lr
  64              	.L6:
  65              		.align	2
  66              	.L5:
  67 0008 00080E40 		.word	1074661376
  68              		.cfi_endproc
  69              	.LFE41:
  70              		.size	notify2, .-notify2
  71              		.section	.text.serve_interrupt,"ax",%progbits
  72              		.align	2
  73              		.p2align 4,,15
  74              		.thumb
  75              		.thumb_func
  76              		.type	serve_interrupt, %function
  77              	serve_interrupt:
  78              	.LFB39:
  79              		.loc 1 136 0
  80              		.cfi_startproc
  81              		@ args = 0, pretend = 0, frame = 0
  82              		@ frame_needed = 0, uses_anonymous_args = 0
  83              	.LVL2:
  84 0000 70B5     		push	{r4, r5, r6, lr}
  85              		.cfi_def_cfa_offset 16
  86              		.cfi_offset 4, -16
  87              		.cfi_offset 5, -12
  88              		.cfi_offset 6, -8
  89              		.cfi_offset 14, -4
  90              		.loc 1 138 0
  91 0002 056F     		ldr	r5, [r0, #112]
  92              	.LVL3:
  93              		.loc 1 136 0
  94 0004 0646     		mov	r6, r0
  95              		.loc 1 141 0
  96 0006 6C69     		ldr	r4, [r5, #20]
  97              	.LVL4:
  98              		.loc 1 144 0
  99 0008 E107     		lsls	r1, r4, #31
 100 000a 26D4     		bmi	.L37
 101              	.LVL5:
 102              	.L8:
 103              		.loc 1 151 0
 104 000c 2B69     		ldr	r3, [r5, #16]
 105 000e 9B07     		lsls	r3, r3, #30
 106 0010 01D5     		bpl	.L9
 107              		.loc 1 151 0 is_stmt 0 discriminator 1
 108 0012 A007     		lsls	r0, r4, #30
 109 0014 2CD4     		bmi	.L38
 110              	.L9:
 111              	.LVL6:
 112              		.loc 1 167 0 is_stmt 1
 113 0016 14F0E004 		ands	r4, r4, #224
 114              	.LVL7:
ARM GAS  /tmp/cculx8jk.s 			page 3


 115 001a 1DD0     		beq	.L7
 116              		.loc 1 168 0
 117 001c A4B2     		uxth	r4, r4
 118              	.LVL8:
 119              	.LBB17:
 120              	.LBB18:
 121              		.loc 1 121 0
 122 001e 14F0200F 		tst	r4, #32
 123 0022 0CBF     		ite	eq
 124 0024 0022     		moveq	r2, #0
 125 0026 8022     		movne	r2, #128
 126              	.LVL9:
 127              		.loc 1 122 0
 128 0028 2106     		lsls	r1, r4, #24
 129              		.loc 1 123 0
 130 002a 48BF     		it	mi
 131 002c 42F02002 		orrmi	r2, r2, #32
 132              	.LVL10:
 133              		.loc 1 124 0
 134 0030 6306     		lsls	r3, r4, #25
 135              		.loc 1 125 0
 136 0032 48BF     		it	mi
 137 0034 42F04002 		orrmi	r2, r2, #64
 138              	.LVL11:
 139              	.LBB19:
 140              		.loc 1 126 0
 141 0038 2023     		movs	r3, #32
 142              	@ 126 "/home/nicolas/Escritorio/Embebidos/stamp_repo/files/code/ext/ChibiOS/os/hal/platforms/AT91SA
 143 003a 83F31188 		msr     BASEPRI, r3
 144              	@ 0 "" 2
 145              		.thumb
 146              	.LBE19:
 147              		.loc 1 127 0
 148 003e B368     		ldr	r3, [r6, #8]
 149 0040 301D     		adds	r0, r6, #4
 150 0042 1A43     		orrs	r2, r2, r3
 151              	.LVL12:
 152 0044 B260     		str	r2, [r6, #8]
 153 0046 0021     		movs	r1, #0
 154 0048 FFF7FEFF 		bl	chEvtBroadcastFlagsI
 155              	.LVL13:
 156              	.LBB20:
 157              		.loc 1 128 0
 158 004c 0023     		movs	r3, #0
 159              	@ 128 "/home/nicolas/Escritorio/Embebidos/stamp_repo/files/code/ext/ChibiOS/os/hal/platforms/AT91SA
 160 004e 83F31188 		msr     BASEPRI, r3
 161              	@ 0 "" 2
 162              		.thumb
 163              	.LBE20:
 164              	.LBE18:
 165              	.LBE17:
 166              		.loc 1 169 0
 167 0052 4FF48073 		mov	r3, #256
 168 0056 2B60     		str	r3, [r5]
 169              	.LVL14:
 170              	.L7:
 171 0058 70BD     		pop	{r4, r5, r6, pc}
ARM GAS  /tmp/cculx8jk.s 			page 4


 172              	.LVL15:
 173              	.L37:
 174              	.LBB21:
 175              		.loc 1 145 0
 176 005a 2023     		movs	r3, #32
 177              	@ 145 "/home/nicolas/Escritorio/Embebidos/stamp_repo/files/code/ext/ChibiOS/os/hal/platforms/AT91SA
 178 005c 83F31188 		msr     BASEPRI, r3
 179              	@ 0 "" 2
 180              		.thumb
 181              	.LBE21:
 182              		.loc 1 146 0
 183 0060 A969     		ldr	r1, [r5, #24]
 184 0062 C9B2     		uxtb	r1, r1
 185 0064 FFF7FEFF 		bl	sdIncomingDataI
 186              	.LVL16:
 187              	.LBB22:
 188              		.loc 1 147 0
 189 0068 0023     		movs	r3, #0
 190              	@ 147 "/home/nicolas/Escritorio/Embebidos/stamp_repo/files/code/ext/ChibiOS/os/hal/platforms/AT91SA
 191 006a 83F31188 		msr     BASEPRI, r3
 192              	@ 0 "" 2
 193              		.thumb
 194 006e CDE7     		b	.L8
 195              	.L38:
 196              	.LBE22:
 197              	.LBB23:
 198              	.LBB24:
 199              		.loc 1 154 0
 200 0070 2023     		movs	r3, #32
 201              	@ 154 "/home/nicolas/Escritorio/Embebidos/stamp_repo/files/code/ext/ChibiOS/os/hal/platforms/AT91SA
 202 0072 83F31188 		msr     BASEPRI, r3
 203              	@ 0 "" 2
 204              		.thumb
 205              	.LBE24:
 206              		.loc 1 155 0
 207 0076 06F13000 		add	r0, r6, #48
 208 007a FFF7FEFF 		bl	chOQGetI
 209              	.LVL17:
 210              		.loc 1 156 0
 211 007e 0028     		cmp	r0, #0
 212 0080 04DB     		blt	.L39
 213              		.loc 1 161 0
 214 0082 E861     		str	r0, [r5, #28]
 215              	.LVL18:
 216              	.L11:
 217              	.LBB25:
 218              		.loc 1 162 0
 219 0084 0023     		movs	r3, #0
 220              	@ 162 "/home/nicolas/Escritorio/Embebidos/stamp_repo/files/code/ext/ChibiOS/os/hal/platforms/AT91SA
 221 0086 83F31188 		msr     BASEPRI, r3
 222              	@ 0 "" 2
 223              		.thumb
 224 008a C4E7     		b	.L9
 225              	.LVL19:
 226              	.L39:
 227              	.LBE25:
 228              		.loc 1 157 0
ARM GAS  /tmp/cculx8jk.s 			page 5


 229 008c B368     		ldr	r3, [r6, #8]
 230 008e 301D     		adds	r0, r6, #4
 231              	.LVL20:
 232 0090 43F00803 		orr	r3, r3, #8
 233 0094 B360     		str	r3, [r6, #8]
 234 0096 0021     		movs	r1, #0
 235 0098 FFF7FEFF 		bl	chEvtBroadcastFlagsI
 236              	.LVL21:
 237              		.loc 1 158 0
 238 009c 0223     		movs	r3, #2
 239 009e EB60     		str	r3, [r5, #12]
 240 00a0 F0E7     		b	.L11
 241              	.LBE23:
 242              		.cfi_endproc
 243              	.LFE39:
 244              		.size	serve_interrupt, .-serve_interrupt
 245 00a2 00BF     		.section	.text.Vector60,"ax",%progbits
 246              		.align	2
 247              		.p2align 4,,15
 248              		.global	Vector60
 249              		.thumb
 250              		.thumb_func
 251              		.type	Vector60, %function
 252              	Vector60:
 253              	.LFB42:
 254              		.loc 1 201 0
 255              		.cfi_startproc
 256              		@ args = 0, pretend = 0, frame = 0
 257              		@ frame_needed = 0, uses_anonymous_args = 0
 258 0000 08B5     		push	{r3, lr}
 259              		.cfi_def_cfa_offset 8
 260              		.cfi_offset 3, -8
 261              		.cfi_offset 14, -4
 262              		.loc 1 205 0
 263 0002 0348     		ldr	r0, .L42
 264 0004 FFF7FEFF 		bl	serve_interrupt
 265              	.LVL22:
 266              		.loc 1 208 0
 267 0008 BDE80840 		pop	{r3, lr}
 268              		.cfi_restore 14
 269              		.cfi_restore 3
 270              		.cfi_def_cfa_offset 0
 271              		.loc 1 207 0
 272 000c FFF7FEBF 		b	_port_irq_epilogue
 273              	.LVL23:
 274              	.L43:
 275              		.align	2
 276              	.L42:
 277 0010 00000000 		.word	.LANCHOR0
 278              		.cfi_endproc
 279              	.LFE42:
 280              		.size	Vector60, .-Vector60
 281              		.section	.text.Vector64,"ax",%progbits
 282              		.align	2
 283              		.p2align 4,,15
 284              		.global	Vector64
 285              		.thumb
ARM GAS  /tmp/cculx8jk.s 			page 6


 286              		.thumb_func
 287              		.type	Vector64, %function
 288              	Vector64:
 289              	.LFB43:
 290              		.loc 1 218 0
 291              		.cfi_startproc
 292              		@ args = 0, pretend = 0, frame = 0
 293              		@ frame_needed = 0, uses_anonymous_args = 0
 294 0000 08B5     		push	{r3, lr}
 295              		.cfi_def_cfa_offset 8
 296              		.cfi_offset 3, -8
 297              		.cfi_offset 14, -4
 298              		.loc 1 222 0
 299 0002 0348     		ldr	r0, .L46
 300 0004 FFF7FEFF 		bl	serve_interrupt
 301              	.LVL24:
 302              		.loc 1 225 0
 303 0008 BDE80840 		pop	{r3, lr}
 304              		.cfi_restore 14
 305              		.cfi_restore 3
 306              		.cfi_def_cfa_offset 0
 307              		.loc 1 224 0
 308 000c FFF7FEBF 		b	_port_irq_epilogue
 309              	.LVL25:
 310              	.L47:
 311              		.align	2
 312              	.L46:
 313 0010 00000000 		.word	.LANCHOR1
 314              		.cfi_endproc
 315              	.LFE43:
 316              		.size	Vector64, .-Vector64
 317              		.section	.text.sd_lld_init,"ax",%progbits
 318              		.align	2
 319              		.p2align 4,,15
 320              		.global	sd_lld_init
 321              		.thumb
 322              		.thumb_func
 323              		.type	sd_lld_init, %function
 324              	sd_lld_init:
 325              	.LFB44:
 326              		.loc 1 238 0
 327              		.cfi_startproc
 328              		@ args = 0, pretend = 0, frame = 0
 329              		@ frame_needed = 0, uses_anonymous_args = 0
 330 0000 70B5     		push	{r4, r5, r6, lr}
 331              		.cfi_def_cfa_offset 16
 332              		.cfi_offset 4, -16
 333              		.cfi_offset 5, -12
 334              		.cfi_offset 6, -8
 335              		.cfi_offset 14, -4
 336              		.loc 1 241 0
 337 0002 0D4D     		ldr	r5, .L50
 338 0004 0021     		movs	r1, #0
 339 0006 2846     		mov	r0, r5
 340 0008 0C4A     		ldr	r2, .L50+4
 341 000a FFF7FEFF 		bl	sdObjectInit
 342              	.LVL26:
ARM GAS  /tmp/cculx8jk.s 			page 7


 343              		.loc 1 248 0
 344 000e 0C4C     		ldr	r4, .L50+8
 345              		.loc 1 243 0
 346 0010 0C4B     		ldr	r3, .L50+12
 347 0012 4FF4C062 		mov	r2, #1536
 348              		.loc 1 242 0
 349 0016 0C4E     		ldr	r6, .L50+16
 350              		.loc 1 243 0
 351 0018 5A60     		str	r2, [r3, #4]
 352              		.loc 1 248 0
 353 001a 0021     		movs	r1, #0
 354              		.loc 1 244 0
 355 001c 1A66     		str	r2, [r3, #96]
 356              		.loc 1 248 0
 357 001e 2046     		mov	r0, r4
 358 0020 0A4A     		ldr	r2, .L50+20
 359              		.loc 1 242 0
 360 0022 2E67     		str	r6, [r5, #112]
 361              		.loc 1 248 0
 362 0024 FFF7FEFF 		bl	sdObjectInit
 363              	.LVL27:
 364              		.loc 1 250 0
 365 0028 094B     		ldr	r3, .L50+24
 366              		.loc 1 249 0
 367 002a 0A49     		ldr	r1, .L50+28
 368              		.loc 1 250 0
 369 002c 0C22     		movs	r2, #12
 370              		.loc 1 249 0
 371 002e 2167     		str	r1, [r4, #112]
 372              		.loc 1 250 0
 373 0030 5A60     		str	r2, [r3, #4]
 374              		.loc 1 251 0
 375 0032 1A66     		str	r2, [r3, #96]
 376 0034 70BD     		pop	{r4, r5, r6, pc}
 377              	.L51:
 378 0036 00BF     		.align	2
 379              	.L50:
 380 0038 00000000 		.word	.LANCHOR0
 381 003c 00000000 		.word	notify1
 382 0040 00000000 		.word	.LANCHOR1
 383 0044 000E0E40 		.word	1074662912
 384 0048 00060E40 		.word	1074660864
 385 004c 00000000 		.word	notify2
 386 0050 00100E40 		.word	1074663424
 387 0054 00080E40 		.word	1074661376
 388              		.cfi_endproc
 389              	.LFE44:
 390              		.size	sd_lld_init, .-sd_lld_init
 391              		.section	.text.sd_lld_start,"ax",%progbits
 392              		.align	2
 393              		.p2align 4,,15
 394              		.global	sd_lld_start
 395              		.thumb
 396              		.thumb_func
 397              		.type	sd_lld_start, %function
 398              	sd_lld_start:
 399              	.LFB45:
ARM GAS  /tmp/cculx8jk.s 			page 8


 400              		.loc 1 266 0
 401              		.cfi_startproc
 402              		@ args = 0, pretend = 0, frame = 0
 403              		@ frame_needed = 0, uses_anonymous_args = 0
 404              	.LVL28:
 405 0000 70B5     		push	{r4, r5, r6, lr}
 406              		.cfi_def_cfa_offset 16
 407              		.cfi_offset 4, -16
 408              		.cfi_offset 5, -12
 409              		.cfi_offset 6, -8
 410              		.cfi_offset 14, -4
 411              		.loc 1 271 0
 412 0002 037B     		ldrb	r3, [r0, #12]	@ zero_extendqisi2
 413              		.loc 1 269 0
 414 0004 204D     		ldr	r5, .L59
 415              		.loc 1 266 0
 416 0006 0446     		mov	r4, r0
 417              		.loc 1 269 0
 418 0008 0029     		cmp	r1, #0
 419 000a 18BF     		it	ne
 420 000c 0D46     		movne	r5, r1
 421              	.LVL29:
 422              		.loc 1 271 0
 423 000e 012B     		cmp	r3, #1
 424 0010 16D0     		beq	.L57
 425              	.LVL30:
 426              	.L54:
 427 0012 246F     		ldr	r4, [r4, #112]
 428              	.LVL31:
 429              	.LBB26:
 430              	.LBB27:
 431              		.loc 1 81 0
 432 0014 FFF7FEFF 		bl	SystemCoreClockUpdate
 433              	.LVL32:
 434              		.loc 1 82 0
 435 0018 1C4A     		ldr	r2, .L59+4
 436              		.loc 1 89 0
 437 001a 2B68     		ldr	r3, [r5]
 438              		.loc 1 82 0
 439 001c 1268     		ldr	r2, [r2]
 440              	.LVL33:
 441              		.loc 1 89 0
 442 001e 1B01     		lsls	r3, r3, #4
 443 0020 B2FBF3F3 		udiv	r3, r2, r3
 444              		.loc 1 90 0
 445 0024 6868     		ldr	r0, [r5, #4]
 446              		.loc 1 85 0
 447 0026 4FF0FF36 		mov	r6, #-1
 448              		.loc 1 86 0
 449 002a 4FF48675 		mov	r5, #268
 450              	.LVL34:
 451              		.loc 1 93 0
 452 002e 5021     		movs	r1, #80
 453              		.loc 1 94 0
 454 0030 E322     		movs	r2, #227
 455              	.LVL35:
 456              		.loc 1 85 0
ARM GAS  /tmp/cculx8jk.s 			page 9


 457 0032 E660     		str	r6, [r4, #12]
 458              		.loc 1 86 0
 459 0034 2560     		str	r5, [r4]
 460              		.loc 1 89 0
 461 0036 2362     		str	r3, [r4, #32]
 462              		.loc 1 90 0
 463 0038 6060     		str	r0, [r4, #4]
 464              		.loc 1 93 0
 465 003a 2160     		str	r1, [r4]
 466              		.loc 1 94 0
 467 003c A260     		str	r2, [r4, #8]
 468 003e 70BD     		pop	{r4, r5, r6, pc}
 469              	.LVL36:
 470              	.L57:
 471              	.LBE27:
 472              	.LBE26:
 473              		.loc 1 273 0
 474 0040 134B     		ldr	r3, .L59+8
 475 0042 9842     		cmp	r0, r3
 476 0044 11D0     		beq	.L58
 477              		.loc 1 289 0
 478 0046 134B     		ldr	r3, .L59+12
 479 0048 9842     		cmp	r0, r3
 480 004a E2D1     		bne	.L54
 481              		.loc 1 294 0
 482 004c 124B     		ldr	r3, .L59+16
 483 004e 1348     		ldr	r0, .L59+20
 484              	.LVL37:
 485              		.loc 1 296 0
 486 0050 134A     		ldr	r2, .L59+24
 487              		.loc 1 295 0
 488 0052 4FF40071 		mov	r1, #512
 489              		.loc 1 294 0
 490 0056 C3F8E400 		str	r0, [r3, #228]
 491              		.loc 1 295 0
 492 005a 1961     		str	r1, [r3, #16]
 493              		.loc 1 300 0
 494 005c 0920     		movs	r0, #9
 495 005e C021     		movs	r1, #192
 496              		.loc 1 296 0
 497 0060 C3F8E420 		str	r2, [r3, #228]
 498              		.loc 1 300 0
 499 0064 FFF7FEFF 		bl	nvicEnableVector
 500              	.LVL38:
 501 0068 D3E7     		b	.L54
 502              	.LVL39:
 503              	.L58:
 504              		.loc 1 278 0
 505 006a 0B4B     		ldr	r3, .L59+16
 506 006c 0B48     		ldr	r0, .L59+20
 507              	.LVL40:
 508              		.loc 1 280 0
 509 006e 0C4A     		ldr	r2, .L59+24
 510              		.loc 1 279 0
 511 0070 4FF48071 		mov	r1, #256
 512              		.loc 1 278 0
 513 0074 C3F8E400 		str	r0, [r3, #228]
ARM GAS  /tmp/cculx8jk.s 			page 10


 514              		.loc 1 279 0
 515 0078 1961     		str	r1, [r3, #16]
 516              		.loc 1 284 0
 517 007a 0820     		movs	r0, #8
 518 007c C021     		movs	r1, #192
 519              		.loc 1 280 0
 520 007e C3F8E420 		str	r2, [r3, #228]
 521              		.loc 1 284 0
 522 0082 FFF7FEFF 		bl	nvicEnableVector
 523              	.LVL41:
 524 0086 C4E7     		b	.L54
 525              	.L60:
 526              		.align	2
 527              	.L59:
 528 0088 00000000 		.word	.LANCHOR2
 529 008c 00000000 		.word	SystemCoreClock
 530 0090 00000000 		.word	.LANCHOR0
 531 0094 00000000 		.word	.LANCHOR1
 532 0098 00040E40 		.word	1074660352
 533 009c 00434D50 		.word	1347240704
 534 00a0 01434D50 		.word	1347240705
 535              		.cfi_endproc
 536              	.LFE45:
 537              		.size	sd_lld_start, .-sd_lld_start
 538              		.section	.text.sd_lld_stop,"ax",%progbits
 539              		.align	2
 540              		.p2align 4,,15
 541              		.global	sd_lld_stop
 542              		.thumb
 543              		.thumb_func
 544              		.type	sd_lld_stop, %function
 545              	sd_lld_stop:
 546              	.LFB46:
 547              		.loc 1 317 0
 548              		.cfi_startproc
 549              		@ args = 0, pretend = 0, frame = 0
 550              		@ frame_needed = 0, uses_anonymous_args = 0
 551              		@ link register save eliminated.
 552              	.LVL42:
 553              		.loc 1 319 0
 554 0000 037B     		ldrb	r3, [r0, #12]	@ zero_extendqisi2
 555 0002 022B     		cmp	r3, #2
 556 0004 00D0     		beq	.L70
 557              		.loc 1 355 0
 558 0006 7047     		bx	lr
 559              	.L70:
 560              		.loc 1 317 0
 561 0008 30B4     		push	{r4, r5}
 562              		.cfi_def_cfa_offset 8
 563              		.cfi_offset 4, -8
 564              		.cfi_offset 5, -4
 565              		.loc 1 322 0
 566 000a 184D     		ldr	r5, .L72
 567              		.loc 1 320 0
 568 000c 036F     		ldr	r3, [r0, #112]
 569              	.LVL43:
 570              	.LBB28:
ARM GAS  /tmp/cculx8jk.s 			page 11


 571              	.LBB29:
 572              		.loc 1 106 0
 573 000e 4FF0FF34 		mov	r4, #-1
 574              		.loc 1 107 0
 575 0012 4FF48671 		mov	r1, #268
 576              		.loc 1 108 0
 577 0016 0022     		movs	r2, #0
 578              	.LBE29:
 579              	.LBE28:
 580              		.loc 1 322 0
 581 0018 A842     		cmp	r0, r5
 582              	.LBB31:
 583              	.LBB30:
 584              		.loc 1 106 0
 585 001a DC60     		str	r4, [r3, #12]
 586              		.loc 1 107 0
 587 001c 1960     		str	r1, [r3]
 588              		.loc 1 108 0
 589 001e 5A60     		str	r2, [r3, #4]
 590              	.LBE30:
 591              	.LBE31:
 592              		.loc 1 322 0
 593 0020 15D0     		beq	.L71
 594              	.LVL44:
 595              		.loc 1 340 0
 596 0022 134D     		ldr	r5, .L72+4
 597              	.LBB32:
 598              	.LBB33:
 599              		.loc 1 106 0
 600 0024 DC60     		str	r4, [r3, #12]
 601              	.LBE33:
 602              	.LBE32:
 603              		.loc 1 340 0
 604 0026 A842     		cmp	r0, r5
 605              	.LBB35:
 606              	.LBB34:
 607              		.loc 1 107 0
 608 0028 1960     		str	r1, [r3]
 609              		.loc 1 108 0
 610 002a 5A60     		str	r2, [r3, #4]
 611              	.LBE34:
 612              	.LBE35:
 613              		.loc 1 340 0
 614 002c 01D0     		beq	.L65
 615              		.loc 1 355 0
 616 002e 30BC     		pop	{r4, r5}
 617              		.cfi_remember_state
 618              		.cfi_restore 5
 619              		.cfi_restore 4
 620              		.cfi_def_cfa_offset 0
 621 0030 7047     		bx	lr
 622              	.L65:
 623              		.cfi_restore_state
 624              		.loc 1 345 0
 625 0032 104B     		ldr	r3, .L72+8
 626              	.LVL45:
 627 0034 1048     		ldr	r0, .L72+12
ARM GAS  /tmp/cculx8jk.s 			page 12


 628              	.LVL46:
 629              		.loc 1 347 0
 630 0036 114A     		ldr	r2, .L72+16
 631              		.loc 1 346 0
 632 0038 4FF40071 		mov	r1, #512
 633              		.loc 1 345 0
 634 003c C3F8E400 		str	r0, [r3, #228]
 635              		.loc 1 355 0
 636 0040 30BC     		pop	{r4, r5}
 637              		.cfi_remember_state
 638              		.cfi_restore 5
 639              		.cfi_restore 4
 640              		.cfi_def_cfa_offset 0
 641              		.loc 1 346 0
 642 0042 5961     		str	r1, [r3, #20]
 643              		.loc 1 349 0
 644 0044 0920     		movs	r0, #9
 645              		.loc 1 347 0
 646 0046 C3F8E420 		str	r2, [r3, #228]
 647              		.loc 1 349 0
 648 004a FFF7FEBF 		b	nvicDisableVector
 649              	.LVL47:
 650              	.L71:
 651              		.cfi_restore_state
 652              		.loc 1 327 0
 653 004e 094B     		ldr	r3, .L72+8
 654              	.LVL48:
 655 0050 0948     		ldr	r0, .L72+12
 656              	.LVL49:
 657              		.loc 1 329 0
 658 0052 0A4A     		ldr	r2, .L72+16
 659              		.loc 1 328 0
 660 0054 4FF48071 		mov	r1, #256
 661              		.loc 1 327 0
 662 0058 C3F8E400 		str	r0, [r3, #228]
 663              		.loc 1 355 0
 664 005c 30BC     		pop	{r4, r5}
 665              		.cfi_restore 5
 666              		.cfi_restore 4
 667              		.cfi_def_cfa_offset 0
 668              		.loc 1 328 0
 669 005e 5961     		str	r1, [r3, #20]
 670              		.loc 1 331 0
 671 0060 0820     		movs	r0, #8
 672              		.loc 1 329 0
 673 0062 C3F8E420 		str	r2, [r3, #228]
 674              		.loc 1 331 0
 675 0066 FFF7FEBF 		b	nvicDisableVector
 676              	.LVL50:
 677              	.L73:
 678 006a 00BF     		.align	2
 679              	.L72:
 680 006c 00000000 		.word	.LANCHOR0
 681 0070 00000000 		.word	.LANCHOR1
 682 0074 00040E40 		.word	1074660352
 683 0078 00434D50 		.word	1347240704
 684 007c 01434D50 		.word	1347240705
ARM GAS  /tmp/cculx8jk.s 			page 13


 685              		.cfi_endproc
 686              	.LFE46:
 687              		.size	sd_lld_stop, .-sd_lld_stop
 688              		.global	SD2
 689              		.global	SD1
 690              		.section	.rodata.default_config,"a",%progbits
 691              		.align	2
 692              		.set	.LANCHOR2,. + 0
 693              		.type	default_config, %object
 694              		.size	default_config, 8
 695              	default_config:
 696 0000 00C20100 		.word	115200
 697 0004 00280000 		.word	10240
 698              		.section	.bss.SD1,"aw",%nobits
 699              		.align	2
 700              		.set	.LANCHOR0,. + 0
 701              		.type	SD1, %object
 702              		.size	SD1, 116
 703              	SD1:
 704 0000 00000000 		.space	116
 704      00000000 
 704      00000000 
 704      00000000 
 704      00000000 
 705              		.section	.bss.SD2,"aw",%nobits
 706              		.align	2
 707              		.set	.LANCHOR1,. + 0
 708              		.type	SD2, %object
 709              		.size	SD2, 116
 710              	SD2:
 711 0000 00000000 		.space	116
 711      00000000 
 711      00000000 
 711      00000000 
 711      00000000 
 712              		.text
 713              	.Letext0:
 714              		.file 2 "/opt/gcc-arm-none-eabi-4_9-2015q3/lib/gcc/arm-none-eabi/4.9.3/include/stddef.h"
 715              		.file 3 "/opt/gcc-arm-none-eabi-4_9-2015q3/arm-none-eabi/include/machine/_default_types.h"
 716              		.file 4 "/opt/gcc-arm-none-eabi-4_9-2015q3/arm-none-eabi/include/sys/_stdint.h"
 717              		.file 5 "/opt/gcc-arm-none-eabi-4_9-2015q3/arm-none-eabi/include/stdint.h"
 718              		.file 6 "/home/nicolas/Escritorio/Embebidos/stamp_repo/files/code/ext/ChibiOS/os/ports/GCC/ARMCMx/
 719              		.file 7 "/home/nicolas/Escritorio/Embebidos/stamp_repo/files/code/ext/ChibiOS/os/kernel/include/ch
 720              		.file 8 "/home/nicolas/Escritorio/Embebidos/stamp_repo/files/code/ext/ChibiOS/os/kernel/include/ch
 721              		.file 9 "/home/nicolas/Escritorio/Embebidos/stamp_repo/files/code/ext/ChibiOS/os/ports/GCC/ARMCMx/
 722              		.file 10 "/home/nicolas/Escritorio/Embebidos/stamp_repo/files/code/ext/ChibiOS/os/kernel/include/c
 723              		.file 11 "/home/nicolas/Escritorio/Embebidos/stamp_repo/files/code/ext/ChibiOS/os/kernel/include/c
 724              		.file 12 "/home/nicolas/Escritorio/Embebidos/stamp_repo/files/code/ext/ChibiOS/os/kernel/include/c
 725              		.file 13 "/home/nicolas/Escritorio/Embebidos/stamp_repo/files/code/ext/ChibiOS/os/kernel/include/c
 726              		.file 14 "/home/nicolas/Escritorio/Embebidos/stamp_repo/files/code/ext/ChibiOS/os/hal/platforms/AT
 727              		.file 15 "/home/nicolas/Escritorio/Embebidos/stamp_repo/files/code/ext/ChibiOS/os/hal/include/seri
 728              		.file 16 "/home/nicolas/Escritorio/Embebidos/stamp_repo/files/code/ext/ChibiOS/os/hal/platforms/AT
 729              		.file 17 "/home/nicolas/Escritorio/Embebidos/stamp_repo/files/code/ext/ChibiOS/os/hal/platforms/AT
 730              		.file 18 "/home/nicolas/Escritorio/Embebidos/stamp_repo/files/code/ext/ChibiOS/os/hal/platforms/AT
 731              		.file 19 "/home/nicolas/Escritorio/Embebidos/stamp_repo/files/code/ext/ChibiOS/os/ports/common/ARM