ARM GAS  /tmp/ccGznRlG.s 			page 1


   1              		.syntax unified
   2              		.cpu cortex-m3
   3              		.fpu softvfp
   4              		.eabi_attribute 20, 1
   5              		.eabi_attribute 21, 1
   6              		.eabi_attribute 23, 3
   7              		.eabi_attribute 24, 1
   8              		.eabi_attribute 25, 1
   9              		.eabi_attribute 26, 1
  10              		.eabi_attribute 30, 2
  11              		.eabi_attribute 34, 1
  12              		.eabi_attribute 18, 4
  13              		.thumb
  14              		.file	"atmel_adc.c"
  15              		.text
  16              	.Ltext0:
  17              		.cfi_sections	.debug_frame
  18              		.section	.text.calcul_startup,"ax",%progbits
  19              		.align	2
  20              		.p2align 4,,15
  21              		.thumb
  22              		.thumb_func
  23              		.type	calcul_startup, %function
  24              	calcul_startup:
  25              	.LFB43:
  26              		.file 1 "/home/nicolas/Escritorio/Embebidos/stamp_repo/files/code/ext/ChibiOS/os/hal/platforms/AT9
  27              		.loc 1 133 0
  28              		.cfi_startproc
  29              		@ args = 0, pretend = 0, frame = 0
  30              		@ frame_needed = 0, uses_anonymous_args = 0
  31              		@ link register save eliminated.
  32              	.LVL0:
  33              		.loc 1 136 0
  34 0000 18B3     		cbz	r0, .L2
  35              		.loc 1 138 0
  36 0002 0128     		cmp	r0, #1
  37 0004 22D0     		beq	.L4
  38              		.loc 1 140 0
  39 0006 0228     		cmp	r0, #2
  40 0008 22D0     		beq	.L5
  41              		.loc 1 142 0
  42 000a 0328     		cmp	r0, #3
  43 000c 22D0     		beq	.L6
  44              		.loc 1 144 0
  45 000e 0428     		cmp	r0, #4
  46 0010 24D0     		beq	.L7
  47              		.loc 1 146 0
  48 0012 0528     		cmp	r0, #5
  49 0014 20D0     		beq	.L8
  50              		.loc 1 148 0
  51 0016 0628     		cmp	r0, #6
  52 0018 22D0     		beq	.L9
  53              		.loc 1 150 0
  54 001a 0728     		cmp	r0, #7
  55 001c 22D0     		beq	.L10
  56              		.loc 1 152 0
  57 001e 0828     		cmp	r0, #8
ARM GAS  /tmp/ccGznRlG.s 			page 2


  58 0020 22D0     		beq	.L11
  59              		.loc 1 154 0
  60 0022 0928     		cmp	r0, #9
  61 0024 23D0     		beq	.L12
  62              		.loc 1 156 0
  63 0026 0A28     		cmp	r0, #10
  64 0028 24D0     		beq	.L13
  65              		.loc 1 158 0
  66 002a 0B28     		cmp	r0, #11
  67 002c 25D0     		beq	.L14
  68              		.loc 1 160 0
  69 002e 0C28     		cmp	r0, #12
  70 0030 26D0     		beq	.L15
  71              		.loc 1 162 0
  72 0032 0D28     		cmp	r0, #13
  73 0034 27D0     		beq	.L16
  74              	.LVL1:
  75              	.LBB4:
  76              	.LBB5:
  77              		.loc 1 164 0
  78 0036 0E28     		cmp	r0, #14
  79 0038 05D0     		beq	.L17
  80              		.loc 1 166 0
  81 003a 0F28     		cmp	r0, #15
  82              		.loc 1 167 0
  83 003c 14BF     		ite	ne
  84 003e 0020     		movne	r0, #0
  85              	.LVL2:
  86 0040 4FF47070 		moveq	r0, #960
  87 0044 7047     		bx	lr
  88              	.LVL3:
  89              	.L17:
  90              		.loc 1 165 0
  91 0046 4FF46070 		mov	r0, #896
  92              	.LVL4:
  93              	.L2:
  94              	.LBE5:
  95              	.LBE4:
  96              		.loc 1 170 0
  97 004a 7047     		bx	lr
  98              	.LVL5:
  99              	.L4:
 100              		.loc 1 139 0
 101 004c 0820     		movs	r0, #8
 102              	.LVL6:
 103 004e 7047     		bx	lr
 104              	.LVL7:
 105              	.L5:
 106              		.loc 1 141 0
 107 0050 1020     		movs	r0, #16
 108              	.LVL8:
 109 0052 7047     		bx	lr
 110              	.LVL9:
 111              	.L6:
 112              		.loc 1 143 0
 113 0054 1820     		movs	r0, #24
 114              	.LVL10:
ARM GAS  /tmp/ccGznRlG.s 			page 3


 115 0056 7047     		bx	lr
 116              	.LVL11:
 117              	.L8:
 118              		.loc 1 147 0
 119 0058 5020     		movs	r0, #80
 120              	.LVL12:
 121 005a 7047     		bx	lr
 122              	.LVL13:
 123              	.L7:
 124              		.loc 1 145 0
 125 005c 4020     		movs	r0, #64
 126              	.LVL14:
 127 005e 7047     		bx	lr
 128              	.LVL15:
 129              	.L9:
 130              		.loc 1 149 0
 131 0060 6020     		movs	r0, #96
 132              	.LVL16:
 133 0062 7047     		bx	lr
 134              	.LVL17:
 135              	.L10:
 136              		.loc 1 151 0
 137 0064 7020     		movs	r0, #112
 138              	.LVL18:
 139 0066 7047     		bx	lr
 140              	.LVL19:
 141              	.L11:
 142              		.loc 1 153 0
 143 0068 4FF40070 		mov	r0, #512
 144              	.LVL20:
 145 006c 7047     		bx	lr
 146              	.LVL21:
 147              	.L12:
 148              		.loc 1 155 0
 149 006e 4FF41070 		mov	r0, #576
 150              	.LVL22:
 151 0072 7047     		bx	lr
 152              	.LVL23:
 153              	.L13:
 154              		.loc 1 157 0
 155 0074 4FF42070 		mov	r0, #640
 156              	.LVL24:
 157 0078 7047     		bx	lr
 158              	.LVL25:
 159              	.L14:
 160              		.loc 1 159 0
 161 007a 4FF43070 		mov	r0, #704
 162              	.LVL26:
 163 007e 7047     		bx	lr
 164              	.LVL27:
 165              	.L15:
 166              		.loc 1 161 0
 167 0080 4FF44070 		mov	r0, #768
 168              	.LVL28:
 169 0084 7047     		bx	lr
 170              	.LVL29:
 171              	.L16:
ARM GAS  /tmp/ccGznRlG.s 			page 4


 172              		.loc 1 163 0
 173 0086 4FF45070 		mov	r0, #832
 174              	.LVL30:
 175 008a 7047     		bx	lr
 176              		.cfi_endproc
 177              	.LFE43:
 178              		.size	calcul_startup, .-calcul_startup
 179              		.section	.text.ADC_Initialize,"ax",%progbits
 180              		.align	2
 181              		.p2align 4,,15
 182              		.global	ADC_Initialize
 183              		.thumb
 184              		.thumb_func
 185              		.type	ADC_Initialize, %function
 186              	ADC_Initialize:
 187              	.LFB36:
 188              		.loc 1 62 0
 189              		.cfi_startproc
 190              		@ args = 0, pretend = 0, frame = 0
 191              		@ frame_needed = 0, uses_anonymous_args = 0
 192              		@ link register save eliminated.
 193              	.LVL31:
 194 0000 70B4     		push	{r4, r5, r6}
 195              		.cfi_def_cfa_offset 12
 196              		.cfi_offset 4, -12
 197              		.cfi_offset 5, -8
 198              		.cfi_offset 6, -4
 199              		.loc 1 64 0
 200 0002 084B     		ldr	r3, .L22
 201 0004 084E     		ldr	r6, .L22+4
 202              		.loc 1 66 0
 203 0006 094C     		ldr	r4, .L22+8
 204              		.loc 1 65 0
 205 0008 4FF00055 		mov	r5, #536870912
 206              		.loc 1 69 0
 207 000c 0121     		movs	r1, #1
 208              		.loc 1 73 0
 209 000e 0022     		movs	r2, #0
 210              		.loc 1 64 0
 211 0010 C3F8E460 		str	r6, [r3, #228]
 212              		.loc 1 65 0
 213 0014 1D61     		str	r5, [r3, #16]
 214              		.loc 1 66 0
 215 0016 C3F8E440 		str	r4, [r3, #228]
 216              		.loc 1 69 0
 217 001a 0160     		str	r1, [r0]
 218              		.loc 1 74 0
 219 001c 70BC     		pop	{r4, r5, r6}
 220              		.cfi_restore 6
 221              		.cfi_restore 5
 222              		.cfi_restore 4
 223              		.cfi_def_cfa_offset 0
 224              		.loc 1 73 0
 225 001e 4260     		str	r2, [r0, #4]
 226              		.loc 1 74 0
 227 0020 7047     		bx	lr
 228              	.L23:
ARM GAS  /tmp/ccGznRlG.s 			page 5


 229 0022 00BF     		.align	2
 230              	.L22:
 231 0024 00040E40 		.word	1074660352
 232 0028 00434D50 		.word	1347240704
 233 002c 01434D50 		.word	1347240705
 234              		.cfi_endproc
 235              	.LFE36:
 236              		.size	ADC_Initialize, .-ADC_Initialize
 237              		.section	.text.ADC_CfgTiming,"ax",%progbits
 238              		.align	2
 239              		.p2align 4,,15
 240              		.global	ADC_CfgTiming
 241              		.thumb
 242              		.thumb_func
 243              		.type	ADC_CfgTiming, %function
 244              	ADC_CfgTiming:
 245              	.LFB37:
 246              		.loc 1 80 0
 247              		.cfi_startproc
 248              		@ args = 0, pretend = 0, frame = 0
 249              		@ frame_needed = 0, uses_anonymous_args = 0
 250              		@ link register save eliminated.
 251              	.LVL32:
 252              		.loc 1 81 0
 253 0000 0906     		lsls	r1, r1, #24
 254              	.LVL33:
 255 0002 01F07061 		and	r1, r1, #251658240
 256 0006 4160     		str	r1, [r0, #4]
 257 0008 7047     		bx	lr
 258              		.cfi_endproc
 259              	.LFE37:
 260              		.size	ADC_CfgTiming, .-ADC_CfgTiming
 261 000a 00BF     		.section	.text.ADC_cfgFrequency,"ax",%progbits
 262              		.align	2
 263              		.p2align 4,,15
 264              		.global	ADC_cfgFrequency
 265              		.thumb
 266              		.thumb_func
 267              		.type	ADC_cfgFrequency, %function
 268              	ADC_cfgFrequency:
 269              	.LFB38:
 270              		.loc 1 88 0
 271              		.cfi_startproc
 272              		@ args = 0, pretend = 0, frame = 0
 273              		@ frame_needed = 0, uses_anonymous_args = 0
 274              		@ link register save eliminated.
 275              	.LVL34:
 276              		.loc 1 89 0
 277 0000 4368     		ldr	r3, [r0, #4]
 278              		.loc 1 90 0
 279 0002 0904     		lsls	r1, r1, #16
 280              	.LVL35:
 281 0004 01F47021 		and	r1, r1, #983040
 282              		.loc 1 89 0
 283 0008 1202     		lsls	r2, r2, #8
 284              	.LVL36:
 285 000a 92B2     		uxth	r2, r2
ARM GAS  /tmp/ccGznRlG.s 			page 6


 286 000c 0B43     		orrs	r3, r3, r1
 287 000e 1A43     		orrs	r2, r2, r3
 288 0010 4260     		str	r2, [r0, #4]
 289 0012 7047     		bx	lr
 290              		.cfi_endproc
 291              	.LFE38:
 292              		.size	ADC_cfgFrequency, .-ADC_cfgFrequency
 293              		.section	.text.ADC_CfgTrigering,"ax",%progbits
 294              		.align	2
 295              		.p2align 4,,15
 296              		.global	ADC_CfgTrigering
 297              		.thumb
 298              		.thumb_func
 299              		.type	ADC_CfgTrigering, %function
 300              	ADC_CfgTrigering:
 301              	.LFB39:
 302              		.loc 1 97 0
 303              		.cfi_startproc
 304              		@ args = 0, pretend = 0, frame = 0
 305              		@ frame_needed = 0, uses_anonymous_args = 0
 306              		@ link register save eliminated.
 307              	.LVL37:
 308 0000 10B4     		push	{r4}
 309              		.cfi_def_cfa_offset 4
 310              		.cfi_offset 4, -4
 311              		.loc 1 100 0
 312 0002 DB01     		lsls	r3, r3, #7
 313              	.LVL38:
 314              		.loc 1 98 0
 315 0004 4468     		ldr	r4, [r0, #4]
 316              		.loc 1 100 0
 317 0006 DBB2     		uxtb	r3, r3
 318              		.loc 1 99 0
 319 0008 5200     		lsls	r2, r2, #1
 320              	.LVL39:
 321 000a 2343     		orrs	r3, r3, r4
 322              		.loc 1 98 0
 323 000c 01F00101 		and	r1, r1, #1
 324              	.LVL40:
 325              		.loc 1 99 0
 326 0010 02F00E04 		and	r4, r2, #14
 327 0014 43EA0102 		orr	r2, r3, r1
 328              		.loc 1 98 0
 329 0018 2243     		orrs	r2, r2, r4
 330 001a 4260     		str	r2, [r0, #4]
 331              		.loc 1 101 0
 332 001c 5DF8044B 		ldr	r4, [sp], #4
 333              		.cfi_restore 4
 334              		.cfi_def_cfa_offset 0
 335 0020 7047     		bx	lr
 336              		.cfi_endproc
 337              	.LFE39:
 338              		.size	ADC_CfgTrigering, .-ADC_CfgTrigering
 339 0022 00BF     		.section	.text.ADC_CfgLowRes,"ax",%progbits
 340              		.align	2
 341              		.p2align 4,,15
 342              		.global	ADC_CfgLowRes
ARM GAS  /tmp/ccGznRlG.s 			page 7


 343              		.thumb
 344              		.thumb_func
 345              		.type	ADC_CfgLowRes, %function
 346              	ADC_CfgLowRes:
 347              	.LFB40:
 348              		.loc 1 107 0
 349              		.cfi_startproc
 350              		@ args = 0, pretend = 0, frame = 0
 351              		@ frame_needed = 0, uses_anonymous_args = 0
 352              		@ link register save eliminated.
 353              	.LVL41:
 354              		.loc 1 108 0
 355 0000 4368     		ldr	r3, [r0, #4]
 356 0002 0901     		lsls	r1, r1, #4
 357              	.LVL42:
 358 0004 01F01001 		and	r1, r1, #16
 359 0008 1943     		orrs	r1, r1, r3
 360 000a 4160     		str	r1, [r0, #4]
 361 000c 7047     		bx	lr
 362              		.cfi_endproc
 363              	.LFE40:
 364              		.size	ADC_CfgLowRes, .-ADC_CfgLowRes
 365 000e 00BF     		.section	.text.ADC_CfgPowerSave,"ax",%progbits
 366              		.align	2
 367              		.p2align 4,,15
 368              		.global	ADC_CfgPowerSave
 369              		.thumb
 370              		.thumb_func
 371              		.type	ADC_CfgPowerSave, %function
 372              	ADC_CfgPowerSave:
 373              	.LFB41:
 374              		.loc 1 115 0
 375              		.cfi_startproc
 376              		@ args = 0, pretend = 0, frame = 0
 377              		@ frame_needed = 0, uses_anonymous_args = 0
 378              		@ link register save eliminated.
 379              	.LVL43:
 380              		.loc 1 116 0
 381 0000 4368     		ldr	r3, [r0, #4]
 382              		.loc 1 117 0
 383 0002 9201     		lsls	r2, r2, #6
 384              	.LVL44:
 385 0004 02F04002 		and	r2, r2, #64
 386              		.loc 1 116 0
 387 0008 4901     		lsls	r1, r1, #5
 388              	.LVL45:
 389 000a 01F02001 		and	r1, r1, #32
 390 000e 1343     		orrs	r3, r3, r2
 391 0010 1943     		orrs	r1, r1, r3
 392 0012 4160     		str	r1, [r0, #4]
 393 0014 7047     		bx	lr
 394              		.cfi_endproc
 395              	.LFE41:
 396              		.size	ADC_CfgPowerSave, .-ADC_CfgPowerSave
 397 0016 00BF     		.section	.text.ADC_CfgChannelMode,"ax",%progbits
 398              		.align	2
 399              		.p2align 4,,15
ARM GAS  /tmp/ccGznRlG.s 			page 8


 400              		.global	ADC_CfgChannelMode
 401              		.thumb
 402              		.thumb_func
 403              		.type	ADC_CfgChannelMode, %function
 404              	ADC_CfgChannelMode:
 405              	.LFB42:
 406              		.loc 1 124 0
 407              		.cfi_startproc
 408              		@ args = 0, pretend = 0, frame = 0
 409              		@ frame_needed = 0, uses_anonymous_args = 0
 410              		@ link register save eliminated.
 411              	.LVL46:
 412              		.loc 1 125 0
 413 0000 4368     		ldr	r3, [r0, #4]
 414 0002 43EAC171 		orr	r1, r3, r1, lsl #31
 415              	.LVL47:
 416 0006 4160     		str	r1, [r0, #4]
 417 0008 7047     		bx	lr
 418              		.cfi_endproc
 419              	.LFE42:
 420              		.size	ADC_CfgChannelMode, .-ADC_CfgChannelMode
 421              		.section	.text.ADC_check,"ax",%progbits
 422              		.align	2
 423              		.p2align 4,,15
 424              		.global	ADC_check
 425              		.thumb
 426              		.thumb_func
 427              		.type	ADC_check, %function
 428              	ADC_check:
 429              	.LFB44:
 430              		.loc 1 176 0
 431              		.cfi_startproc
 432              		@ args = 0, pretend = 0, frame = 0
 433              		@ frame_needed = 0, uses_anonymous_args = 0
 434              	.LVL48:
 435 0000 70B5     		push	{r4, r5, r6, lr}
 436              		.cfi_def_cfa_offset 16
 437              		.cfi_offset 4, -16
 438              		.cfi_offset 5, -12
 439              		.cfi_offset 6, -8
 440              		.cfi_offset 14, -4
 441              		.loc 1 182 0
 442 0002 4468     		ldr	r4, [r0, #4]
 443              	.LVL49:
 444              		.loc 1 176 0
 445 0004 0646     		mov	r6, r0
 446              		.loc 1 182 0
 447 0006 C4F30724 		ubfx	r4, r4, #8, #8
 448              	.LVL50:
 449              		.loc 1 183 0
 450 000a 0134     		adds	r4, r4, #1
 451 000c 6400     		lsls	r4, r4, #1
 452 000e B1FBF4F4 		udiv	r4, r1, r4
 453              	.LVL51:
 454              		.loc 1 184 0
 455 0012 3148     		ldr	r0, .L54
 456              	.LVL52:
ARM GAS  /tmp/ccGznRlG.s 			page 9


 457 0014 3149     		ldr	r1, .L54+4
 458              	.LVL53:
 459 0016 2246     		mov	r2, r4
 460 0018 FFF7FEFF 		bl	chprintf
 461              	.LVL54:
 462              		.loc 1 186 0
 463 001c 002C     		cmp	r4, #0
 464 001e 3CD0     		beq	.L50
 465              		.loc 1 190 0
 466 0020 2F4A     		ldr	r2, .L54+8
 467 0022 9442     		cmp	r4, r2
 468 0024 18D8     		bhi	.L51
 469              	.L35:
 470              		.loc 1 195 0
 471 0026 7568     		ldr	r5, [r6, #4]
 472              		.loc 1 196 0
 473 0028 7368     		ldr	r3, [r6, #4]
 474              		.loc 1 195 0
 475 002a C5F30345 		ubfx	r5, r5, #16, #4
 476              	.LVL55:
 477              		.loc 1 196 0
 478 002e 9806     		lsls	r0, r3, #26
 479 0030 05D5     		bpl	.L49
 480              		.loc 1 206 0
 481 0032 7368     		ldr	r3, [r6, #4]
 482 0034 1906     		lsls	r1, r3, #24
 483 0036 47D4     		bmi	.L52
 484              	.LVL56:
 485              	.L38:
 486              		.loc 1 210 0
 487 0038 7368     		ldr	r3, [r6, #4]
 488 003a 5A06     		lsls	r2, r3, #25
 489 003c 11D4     		bmi	.L39
 490              	.L49:
 491              		.loc 1 213 0
 492 003e 294A     		ldr	r2, .L54+12
 493 0040 04EB8404 		add	r4, r4, r4, lsl #2
 494              	.LVL57:
 495 0044 E400     		lsls	r4, r4, #3
 496 0046 2846     		mov	r0, r5
 497 0048 A2FB0434 		umull	r3, r4, r2, r4
 498 004c FFF7FEFF 		bl	calcul_startup
 499              	.LVL58:
 500 0050 A40C     		lsrs	r4, r4, #18
 501 0052 8442     		cmp	r4, r0
 502 0054 2BD8     		bhi	.L53
 503              	.L31:
 504 0056 70BD     		pop	{r4, r5, r6, pc}
 505              	.LVL59:
 506              	.L51:
 507              		.loc 1 192 0
 508 0058 1F48     		ldr	r0, .L54
 509 005a 2349     		ldr	r1, .L54+16
 510 005c FFF7FEFF 		bl	chprintf
 511              	.LVL60:
 512 0060 E1E7     		b	.L35
 513              	.L39:
ARM GAS  /tmp/ccGznRlG.s 			page 10


 514              		.loc 1 220 0
 515 0062 7368     		ldr	r3, [r6, #4]
 516 0064 5B06     		lsls	r3, r3, #25
 517 0066 F6D5     		bpl	.L31
 518              		.loc 1 223 0
 519 0068 2846     		mov	r0, r5
 520 006a FFF7FEFF 		bl	calcul_startup
 521              	.LVL61:
 522 006e 04EB4401 		add	r1, r4, r4, lsl #1
 523 0072 1C4A     		ldr	r2, .L54+12
 524 0074 8900     		lsls	r1, r1, #2
 525 0076 A2FB0131 		umull	r3, r1, r2, r1
 526 007a B0EB914F 		cmp	r0, r1, lsr #18
 527 007e EAD2     		bcs	.L31
 528              		.loc 1 225 0
 529 0080 04EB8404 		add	r4, r4, r4, lsl #2
 530              	.LVL62:
 531 0084 E400     		lsls	r4, r4, #3
 532 0086 A2FB0432 		umull	r3, r2, r2, r4
 533              		.loc 1 234 0
 534 008a BDE87040 		pop	{r4, r5, r6, lr}
 535              		.cfi_remember_state
 536              		.cfi_restore 14
 537              		.cfi_restore 6
 538              		.cfi_restore 5
 539              		.cfi_restore 4
 540              		.cfi_def_cfa_offset 0
 541              	.LVL63:
 542              		.loc 1 225 0
 543 008e 0346     		mov	r3, r0
 544 0090 920C     		lsrs	r2, r2, #18
 545 0092 1148     		ldr	r0, .L54
 546 0094 1549     		ldr	r1, .L54+20
 547 0096 FFF7FEBF 		b	chprintf
 548              	.LVL64:
 549              	.L50:
 550              		.cfi_restore_state
 551              		.loc 1 188 0
 552 009a 0F48     		ldr	r0, .L54
 553 009c 1449     		ldr	r1, .L54+24
 554 009e 0122     		movs	r2, #1
 555 00a0 FFF7FEFF 		bl	chprintf
 556              	.LVL65:
 557              		.loc 1 195 0
 558 00a4 7568     		ldr	r5, [r6, #4]
 559              	.LVL66:
 560              		.loc 1 196 0
 561 00a6 7368     		ldr	r3, [r6, #4]
 562 00a8 9B06     		lsls	r3, r3, #26
 563 00aa 08D4     		bmi	.L33
 564 00ac 70BD     		pop	{r4, r5, r6, pc}
 565              	.LVL67:
 566              	.L53:
 567              		.loc 1 215 0
 568 00ae 2246     		mov	r2, r4
 569              		.loc 1 234 0
 570 00b0 BDE87040 		pop	{r4, r5, r6, lr}
ARM GAS  /tmp/ccGznRlG.s 			page 11


 571              		.cfi_remember_state
 572              		.cfi_restore 14
 573              		.cfi_restore 6
 574              		.cfi_restore 5
 575              		.cfi_restore 4
 576              		.cfi_def_cfa_offset 0
 577              	.LVL68:
 578              		.loc 1 215 0
 579 00b4 0346     		mov	r3, r0
 580 00b6 0D49     		ldr	r1, .L54+20
 581 00b8 0748     		ldr	r0, .L54
 582 00ba FFF7FEBF 		b	chprintf
 583              	.LVL69:
 584              	.L33:
 585              		.cfi_restore_state
 586              		.loc 1 206 0
 587 00be 7368     		ldr	r3, [r6, #4]
 588              		.loc 1 195 0
 589 00c0 C5F30345 		ubfx	r5, r5, #16, #4
 590              	.LVL70:
 591              		.loc 1 206 0
 592 00c4 1906     		lsls	r1, r3, #24
 593 00c6 B7D5     		bpl	.L38
 594              	.L52:
 595              		.loc 1 208 0
 596 00c8 0348     		ldr	r0, .L54
 597 00ca 0A49     		ldr	r1, .L54+28
 598 00cc FFF7FEFF 		bl	chprintf
 599              	.LVL71:
 600              		.loc 1 210 0
 601 00d0 7368     		ldr	r3, [r6, #4]
 602 00d2 5A06     		lsls	r2, r3, #25
 603 00d4 C5D4     		bmi	.L39
 604 00d6 B2E7     		b	.L49
 605              	.L55:
 606              		.align	2
 607              	.L54:
 608 00d8 00000000 		.word	SD2
 609 00dc 00000000 		.word	.LC0
 610 00e0 00127A00 		.word	8000000
 611 00e4 83DE1B43 		.word	1125899907
 612 00e8 58000000 		.word	.LC2
 613 00ec 90000000 		.word	.LC3
 614 00f0 20000000 		.word	.LC1
 615 00f4 C0000000 		.word	.LC4
 616              		.cfi_endproc
 617              	.LFE44:
 618              		.size	ADC_check, .-ADC_check
 619              		.section	.text.ADC_GetConvertedData,"ax",%progbits
 620              		.align	2
 621              		.p2align 4,,15
 622              		.global	ADC_GetConvertedData
 623              		.thumb
 624              		.thumb_func
 625              		.type	ADC_GetConvertedData, %function
 626              	ADC_GetConvertedData:
 627              	.LFB45:
ARM GAS  /tmp/ccGznRlG.s 			page 12


 628              		.loc 1 245 0
 629              		.cfi_startproc
 630              		@ args = 0, pretend = 0, frame = 0
 631              		@ frame_needed = 0, uses_anonymous_args = 0
 632              		@ link register save eliminated.
 633              	.LVL72:
 634              		.loc 1 249 0
 635 0000 0F29     		cmp	r1, #15
 636              		.loc 1 251 0
 637 0002 9ABF     		itte	ls
 638 0004 1431     		addls	r1, r1, #20
 639              	.LVL73:
 640 0006 50F82100 		ldrls	r0, [r0, r1, lsl #2]
 641              	.LVL74:
 642              		.loc 1 246 0
 643 000a 0020     		movhi	r0, #0
 644              	.LVL75:
 645              		.loc 1 255 0
 646 000c 7047     		bx	lr
 647              		.cfi_endproc
 648              	.LFE45:
 649              		.size	ADC_GetConvertedData, .-ADC_GetConvertedData
 650 000e 00BF     		.section	.text.ADC_SetCompareChannel,"ax",%progbits
 651              		.align	2
 652              		.p2align 4,,15
 653              		.global	ADC_SetCompareChannel
 654              		.thumb
 655              		.thumb_func
 656              		.type	ADC_SetCompareChannel, %function
 657              	ADC_SetCompareChannel:
 658              	.LFB46:
 659              		.loc 1 263 0
 660              		.cfi_startproc
 661              		@ args = 0, pretend = 0, frame = 0
 662              		@ frame_needed = 0, uses_anonymous_args = 0
 663              	.LVL76:
 664              		.loc 1 264 0
 665 0000 1029     		cmp	r1, #16
 666              		.loc 1 263 0
 667 0002 08B5     		push	{r3, lr}
 668              		.cfi_def_cfa_offset 8
 669              		.cfi_offset 3, -8
 670              		.cfi_offset 14, -4
 671              		.loc 1 264 0
 672 0004 11D8     		bhi	.L64
 673              		.loc 1 268 0
 674 0006 036C     		ldr	r3, [r0, #64]
 675              		.loc 1 266 0
 676 0008 03D1     		bne	.L65
 677              		.loc 1 274 0
 678 000a 43F40073 		orr	r3, r3, #512
 679 000e 0364     		str	r3, [r0, #64]
 680 0010 08BD     		pop	{r3, pc}
 681              	.L65:
 682              		.loc 1 268 0
 683 0012 23F40073 		bic	r3, r3, #512
 684 0016 0364     		str	r3, [r0, #64]
ARM GAS  /tmp/ccGznRlG.s 			page 13


 685              		.loc 1 269 0
 686 0018 036C     		ldr	r3, [r0, #64]
 687 001a 23F0F003 		bic	r3, r3, #240
 688 001e 0364     		str	r3, [r0, #64]
 689              		.loc 1 270 0
 690 0020 036C     		ldr	r3, [r0, #64]
 691 0022 43EA0111 		orr	r1, r3, r1, lsl #4
 692              	.LVL77:
 693 0026 0164     		str	r1, [r0, #64]
 694 0028 08BD     		pop	{r3, pc}
 695              	.LVL78:
 696              	.L64:
 697              		.loc 1 264 0 discriminator 1
 698 002a 0348     		ldr	r0, .L66
 699              	.LVL79:
 700 002c 4FF48471 		mov	r1, #264
 701              	.LVL80:
 702 0030 024A     		ldr	r2, .L66+4
 703 0032 034B     		ldr	r3, .L66+8
 704 0034 FFF7FEFF 		bl	__assert_func
 705              	.LVL81:
 706              	.L67:
 707              		.align	2
 708              	.L66:
 709 0038 E4000000 		.word	.LC5
 710 003c 00000000 		.word	.LANCHOR0
 711 0040 50010000 		.word	.LC6
 712              		.cfi_endproc
 713              	.LFE46:
 714              		.size	ADC_SetCompareChannel, .-ADC_SetCompareChannel
 715              		.section	.text.ADC_SetCompareMode,"ax",%progbits
 716              		.align	2
 717              		.p2align 4,,15
 718              		.global	ADC_SetCompareMode
 719              		.thumb
 720              		.thumb_func
 721              		.type	ADC_SetCompareMode, %function
 722              	ADC_SetCompareMode:
 723              	.LFB47:
 724              		.loc 1 284 0
 725              		.cfi_startproc
 726              		@ args = 0, pretend = 0, frame = 0
 727              		@ frame_needed = 0, uses_anonymous_args = 0
 728              		@ link register save eliminated.
 729              	.LVL82:
 730              		.loc 1 285 0
 731 0000 036C     		ldr	r3, [r0, #64]
 732              		.loc 1 286 0
 733 0002 01F00301 		and	r1, r1, #3
 734              	.LVL83:
 735              		.loc 1 285 0
 736 0006 23F00303 		bic	r3, r3, #3
 737 000a 0364     		str	r3, [r0, #64]
 738              		.loc 1 286 0
 739 000c 036C     		ldr	r3, [r0, #64]
 740 000e 1943     		orrs	r1, r1, r3
 741 0010 0164     		str	r1, [r0, #64]
ARM GAS  /tmp/ccGznRlG.s 			page 14


 742 0012 7047     		bx	lr
 743              		.cfi_endproc
 744              	.LFE47:
 745              		.size	ADC_SetCompareMode, .-ADC_SetCompareMode
 746              		.section	.text.ADC_SetComparisonWindow,"ax",%progbits
 747              		.align	2
 748              		.p2align 4,,15
 749              		.global	ADC_SetComparisonWindow
 750              		.thumb
 751              		.thumb_func
 752              		.type	ADC_SetComparisonWindow, %function
 753              	ADC_SetComparisonWindow:
 754              	.LFB48:
 755              		.loc 1 295 0
 756              		.cfi_startproc
 757              		@ args = 0, pretend = 0, frame = 0
 758              		@ frame_needed = 0, uses_anonymous_args = 0
 759              		@ link register save eliminated.
 760              	.LVL84:
 761              		.loc 1 296 0
 762 0000 4164     		str	r1, [r0, #68]
 763 0002 7047     		bx	lr
 764              		.cfi_endproc
 765              	.LFE48:
 766              		.size	ADC_SetComparisonWindow, .-ADC_SetComparisonWindow
 767              		.section	.text.ADC_IsInterruptMasked,"ax",%progbits
 768              		.align	2
 769              		.p2align 4,,15
 770              		.global	ADC_IsInterruptMasked
 771              		.thumb
 772              		.thumb_func
 773              		.type	ADC_IsInterruptMasked, %function
 774              	ADC_IsInterruptMasked:
 775              	.LFB49:
 776              		.loc 1 308 0
 777              		.cfi_startproc
 778              		@ args = 0, pretend = 0, frame = 0
 779              		@ frame_needed = 0, uses_anonymous_args = 0
 780              		@ link register save eliminated.
 781              	.LVL85:
 782              		.loc 1 309 0
 783 0000 C06A     		ldr	r0, [r0, #44]
 784              	.LVL86:
 785              		.loc 1 310 0
 786 0002 0840     		ands	r0, r0, r1
 787 0004 7047     		bx	lr
 788              		.cfi_endproc
 789              	.LFE49:
 790              		.size	ADC_IsInterruptMasked, .-ADC_IsInterruptMasked
 791 0006 00BF     		.section	.text.ADC_IsStatusSet,"ax",%progbits
 792              		.align	2
 793              		.p2align 4,,15
 794              		.global	ADC_IsStatusSet
 795              		.thumb
 796              		.thumb_func
 797              		.type	ADC_IsStatusSet, %function
 798              	ADC_IsStatusSet:
ARM GAS  /tmp/ccGznRlG.s 			page 15


 799              	.LFB50:
 800              		.loc 1 321 0
 801              		.cfi_startproc
 802              		@ args = 0, pretend = 0, frame = 0
 803              		@ frame_needed = 0, uses_anonymous_args = 0
 804              		@ link register save eliminated.
 805              	.LVL87:
 806              		.loc 1 322 0
 807 0000 006B     		ldr	r0, [r0, #48]
 808              	.LVL88:
 809              		.loc 1 323 0
 810 0002 0840     		ands	r0, r0, r1
 811 0004 7047     		bx	lr
 812              		.cfi_endproc
 813              	.LFE50:
 814              		.size	ADC_IsStatusSet, .-ADC_IsStatusSet
 815 0006 00BF     		.section	.text.ADC_IsChannelInterruptStatusSet,"ax",%progbits
 816              		.align	2
 817              		.p2align 4,,15
 818              		.global	ADC_IsChannelInterruptStatusSet
 819              		.thumb
 820              		.thumb_func
 821              		.type	ADC_IsChannelInterruptStatusSet, %function
 822              	ADC_IsChannelInterruptStatusSet:
 823              	.LFB51:
 824              		.loc 1 334 0
 825              		.cfi_startproc
 826              		@ args = 0, pretend = 0, frame = 0
 827              		@ frame_needed = 0, uses_anonymous_args = 0
 828              		@ link register save eliminated.
 829              	.LVL89:
 830              		.loc 1 337 0
 831 0000 0123     		movs	r3, #1
 832 0002 8B40     		lsls	r3, r3, r1
 833              	.LVL90:
 834 0004 1840     		ands	r0, r0, r3
 835              	.LVL91:
 836              		.loc 1 347 0
 837 0006 181A     		subs	r0, r3, r0
 838 0008 B0FA80F0 		clz	r0, r0
 839 000c 4009     		lsrs	r0, r0, #5
 840 000e 7047     		bx	lr
 841              		.cfi_endproc
 842              	.LFE51:
 843              		.size	ADC_IsChannelInterruptStatusSet, .-ADC_IsChannelInterruptStatusSet
 844              		.section	.text.ADC_ReadBuffer,"ax",%progbits
 845              		.align	2
 846              		.p2align 4,,15
 847              		.global	ADC_ReadBuffer
 848              		.thumb
 849              		.thumb_func
 850              		.type	ADC_ReadBuffer, %function
 851              	ADC_ReadBuffer:
 852              	.LFB52:
 853              		.loc 1 357 0
 854              		.cfi_startproc
 855              		@ args = 0, pretend = 0, frame = 0
ARM GAS  /tmp/ccGznRlG.s 			page 16


 856              		@ frame_needed = 0, uses_anonymous_args = 0
 857              		@ link register save eliminated.
 858              	.LVL92:
 859 0000 0346     		mov	r3, r0
 860              		.loc 1 359 0
 861 0002 D0F80401 		ldr	r0, [r0, #260]
 862              	.LVL93:
 863 0006 10B9     		cbnz	r0, .L74
 864              		.loc 1 359 0 is_stmt 0 discriminator 1
 865 0008 D3F81401 		ldr	r0, [r3, #276]
 866 000c 50B1     		cbz	r0, .L79
 867              	.L74:
 868              		.loc 1 370 0 is_stmt 1
 869 000e D3F81401 		ldr	r0, [r3, #276]
 870 0012 28B9     		cbnz	r0, .L76
 871              		.loc 1 372 0
 872 0014 C3F81011 		str	r1, [r3, #272]
 873              		.loc 1 375 0
 874 0018 0120     		movs	r0, #1
 875              		.loc 1 373 0
 876 001a C3F81421 		str	r2, [r3, #276]
 877              		.loc 1 375 0
 878 001e 7047     		bx	lr
 879              	.L76:
 880              		.loc 1 379 0
 881 0020 0020     		movs	r0, #0
 882 0022 7047     		bx	lr
 883              	.L79:
 884              		.loc 1 357 0
 885 0024 10B4     		push	{r4}
 886              		.cfi_def_cfa_offset 4
 887              		.cfi_offset 4, -4
 888              		.loc 1 363 0
 889 0026 0124     		movs	r4, #1
 890              		.loc 1 361 0
 891 0028 C3F80011 		str	r1, [r3, #256]
 892              		.loc 1 365 0
 893 002c 2046     		mov	r0, r4
 894              		.loc 1 362 0
 895 002e C3F80421 		str	r2, [r3, #260]
 896              		.loc 1 363 0
 897 0032 C3F82041 		str	r4, [r3, #288]
 898              		.loc 1 382 0
 899 0036 5DF8044B 		ldr	r4, [sp], #4
 900              		.cfi_restore 4
 901              		.cfi_def_cfa_offset 0
 902 003a 7047     		bx	lr
 903              		.cfi_endproc
 904              	.LFE52:
 905              		.size	ADC_ReadBuffer, .-ADC_ReadBuffer
 906              		.section	.rodata.str1.4,"aMS",%progbits,1
 907              		.align	2
 908              	.LC0:
 909 0000 41444320 		.ascii	"ADC clock frequency =  %d Hz\015\012\000"
 909      636C6F63 
 909      6B206672 
 909      65717565 
ARM GAS  /tmp/ccGznRlG.s 			page 17


 909      6E637920 
 910 001f 00       		.space	1
 911              	.LC1:
 912 0020 61646320 		.ascii	"adc frequency too low (out of specification: %d Hz)"
 912      66726571 
 912      75656E63 
 912      7920746F 
 912      6F206C6F 
 913 0053 0D0A00   		.ascii	"\015\012\000"
 914 0056 0000     		.space	2
 915              	.LC2:
 916 0058 61646320 		.ascii	"adc frequency too high (out of specification: %d Hz"
 916      66726571 
 916      75656E63 
 916      7920746F 
 916      6F206869 
 917 008b 290D0A00 		.ascii	")\015\012\000"
 918 008f 00       		.space	1
 919              	.LC3:
 920 0090 53746172 		.ascii	"Startup time too small: %d, programmed: %d\015\012\000"
 920      74757020 
 920      74696D65 
 920      20746F6F 
 920      20736D61 
 921 00bd 000000   		.space	3
 922              	.LC4:
 923 00c0 46726565 		.ascii	"FreeRun forbidden in sleep mode\012\015\000"
 923      52756E20 
 923      666F7262 
 923      69646465 
 923      6E20696E 
 924 00e2 0000     		.space	2
 925              	.LC5:
 926 00e4 2F686F6D 		.ascii	"/home/nicolas/Escritorio/Embebidos/stamp_repo/files"
 926      652F6E69 
 926      636F6C61 
 926      732F4573 
 926      63726974 
 927 0117 2F636F64 		.ascii	"/code/ext/ChibiOS/os/hal/platforms/AT91SAM3S/atmel_"
 927      652F6578 
 927      742F4368 
 927      6962694F 
 927      532F6F73 
 928 014a 6164632E 		.ascii	"adc.c\000"
 928      6300
 929              	.LC6:
 930 0150 64774368 		.ascii	"dwChannel <= 16\000"
 930      616E6E65 
 930      6C203C3D 
 930      20313600 
 931              		.section	.rodata.__func__.6032,"a",%progbits
 932              		.align	2
 933              		.set	.LANCHOR0,. + 0
 934              		.type	__func__.6032, %object
 935              		.size	__func__.6032, 22
 936              	__func__.6032:
 937 0000 4144435F 		.ascii	"ADC_SetCompareChannel\000"
ARM GAS  /tmp/ccGznRlG.s 			page 18


 937      53657443 
 937      6F6D7061 
 937      72654368 
 937      616E6E65 
 938              		.text
 939              	.Letext0:
 940              		.file 2 "/opt/gcc-arm-none-eabi-4_9-2015q3/lib/gcc/arm-none-eabi/4.9.3/include/stddef.h"
 941              		.file 3 "/opt/gcc-arm-none-eabi-4_9-2015q3/arm-none-eabi/include/machine/_default_types.h"
 942              		.file 4 "/opt/gcc-arm-none-eabi-4_9-2015q3/arm-none-eabi/include/sys/_stdint.h"
 943              		.file 5 "/opt/gcc-arm-none-eabi-4_9-2015q3/arm-none-eabi/include/stdint.h"
 944              		.file 6 "/home/nicolas/Escritorio/Embebidos/stamp_repo/files/code/ext/ChibiOS/os/ports/GCC/ARMCMx/
 945              		.file 7 "/home/nicolas/Escritorio/Embebidos/stamp_repo/files/code/ext/ChibiOS/os/kernel/include/ch
 946              		.file 8 "/home/nicolas/Escritorio/Embebidos/stamp_repo/files/code/ext/ChibiOS/os/kernel/include/ch
 947              		.file 9 "/home/nicolas/Escritorio/Embebidos/stamp_repo/files/code/ext/ChibiOS/os/ports/GCC/ARMCMx/
 948              		.file 10 "/home/nicolas/Escritorio/Embebidos/stamp_repo/files/code/ext/ChibiOS/os/kernel/include/c
 949              		.file 11 "/home/nicolas/Escritorio/Embebidos/stamp_repo/files/code/ext/ChibiOS/os/kernel/include/c
 950              		.file 12 "/home/nicolas/Escritorio/Embebidos/stamp_repo/files/code/ext/ChibiOS/os/kernel/include/c
 951              		.file 13 "/home/nicolas/Escritorio/Embebidos/stamp_repo/files/code/ext/ChibiOS/os/kernel/include/c
 952              		.file 14 "/home/nicolas/Escritorio/Embebidos/stamp_repo/files/code/ext/ChibiOS/os/hal/platforms/AT
 953              		.file 15 "/home/nicolas/Escritorio/Embebidos/stamp_repo/files/code/ext/ChibiOS/os/hal/include/seri
 954              		.file 16 "/home/nicolas/Escritorio/Embebidos/stamp_repo/files/code/ext/ChibiOS/os/hal/platforms/AT
 955              		.file 17 "/home/nicolas/Escritorio/Embebidos/stamp_repo/files/code/ext/ChibiOS/os/hal/platforms/AT
 956              		.file 18 "/home/nicolas/Escritorio/Embebidos/stamp_repo/files/code/ext/ChibiOS/os/various/chprintf
 957              		.file 19 "/opt/gcc-arm-none-eabi-4_9-2015q3/arm-none-eabi/include/assert.h"
 958              		.section	.debug_info,"",%progbits
 959              	.Ldebug_info0:
 960 0000 2C130000 		.4byte	0x132c
 961 0004 0400     		.2byte	0x4
 962 0006 00000000 		.4byte	.Ldebug_abbrev0
 963 000a 04       		.byte	0x4
 964 000b 01       		.uleb128 0x1
 965 000c 74030000 		.4byte	.LASF230
 966 0010 01       		.byte	0x1
 967 0011 2F070000 		.4byte	.LASF231
 968 0015 00000000 		.4byte	.Ldebug_ranges0+0
 969 0019 00000000 		.4byte	0
 970 001d 00000000 		.4byte	.Ldebug_line0
 971 0021 02       		.uleb128 0x2
 972 0022 04       		.byte	0x4
 973 0023 05       		.byte	0x5
 974 0024 696E7400 		.ascii	"int\000"
 975 0028 03       		.uleb128 0x3
 976 0029 1C000000 		.4byte	.LASF2
 977 002d 02       		.byte	0x2
 978 002e D4       		.byte	0xd4
 979 002f 33000000 		.4byte	0x33
 980 0033 04       		.uleb128 0x4
 981 0034 04       		.byte	0x4
 982 0035 07       		.byte	0x7
 983 0036 BE050000 		.4byte	.LASF0
 984 003a 04       		.uleb128 0x4
 985 003b 01       		.byte	0x1
 986 003c 06       		.byte	0x6
 987 003d 21020000 		.4byte	.LASF1
 988 0041 03       		.uleb128 0x3
 989 0042 43010000 		.4byte	.LASF3
 990 0046 03       		.byte	0x3
ARM GAS  /tmp/ccGznRlG.s 			page 19


 991 0047 1D       		.byte	0x1d
 992 0048 4C000000 		.4byte	0x4c
 993 004c 04       		.uleb128 0x4
 994 004d 01       		.byte	0x1
 995 004e 08       		.byte	0x8
 996 004f 50020000 		.4byte	.LASF4
 997 0053 03       		.uleb128 0x3
 998 0054 F4060000 		.4byte	.LASF5
 999 0058 03       		.byte	0x3
 1000 0059 29       		.byte	0x29
 1001 005a 5E000000 		.4byte	0x5e
 1002 005e 04       		.uleb128 0x4
 1003 005f 02       		.byte	0x2
 1004 0060 05       		.byte	0x5
 1005 0061 0F080000 		.4byte	.LASF6
 1006 0065 04       		.uleb128 0x4
 1007 0066 02       		.byte	0x2
 1008 0067 07       		.byte	0x7
 1009 0068 1B090000 		.4byte	.LASF7
 1010 006c 03       		.uleb128 0x3
 1011 006d 4B090000 		.4byte	.LASF8
 1012 0071 03       		.byte	0x3
 1013 0072 3F       		.byte	0x3f
 1014 0073 77000000 		.4byte	0x77
 1015 0077 04       		.uleb128 0x4
 1016 0078 04       		.byte	0x4
 1017 0079 05       		.byte	0x5
 1018 007a 84010000 		.4byte	.LASF9
 1019 007e 03       		.uleb128 0x3
 1020 007f 18050000 		.4byte	.LASF10
 1021 0083 03       		.byte	0x3
 1022 0084 41       		.byte	0x41
 1023 0085 89000000 		.4byte	0x89
 1024 0089 04       		.uleb128 0x4
 1025 008a 04       		.byte	0x4
 1026 008b 07       		.byte	0x7
 1027 008c 97040000 		.4byte	.LASF11
 1028 0090 04       		.uleb128 0x4
 1029 0091 08       		.byte	0x8
 1030 0092 05       		.byte	0x5
 1031 0093 29050000 		.4byte	.LASF12
 1032 0097 04       		.uleb128 0x4
 1033 0098 08       		.byte	0x8
 1034 0099 07       		.byte	0x7
 1035 009a AD060000 		.4byte	.LASF13
 1036 009e 03       		.uleb128 0x3
 1037 009f 34020000 		.4byte	.LASF14
 1038 00a3 04       		.byte	0x4
 1039 00a4 14       		.byte	0x14
 1040 00a5 41000000 		.4byte	0x41
 1041 00a9 03       		.uleb128 0x3
 1042 00aa 38080000 		.4byte	.LASF15
 1043 00ae 04       		.byte	0x4
 1044 00af 19       		.byte	0x19
 1045 00b0 53000000 		.4byte	0x53
 1046 00b4 03       		.uleb128 0x3
 1047 00b5 5F000000 		.4byte	.LASF16
ARM GAS  /tmp/ccGznRlG.s 			page 20


 1048 00b9 04       		.byte	0x4
 1049 00ba 1F       		.byte	0x1f
 1050 00bb 6C000000 		.4byte	0x6c
 1051 00bf 03       		.uleb128 0x3
 1052 00c0 CD080000 		.4byte	.LASF17
 1053 00c4 04       		.byte	0x4
 1054 00c5 20       		.byte	0x20
 1055 00c6 7E000000 		.4byte	0x7e
 1056 00ca 03       		.uleb128 0x3
 1057 00cb F4080000 		.4byte	.LASF18
 1058 00cf 05       		.byte	0x5
 1059 00d0 3E       		.byte	0x3e
 1060 00d1 33000000 		.4byte	0x33
 1061 00d5 03       		.uleb128 0x3
 1062 00d6 56080000 		.4byte	.LASF19
 1063 00da 06       		.byte	0x6
 1064 00db 2E       		.byte	0x2e
 1065 00dc B4000000 		.4byte	0xb4
 1066 00e0 03       		.uleb128 0x3
 1067 00e1 EB070000 		.4byte	.LASF20
 1068 00e5 06       		.byte	0x6
 1069 00e6 2F       		.byte	0x2f
 1070 00e7 9E000000 		.4byte	0x9e
 1071 00eb 03       		.uleb128 0x3
 1072 00ec B4010000 		.4byte	.LASF21
 1073 00f0 06       		.byte	0x6
 1074 00f1 30       		.byte	0x30
 1075 00f2 9E000000 		.4byte	0x9e
 1076 00f6 03       		.uleb128 0x3
 1077 00f7 93080000 		.4byte	.LASF22
 1078 00fb 06       		.byte	0x6
 1079 00fc 31       		.byte	0x31
 1080 00fd 9E000000 		.4byte	0x9e
 1081 0101 03       		.uleb128 0x3
 1082 0102 3C000000 		.4byte	.LASF23
 1083 0106 06       		.byte	0x6
 1084 0107 32       		.byte	0x32
 1085 0108 BF000000 		.4byte	0xbf
 1086 010c 03       		.uleb128 0x3
 1087 010d CC060000 		.4byte	.LASF24
 1088 0111 06       		.byte	0x6
 1089 0112 33       		.byte	0x33
 1090 0113 B4000000 		.4byte	0xb4
 1091 0117 03       		.uleb128 0x3
 1092 0118 3C020000 		.4byte	.LASF25
 1093 011c 06       		.byte	0x6
 1094 011d 35       		.byte	0x35
 1095 011e BF000000 		.4byte	0xbf
 1096 0122 03       		.uleb128 0x3
 1097 0123 2C000000 		.4byte	.LASF26
 1098 0127 06       		.byte	0x6
 1099 0128 36       		.byte	0x36
 1100 0129 BF000000 		.4byte	0xbf
 1101 012d 03       		.uleb128 0x3
 1102 012e 6C080000 		.4byte	.LASF27
 1103 0132 07       		.byte	0x7
 1104 0133 2A       		.byte	0x2a
ARM GAS  /tmp/ccGznRlG.s 			page 21


 1105 0134 38010000 		.4byte	0x138
 1106 0138 05       		.uleb128 0x5
 1107 0139 6C080000 		.4byte	.LASF27
 1108 013d 48       		.byte	0x48
 1109 013e 08       		.byte	0x8
 1110 013f 5E       		.byte	0x5e
 1111 0140 29020000 		.4byte	0x229
 1112 0144 06       		.uleb128 0x6
 1113 0145 8D010000 		.4byte	.LASF28
 1114 0149 08       		.byte	0x8
 1115 014a 5F       		.byte	0x5f
 1116 014b 4A020000 		.4byte	0x24a
 1117 014f 00       		.byte	0
 1118 0150 06       		.uleb128 0x6
 1119 0151 A5010000 		.4byte	.LASF29
 1120 0155 08       		.byte	0x8
 1121 0156 61       		.byte	0x61
 1122 0157 4A020000 		.4byte	0x24a
 1123 015b 04       		.byte	0x4
 1124 015c 06       		.uleb128 0x6
 1125 015d AC020000 		.4byte	.LASF30
 1126 0161 08       		.byte	0x8
 1127 0162 63       		.byte	0x63
 1128 0163 01010000 		.4byte	0x101
 1129 0167 08       		.byte	0x8
 1130 0168 06       		.uleb128 0x6
 1131 0169 36000000 		.4byte	.LASF31
 1132 016d 08       		.byte	0x8
 1133 016e 64       		.byte	0x64
 1134 016f 03030000 		.4byte	0x303
 1135 0173 0C       		.byte	0xc
 1136 0174 06       		.uleb128 0x6
 1137 0175 7C010000 		.4byte	.LASF32
 1138 0179 08       		.byte	0x8
 1139 017a 66       		.byte	0x66
 1140 017b 4A020000 		.4byte	0x24a
 1141 017f 10       		.byte	0x10
 1142 0180 06       		.uleb128 0x6
 1143 0181 C4060000 		.4byte	.LASF33
 1144 0185 08       		.byte	0x8
 1145 0186 67       		.byte	0x67
 1146 0187 4A020000 		.4byte	0x24a
 1147 018b 14       		.byte	0x14
 1148 018c 06       		.uleb128 0x6
 1149 018d AF090000 		.4byte	.LASF34
 1150 0191 08       		.byte	0x8
 1151 0192 6E       		.byte	0x6e
 1152 0193 12040000 		.4byte	0x412
 1153 0197 18       		.byte	0x18
 1154 0198 06       		.uleb128 0x6
 1155 0199 1D0A0000 		.4byte	.LASF35
 1156 019d 08       		.byte	0x8
 1157 019e 79       		.byte	0x79
 1158 019f EB000000 		.4byte	0xeb
 1159 01a3 1C       		.byte	0x1c
 1160 01a4 06       		.uleb128 0x6
 1161 01a5 A0050000 		.4byte	.LASF36
ARM GAS  /tmp/ccGznRlG.s 			page 22


 1162 01a9 08       		.byte	0x8
 1163 01aa 7D       		.byte	0x7d
 1164 01ab E0000000 		.4byte	0xe0
 1165 01af 1D       		.byte	0x1d
 1166 01b0 06       		.uleb128 0x6
 1167 01b1 F1050000 		.4byte	.LASF37
 1168 01b5 08       		.byte	0x8
 1169 01b6 82       		.byte	0x82
 1170 01b7 F6000000 		.4byte	0xf6
 1171 01bb 1E       		.byte	0x1e
 1172 01bc 06       		.uleb128 0x6
 1173 01bd 35060000 		.4byte	.LASF38
 1174 01c1 08       		.byte	0x8
 1175 01c2 89       		.byte	0x89
 1176 01c3 30030000 		.4byte	0x330
 1177 01c7 20       		.byte	0x20
 1178 01c8 07       		.uleb128 0x7
 1179 01c9 705F7500 		.ascii	"p_u\000"
 1180 01cd 08       		.byte	0x8
 1181 01ce AE       		.byte	0xae
 1182 01cf DD030000 		.4byte	0x3dd
 1183 01d3 24       		.byte	0x24
 1184 01d4 06       		.uleb128 0x6
 1185 01d5 90050000 		.4byte	.LASF39
 1186 01d9 08       		.byte	0x8
 1187 01da B3       		.byte	0xb3
 1188 01db 70020000 		.4byte	0x270
 1189 01df 28       		.byte	0x28
 1190 01e0 06       		.uleb128 0x6
 1191 01e1 54000000 		.4byte	.LASF40
 1192 01e5 08       		.byte	0x8
 1193 01e6 B9       		.byte	0xb9
 1194 01e7 50020000 		.4byte	0x250
 1195 01eb 2C       		.byte	0x2c
 1196 01ec 06       		.uleb128 0x6
 1197 01ed FA090000 		.4byte	.LASF41
 1198 01f1 08       		.byte	0x8
 1199 01f2 BD       		.byte	0xbd
 1200 01f3 0C010000 		.4byte	0x10c
 1201 01f7 34       		.byte	0x34
 1202 01f8 06       		.uleb128 0x6
 1203 01f9 69030000 		.4byte	.LASF42
 1204 01fd 08       		.byte	0x8
 1205 01fe C3       		.byte	0xc3
 1206 01ff 17010000 		.4byte	0x117
 1207 0203 38       		.byte	0x38
 1208 0204 06       		.uleb128 0x6
 1209 0205 D1010000 		.4byte	.LASF43
 1210 0209 08       		.byte	0x8
 1211 020a CA       		.byte	0xca
 1212 020b 24040000 		.4byte	0x424
 1213 020f 3C       		.byte	0x3c
 1214 0210 06       		.uleb128 0x6
 1215 0211 46060000 		.4byte	.LASF44
 1216 0215 08       		.byte	0x8
 1217 0216 CE       		.byte	0xce
 1218 0217 01010000 		.4byte	0x101
ARM GAS  /tmp/ccGznRlG.s 			page 23


 1219 021b 40       		.byte	0x40
 1220 021c 06       		.uleb128 0x6
 1221 021d CB050000 		.4byte	.LASF45
 1222 0221 08       		.byte	0x8
 1223 0222 D4       		.byte	0xd4
 1224 0223 86020000 		.4byte	0x286
 1225 0227 44       		.byte	0x44
 1226 0228 00       		.byte	0
 1227 0229 08       		.uleb128 0x8
 1228 022a 08       		.byte	0x8
 1229 022b 07       		.byte	0x7
 1230 022c 61       		.byte	0x61
 1231 022d 4A020000 		.4byte	0x24a
 1232 0231 06       		.uleb128 0x6
 1233 0232 8D010000 		.4byte	.LASF28
 1234 0236 07       		.byte	0x7
 1235 0237 62       		.byte	0x62
 1236 0238 4A020000 		.4byte	0x24a
 1237 023c 00       		.byte	0
 1238 023d 06       		.uleb128 0x6
 1239 023e A5010000 		.4byte	.LASF29
 1240 0242 07       		.byte	0x7
 1241 0243 64       		.byte	0x64
 1242 0244 4A020000 		.4byte	0x24a
 1243 0248 04       		.byte	0x4
 1244 0249 00       		.byte	0
 1245 024a 09       		.uleb128 0x9
 1246 024b 04       		.byte	0x4
 1247 024c 2D010000 		.4byte	0x12d
 1248 0250 03       		.uleb128 0x3
 1249 0251 DE080000 		.4byte	.LASF46
 1250 0255 07       		.byte	0x7
 1251 0256 66       		.byte	0x66
 1252 0257 29020000 		.4byte	0x229
 1253 025b 08       		.uleb128 0x8
 1254 025c 04       		.byte	0x4
 1255 025d 07       		.byte	0x7
 1256 025e 6B       		.byte	0x6b
 1257 025f 70020000 		.4byte	0x270
 1258 0263 06       		.uleb128 0x6
 1259 0264 8D010000 		.4byte	.LASF28
 1260 0268 07       		.byte	0x7
 1261 0269 6D       		.byte	0x6d
 1262 026a 4A020000 		.4byte	0x24a
 1263 026e 00       		.byte	0
 1264 026f 00       		.byte	0
 1265 0270 03       		.uleb128 0x3
 1266 0271 1F060000 		.4byte	.LASF47
 1267 0275 07       		.byte	0x7
 1268 0276 70       		.byte	0x70
 1269 0277 5B020000 		.4byte	0x25b
 1270 027b 03       		.uleb128 0x3
 1271 027c E2010000 		.4byte	.LASF48
 1272 0280 09       		.byte	0x9
 1273 0281 D7       		.byte	0xd7
 1274 0282 86020000 		.4byte	0x286
 1275 0286 0A       		.uleb128 0xa
ARM GAS  /tmp/ccGznRlG.s 			page 24


 1276 0287 04       		.byte	0x4
 1277 0288 05       		.uleb128 0x5
 1278 0289 62030000 		.4byte	.LASF49
 1279 028d 24       		.byte	0x24
 1280 028e 09       		.byte	0x9
 1281 028f FE       		.byte	0xfe
 1282 0290 03030000 		.4byte	0x303
 1283 0294 0B       		.uleb128 0xb
 1284 0295 723400   		.ascii	"r4\000"
 1285 0298 09       		.byte	0x9
 1286 0299 1101     		.2byte	0x111
 1287 029b 7B020000 		.4byte	0x27b
 1288 029f 00       		.byte	0
 1289 02a0 0B       		.uleb128 0xb
 1290 02a1 723500   		.ascii	"r5\000"
 1291 02a4 09       		.byte	0x9
 1292 02a5 1201     		.2byte	0x112
 1293 02a7 7B020000 		.4byte	0x27b
 1294 02ab 04       		.byte	0x4
 1295 02ac 0B       		.uleb128 0xb
 1296 02ad 723600   		.ascii	"r6\000"
 1297 02b0 09       		.byte	0x9
 1298 02b1 1301     		.2byte	0x113
 1299 02b3 7B020000 		.4byte	0x27b
 1300 02b7 08       		.byte	0x8
 1301 02b8 0B       		.uleb128 0xb
 1302 02b9 723700   		.ascii	"r7\000"
 1303 02bc 09       		.byte	0x9
 1304 02bd 1401     		.2byte	0x114
 1305 02bf 7B020000 		.4byte	0x27b
 1306 02c3 0C       		.byte	0xc
 1307 02c4 0B       		.uleb128 0xb
 1308 02c5 723800   		.ascii	"r8\000"
 1309 02c8 09       		.byte	0x9
 1310 02c9 1501     		.2byte	0x115
 1311 02cb 7B020000 		.4byte	0x27b
 1312 02cf 10       		.byte	0x10
 1313 02d0 0B       		.uleb128 0xb
 1314 02d1 723900   		.ascii	"r9\000"
 1315 02d4 09       		.byte	0x9
 1316 02d5 1601     		.2byte	0x116
 1317 02d7 7B020000 		.4byte	0x27b
 1318 02db 14       		.byte	0x14
 1319 02dc 0B       		.uleb128 0xb
 1320 02dd 72313000 		.ascii	"r10\000"
 1321 02e1 09       		.byte	0x9
 1322 02e2 1701     		.2byte	0x117
 1323 02e4 7B020000 		.4byte	0x27b
 1324 02e8 18       		.byte	0x18
 1325 02e9 0B       		.uleb128 0xb
 1326 02ea 72313100 		.ascii	"r11\000"
 1327 02ee 09       		.byte	0x9
 1328 02ef 1801     		.2byte	0x118
 1329 02f1 7B020000 		.4byte	0x27b
 1330 02f5 1C       		.byte	0x1c
 1331 02f6 0B       		.uleb128 0xb
 1332 02f7 6C7200   		.ascii	"lr\000"
ARM GAS  /tmp/ccGznRlG.s 			page 25


 1333 02fa 09       		.byte	0x9
 1334 02fb 1901     		.2byte	0x119
 1335 02fd 7B020000 		.4byte	0x27b
 1336 0301 20       		.byte	0x20
 1337 0302 00       		.byte	0
 1338 0303 0C       		.uleb128 0xc
 1339 0304 48020000 		.4byte	.LASF50
 1340 0308 04       		.byte	0x4
 1341 0309 09       		.byte	0x9
 1342 030a 2301     		.2byte	0x123
 1343 030c 1E030000 		.4byte	0x31e
 1344 0310 0B       		.uleb128 0xb
 1345 0311 72313300 		.ascii	"r13\000"
 1346 0315 09       		.byte	0x9
 1347 0316 2401     		.2byte	0x124
 1348 0318 1E030000 		.4byte	0x31e
 1349 031c 00       		.byte	0
 1350 031d 00       		.byte	0
 1351 031e 09       		.uleb128 0x9
 1352 031f 04       		.byte	0x4
 1353 0320 88020000 		.4byte	0x288
 1354 0324 0D       		.uleb128 0xd
 1355 0325 BF000000 		.4byte	0xbf
 1356 0329 04       		.uleb128 0x4
 1357 032a 04       		.byte	0x4
 1358 032b 07       		.byte	0x7
 1359 032c 23000000 		.4byte	.LASF51
 1360 0330 0D       		.uleb128 0xd
 1361 0331 22010000 		.4byte	0x122
 1362 0335 05       		.uleb128 0x5
 1363 0336 23050000 		.4byte	.LASF52
 1364 033a 10       		.byte	0x10
 1365 033b 0A       		.byte	0xa
 1366 033c 2C       		.byte	0x2c
 1367 033d 66030000 		.4byte	0x366
 1368 0341 06       		.uleb128 0x6
 1369 0342 61050000 		.4byte	.LASF53
 1370 0346 0A       		.byte	0xa
 1371 0347 2D       		.byte	0x2d
 1372 0348 50020000 		.4byte	0x250
 1373 034c 00       		.byte	0
 1374 034d 06       		.uleb128 0x6
 1375 034e 32010000 		.4byte	.LASF54
 1376 0352 0A       		.byte	0xa
 1377 0353 2F       		.byte	0x2f
 1378 0354 4A020000 		.4byte	0x24a
 1379 0358 08       		.byte	0x8
 1380 0359 06       		.uleb128 0x6
 1381 035a B6090000 		.4byte	.LASF55
 1382 035e 0A       		.byte	0xa
 1383 035f 31       		.byte	0x31
 1384 0360 66030000 		.4byte	0x366
 1385 0364 0C       		.byte	0xc
 1386 0365 00       		.byte	0
 1387 0366 09       		.uleb128 0x9
 1388 0367 04       		.byte	0x4
 1389 0368 35030000 		.4byte	0x335
ARM GAS  /tmp/ccGznRlG.s 			page 26


 1390 036c 03       		.uleb128 0x3
 1391 036d 23050000 		.4byte	.LASF52
 1392 0371 0A       		.byte	0xa
 1393 0372 33       		.byte	0x33
 1394 0373 35030000 		.4byte	0x335
 1395 0377 03       		.uleb128 0x3
 1396 0378 A0080000 		.4byte	.LASF56
 1397 037c 0B       		.byte	0xb
 1398 037d 29       		.byte	0x29
 1399 037e 82030000 		.4byte	0x382
 1400 0382 05       		.uleb128 0x5
 1401 0383 A0080000 		.4byte	.LASF56
 1402 0387 0C       		.byte	0xc
 1403 0388 0B       		.byte	0xb
 1404 0389 2E       		.byte	0x2e
 1405 038a B3030000 		.4byte	0x3b3
 1406 038e 06       		.uleb128 0x6
 1407 038f CF040000 		.4byte	.LASF57
 1408 0393 0B       		.byte	0xb
 1409 0394 2F       		.byte	0x2f
 1410 0395 B3030000 		.4byte	0x3b3
 1411 0399 00       		.byte	0
 1412 039a 06       		.uleb128 0x6
 1413 039b 000A0000 		.4byte	.LASF58
 1414 039f 0B       		.byte	0xb
 1415 03a0 32       		.byte	0x32
 1416 03a1 4A020000 		.4byte	0x24a
 1417 03a5 04       		.byte	0x4
 1418 03a6 06       		.uleb128 0x6
 1419 03a7 75090000 		.4byte	.LASF59
 1420 03ab 0B       		.byte	0xb
 1421 03ac 34       		.byte	0x34
 1422 03ad 17010000 		.4byte	0x117
 1423 03b1 08       		.byte	0x8
 1424 03b2 00       		.byte	0
 1425 03b3 09       		.uleb128 0x9
 1426 03b4 04       		.byte	0x4
 1427 03b5 77030000 		.4byte	0x377
 1428 03b9 05       		.uleb128 0x5
 1429 03ba 82040000 		.4byte	.LASF60
 1430 03be 04       		.byte	0x4
 1431 03bf 0B       		.byte	0xb
 1432 03c0 3C       		.byte	0x3c
 1433 03c1 D2030000 		.4byte	0x3d2
 1434 03c5 06       		.uleb128 0x6
 1435 03c6 70040000 		.4byte	.LASF61
 1436 03ca 0B       		.byte	0xb
 1437 03cb 3D       		.byte	0x3d
 1438 03cc B3030000 		.4byte	0x3b3
 1439 03d0 00       		.byte	0
 1440 03d1 00       		.byte	0
 1441 03d2 03       		.uleb128 0x3
 1442 03d3 82040000 		.4byte	.LASF60
 1443 03d7 0B       		.byte	0xb
 1444 03d8 40       		.byte	0x40
 1445 03d9 B9030000 		.4byte	0x3b9
 1446 03dd 0E       		.uleb128 0xe
ARM GAS  /tmp/ccGznRlG.s 			page 27


 1447 03de 04       		.byte	0x4
 1448 03df 08       		.byte	0x8
 1449 03e0 90       		.byte	0x90
 1450 03e1 12040000 		.4byte	0x412
 1451 03e5 0F       		.uleb128 0xf
 1452 03e6 14090000 		.4byte	.LASF62
 1453 03ea 08       		.byte	0x8
 1454 03eb 97       		.byte	0x97
 1455 03ec 0C010000 		.4byte	0x10c
 1456 03f0 0F       		.uleb128 0xf
 1457 03f1 3A010000 		.4byte	.LASF63
 1458 03f5 08       		.byte	0x8
 1459 03f6 9E       		.byte	0x9e
 1460 03f7 0C010000 		.4byte	0x10c
 1461 03fb 0F       		.uleb128 0xf
 1462 03fc C0020000 		.4byte	.LASF64
 1463 0400 08       		.byte	0x8
 1464 0401 A5       		.byte	0xa5
 1465 0402 86020000 		.4byte	0x286
 1466 0406 0F       		.uleb128 0xf
 1467 0407 2D020000 		.4byte	.LASF65
 1468 040b 08       		.byte	0x8
 1469 040c AC       		.byte	0xac
 1470 040d 17010000 		.4byte	0x117
 1471 0411 00       		.byte	0
 1472 0412 09       		.uleb128 0x9
 1473 0413 04       		.byte	0x4
 1474 0414 18040000 		.4byte	0x418
 1475 0418 10       		.uleb128 0x10
 1476 0419 1D040000 		.4byte	0x41d
 1477 041d 04       		.uleb128 0x4
 1478 041e 01       		.byte	0x1
 1479 041f 08       		.byte	0x8
 1480 0420 A7020000 		.4byte	.LASF66
 1481 0424 09       		.uleb128 0x9
 1482 0425 04       		.byte	0x4
 1483 0426 6C030000 		.4byte	0x36c
 1484 042a 03       		.uleb128 0x3
 1485 042b B3020000 		.4byte	.LASF67
 1486 042f 0C       		.byte	0xc
 1487 0430 37       		.byte	0x37
 1488 0431 35040000 		.4byte	0x435
 1489 0435 05       		.uleb128 0x5
 1490 0436 B3020000 		.4byte	.LASF67
 1491 043a 20       		.byte	0x20
 1492 043b 0C       		.byte	0xc
 1493 043c 45       		.byte	0x45
 1494 043d 96040000 		.4byte	0x496
 1495 0441 06       		.uleb128 0x6
 1496 0442 9B070000 		.4byte	.LASF68
 1497 0446 0C       		.byte	0xc
 1498 0447 46       		.byte	0x46
 1499 0448 50020000 		.4byte	0x250
 1500 044c 00       		.byte	0
 1501 044d 06       		.uleb128 0x6
 1502 044e 78040000 		.4byte	.LASF69
 1503 0452 0C       		.byte	0xc
ARM GAS  /tmp/ccGznRlG.s 			page 28


 1504 0453 47       		.byte	0x47
 1505 0454 28000000 		.4byte	0x28
 1506 0458 08       		.byte	0x8
 1507 0459 06       		.uleb128 0x6
 1508 045a 62010000 		.4byte	.LASF70
 1509 045e 0C       		.byte	0xc
 1510 045f 48       		.byte	0x48
 1511 0460 B8040000 		.4byte	0x4b8
 1512 0464 0C       		.byte	0xc
 1513 0465 06       		.uleb128 0x6
 1514 0466 4D010000 		.4byte	.LASF71
 1515 046a 0C       		.byte	0xc
 1516 046b 49       		.byte	0x49
 1517 046c B8040000 		.4byte	0x4b8
 1518 0470 10       		.byte	0x10
 1519 0471 06       		.uleb128 0x6
 1520 0472 DF040000 		.4byte	.LASF72
 1521 0476 0C       		.byte	0xc
 1522 0477 4B       		.byte	0x4b
 1523 0478 B8040000 		.4byte	0x4b8
 1524 047c 14       		.byte	0x14
 1525 047d 06       		.uleb128 0x6
 1526 047e 94010000 		.4byte	.LASF73
 1527 0482 0C       		.byte	0xc
 1528 0483 4C       		.byte	0x4c
 1529 0484 B8040000 		.4byte	0x4b8
 1530 0488 18       		.byte	0x18
 1531 0489 06       		.uleb128 0x6
 1532 048a 73010000 		.4byte	.LASF74
 1533 048e 0C       		.byte	0xc
 1534 048f 4D       		.byte	0x4d
 1535 0490 96040000 		.4byte	0x496
 1536 0494 1C       		.byte	0x1c
 1537 0495 00       		.byte	0
 1538 0496 03       		.uleb128 0x3
 1539 0497 86050000 		.4byte	.LASF75
 1540 049b 0C       		.byte	0xc
 1541 049c 3A       		.byte	0x3a
 1542 049d A1040000 		.4byte	0x4a1
 1543 04a1 09       		.uleb128 0x9
 1544 04a2 04       		.byte	0x4
 1545 04a3 A7040000 		.4byte	0x4a7
 1546 04a7 11       		.uleb128 0x11
 1547 04a8 B2040000 		.4byte	0x4b2
 1548 04ac 12       		.uleb128 0x12
 1549 04ad B2040000 		.4byte	0x4b2
 1550 04b1 00       		.byte	0
 1551 04b2 09       		.uleb128 0x9
 1552 04b3 04       		.byte	0x4
 1553 04b4 2A040000 		.4byte	0x42a
 1554 04b8 09       		.uleb128 0x9
 1555 04b9 04       		.byte	0x4
 1556 04ba 9E000000 		.4byte	0x9e
 1557 04be 03       		.uleb128 0x3
 1558 04bf 40090000 		.4byte	.LASF76
 1559 04c3 0C       		.byte	0xc
 1560 04c4 76       		.byte	0x76
ARM GAS  /tmp/ccGznRlG.s 			page 29


 1561 04c5 2A040000 		.4byte	0x42a
 1562 04c9 03       		.uleb128 0x3
 1563 04ca DB020000 		.4byte	.LASF77
 1564 04ce 0C       		.byte	0xc
 1565 04cf E6       		.byte	0xe6
 1566 04d0 2A040000 		.4byte	0x42a
 1567 04d4 13       		.uleb128 0x13
 1568 04d5 28000000 		.4byte	0x28
 1569 04d9 ED040000 		.4byte	0x4ed
 1570 04dd 12       		.uleb128 0x12
 1571 04de 86020000 		.4byte	0x286
 1572 04e2 12       		.uleb128 0x12
 1573 04e3 ED040000 		.4byte	0x4ed
 1574 04e7 12       		.uleb128 0x12
 1575 04e8 28000000 		.4byte	0x28
 1576 04ec 00       		.byte	0
 1577 04ed 09       		.uleb128 0x9
 1578 04ee 04       		.byte	0x4
 1579 04ef F3040000 		.4byte	0x4f3
 1580 04f3 10       		.uleb128 0x10
 1581 04f4 9E000000 		.4byte	0x9e
 1582 04f8 09       		.uleb128 0x9
 1583 04f9 04       		.byte	0x4
 1584 04fa D4040000 		.4byte	0x4d4
 1585 04fe 13       		.uleb128 0x13
 1586 04ff 28000000 		.4byte	0x28
 1587 0503 17050000 		.4byte	0x517
 1588 0507 12       		.uleb128 0x12
 1589 0508 86020000 		.4byte	0x286
 1590 050c 12       		.uleb128 0x12
 1591 050d B8040000 		.4byte	0x4b8
 1592 0511 12       		.uleb128 0x12
 1593 0512 28000000 		.4byte	0x28
 1594 0516 00       		.byte	0
 1595 0517 09       		.uleb128 0x9
 1596 0518 04       		.byte	0x4
 1597 0519 FE040000 		.4byte	0x4fe
 1598 051d 05       		.uleb128 0x5
 1599 051e 66090000 		.4byte	.LASF78
 1600 0522 20       		.byte	0x20
 1601 0523 0D       		.byte	0xd
 1602 0524 51       		.byte	0x51
 1603 0525 8A050000 		.4byte	0x58a
 1604 0529 06       		.uleb128 0x6
 1605 052a 95000000 		.4byte	.LASF79
 1606 052e 0D       		.byte	0xd
 1607 052f 52       		.byte	0x52
 1608 0530 F8040000 		.4byte	0x4f8
 1609 0534 00       		.byte	0
 1610 0535 06       		.uleb128 0x6
 1611 0536 B1050000 		.4byte	.LASF80
 1612 053a 0D       		.byte	0xd
 1613 053b 52       		.byte	0x52
 1614 053c 17050000 		.4byte	0x517
 1615 0540 04       		.byte	0x4
 1616 0541 06       		.uleb128 0x6
 1617 0542 EF020000 		.4byte	.LASF81
ARM GAS  /tmp/ccGznRlG.s 			page 30


 1618 0546 0D       		.byte	0xd
 1619 0547 52       		.byte	0x52
 1620 0548 99050000 		.4byte	0x599
 1621 054c 08       		.byte	0x8
 1622 054d 06       		.uleb128 0x6
 1623 054e 51060000 		.4byte	.LASF82
 1624 0552 0D       		.byte	0xd
 1625 0553 52       		.byte	0x52
 1626 0554 99050000 		.4byte	0x599
 1627 0558 0C       		.byte	0xc
 1628 0559 07       		.uleb128 0x7
 1629 055a 70757400 		.ascii	"put\000"
 1630 055e 0D       		.byte	0xd
 1631 055f 52       		.byte	0x52
 1632 0560 B8050000 		.4byte	0x5b8
 1633 0564 10       		.byte	0x10
 1634 0565 07       		.uleb128 0x7
 1635 0566 67657400 		.ascii	"get\000"
 1636 056a 0D       		.byte	0xd
 1637 056b 52       		.byte	0x52
 1638 056c D2050000 		.4byte	0x5d2
 1639 0570 14       		.byte	0x14
 1640 0571 06       		.uleb128 0x6
 1641 0572 67000000 		.4byte	.LASF83
 1642 0576 0D       		.byte	0xd
 1643 0577 52       		.byte	0x52
 1644 0578 F6050000 		.4byte	0x5f6
 1645 057c 18       		.byte	0x18
 1646 057d 06       		.uleb128 0x6
 1647 057e 5C010000 		.4byte	.LASF84
 1648 0582 0D       		.byte	0xd
 1649 0583 52       		.byte	0x52
 1650 0584 1A060000 		.4byte	0x61a
 1651 0588 1C       		.byte	0x1c
 1652 0589 00       		.byte	0
 1653 058a 13       		.uleb128 0x13
 1654 058b D5000000 		.4byte	0xd5
 1655 058f 99050000 		.4byte	0x599
 1656 0593 12       		.uleb128 0x12
 1657 0594 86020000 		.4byte	0x286
 1658 0598 00       		.byte	0
 1659 0599 09       		.uleb128 0x9
 1660 059a 04       		.byte	0x4
 1661 059b 8A050000 		.4byte	0x58a
 1662 059f 13       		.uleb128 0x13
 1663 05a0 0C010000 		.4byte	0x10c
 1664 05a4 B8050000 		.4byte	0x5b8
 1665 05a8 12       		.uleb128 0x12
 1666 05a9 86020000 		.4byte	0x286
 1667 05ad 12       		.uleb128 0x12
 1668 05ae 9E000000 		.4byte	0x9e
 1669 05b2 12       		.uleb128 0x12
 1670 05b3 22010000 		.4byte	0x122
 1671 05b7 00       		.byte	0
 1672 05b8 09       		.uleb128 0x9
 1673 05b9 04       		.byte	0x4
 1674 05ba 9F050000 		.4byte	0x59f
ARM GAS  /tmp/ccGznRlG.s 			page 31


 1675 05be 13       		.uleb128 0x13
 1676 05bf 0C010000 		.4byte	0x10c
 1677 05c3 D2050000 		.4byte	0x5d2
 1678 05c7 12       		.uleb128 0x12
 1679 05c8 86020000 		.4byte	0x286
 1680 05cc 12       		.uleb128 0x12
 1681 05cd 22010000 		.4byte	0x122
 1682 05d1 00       		.byte	0
 1683 05d2 09       		.uleb128 0x9
 1684 05d3 04       		.byte	0x4
 1685 05d4 BE050000 		.4byte	0x5be
 1686 05d8 13       		.uleb128 0x13
 1687 05d9 28000000 		.4byte	0x28
 1688 05dd F6050000 		.4byte	0x5f6
 1689 05e1 12       		.uleb128 0x12
 1690 05e2 86020000 		.4byte	0x286
 1691 05e6 12       		.uleb128 0x12
 1692 05e7 ED040000 		.4byte	0x4ed
 1693 05eb 12       		.uleb128 0x12
 1694 05ec 28000000 		.4byte	0x28
 1695 05f0 12       		.uleb128 0x12
 1696 05f1 22010000 		.4byte	0x122
 1697 05f5 00       		.byte	0
 1698 05f6 09       		.uleb128 0x9
 1699 05f7 04       		.byte	0x4
 1700 05f8 D8050000 		.4byte	0x5d8
 1701 05fc 13       		.uleb128 0x13
 1702 05fd 28000000 		.4byte	0x28
 1703 0601 1A060000 		.4byte	0x61a
 1704 0605 12       		.uleb128 0x12
 1705 0606 86020000 		.4byte	0x286
 1706 060a 12       		.uleb128 0x12
 1707 060b B8040000 		.4byte	0x4b8
 1708 060f 12       		.uleb128 0x12
 1709 0610 28000000 		.4byte	0x28
 1710 0614 12       		.uleb128 0x12
 1711 0615 22010000 		.4byte	0x122
 1712 0619 00       		.byte	0
 1713 061a 09       		.uleb128 0x9
 1714 061b 04       		.byte	0x4
 1715 061c FC050000 		.4byte	0x5fc
 1716 0620 08       		.uleb128 0x8
 1717 0621 04       		.byte	0x4
 1718 0622 0D       		.byte	0xd
 1719 0623 5C       		.byte	0x5c
 1720 0624 35060000 		.4byte	0x635
 1721 0628 07       		.uleb128 0x7
 1722 0629 766D7400 		.ascii	"vmt\000"
 1723 062d 0D       		.byte	0xd
 1724 062e 5E       		.byte	0x5e
 1725 062f 35060000 		.4byte	0x635
 1726 0633 00       		.byte	0
 1727 0634 00       		.byte	0
 1728 0635 09       		.uleb128 0x9
 1729 0636 04       		.byte	0x4
 1730 0637 3B060000 		.4byte	0x63b
 1731 063b 10       		.uleb128 0x10
ARM GAS  /tmp/ccGznRlG.s 			page 32


 1732 063c 1D050000 		.4byte	0x51d
 1733 0640 03       		.uleb128 0x3
 1734 0641 BD090000 		.4byte	.LASF85
 1735 0645 0D       		.byte	0xd
 1736 0646 60       		.byte	0x60
 1737 0647 20060000 		.4byte	0x620
 1738 064b 14       		.uleb128 0x14
 1739 064c 2B060000 		.4byte	.LASF86
 1740 0650 0D       		.byte	0xd
 1741 0651 0B01     		.2byte	0x10b
 1742 0653 CA000000 		.4byte	0xca
 1743 0657 13       		.uleb128 0x13
 1744 0658 4B060000 		.4byte	0x64b
 1745 065c 66060000 		.4byte	0x666
 1746 0660 12       		.uleb128 0x12
 1747 0661 86020000 		.4byte	0x286
 1748 0665 00       		.byte	0
 1749 0666 09       		.uleb128 0x9
 1750 0667 04       		.byte	0x4
 1751 0668 57060000 		.4byte	0x657
 1752 066c 03       		.uleb128 0x3
 1753 066d 19080000 		.4byte	.LASF87
 1754 0671 0E       		.byte	0xe
 1755 0672 35       		.byte	0x35
 1756 0673 77060000 		.4byte	0x677
 1757 0677 10       		.uleb128 0x10
 1758 0678 24030000 		.4byte	0x324
 1759 067c 03       		.uleb128 0x3
 1760 067d 86000000 		.4byte	.LASF88
 1761 0681 0E       		.byte	0xe
 1762 0682 39       		.byte	0x39
 1763 0683 24030000 		.4byte	0x324
 1764 0687 03       		.uleb128 0x3
 1765 0688 73080000 		.4byte	.LASF89
 1766 068c 0E       		.byte	0xe
 1767 068d 3A       		.byte	0x3a
 1768 068e 24030000 		.4byte	0x324
 1769 0692 15       		.uleb128 0x15
 1770 0693 87060000 		.4byte	0x687
 1771 0697 A2060000 		.4byte	0x6a2
 1772 069b 16       		.uleb128 0x16
 1773 069c 29030000 		.4byte	0x329
 1774 06a0 12       		.byte	0x12
 1775 06a1 00       		.byte	0
 1776 06a2 17       		.uleb128 0x17
 1777 06a3 2801     		.2byte	0x128
 1778 06a5 0E       		.byte	0xe
 1779 06a6 E9       		.byte	0xe9
 1780 06a7 74080000 		.4byte	0x874
 1781 06ab 06       		.uleb128 0x6
 1782 06ac 65080000 		.4byte	.LASF90
 1783 06b0 0E       		.byte	0xe
 1784 06b1 EA       		.byte	0xea
 1785 06b2 7C060000 		.4byte	0x67c
 1786 06b6 00       		.byte	0
 1787 06b7 06       		.uleb128 0x6
 1788 06b8 F4010000 		.4byte	.LASF91
ARM GAS  /tmp/ccGznRlG.s 			page 33


 1789 06bc 0E       		.byte	0xe
 1790 06bd EB       		.byte	0xeb
 1791 06be 87060000 		.4byte	0x687
 1792 06c2 04       		.byte	0x4
 1793 06c3 06       		.uleb128 0x6
 1794 06c4 1B070000 		.4byte	.LASF92
 1795 06c8 0E       		.byte	0xe
 1796 06c9 EC       		.byte	0xec
 1797 06ca 87060000 		.4byte	0x687
 1798 06ce 08       		.byte	0x8
 1799 06cf 06       		.uleb128 0x6
 1800 06d0 25070000 		.4byte	.LASF93
 1801 06d4 0E       		.byte	0xe
 1802 06d5 ED       		.byte	0xed
 1803 06d6 87060000 		.4byte	0x687
 1804 06da 0C       		.byte	0xc
 1805 06db 06       		.uleb128 0x6
 1806 06dc 37090000 		.4byte	.LASF94
 1807 06e0 0E       		.byte	0xe
 1808 06e1 EE       		.byte	0xee
 1809 06e2 7C060000 		.4byte	0x67c
 1810 06e6 10       		.byte	0x10
 1811 06e7 06       		.uleb128 0x6
 1812 06e8 0B090000 		.4byte	.LASF95
 1813 06ec 0E       		.byte	0xe
 1814 06ed EF       		.byte	0xef
 1815 06ee 7C060000 		.4byte	0x67c
 1816 06f2 14       		.byte	0x14
 1817 06f3 06       		.uleb128 0x6
 1818 06f4 8E040000 		.4byte	.LASF96
 1819 06f8 0E       		.byte	0xe
 1820 06f9 F0       		.byte	0xf0
 1821 06fa 6C060000 		.4byte	0x66c
 1822 06fe 18       		.byte	0x18
 1823 06ff 06       		.uleb128 0x6
 1824 0700 A5070000 		.4byte	.LASF97
 1825 0704 0E       		.byte	0xe
 1826 0705 F1       		.byte	0xf1
 1827 0706 84080000 		.4byte	0x884
 1828 070a 1C       		.byte	0x1c
 1829 070b 06       		.uleb128 0x6
 1830 070c 0A050000 		.4byte	.LASF98
 1831 0710 0E       		.byte	0xe
 1832 0711 F2       		.byte	0xf2
 1833 0712 6C060000 		.4byte	0x66c
 1834 0716 20       		.byte	0x20
 1835 0717 06       		.uleb128 0x6
 1836 0718 09060000 		.4byte	.LASF99
 1837 071c 0E       		.byte	0xe
 1838 071d F3       		.byte	0xf3
 1839 071e 7C060000 		.4byte	0x67c
 1840 0722 24       		.byte	0x24
 1841 0723 06       		.uleb128 0x6
 1842 0724 B6050000 		.4byte	.LASF100
 1843 0728 0E       		.byte	0xe
 1844 0729 F4       		.byte	0xf4
 1845 072a 7C060000 		.4byte	0x67c
ARM GAS  /tmp/ccGznRlG.s 			page 34


 1846 072e 28       		.byte	0x28
 1847 072f 06       		.uleb128 0x6
 1848 0730 5D080000 		.4byte	.LASF101
 1849 0734 0E       		.byte	0xe
 1850 0735 F5       		.byte	0xf5
 1851 0736 6C060000 		.4byte	0x66c
 1852 073a 2C       		.byte	0x2c
 1853 073b 06       		.uleb128 0x6
 1854 073c 7E000000 		.4byte	.LASF102
 1855 0740 0E       		.byte	0xe
 1856 0741 F6       		.byte	0xf6
 1857 0742 6C060000 		.4byte	0x66c
 1858 0746 30       		.byte	0x30
 1859 0747 06       		.uleb128 0x6
 1860 0748 AF070000 		.4byte	.LASF103
 1861 074c 0E       		.byte	0xe
 1862 074d F7       		.byte	0xf7
 1863 074e 99080000 		.4byte	0x899
 1864 0752 34       		.byte	0x34
 1865 0753 06       		.uleb128 0x6
 1866 0754 4D080000 		.4byte	.LASF104
 1867 0758 0E       		.byte	0xe
 1868 0759 F8       		.byte	0xf8
 1869 075a 6C060000 		.4byte	0x66c
 1870 075e 3C       		.byte	0x3c
 1871 075f 06       		.uleb128 0x6
 1872 0760 76000000 		.4byte	.LASF105
 1873 0764 0E       		.byte	0xe
 1874 0765 F9       		.byte	0xf9
 1875 0766 87060000 		.4byte	0x687
 1876 076a 40       		.byte	0x40
 1877 076b 06       		.uleb128 0x6
 1878 076c 91090000 		.4byte	.LASF106
 1879 0770 0E       		.byte	0xe
 1880 0771 FA       		.byte	0xfa
 1881 0772 87060000 		.4byte	0x687
 1882 0776 44       		.byte	0x44
 1883 0777 06       		.uleb128 0x6
 1884 0778 D7040000 		.4byte	.LASF107
 1885 077c 0E       		.byte	0xe
 1886 077d FB       		.byte	0xfb
 1887 077e 87060000 		.4byte	0x687
 1888 0782 48       		.byte	0x48
 1889 0783 06       		.uleb128 0x6
 1890 0784 D2060000 		.4byte	.LASF108
 1891 0788 0E       		.byte	0xe
 1892 0789 FC       		.byte	0xfc
 1893 078a 87060000 		.4byte	0x687
 1894 078e 4C       		.byte	0x4c
 1895 078f 06       		.uleb128 0x6
 1896 0790 27030000 		.4byte	.LASF109
 1897 0794 0E       		.byte	0xe
 1898 0795 FD       		.byte	0xfd
 1899 0796 AE080000 		.4byte	0x8ae
 1900 079a 50       		.byte	0x50
 1901 079b 06       		.uleb128 0x6
 1902 079c B9070000 		.4byte	.LASF110
ARM GAS  /tmp/ccGznRlG.s 			page 35


 1903 07a0 0E       		.byte	0xe
 1904 07a1 FE       		.byte	0xfe
 1905 07a2 B8080000 		.4byte	0x8b8
 1906 07a6 90       		.byte	0x90
 1907 07a7 06       		.uleb128 0x6
 1908 07a8 D6080000 		.4byte	.LASF111
 1909 07ac 0E       		.byte	0xe
 1910 07ad FF       		.byte	0xff
 1911 07ae 87060000 		.4byte	0x687
 1912 07b2 94       		.byte	0x94
 1913 07b3 18       		.uleb128 0x18
 1914 07b4 C3070000 		.4byte	.LASF112
 1915 07b8 0E       		.byte	0xe
 1916 07b9 0001     		.2byte	0x100
 1917 07bb BD080000 		.4byte	0x8bd
 1918 07bf 98       		.byte	0x98
 1919 07c0 18       		.uleb128 0x18
 1920 07c1 2E090000 		.4byte	.LASF113
 1921 07c5 0E       		.byte	0xe
 1922 07c6 0101     		.2byte	0x101
 1923 07c8 87060000 		.4byte	0x687
 1924 07cc E4       		.byte	0xe4
 1925 07cd 18       		.uleb128 0x18
 1926 07ce 53010000 		.4byte	.LASF114
 1927 07d2 0E       		.byte	0xe
 1928 07d3 0201     		.2byte	0x102
 1929 07d5 6C060000 		.4byte	0x66c
 1930 07d9 E8       		.byte	0xe8
 1931 07da 18       		.uleb128 0x18
 1932 07db CD070000 		.4byte	.LASF115
 1933 07df 0E       		.byte	0xe
 1934 07e0 0301     		.2byte	0x103
 1935 07e2 D2080000 		.4byte	0x8d2
 1936 07e6 EC       		.byte	0xec
 1937 07e7 19       		.uleb128 0x19
 1938 07e8 13070000 		.4byte	.LASF116
 1939 07ec 0E       		.byte	0xe
 1940 07ed 0401     		.2byte	0x104
 1941 07ef 87060000 		.4byte	0x687
 1942 07f3 0001     		.2byte	0x100
 1943 07f5 19       		.uleb128 0x19
 1944 07f6 07030000 		.4byte	.LASF117
 1945 07fa 0E       		.byte	0xe
 1946 07fb 0501     		.2byte	0x105
 1947 07fd 87060000 		.4byte	0x687
 1948 0801 0401     		.2byte	0x104
 1949 0803 19       		.uleb128 0x19
 1950 0804 AC010000 		.4byte	.LASF118
 1951 0808 0E       		.byte	0xe
 1952 0809 0601     		.2byte	0x106
 1953 080b 87060000 		.4byte	0x687
 1954 080f 0801     		.2byte	0x108
 1955 0811 19       		.uleb128 0x19
 1956 0812 EC060000 		.4byte	.LASF119
 1957 0816 0E       		.byte	0xe
 1958 0817 0701     		.2byte	0x107
 1959 0819 87060000 		.4byte	0x687
ARM GAS  /tmp/ccGznRlG.s 			page 36


 1960 081d 0C01     		.2byte	0x10c
 1961 081f 19       		.uleb128 0x19
 1962 0820 00010000 		.4byte	.LASF120
 1963 0824 0E       		.byte	0xe
 1964 0825 0801     		.2byte	0x108
 1965 0827 87060000 		.4byte	0x687
 1966 082b 1001     		.2byte	0x110
 1967 082d 19       		.uleb128 0x19
 1968 082e 81060000 		.4byte	.LASF121
 1969 0832 0E       		.byte	0xe
 1970 0833 0901     		.2byte	0x109
 1971 0835 87060000 		.4byte	0x687
 1972 0839 1401     		.2byte	0x114
 1973 083b 19       		.uleb128 0x19
 1974 083c 13010000 		.4byte	.LASF122
 1975 0840 0E       		.byte	0xe
 1976 0841 0A01     		.2byte	0x10a
 1977 0843 87060000 		.4byte	0x687
 1978 0847 1801     		.2byte	0x118
 1979 0849 19       		.uleb128 0x19
 1980 084a 9B060000 		.4byte	.LASF123
 1981 084e 0E       		.byte	0xe
 1982 084f 0B01     		.2byte	0x10b
 1983 0851 87060000 		.4byte	0x687
 1984 0855 1C01     		.2byte	0x11c
 1985 0857 19       		.uleb128 0x19
 1986 0858 82080000 		.4byte	.LASF124
 1987 085c 0E       		.byte	0xe
 1988 085d 0C01     		.2byte	0x10c
 1989 085f 7C060000 		.4byte	0x67c
 1990 0863 2001     		.2byte	0x120
 1991 0865 19       		.uleb128 0x19
 1992 0866 E3060000 		.4byte	.LASF125
 1993 086a 0E       		.byte	0xe
 1994 086b 0D01     		.2byte	0x10d
 1995 086d 6C060000 		.4byte	0x66c
 1996 0871 2401     		.2byte	0x124
 1997 0873 00       		.byte	0
 1998 0874 15       		.uleb128 0x15
 1999 0875 87060000 		.4byte	0x687
 2000 0879 84080000 		.4byte	0x884
 2001 087d 16       		.uleb128 0x16
 2002 087e 29030000 		.4byte	0x329
 2003 0882 00       		.byte	0
 2004 0883 00       		.byte	0
 2005 0884 0D       		.uleb128 0xd
 2006 0885 74080000 		.4byte	0x874
 2007 0889 15       		.uleb128 0x15
 2008 088a 87060000 		.4byte	0x687
 2009 088e 99080000 		.4byte	0x899
 2010 0892 16       		.uleb128 0x16
 2011 0893 29030000 		.4byte	0x329
 2012 0897 01       		.byte	0x1
 2013 0898 00       		.byte	0
 2014 0899 0D       		.uleb128 0xd
 2015 089a 89080000 		.4byte	0x889
 2016 089e 15       		.uleb128 0x15
ARM GAS  /tmp/ccGznRlG.s 			page 37


 2017 089f 6C060000 		.4byte	0x66c
 2018 08a3 AE080000 		.4byte	0x8ae
 2019 08a7 16       		.uleb128 0x16
 2020 08a8 29030000 		.4byte	0x329
 2021 08ac 0F       		.byte	0xf
 2022 08ad 00       		.byte	0
 2023 08ae 10       		.uleb128 0x10
 2024 08af B3080000 		.4byte	0x8b3
 2025 08b3 0D       		.uleb128 0xd
 2026 08b4 9E080000 		.4byte	0x89e
 2027 08b8 0D       		.uleb128 0xd
 2028 08b9 74080000 		.4byte	0x874
 2029 08bd 0D       		.uleb128 0xd
 2030 08be 92060000 		.4byte	0x692
 2031 08c2 15       		.uleb128 0x15
 2032 08c3 87060000 		.4byte	0x687
 2033 08c7 D2080000 		.4byte	0x8d2
 2034 08cb 16       		.uleb128 0x16
 2035 08cc 29030000 		.4byte	0x329
 2036 08d0 04       		.byte	0x4
 2037 08d1 00       		.byte	0
 2038 08d2 0D       		.uleb128 0xd
 2039 08d3 C2080000 		.4byte	0x8c2
 2040 08d7 1A       		.uleb128 0x1a
 2041 08d8 41646300 		.ascii	"Adc\000"
 2042 08dc 0E       		.byte	0xe
 2043 08dd 0E01     		.2byte	0x10e
 2044 08df A2060000 		.4byte	0x6a2
 2045 08e3 1B       		.uleb128 0x1b
 2046 08e4 1401     		.2byte	0x114
 2047 08e6 0E       		.byte	0xe
 2048 08e7 3F0D     		.2byte	0xd3f
 2049 08e9 AD0A0000 		.4byte	0xaad
 2050 08ed 18       		.uleb128 0x18
 2051 08ee C9090000 		.4byte	.LASF126
 2052 08f2 0E       		.byte	0xe
 2053 08f3 400D     		.2byte	0xd40
 2054 08f5 7C060000 		.4byte	0x67c
 2055 08f9 00       		.byte	0
 2056 08fa 18       		.uleb128 0x18
 2057 08fb 5D090000 		.4byte	.LASF127
 2058 08ff 0E       		.byte	0xe
 2059 0900 410D     		.2byte	0xd41
 2060 0902 7C060000 		.4byte	0x67c
 2061 0906 04       		.byte	0x4
 2062 0907 18       		.uleb128 0x18
 2063 0908 E7040000 		.4byte	.LASF128
 2064 090c 0E       		.byte	0xe
 2065 090d 420D     		.2byte	0xd42
 2066 090f 6C060000 		.4byte	0x66c
 2067 0913 08       		.byte	0x8
 2068 0914 18       		.uleb128 0x18
 2069 0915 A5070000 		.4byte	.LASF97
 2070 0919 0E       		.byte	0xe
 2071 091a 430D     		.2byte	0xd43
 2072 091c AD0A0000 		.4byte	0xaad
 2073 0920 0C       		.byte	0xc
ARM GAS  /tmp/ccGznRlG.s 			page 38


 2074 0921 18       		.uleb128 0x18
 2075 0922 BD010000 		.4byte	.LASF129
 2076 0926 0E       		.byte	0xe
 2077 0927 440D     		.2byte	0xd44
 2078 0929 7C060000 		.4byte	0x67c
 2079 092d 10       		.byte	0x10
 2080 092e 18       		.uleb128 0x18
 2081 092f 7D090000 		.4byte	.LASF130
 2082 0933 0E       		.byte	0xe
 2083 0934 450D     		.2byte	0xd45
 2084 0936 7C060000 		.4byte	0x67c
 2085 093a 14       		.byte	0x14
 2086 093b 18       		.uleb128 0x18
 2087 093c 57050000 		.4byte	.LASF131
 2088 0940 0E       		.byte	0xe
 2089 0941 460D     		.2byte	0xd46
 2090 0943 6C060000 		.4byte	0x66c
 2091 0947 18       		.byte	0x18
 2092 0948 18       		.uleb128 0x18
 2093 0949 AF070000 		.4byte	.LASF103
 2094 094d 0E       		.byte	0xe
 2095 094e 470D     		.2byte	0xd47
 2096 0950 B20A0000 		.4byte	0xab2
 2097 0954 1C       		.byte	0x1c
 2098 0955 18       		.uleb128 0x18
 2099 0956 EB010000 		.4byte	.LASF132
 2100 095a 0E       		.byte	0xe
 2101 095b 480D     		.2byte	0xd48
 2102 095d 87060000 		.4byte	0x687
 2103 0961 20       		.byte	0x20
 2104 0962 18       		.uleb128 0x18
 2105 0963 FD020000 		.4byte	.LASF133
 2106 0967 0E       		.byte	0xe
 2107 0968 490D     		.2byte	0xd49
 2108 096a 6C060000 		.4byte	0x66c
 2109 096e 24       		.byte	0x24
 2110 096f 18       		.uleb128 0x18
 2111 0970 EF090000 		.4byte	.LASF134
 2112 0974 0E       		.byte	0xe
 2113 0975 4A0D     		.2byte	0xd4a
 2114 0977 87060000 		.4byte	0x687
 2115 097b 28       		.byte	0x28
 2116 097c 18       		.uleb128 0x18
 2117 097d 44000000 		.4byte	.LASF135
 2118 0981 0E       		.byte	0xe
 2119 0982 4B0D     		.2byte	0xd4b
 2120 0984 87060000 		.4byte	0x687
 2121 0988 2C       		.byte	0x2c
 2122 0989 18       		.uleb128 0x18
 2123 098a 9C010000 		.4byte	.LASF136
 2124 098e 0E       		.byte	0xe
 2125 098f 4C0D     		.2byte	0xd4c
 2126 0991 87060000 		.4byte	0x687
 2127 0995 30       		.byte	0x30
 2128 0996 18       		.uleb128 0x18
 2129 0997 B9070000 		.4byte	.LASF110
 2130 099b 0E       		.byte	0xe
ARM GAS  /tmp/ccGznRlG.s 			page 39


 2131 099c 4D0D     		.2byte	0xd4d
 2132 099e B70A0000 		.4byte	0xab7
 2133 09a2 34       		.byte	0x34
 2134 09a3 18       		.uleb128 0x18
 2135 09a4 6E000000 		.4byte	.LASF137
 2136 09a8 0E       		.byte	0xe
 2137 09a9 4E0D     		.2byte	0xd4e
 2138 09ab 87060000 		.4byte	0x687
 2139 09af 38       		.byte	0x38
 2140 09b0 18       		.uleb128 0x18
 2141 09b1 C3070000 		.4byte	.LASF112
 2142 09b5 0E       		.byte	0xe
 2143 09b6 4F0D     		.2byte	0xd4f
 2144 09b8 BC0A0000 		.4byte	0xabc
 2145 09bc 3C       		.byte	0x3c
 2146 09bd 18       		.uleb128 0x18
 2147 09be 69050000 		.4byte	.LASF138
 2148 09c2 0E       		.byte	0xe
 2149 09c3 500D     		.2byte	0xd50
 2150 09c5 D10A0000 		.4byte	0xad1
 2151 09c9 40       		.byte	0x40
 2152 09ca 18       		.uleb128 0x18
 2153 09cb CD070000 		.4byte	.LASF115
 2154 09cf 0E       		.byte	0xe
 2155 09d0 510D     		.2byte	0xd51
 2156 09d2 D60A0000 		.4byte	0xad6
 2157 09d6 4C       		.byte	0x4c
 2158 09d7 18       		.uleb128 0x18
 2159 09d8 FE060000 		.4byte	.LASF139
 2160 09dc 0E       		.byte	0xe
 2161 09dd 520D     		.2byte	0xd52
 2162 09df 7C060000 		.4byte	0x67c
 2163 09e3 60       		.byte	0x60
 2164 09e4 18       		.uleb128 0x18
 2165 09e5 6B010000 		.4byte	.LASF140
 2166 09e9 0E       		.byte	0xe
 2167 09ea 530D     		.2byte	0xd53
 2168 09ec 7C060000 		.4byte	0x67c
 2169 09f0 64       		.byte	0x64
 2170 09f1 18       		.uleb128 0x18
 2171 09f2 46080000 		.4byte	.LASF141
 2172 09f6 0E       		.byte	0xe
 2173 09f7 540D     		.2byte	0xd54
 2174 09f9 6C060000 		.4byte	0x66c
 2175 09fd 68       		.byte	0x68
 2176 09fe 18       		.uleb128 0x18
 2177 09ff C7040000 		.4byte	.LASF142
 2178 0a03 0E       		.byte	0xe
 2179 0a04 550D     		.2byte	0xd55
 2180 0a06 6C060000 		.4byte	0x66c
 2181 0a0a 6C       		.byte	0x6c
 2182 0a0b 18       		.uleb128 0x18
 2183 0a0c EB080000 		.4byte	.LASF143
 2184 0a10 0E       		.byte	0xe
 2185 0a11 560D     		.2byte	0xd56
 2186 0a13 87060000 		.4byte	0x687
 2187 0a17 70       		.byte	0x70
ARM GAS  /tmp/ccGznRlG.s 			page 40


 2188 0a18 18       		.uleb128 0x18
 2189 0a19 13000000 		.4byte	.LASF144
 2190 0a1d 0E       		.byte	0xe
 2191 0a1e 570D     		.2byte	0xd57
 2192 0a20 87060000 		.4byte	0x687
 2193 0a24 74       		.byte	0x74
 2194 0a25 18       		.uleb128 0x18
 2195 0a26 A8050000 		.4byte	.LASF145
 2196 0a2a 0E       		.byte	0xe
 2197 0a2b 580D     		.2byte	0xd58
 2198 0a2d 7C060000 		.4byte	0x67c
 2199 0a31 78       		.byte	0x78
 2200 0a32 18       		.uleb128 0x18
 2201 0a33 D7070000 		.4byte	.LASF146
 2202 0a37 0E       		.byte	0xe
 2203 0a38 590D     		.2byte	0xd59
 2204 0a3a EB0A0000 		.4byte	0xaeb
 2205 0a3e 7C       		.byte	0x7c
 2206 0a3f 18       		.uleb128 0x18
 2207 0a40 AE080000 		.4byte	.LASF147
 2208 0a44 0E       		.byte	0xe
 2209 0a45 5A0D     		.2byte	0xd5a
 2210 0a47 87060000 		.4byte	0x687
 2211 0a4b E4       		.byte	0xe4
 2212 0a4c 18       		.uleb128 0x18
 2213 0a4d F7000000 		.4byte	.LASF148
 2214 0a51 0E       		.byte	0xe
 2215 0a52 5B0D     		.2byte	0xd5b
 2216 0a54 6C060000 		.4byte	0x66c
 2217 0a58 E8       		.byte	0xe8
 2218 0a59 18       		.uleb128 0x18
 2219 0a5a E1070000 		.4byte	.LASF149
 2220 0a5e 0E       		.byte	0xe
 2221 0a5f 5C0D     		.2byte	0xd5c
 2222 0a61 F00A0000 		.4byte	0xaf0
 2223 0a65 EC       		.byte	0xec
 2224 0a66 19       		.uleb128 0x19
 2225 0a67 C7010000 		.4byte	.LASF150
 2226 0a6b 0E       		.byte	0xe
 2227 0a6c 5D0D     		.2byte	0xd5d
 2228 0a6e 7C060000 		.4byte	0x67c
 2229 0a72 0001     		.2byte	0x100
 2230 0a74 19       		.uleb128 0x19
 2231 0a75 87090000 		.4byte	.LASF151
 2232 0a79 0E       		.byte	0xe
 2233 0a7a 5E0D     		.2byte	0xd5e
 2234 0a7c 7C060000 		.4byte	0x67c
 2235 0a80 0401     		.2byte	0x104
 2236 0a82 19       		.uleb128 0x19
 2237 0a83 D2090000 		.4byte	.LASF152
 2238 0a87 0E       		.byte	0xe
 2239 0a88 5F0D     		.2byte	0xd5f
 2240 0a8a 6C060000 		.4byte	0x66c
 2241 0a8e 0801     		.2byte	0x108
 2242 0a90 19       		.uleb128 0x19
 2243 0a91 ED000000 		.4byte	.LASF153
 2244 0a95 0E       		.byte	0xe
ARM GAS  /tmp/ccGznRlG.s 			page 41


 2245 0a96 600D     		.2byte	0xd60
 2246 0a98 F50A0000 		.4byte	0xaf5
 2247 0a9c 0C01     		.2byte	0x10c
 2248 0a9e 19       		.uleb128 0x19
 2249 0a9f E7020000 		.4byte	.LASF154
 2250 0aa3 0E       		.byte	0xe
 2251 0aa4 610D     		.2byte	0xd61
 2252 0aa6 87060000 		.4byte	0x687
 2253 0aaa 1001     		.2byte	0x110
 2254 0aac 00       		.byte	0
 2255 0aad 0D       		.uleb128 0xd
 2256 0aae 74080000 		.4byte	0x874
 2257 0ab2 0D       		.uleb128 0xd
 2258 0ab3 74080000 		.4byte	0x874
 2259 0ab7 0D       		.uleb128 0xd
 2260 0ab8 74080000 		.4byte	0x874
 2261 0abc 0D       		.uleb128 0xd
 2262 0abd 74080000 		.4byte	0x874
 2263 0ac1 15       		.uleb128 0x15
 2264 0ac2 87060000 		.4byte	0x687
 2265 0ac6 D10A0000 		.4byte	0xad1
 2266 0aca 16       		.uleb128 0x16
 2267 0acb 29030000 		.4byte	0x329
 2268 0acf 02       		.byte	0x2
 2269 0ad0 00       		.byte	0
 2270 0ad1 0D       		.uleb128 0xd
 2271 0ad2 C10A0000 		.4byte	0xac1
 2272 0ad6 0D       		.uleb128 0xd
 2273 0ad7 C2080000 		.4byte	0x8c2
 2274 0adb 15       		.uleb128 0x15
 2275 0adc 87060000 		.4byte	0x687
 2276 0ae0 EB0A0000 		.4byte	0xaeb
 2277 0ae4 16       		.uleb128 0x16
 2278 0ae5 29030000 		.4byte	0x329
 2279 0ae9 19       		.byte	0x19
 2280 0aea 00       		.byte	0
 2281 0aeb 0D       		.uleb128 0xd
 2282 0aec DB0A0000 		.4byte	0xadb
 2283 0af0 0D       		.uleb128 0xd
 2284 0af1 C2080000 		.4byte	0x8c2
 2285 0af5 0D       		.uleb128 0xd
 2286 0af6 74080000 		.4byte	0x874
 2287 0afa 1A       		.uleb128 0x1a
 2288 0afb 506D6300 		.ascii	"Pmc\000"
 2289 0aff 0E       		.byte	0xe
 2290 0b00 620D     		.2byte	0xd62
 2291 0b02 E3080000 		.4byte	0x8e3
 2292 0b06 1B       		.uleb128 0x1b
 2293 0b07 2801     		.2byte	0x128
 2294 0b09 0E       		.byte	0xe
 2295 0b0a 0817     		.2byte	0x1708
 2296 0b0c 1F0C0000 		.4byte	0xc1f
 2297 0b10 18       		.uleb128 0x18
 2298 0b11 9F020000 		.4byte	.LASF155
 2299 0b15 0E       		.byte	0xe
 2300 0b16 0917     		.2byte	0x1709
 2301 0b18 7C060000 		.4byte	0x67c
ARM GAS  /tmp/ccGznRlG.s 			page 42


 2302 0b1c 00       		.byte	0
 2303 0b1d 18       		.uleb128 0x18
 2304 0b1e 8B080000 		.4byte	.LASF156
 2305 0b22 0E       		.byte	0xe
 2306 0b23 0A17     		.2byte	0x170a
 2307 0b25 87060000 		.4byte	0x687
 2308 0b29 04       		.byte	0x4
 2309 0b2a 18       		.uleb128 0x18
 2310 0b2b C9000000 		.4byte	.LASF157
 2311 0b2f 0E       		.byte	0xe
 2312 0b30 0B17     		.2byte	0x170b
 2313 0b32 7C060000 		.4byte	0x67c
 2314 0b36 08       		.byte	0x8
 2315 0b37 18       		.uleb128 0x18
 2316 0b38 A4060000 		.4byte	.LASF158
 2317 0b3c 0E       		.byte	0xe
 2318 0b3d 0C17     		.2byte	0x170c
 2319 0b3f 7C060000 		.4byte	0x67c
 2320 0b43 0C       		.byte	0xc
 2321 0b44 18       		.uleb128 0x18
 2322 0b45 19030000 		.4byte	.LASF159
 2323 0b49 0E       		.byte	0xe
 2324 0b4a 0D17     		.2byte	0x170d
 2325 0b4c 6C060000 		.4byte	0x66c
 2326 0b50 10       		.byte	0x10
 2327 0b51 18       		.uleb128 0x18
 2328 0b52 AE000000 		.4byte	.LASF160
 2329 0b56 0E       		.byte	0xe
 2330 0b57 0E17     		.2byte	0x170e
 2331 0b59 6C060000 		.4byte	0x66c
 2332 0b5d 14       		.byte	0x14
 2333 0b5e 18       		.uleb128 0x18
 2334 0b5f E6090000 		.4byte	.LASF161
 2335 0b63 0E       		.byte	0xe
 2336 0b64 0F17     		.2byte	0x170f
 2337 0b66 6C060000 		.4byte	0x66c
 2338 0b6a 18       		.byte	0x18
 2339 0b6b 18       		.uleb128 0x18
 2340 0b6c 67040000 		.4byte	.LASF162
 2341 0b70 0E       		.byte	0xe
 2342 0b71 1017     		.2byte	0x1710
 2343 0b73 7C060000 		.4byte	0x67c
 2344 0b77 1C       		.byte	0x1c
 2345 0b78 18       		.uleb128 0x18
 2346 0b79 DB000000 		.4byte	.LASF163
 2347 0b7d 0E       		.byte	0xe
 2348 0b7e 1117     		.2byte	0x1711
 2349 0b80 87060000 		.4byte	0x687
 2350 0b84 20       		.byte	0x20
 2351 0b85 18       		.uleb128 0x18
 2352 0b86 A5070000 		.4byte	.LASF97
 2353 0b8a 0E       		.byte	0xe
 2354 0b8b 1217     		.2byte	0x1712
 2355 0b8d 2F0C0000 		.4byte	0xc2f
 2356 0b91 24       		.byte	0x24
 2357 0b92 19       		.uleb128 0x19
 2358 0b93 81020000 		.4byte	.LASF164
ARM GAS  /tmp/ccGznRlG.s 			page 43


 2359 0b97 0E       		.byte	0xe
 2360 0b98 1317     		.2byte	0x1713
 2361 0b9a 87060000 		.4byte	0x687
 2362 0b9e 0001     		.2byte	0x100
 2363 0ba0 19       		.uleb128 0x19
 2364 0ba1 1F080000 		.4byte	.LASF165
 2365 0ba5 0E       		.byte	0xe
 2366 0ba6 1417     		.2byte	0x1714
 2367 0ba8 87060000 		.4byte	0x687
 2368 0bac 0401     		.2byte	0x104
 2369 0bae 19       		.uleb128 0x19
 2370 0baf 5F060000 		.4byte	.LASF166
 2371 0bb3 0E       		.byte	0xe
 2372 0bb4 1517     		.2byte	0x1715
 2373 0bb6 87060000 		.4byte	0x687
 2374 0bba 0801     		.2byte	0x108
 2375 0bbc 19       		.uleb128 0x19
 2376 0bbd 5E020000 		.4byte	.LASF167
 2377 0bc1 0E       		.byte	0xe
 2378 0bc2 1617     		.2byte	0x1716
 2379 0bc4 87060000 		.4byte	0x687
 2380 0bc8 0C01     		.2byte	0x10c
 2381 0bca 19       		.uleb128 0x19
 2382 0bcb 0F030000 		.4byte	.LASF168
 2383 0bcf 0E       		.byte	0xe
 2384 0bd0 1717     		.2byte	0x1717
 2385 0bd2 87060000 		.4byte	0x687
 2386 0bd6 1001     		.2byte	0x110
 2387 0bd8 19       		.uleb128 0x19
 2388 0bd9 91060000 		.4byte	.LASF169
 2389 0bdd 0E       		.byte	0xe
 2390 0bde 1817     		.2byte	0x1718
 2391 0be0 87060000 		.4byte	0x687
 2392 0be4 1401     		.2byte	0x114
 2393 0be6 19       		.uleb128 0x19
 2394 0be7 2F030000 		.4byte	.LASF170
 2395 0beb 0E       		.byte	0xe
 2396 0bec 1917     		.2byte	0x1719
 2397 0bee 87060000 		.4byte	0x687
 2398 0bf2 1801     		.2byte	0x118
 2399 0bf4 19       		.uleb128 0x19
 2400 0bf5 DC090000 		.4byte	.LASF171
 2401 0bf9 0E       		.byte	0xe
 2402 0bfa 1A17     		.2byte	0x171a
 2403 0bfc 87060000 		.4byte	0x687
 2404 0c00 1C01     		.2byte	0x11c
 2405 0c02 19       		.uleb128 0x19
 2406 0c03 09010000 		.4byte	.LASF172
 2407 0c07 0E       		.byte	0xe
 2408 0c08 1B17     		.2byte	0x171b
 2409 0c0a 7C060000 		.4byte	0x67c
 2410 0c0e 2001     		.2byte	0x120
 2411 0c10 19       		.uleb128 0x19
 2412 0c11 3C060000 		.4byte	.LASF173
 2413 0c15 0E       		.byte	0xe
 2414 0c16 1C17     		.2byte	0x171c
 2415 0c18 6C060000 		.4byte	0x66c
ARM GAS  /tmp/ccGznRlG.s 			page 44


 2416 0c1c 2401     		.2byte	0x124
 2417 0c1e 00       		.byte	0
 2418 0c1f 15       		.uleb128 0x15
 2419 0c20 87060000 		.4byte	0x687
 2420 0c24 2F0C0000 		.4byte	0xc2f
 2421 0c28 16       		.uleb128 0x16
 2422 0c29 29030000 		.4byte	0x329
 2423 0c2d 36       		.byte	0x36
 2424 0c2e 00       		.byte	0
 2425 0c2f 0D       		.uleb128 0xd
 2426 0c30 1F0C0000 		.4byte	0xc1f
 2427 0c34 14       		.uleb128 0x14
 2428 0c35 22030000 		.4byte	.LASF174
 2429 0c39 0E       		.byte	0xe
 2430 0c3a 1D17     		.2byte	0x171d
 2431 0c3c 060B0000 		.4byte	0xb06
 2432 0c40 1C       		.uleb128 0x1c
 2433 0c41 01       		.byte	0x1
 2434 0c42 0F       		.byte	0xf
 2435 0c43 64       		.byte	0x64
 2436 0c44 5B0C0000 		.4byte	0xc5b
 2437 0c48 1D       		.uleb128 0x1d
 2438 0c49 77020000 		.4byte	.LASF175
 2439 0c4d 00       		.sleb128 0
 2440 0c4e 1D       		.uleb128 0x1d
 2441 0c4f 55090000 		.4byte	.LASF176
 2442 0c53 01       		.sleb128 1
 2443 0c54 1D       		.uleb128 0x1d
 2444 0c55 FD070000 		.4byte	.LASF177
 2445 0c59 02       		.sleb128 2
 2446 0c5a 00       		.byte	0
 2447 0c5b 03       		.uleb128 0x3
 2448 0c5c F3070000 		.4byte	.LASF178
 2449 0c60 0F       		.byte	0xf
 2450 0c61 68       		.byte	0x68
 2451 0c62 400C0000 		.4byte	0xc40
 2452 0c66 03       		.uleb128 0x3
 2453 0c67 06070000 		.4byte	.LASF179
 2454 0c6b 0F       		.byte	0xf
 2455 0c6c 6D       		.byte	0x6d
 2456 0c6d 710C0000 		.4byte	0xc71
 2457 0c71 05       		.uleb128 0x5
 2458 0c72 06070000 		.4byte	.LASF179
 2459 0c76 74       		.byte	0x74
 2460 0c77 0F       		.byte	0xf
 2461 0c78 87       		.byte	0x87
 2462 0c79 E80C0000 		.4byte	0xce8
 2463 0c7d 07       		.uleb128 0x7
 2464 0c7e 766D7400 		.ascii	"vmt\000"
 2465 0c82 0F       		.byte	0xf
 2466 0c83 89       		.byte	0x89
 2467 0c84 610D0000 		.4byte	0xd61
 2468 0c88 00       		.byte	0
 2469 0c89 06       		.uleb128 0x6
 2470 0c8a 9A050000 		.4byte	.LASF180
 2471 0c8e 0F       		.byte	0xf
 2472 0c8f 8A       		.byte	0x8a
ARM GAS  /tmp/ccGznRlG.s 			page 45


 2473 0c90 D2030000 		.4byte	0x3d2
 2474 0c94 04       		.byte	0x4
 2475 0c95 06       		.uleb128 0x6
 2476 0c96 D5020000 		.4byte	.LASF181
 2477 0c9a 0F       		.byte	0xf
 2478 0c9b 8A       		.byte	0x8a
 2479 0c9c 4B060000 		.4byte	0x64b
 2480 0ca0 08       		.byte	0x8
 2481 0ca1 06       		.uleb128 0x6
 2482 0ca2 40080000 		.4byte	.LASF182
 2483 0ca6 0F       		.byte	0xf
 2484 0ca7 8A       		.byte	0x8a
 2485 0ca8 5B0C0000 		.4byte	0xc5b
 2486 0cac 0C       		.byte	0xc
 2487 0cad 06       		.uleb128 0x6
 2488 0cae 8A060000 		.4byte	.LASF183
 2489 0cb2 0F       		.byte	0xf
 2490 0cb3 8A       		.byte	0x8a
 2491 0cb4 BE040000 		.4byte	0x4be
 2492 0cb8 10       		.byte	0x10
 2493 0cb9 06       		.uleb128 0x6
 2494 0cba DB010000 		.4byte	.LASF184
 2495 0cbe 0F       		.byte	0xf
 2496 0cbf 8A       		.byte	0x8a
 2497 0cc0 C9040000 		.4byte	0x4c9
 2498 0cc4 30       		.byte	0x30
 2499 0cc5 07       		.uleb128 0x7
 2500 0cc6 696200   		.ascii	"ib\000"
 2501 0cc9 0F       		.byte	0xf
 2502 0cca 8A       		.byte	0x8a
 2503 0ccb 6C0D0000 		.4byte	0xd6c
 2504 0ccf 50       		.byte	0x50
 2505 0cd0 07       		.uleb128 0x7
 2506 0cd1 6F6200   		.ascii	"ob\000"
 2507 0cd4 0F       		.byte	0xf
 2508 0cd5 8A       		.byte	0x8a
 2509 0cd6 6C0D0000 		.4byte	0xd6c
 2510 0cda 60       		.byte	0x60
 2511 0cdb 06       		.uleb128 0x6
 2512 0cdc 33080000 		.4byte	.LASF185
 2513 0ce0 0F       		.byte	0xf
 2514 0ce1 8A       		.byte	0x8a
 2515 0ce2 7C0D0000 		.4byte	0xd7c
 2516 0ce6 70       		.byte	0x70
 2517 0ce7 00       		.byte	0
 2518 0ce8 05       		.uleb128 0x5
 2519 0ce9 FA040000 		.4byte	.LASF186
 2520 0ced 24       		.byte	0x24
 2521 0cee 0F       		.byte	0xf
 2522 0cef 7C       		.byte	0x7c
 2523 0cf0 610D0000 		.4byte	0xd61
 2524 0cf4 06       		.uleb128 0x6
 2525 0cf5 95000000 		.4byte	.LASF79
 2526 0cf9 0F       		.byte	0xf
 2527 0cfa 7D       		.byte	0x7d
 2528 0cfb F8040000 		.4byte	0x4f8
 2529 0cff 00       		.byte	0
ARM GAS  /tmp/ccGznRlG.s 			page 46


 2530 0d00 06       		.uleb128 0x6
 2531 0d01 B1050000 		.4byte	.LASF80
 2532 0d05 0F       		.byte	0xf
 2533 0d06 7D       		.byte	0x7d
 2534 0d07 17050000 		.4byte	0x517
 2535 0d0b 04       		.byte	0x4
 2536 0d0c 06       		.uleb128 0x6
 2537 0d0d EF020000 		.4byte	.LASF81
 2538 0d11 0F       		.byte	0xf
 2539 0d12 7D       		.byte	0x7d
 2540 0d13 99050000 		.4byte	0x599
 2541 0d17 08       		.byte	0x8
 2542 0d18 06       		.uleb128 0x6
 2543 0d19 51060000 		.4byte	.LASF82
 2544 0d1d 0F       		.byte	0xf
 2545 0d1e 7D       		.byte	0x7d
 2546 0d1f 99050000 		.4byte	0x599
 2547 0d23 0C       		.byte	0xc
 2548 0d24 07       		.uleb128 0x7
 2549 0d25 70757400 		.ascii	"put\000"
 2550 0d29 0F       		.byte	0xf
 2551 0d2a 7D       		.byte	0x7d
 2552 0d2b B8050000 		.4byte	0x5b8
 2553 0d2f 10       		.byte	0x10
 2554 0d30 07       		.uleb128 0x7
 2555 0d31 67657400 		.ascii	"get\000"
 2556 0d35 0F       		.byte	0xf
 2557 0d36 7D       		.byte	0x7d
 2558 0d37 D2050000 		.4byte	0x5d2
 2559 0d3b 14       		.byte	0x14
 2560 0d3c 06       		.uleb128 0x6
 2561 0d3d 67000000 		.4byte	.LASF83
 2562 0d41 0F       		.byte	0xf
 2563 0d42 7D       		.byte	0x7d
 2564 0d43 F6050000 		.4byte	0x5f6
 2565 0d47 18       		.byte	0x18
 2566 0d48 06       		.uleb128 0x6
 2567 0d49 5C010000 		.4byte	.LASF84
 2568 0d4d 0F       		.byte	0xf
 2569 0d4e 7D       		.byte	0x7d
 2570 0d4f 1A060000 		.4byte	0x61a
 2571 0d53 1C       		.byte	0x1c
 2572 0d54 06       		.uleb128 0x6
 2573 0d55 79080000 		.4byte	.LASF187
 2574 0d59 0F       		.byte	0xf
 2575 0d5a 7D       		.byte	0x7d
 2576 0d5b 66060000 		.4byte	0x666
 2577 0d5f 20       		.byte	0x20
 2578 0d60 00       		.byte	0
 2579 0d61 09       		.uleb128 0x9
 2580 0d62 04       		.byte	0x4
 2581 0d63 670D0000 		.4byte	0xd67
 2582 0d67 10       		.uleb128 0x10
 2583 0d68 E80C0000 		.4byte	0xce8
 2584 0d6c 15       		.uleb128 0x15
 2585 0d6d 9E000000 		.4byte	0x9e
 2586 0d71 7C0D0000 		.4byte	0xd7c
ARM GAS  /tmp/ccGznRlG.s 			page 47


 2587 0d75 16       		.uleb128 0x16
 2588 0d76 29030000 		.4byte	0x329
 2589 0d7a 0F       		.byte	0xf
 2590 0d7b 00       		.byte	0
 2591 0d7c 09       		.uleb128 0x9
 2592 0d7d 04       		.byte	0x4
 2593 0d7e 340C0000 		.4byte	0xc34
 2594 0d82 1E       		.uleb128 0x1e
 2595 0d83 B8040000 		.4byte	.LASF232
 2596 0d87 01       		.byte	0x1
 2597 0d88 84       		.byte	0x84
 2598 0d89 BF000000 		.4byte	0xbf
 2599 0d8d 01       		.byte	0x1
 2600 0d8e A90D0000 		.4byte	0xda9
 2601 0d92 1F       		.uleb128 0x1f
 2602 0d93 68060000 		.4byte	.LASF193
 2603 0d97 01       		.byte	0x1
 2604 0d98 84       		.byte	0x84
 2605 0d99 BF000000 		.4byte	0xbf
 2606 0d9d 20       		.uleb128 0x20
 2607 0d9e 9B000000 		.4byte	.LASF212
 2608 0da2 01       		.byte	0x1
 2609 0da3 86       		.byte	0x86
 2610 0da4 BF000000 		.4byte	0xbf
 2611 0da8 00       		.byte	0
 2612 0da9 21       		.uleb128 0x21
 2613 0daa 820D0000 		.4byte	0xd82
 2614 0dae 00000000 		.4byte	.LFB43
 2615 0db2 8C000000 		.4byte	.LFE43-.LFB43
 2616 0db6 01       		.uleb128 0x1
 2617 0db7 9C       		.byte	0x9c
 2618 0db8 F10D0000 		.4byte	0xdf1
 2619 0dbc 22       		.uleb128 0x22
 2620 0dbd 920D0000 		.4byte	0xd92
 2621 0dc1 00000000 		.4byte	.LLST0
 2622 0dc5 23       		.uleb128 0x23
 2623 0dc6 9D0D0000 		.4byte	0xd9d
 2624 0dca 7F010000 		.4byte	.LLST1
 2625 0dce 24       		.uleb128 0x24
 2626 0dcf 36000000 		.4byte	.LBB4
 2627 0dd3 14000000 		.4byte	.LBE4-.LBB4
 2628 0dd7 22       		.uleb128 0x22
 2629 0dd8 920D0000 		.4byte	0xd92
 2630 0ddc AA010000 		.4byte	.LLST2
 2631 0de0 24       		.uleb128 0x24
 2632 0de1 36000000 		.4byte	.LBB5
 2633 0de5 14000000 		.4byte	.LBE5-.LBB5
 2634 0de9 25       		.uleb128 0x25
 2635 0dea 9D0D0000 		.4byte	0xd9d
 2636 0dee 00       		.byte	0
 2637 0def 00       		.byte	0
 2638 0df0 00       		.byte	0
 2639 0df1 26       		.uleb128 0x26
 2640 0df2 99090000 		.4byte	.LASF188
 2641 0df6 01       		.byte	0x1
 2642 0df7 3D       		.byte	0x3d
 2643 0df8 00000000 		.4byte	.LFB36
ARM GAS  /tmp/ccGznRlG.s 			page 48


 2644 0dfc 30000000 		.4byte	.LFE36-.LFB36
 2645 0e00 01       		.uleb128 0x1
 2646 0e01 9C       		.byte	0x9c
 2647 0e02 140E0000 		.4byte	0xe14
 2648 0e06 27       		.uleb128 0x27
 2649 0e07 A9000000 		.4byte	.LASF190
 2650 0e0b 01       		.byte	0x1
 2651 0e0c 3D       		.byte	0x3d
 2652 0e0d 140E0000 		.4byte	0xe14
 2653 0e11 01       		.uleb128 0x1
 2654 0e12 50       		.byte	0x50
 2655 0e13 00       		.byte	0
 2656 0e14 09       		.uleb128 0x9
 2657 0e15 04       		.byte	0x4
 2658 0e16 D7080000 		.4byte	0x8d7
 2659 0e1a 26       		.uleb128 0x26
 2660 0e1b C7020000 		.4byte	.LASF189
 2661 0e1f 01       		.byte	0x1
 2662 0e20 4F       		.byte	0x4f
 2663 0e21 00000000 		.4byte	.LFB37
 2664 0e25 0A000000 		.4byte	.LFE37-.LFB37
 2665 0e29 01       		.uleb128 0x1
 2666 0e2a 9C       		.byte	0x9c
 2667 0e2b 4C0E0000 		.4byte	0xe4c
 2668 0e2f 27       		.uleb128 0x27
 2669 0e30 A9000000 		.4byte	.LASF190
 2670 0e34 01       		.byte	0x1
 2671 0e35 4F       		.byte	0x4f
 2672 0e36 140E0000 		.4byte	0xe14
 2673 0e3a 01       		.uleb128 0x1
 2674 0e3b 50       		.byte	0x50
 2675 0e3c 28       		.uleb128 0x28
 2676 0e3d 02090000 		.4byte	.LASF191
 2677 0e41 01       		.byte	0x1
 2678 0e42 4F       		.byte	0x4f
 2679 0e43 BF000000 		.4byte	0xbf
 2680 0e47 D6010000 		.4byte	.LLST3
 2681 0e4b 00       		.byte	0
 2682 0e4c 26       		.uleb128 0x26
 2683 0e4d 70060000 		.4byte	.LASF192
 2684 0e51 01       		.byte	0x1
 2685 0e52 57       		.byte	0x57
 2686 0e53 00000000 		.4byte	.LFB38
 2687 0e57 14000000 		.4byte	.LFE38-.LFB38
 2688 0e5b 01       		.uleb128 0x1
 2689 0e5c 9C       		.byte	0x9c
 2690 0e5d 8D0E0000 		.4byte	0xe8d
 2691 0e61 27       		.uleb128 0x27
 2692 0e62 A9000000 		.4byte	.LASF190
 2693 0e66 01       		.byte	0x1
 2694 0e67 57       		.byte	0x57
 2695 0e68 140E0000 		.4byte	0xe14
 2696 0e6c 01       		.uleb128 0x1
 2697 0e6d 50       		.byte	0x50
 2698 0e6e 28       		.uleb128 0x28
 2699 0e6f 68060000 		.4byte	.LASF193
 2700 0e73 01       		.byte	0x1
ARM GAS  /tmp/ccGznRlG.s 			page 49


 2701 0e74 57       		.byte	0x57
 2702 0e75 BF000000 		.4byte	0xbf
 2703 0e79 F7010000 		.4byte	.LLST4
 2704 0e7d 28       		.uleb128 0x28
 2705 0e7e E5000000 		.4byte	.LASF194
 2706 0e82 01       		.byte	0x1
 2707 0e83 57       		.byte	0x57
 2708 0e84 BF000000 		.4byte	0xbf
 2709 0e88 18020000 		.4byte	.LLST5
 2710 0e8c 00       		.byte	0
 2711 0e8d 26       		.uleb128 0x26
 2712 0e8e 39030000 		.4byte	.LASF195
 2713 0e92 01       		.byte	0x1
 2714 0e93 60       		.byte	0x60
 2715 0e94 00000000 		.4byte	.LFB39
 2716 0e98 22000000 		.4byte	.LFE39-.LFB39
 2717 0e9c 01       		.uleb128 0x1
 2718 0e9d 9C       		.byte	0x9c
 2719 0e9e DD0E0000 		.4byte	0xedd
 2720 0ea2 27       		.uleb128 0x27
 2721 0ea3 A9000000 		.4byte	.LASF190
 2722 0ea7 01       		.byte	0x1
 2723 0ea8 60       		.byte	0x60
 2724 0ea9 140E0000 		.4byte	0xe14
 2725 0ead 01       		.uleb128 0x1
 2726 0eae 50       		.byte	0x50
 2727 0eaf 28       		.uleb128 0x28
 2728 0eb0 EB050000 		.4byte	.LASF196
 2729 0eb4 01       		.byte	0x1
 2730 0eb5 60       		.byte	0x60
 2731 0eb6 BF000000 		.4byte	0xbf
 2732 0eba 39020000 		.4byte	.LLST6
 2733 0ebe 28       		.uleb128 0x28
 2734 0ebf 1A020000 		.4byte	.LASF197
 2735 0ec3 01       		.byte	0x1
 2736 0ec4 60       		.byte	0x60
 2737 0ec5 BF000000 		.4byte	0xbf
 2738 0ec9 5A020000 		.4byte	.LLST7
 2739 0ecd 28       		.uleb128 0x28
 2740 0ece A9040000 		.4byte	.LASF198
 2741 0ed2 01       		.byte	0x1
 2742 0ed3 60       		.byte	0x60
 2743 0ed4 BF000000 		.4byte	0xbf
 2744 0ed8 7B020000 		.4byte	.LLST8
 2745 0edc 00       		.byte	0
 2746 0edd 26       		.uleb128 0x26
 2747 0ede 11060000 		.4byte	.LASF199
 2748 0ee2 01       		.byte	0x1
 2749 0ee3 6A       		.byte	0x6a
 2750 0ee4 00000000 		.4byte	.LFB40
 2751 0ee8 0E000000 		.4byte	.LFE40-.LFB40
 2752 0eec 01       		.uleb128 0x1
 2753 0eed 9C       		.byte	0x9c
 2754 0eee 0F0F0000 		.4byte	0xf0f
 2755 0ef2 27       		.uleb128 0x27
 2756 0ef3 A9000000 		.4byte	.LASF190
 2757 0ef7 01       		.byte	0x1
ARM GAS  /tmp/ccGznRlG.s 			page 50


 2758 0ef8 6A       		.byte	0x6a
 2759 0ef9 140E0000 		.4byte	0xe14
 2760 0efd 01       		.uleb128 0x1
 2761 0efe 50       		.byte	0x50
 2762 0eff 28       		.uleb128 0x28
 2763 0f00 28080000 		.4byte	.LASF200
 2764 0f04 01       		.byte	0x1
 2765 0f05 6A       		.byte	0x6a
 2766 0f06 BF000000 		.4byte	0xbf
 2767 0f0a 9C020000 		.4byte	.LLST9
 2768 0f0e 00       		.byte	0
 2769 0f0f 26       		.uleb128 0x26
 2770 0f10 0C0A0000 		.4byte	.LASF201
 2771 0f14 01       		.byte	0x1
 2772 0f15 72       		.byte	0x72
 2773 0f16 00000000 		.4byte	.LFB41
 2774 0f1a 16000000 		.4byte	.LFE41-.LFB41
 2775 0f1e 01       		.uleb128 0x1
 2776 0f1f 9C       		.byte	0x9c
 2777 0f20 500F0000 		.4byte	0xf50
 2778 0f24 27       		.uleb128 0x27
 2779 0f25 A9000000 		.4byte	.LASF190
 2780 0f29 01       		.byte	0x1
 2781 0f2a 72       		.byte	0x72
 2782 0f2b 140E0000 		.4byte	0xe14
 2783 0f2f 01       		.uleb128 0x1
 2784 0f30 50       		.byte	0x50
 2785 0f31 28       		.uleb128 0x28
 2786 0f32 53030000 		.4byte	.LASF202
 2787 0f36 01       		.byte	0x1
 2788 0f37 72       		.byte	0x72
 2789 0f38 BF000000 		.4byte	0xbf
 2790 0f3c BD020000 		.4byte	.LLST10
 2791 0f40 28       		.uleb128 0x28
 2792 0f41 13050000 		.4byte	.LASF203
 2793 0f45 01       		.byte	0x1
 2794 0f46 72       		.byte	0x72
 2795 0f47 BF000000 		.4byte	0xbf
 2796 0f4b DE020000 		.4byte	.LLST11
 2797 0f4f 00       		.byte	0
 2798 0f50 26       		.uleb128 0x26
 2799 0f51 00000000 		.4byte	.LASF204
 2800 0f55 01       		.byte	0x1
 2801 0f56 7B       		.byte	0x7b
 2802 0f57 00000000 		.4byte	.LFB42
 2803 0f5b 0A000000 		.4byte	.LFE42-.LFB42
 2804 0f5f 01       		.uleb128 0x1
 2805 0f60 9C       		.byte	0x9c
 2806 0f61 820F0000 		.4byte	0xf82
 2807 0f65 27       		.uleb128 0x27
 2808 0f66 A9000000 		.4byte	.LASF190
 2809 0f6a 01       		.byte	0x1
 2810 0f6b 7B       		.byte	0x7b
 2811 0f6c 140E0000 		.4byte	0xe14
 2812 0f70 01       		.uleb128 0x1
 2813 0f71 50       		.byte	0x50
 2814 0f72 28       		.uleb128 0x28
ARM GAS  /tmp/ccGznRlG.s 			page 51


 2815 0f73 4F000000 		.4byte	.LASF205
 2816 0f77 01       		.byte	0x1
 2817 0f78 7B       		.byte	0x7b
 2818 0f79 BF000000 		.4byte	0xbf
 2819 0f7d FF020000 		.4byte	.LLST12
 2820 0f81 00       		.byte	0
 2821 0f82 26       		.uleb128 0x26
 2822 0f83 F8050000 		.4byte	.LASF206
 2823 0f87 01       		.byte	0x1
 2824 0f88 AF       		.byte	0xaf
 2825 0f89 00000000 		.4byte	.LFB44
 2826 0f8d F8000000 		.4byte	.LFE44-.LFB44
 2827 0f91 01       		.uleb128 0x1
 2828 0f92 9C       		.byte	0x9c
 2829 0f93 9C100000 		.4byte	0x109c
 2830 0f97 28       		.uleb128 0x28
 2831 0f98 A9000000 		.4byte	.LASF190
 2832 0f9c 01       		.byte	0x1
 2833 0f9d AF       		.byte	0xaf
 2834 0f9e 140E0000 		.4byte	0xe14
 2835 0fa2 20030000 		.4byte	.LLST13
 2836 0fa6 28       		.uleb128 0x28
 2837 0fa7 06080000 		.4byte	.LASF207
 2838 0fab 01       		.byte	0x1
 2839 0fac AF       		.byte	0xaf
 2840 0fad BF000000 		.4byte	0xbf
 2841 0fb1 70030000 		.4byte	.LLST14
 2842 0fb5 29       		.uleb128 0x29
 2843 0fb6 DA060000 		.4byte	.LASF208
 2844 0fba 01       		.byte	0x1
 2845 0fbb B1       		.byte	0xb1
 2846 0fbc BF000000 		.4byte	0xbf
 2847 0fc0 91030000 		.4byte	.LLST15
 2848 0fc4 29       		.uleb128 0x29
 2849 0fc5 E5000000 		.4byte	.LASF194
 2850 0fc9 01       		.byte	0x1
 2851 0fca B2       		.byte	0xb2
 2852 0fcb BF000000 		.4byte	0xbf
 2853 0fcf C5030000 		.4byte	.LLST16
 2854 0fd3 29       		.uleb128 0x29
 2855 0fd4 68060000 		.4byte	.LASF193
 2856 0fd8 01       		.byte	0x1
 2857 0fd9 B3       		.byte	0xb3
 2858 0fda BF000000 		.4byte	0xbf
 2859 0fde E0030000 		.4byte	.LLST17
 2860 0fe2 2A       		.uleb128 0x2a
 2861 0fe3 1C000000 		.4byte	.LVL54
 2862 0fe7 F6120000 		.4byte	0x12f6
 2863 0feb FF0F0000 		.4byte	0xfff
 2864 0fef 2B       		.uleb128 0x2b
 2865 0ff0 01       		.uleb128 0x1
 2866 0ff1 52       		.byte	0x52
 2867 0ff2 02       		.uleb128 0x2
 2868 0ff3 74       		.byte	0x74
 2869 0ff4 00       		.sleb128 0
 2870 0ff5 2B       		.uleb128 0x2b
 2871 0ff6 01       		.uleb128 0x1
ARM GAS  /tmp/ccGznRlG.s 			page 52


 2872 0ff7 51       		.byte	0x51
 2873 0ff8 05       		.uleb128 0x5
 2874 0ff9 03       		.byte	0x3
 2875 0ffa 00000000 		.4byte	.LC0
 2876 0ffe 00       		.byte	0
 2877 0fff 2A       		.uleb128 0x2a
 2878 1000 50000000 		.4byte	.LVL58
 2879 1004 820D0000 		.4byte	0xd82
 2880 1008 13100000 		.4byte	0x1013
 2881 100c 2B       		.uleb128 0x2b
 2882 100d 01       		.uleb128 0x1
 2883 100e 50       		.byte	0x50
 2884 100f 02       		.uleb128 0x2
 2885 1010 75       		.byte	0x75
 2886 1011 00       		.sleb128 0
 2887 1012 00       		.byte	0
 2888 1013 2A       		.uleb128 0x2a
 2889 1014 60000000 		.4byte	.LVL60
 2890 1018 F6120000 		.4byte	0x12f6
 2891 101c 2A100000 		.4byte	0x102a
 2892 1020 2B       		.uleb128 0x2b
 2893 1021 01       		.uleb128 0x1
 2894 1022 51       		.byte	0x51
 2895 1023 05       		.uleb128 0x5
 2896 1024 03       		.byte	0x3
 2897 1025 58000000 		.4byte	.LC2
 2898 1029 00       		.byte	0
 2899 102a 2A       		.uleb128 0x2a
 2900 102b 6E000000 		.4byte	.LVL61
 2901 102f 820D0000 		.4byte	0xd82
 2902 1033 3E100000 		.4byte	0x103e
 2903 1037 2B       		.uleb128 0x2b
 2904 1038 01       		.uleb128 0x1
 2905 1039 50       		.byte	0x50
 2906 103a 02       		.uleb128 0x2
 2907 103b 75       		.byte	0x75
 2908 103c 00       		.sleb128 0
 2909 103d 00       		.byte	0
 2910 103e 2C       		.uleb128 0x2c
 2911 103f 9A000000 		.4byte	.LVL64
 2912 1043 F6120000 		.4byte	0x12f6
 2913 1047 55100000 		.4byte	0x1055
 2914 104b 2B       		.uleb128 0x2b
 2915 104c 01       		.uleb128 0x1
 2916 104d 51       		.byte	0x51
 2917 104e 05       		.uleb128 0x5
 2918 104f 03       		.byte	0x3
 2919 1050 90000000 		.4byte	.LC3
 2920 1054 00       		.byte	0
 2921 1055 2A       		.uleb128 0x2a
 2922 1056 A4000000 		.4byte	.LVL65
 2923 105a F6120000 		.4byte	0x12f6
 2924 105e 71100000 		.4byte	0x1071
 2925 1062 2B       		.uleb128 0x2b
 2926 1063 01       		.uleb128 0x1
 2927 1064 52       		.byte	0x52
 2928 1065 01       		.uleb128 0x1
ARM GAS  /tmp/ccGznRlG.s 			page 53


 2929 1066 31       		.byte	0x31
 2930 1067 2B       		.uleb128 0x2b
 2931 1068 01       		.uleb128 0x1
 2932 1069 51       		.byte	0x51
 2933 106a 05       		.uleb128 0x5
 2934 106b 03       		.byte	0x3
 2935 106c 20000000 		.4byte	.LC1
 2936 1070 00       		.byte	0
 2937 1071 2C       		.uleb128 0x2c
 2938 1072 BE000000 		.4byte	.LVL69
 2939 1076 F6120000 		.4byte	0x12f6
 2940 107a 88100000 		.4byte	0x1088
 2941 107e 2B       		.uleb128 0x2b
 2942 107f 01       		.uleb128 0x1
 2943 1080 51       		.byte	0x51
 2944 1081 05       		.uleb128 0x5
 2945 1082 03       		.byte	0x3
 2946 1083 90000000 		.4byte	.LC3
 2947 1087 00       		.byte	0
 2948 1088 2D       		.uleb128 0x2d
 2949 1089 D0000000 		.4byte	.LVL71
 2950 108d F6120000 		.4byte	0x12f6
 2951 1091 2B       		.uleb128 0x2b
 2952 1092 01       		.uleb128 0x1
 2953 1093 51       		.byte	0x51
 2954 1094 05       		.uleb128 0x5
 2955 1095 03       		.byte	0x3
 2956 1096 C0000000 		.4byte	.LC4
 2957 109a 00       		.byte	0
 2958 109b 00       		.byte	0
 2959 109c 2E       		.uleb128 0x2e
 2960 109d 8A020000 		.4byte	.LASF218
 2961 10a1 01       		.byte	0x1
 2962 10a2 F4       		.byte	0xf4
 2963 10a3 BF000000 		.4byte	0xbf
 2964 10a7 00000000 		.4byte	.LFB45
 2965 10ab 0E000000 		.4byte	.LFE45-.LFB45
 2966 10af 01       		.uleb128 0x1
 2967 10b0 9C       		.byte	0x9c
 2968 10b1 E3100000 		.4byte	0x10e3
 2969 10b5 28       		.uleb128 0x28
 2970 10b6 A9000000 		.4byte	.LASF190
 2971 10ba 01       		.byte	0x1
 2972 10bb F4       		.byte	0xf4
 2973 10bc 140E0000 		.4byte	0xe14
 2974 10c0 19040000 		.4byte	.LLST18
 2975 10c4 28       		.uleb128 0x28
 2976 10c5 F0040000 		.4byte	.LASF209
 2977 10c9 01       		.byte	0x1
 2978 10ca F4       		.byte	0xf4
 2979 10cb BF000000 		.4byte	0xbf
 2980 10cf 3A040000 		.4byte	.LLST19
 2981 10d3 29       		.uleb128 0x29
 2982 10d4 02060000 		.4byte	.LASF210
 2983 10d8 01       		.byte	0x1
 2984 10d9 F6       		.byte	0xf6
 2985 10da BF000000 		.4byte	0xbf
ARM GAS  /tmp/ccGznRlG.s 			page 54


 2986 10de 5B040000 		.4byte	.LLST20
 2987 10e2 00       		.byte	0
 2988 10e3 2F       		.uleb128 0x2f
 2989 10e4 B7080000 		.4byte	.LASF211
 2990 10e8 01       		.byte	0x1
 2991 10e9 0601     		.2byte	0x106
 2992 10eb 00000000 		.4byte	.LFB46
 2993 10ef 44000000 		.4byte	.LFE46-.LFB46
 2994 10f3 01       		.uleb128 0x1
 2995 10f4 9C       		.byte	0x9c
 2996 10f5 55110000 		.4byte	0x1155
 2997 10f9 30       		.uleb128 0x30
 2998 10fa A9000000 		.4byte	.LASF190
 2999 10fe 01       		.byte	0x1
 3000 10ff 0601     		.2byte	0x106
 3001 1101 140E0000 		.4byte	0xe14
 3002 1105 7A040000 		.4byte	.LLST21
 3003 1109 30       		.uleb128 0x30
 3004 110a F0040000 		.4byte	.LASF209
 3005 110e 01       		.byte	0x1
 3006 110f 0601     		.2byte	0x106
 3007 1111 BF000000 		.4byte	0xbf
 3008 1115 9B040000 		.4byte	.LLST22
 3009 1119 31       		.uleb128 0x31
 3010 111a 8C000000 		.4byte	.LASF213
 3011 111e 65110000 		.4byte	0x1165
 3012 1122 05       		.uleb128 0x5
 3013 1123 03       		.byte	0x3
 3014 1124 00000000 		.4byte	__func__.6032
 3015 1128 2D       		.uleb128 0x2d
 3016 1129 38000000 		.4byte	.LVL81
 3017 112d 13130000 		.4byte	0x1313
 3018 1131 2B       		.uleb128 0x2b
 3019 1132 01       		.uleb128 0x1
 3020 1133 53       		.byte	0x53
 3021 1134 05       		.uleb128 0x5
 3022 1135 03       		.byte	0x3
 3023 1136 50010000 		.4byte	.LC6
 3024 113a 2B       		.uleb128 0x2b
 3025 113b 01       		.uleb128 0x1
 3026 113c 52       		.byte	0x52
 3027 113d 05       		.uleb128 0x5
 3028 113e 03       		.byte	0x3
 3029 113f 00000000 		.4byte	.LANCHOR0
 3030 1143 2B       		.uleb128 0x2b
 3031 1144 01       		.uleb128 0x1
 3032 1145 51       		.byte	0x51
 3033 1146 03       		.uleb128 0x3
 3034 1147 0A       		.byte	0xa
 3035 1148 0801     		.2byte	0x108
 3036 114a 2B       		.uleb128 0x2b
 3037 114b 01       		.uleb128 0x1
 3038 114c 50       		.byte	0x50
 3039 114d 05       		.uleb128 0x5
 3040 114e 03       		.byte	0x3
 3041 114f E4000000 		.4byte	.LC5
 3042 1153 00       		.byte	0
ARM GAS  /tmp/ccGznRlG.s 			page 55


 3043 1154 00       		.byte	0
 3044 1155 15       		.uleb128 0x15
 3045 1156 1D040000 		.4byte	0x41d
 3046 115a 65110000 		.4byte	0x1165
 3047 115e 16       		.uleb128 0x16
 3048 115f 29030000 		.4byte	0x329
 3049 1163 15       		.byte	0x15
 3050 1164 00       		.byte	0
 3051 1165 10       		.uleb128 0x10
 3052 1166 55110000 		.4byte	0x1155
 3053 116a 2F       		.uleb128 0x2f
 3054 116b B6000000 		.4byte	.LASF214
 3055 116f 01       		.byte	0x1
 3056 1170 1B01     		.2byte	0x11b
 3057 1172 00000000 		.4byte	.LFB47
 3058 1176 14000000 		.4byte	.LFE47-.LFB47
 3059 117a 01       		.uleb128 0x1
 3060 117b 9C       		.byte	0x9c
 3061 117c 9F110000 		.4byte	0x119f
 3062 1180 32       		.uleb128 0x32
 3063 1181 A9000000 		.4byte	.LASF190
 3064 1185 01       		.byte	0x1
 3065 1186 1B01     		.2byte	0x11b
 3066 1188 140E0000 		.4byte	0xe14
 3067 118c 01       		.uleb128 0x1
 3068 118d 50       		.byte	0x50
 3069 118e 30       		.uleb128 0x30
 3070 118f B1040000 		.4byte	.LASF215
 3071 1193 01       		.byte	0x1
 3072 1194 1B01     		.2byte	0x11b
 3073 1196 BF000000 		.4byte	0xbf
 3074 119a D5040000 		.4byte	.LLST23
 3075 119e 00       		.byte	0
 3076 119f 2F       		.uleb128 0x2f
 3077 11a0 D3050000 		.4byte	.LASF216
 3078 11a4 01       		.byte	0x1
 3079 11a5 2601     		.2byte	0x126
 3080 11a7 00000000 		.4byte	.LFB48
 3081 11ab 04000000 		.4byte	.LFE48-.LFB48
 3082 11af 01       		.uleb128 0x1
 3083 11b0 9C       		.byte	0x9c
 3084 11b1 D2110000 		.4byte	0x11d2
 3085 11b5 32       		.uleb128 0x32
 3086 11b6 A9000000 		.4byte	.LASF190
 3087 11ba 01       		.byte	0x1
 3088 11bb 2601     		.2byte	0x126
 3089 11bd 140E0000 		.4byte	0xe14
 3090 11c1 01       		.uleb128 0x1
 3091 11c2 50       		.byte	0x50
 3092 11c3 32       		.uleb128 0x32
 3093 11c4 71050000 		.4byte	.LASF217
 3094 11c8 01       		.byte	0x1
 3095 11c9 2601     		.2byte	0x126
 3096 11cb BF000000 		.4byte	0xbf
 3097 11cf 01       		.uleb128 0x1
 3098 11d0 51       		.byte	0x51
 3099 11d1 00       		.byte	0
ARM GAS  /tmp/ccGznRlG.s 			page 56


 3100 11d2 33       		.uleb128 0x33
 3101 11d3 1C010000 		.4byte	.LASF219
 3102 11d7 01       		.byte	0x1
 3103 11d8 3301     		.2byte	0x133
 3104 11da BF000000 		.4byte	0xbf
 3105 11de 00000000 		.4byte	.LFB49
 3106 11e2 06000000 		.4byte	.LFE49-.LFB49
 3107 11e6 01       		.uleb128 0x1
 3108 11e7 9C       		.byte	0x9c
 3109 11e8 0B120000 		.4byte	0x120b
 3110 11ec 30       		.uleb128 0x30
 3111 11ed A9000000 		.4byte	.LASF190
 3112 11f1 01       		.byte	0x1
 3113 11f2 3301     		.2byte	0x133
 3114 11f4 140E0000 		.4byte	0xe14
 3115 11f8 F6040000 		.4byte	.LLST24
 3116 11fc 32       		.uleb128 0x32
 3117 11fd 13020000 		.4byte	.LASF220
 3118 1201 01       		.byte	0x1
 3119 1202 3301     		.2byte	0x133
 3120 1204 BF000000 		.4byte	0xbf
 3121 1208 01       		.uleb128 0x1
 3122 1209 51       		.byte	0x51
 3123 120a 00       		.byte	0
 3124 120b 33       		.uleb128 0x33
 3125 120c 67020000 		.4byte	.LASF221
 3126 1210 01       		.byte	0x1
 3127 1211 4001     		.2byte	0x140
 3128 1213 BF000000 		.4byte	0xbf
 3129 1217 00000000 		.4byte	.LFB50
 3130 121b 06000000 		.4byte	.LFE50-.LFB50
 3131 121f 01       		.uleb128 0x1
 3132 1220 9C       		.byte	0x9c
 3133 1221 44120000 		.4byte	0x1244
 3134 1225 30       		.uleb128 0x30
 3135 1226 A9000000 		.4byte	.LASF190
 3136 122a 01       		.byte	0x1
 3137 122b 4001     		.2byte	0x140
 3138 122d 140E0000 		.4byte	0xe14
 3139 1231 17050000 		.4byte	.LLST25
 3140 1235 32       		.uleb128 0x32
 3141 1236 13020000 		.4byte	.LASF220
 3142 123a 01       		.byte	0x1
 3143 123b 4001     		.2byte	0x140
 3144 123d BF000000 		.4byte	0xbf
 3145 1241 01       		.uleb128 0x1
 3146 1242 51       		.byte	0x51
 3147 1243 00       		.byte	0
 3148 1244 33       		.uleb128 0x33
 3149 1245 37050000 		.4byte	.LASF222
 3150 1249 01       		.byte	0x1
 3151 124a 4D01     		.2byte	0x14d
 3152 124c BF000000 		.4byte	0xbf
 3153 1250 00000000 		.4byte	.LFB51
 3154 1254 10000000 		.4byte	.LFE51-.LFB51
 3155 1258 01       		.uleb128 0x1
 3156 1259 9C       		.byte	0x9c
ARM GAS  /tmp/ccGznRlG.s 			page 57


 3157 125a 8D120000 		.4byte	0x128d
 3158 125e 30       		.uleb128 0x30
 3159 125f 59030000 		.4byte	.LASF223
 3160 1263 01       		.byte	0x1
 3161 1264 4D01     		.2byte	0x14d
 3162 1266 BF000000 		.4byte	0xbf
 3163 126a 38050000 		.4byte	.LLST26
 3164 126e 32       		.uleb128 0x32
 3165 126f F0040000 		.4byte	.LASF209
 3166 1273 01       		.byte	0x1
 3167 1274 4D01     		.2byte	0x14d
 3168 1276 BF000000 		.4byte	0xbf
 3169 127a 01       		.uleb128 0x1
 3170 127b 51       		.byte	0x51
 3171 127c 34       		.uleb128 0x34
 3172 127d 0A020000 		.4byte	.LASF224
 3173 1281 01       		.byte	0x1
 3174 1282 4F01     		.2byte	0x14f
 3175 1284 BF000000 		.4byte	0xbf
 3176 1288 59050000 		.4byte	.LLST27
 3177 128c 00       		.byte	0
 3178 128d 33       		.uleb128 0x33
 3179 128e FB010000 		.4byte	.LASF225
 3180 1292 01       		.byte	0x1
 3181 1293 6401     		.2byte	0x164
 3182 1295 BF000000 		.4byte	0xbf
 3183 1299 00000000 		.4byte	.LFB52
 3184 129d 3C000000 		.4byte	.LFE52-.LFB52
 3185 12a1 01       		.uleb128 0x1
 3186 12a2 9C       		.byte	0x9c
 3187 12a3 D4120000 		.4byte	0x12d4
 3188 12a7 30       		.uleb128 0x30
 3189 12a8 9B080000 		.4byte	.LASF226
 3190 12ac 01       		.byte	0x1
 3191 12ad 6401     		.2byte	0x164
 3192 12af 140E0000 		.4byte	0xe14
 3193 12b3 8E050000 		.4byte	.LLST28
 3194 12b7 32       		.uleb128 0x32
 3195 12b8 D2000000 		.4byte	.LASF227
 3196 12bc 01       		.byte	0x1
 3197 12bd 6401     		.2byte	0x164
 3198 12bf D4120000 		.4byte	0x12d4
 3199 12c3 01       		.uleb128 0x1
 3200 12c4 51       		.byte	0x51
 3201 12c5 32       		.uleb128 0x32
 3202 12c6 A8090000 		.4byte	.LASF228
 3203 12ca 01       		.byte	0x1
 3204 12cb 6401     		.2byte	0x164
 3205 12cd BF000000 		.4byte	0xbf
 3206 12d1 01       		.uleb128 0x1
 3207 12d2 52       		.byte	0x52
 3208 12d3 00       		.byte	0
 3209 12d4 09       		.uleb128 0x9
 3210 12d5 04       		.byte	0x4
 3211 12d6 A9000000 		.4byte	0xa9
 3212 12da 35       		.uleb128 0x35
 3213 12db 79050000 		.4byte	.LASF229
ARM GAS  /tmp/ccGznRlG.s 			page 58


 3214 12df 10       		.byte	0x10
 3215 12e0 CE06     		.2byte	0x6ce
 3216 12e2 E6120000 		.4byte	0x12e6
 3217 12e6 0D       		.uleb128 0xd
 3218 12e7 21000000 		.4byte	0x21
 3219 12eb 36       		.uleb128 0x36
 3220 12ec 53443200 		.ascii	"SD2\000"
 3221 12f0 11       		.byte	0x11
 3222 12f1 85       		.byte	0x85
 3223 12f2 660C0000 		.4byte	0xc66
 3224 12f6 37       		.uleb128 0x37
 3225 12f7 4A030000 		.4byte	.LASF233
 3226 12fb 12       		.byte	0x12
 3227 12fc 2A       		.byte	0x2a
 3228 12fd 0D130000 		.4byte	0x130d
 3229 1301 12       		.uleb128 0x12
 3230 1302 0D130000 		.4byte	0x130d
 3231 1306 12       		.uleb128 0x12
 3232 1307 12040000 		.4byte	0x412
 3233 130b 38       		.uleb128 0x38
 3234 130c 00       		.byte	0
 3235 130d 09       		.uleb128 0x9
 3236 130e 04       		.byte	0x4
 3237 130f 40060000 		.4byte	0x640
 3238 1313 39       		.uleb128 0x39
 3239 1314 59040000 		.4byte	.LASF234
 3240 1318 13       		.byte	0x13
 3241 1319 29       		.byte	0x29
 3242 131a 12       		.uleb128 0x12
 3243 131b 12040000 		.4byte	0x412
 3244 131f 12       		.uleb128 0x12
 3245 1320 21000000 		.4byte	0x21
 3246 1324 12       		.uleb128 0x12
 3247 1325 12040000 		.4byte	0x412
 3248 1329 12       		.uleb128 0x12
 3249 132a 12040000 		.4byte	0x412
 3250 132e 00       		.byte	0
 3251 132f 00       		.byte	0
 3252              		.section	.debug_abbrev,"",%progbits
 3253              	.Ldebug_abbrev0:
 3254 0000 01       		.uleb128 0x1
 3255 0001 11       		.uleb128 0x11
 3256 0002 01       		.byte	0x1
 3257 0003 25       		.uleb128 0x25
 3258 0004 0E       		.uleb128 0xe
 3259 0005 13       		.uleb128 0x13
 3260 0006 0B       		.uleb128 0xb
 3261 0007 03       		.uleb128 0x3
 3262 0008 0E       		.uleb128 0xe
 3263 0009 55       		.uleb128 0x55
 3264 000a 17       		.uleb128 0x17
 3265 000b 11       		.uleb128 0x11
 3266 000c 01       		.uleb128 0x1
 3267 000d 10       		.uleb128 0x10
 3268 000e 17       		.uleb128 0x17
 3269 000f 00       		.byte	0
 3270 0010 00       		.byte	0
ARM GAS  /tmp/ccGznRlG.s 			page 59


 3271 0011 02       		.uleb128 0x2
 3272 0012 24       		.uleb128 0x24
 3273 0013 00       		.byte	0
 3274 0014 0B       		.uleb128 0xb
 3275 0015 0B       		.uleb128 0xb
 3276 0016 3E       		.uleb128 0x3e
 3277 0017 0B       		.uleb128 0xb
 3278 0018 03       		.uleb128 0x3
 3279 0019 08       		.uleb128 0x8
 3280 001a 00       		.byte	0
 3281 001b 00       		.byte	0
 3282 001c 03       		.uleb128 0x3
 3283 001d 16       		.uleb128 0x16
 3284 001e 00       		.byte	0
 3285 001f 03       		.uleb128 0x3
 3286 0020 0E       		.uleb128 0xe
 3287 0021 3A       		.uleb128 0x3a
 3288 0022 0B       		.uleb128 0xb
 3289 0023 3B       		.uleb128 0x3b
 3290 0024 0B       		.uleb128 0xb
 3291 0025 49       		.uleb128 0x49
 3292 0026 13       		.uleb128 0x13
 3293 0027 00       		.byte	0
 3294 0028 00       		.byte	0
 3295 0029 04       		.uleb128 0x4
 3296 002a 24       		.uleb128 0x24
 3297 002b 00       		.byte	0
 3298 002c 0B       		.uleb128 0xb
 3299 002d 0B       		.uleb128 0xb
 3300 002e 3E       		.uleb128 0x3e
 3301 002f 0B       		.uleb128 0xb
 3302 0030 03       		.uleb128 0x3
 3303 0031 0E       		.uleb128 0xe
 3304 0032 00       		.byte	0
 3305 0033 00       		.byte	0
 3306 0034 05       		.uleb128 0x5
 3307 0035 13       		.uleb128 0x13
 3308 0036 01       		.byte	0x1
 3309 0037 03       		.uleb128 0x3
 3310 0038 0E       		.uleb128 0xe
 3311 0039 0B       		.uleb128 0xb
 3312 003a 0B       		.uleb128 0xb
 3313 003b 3A       		.uleb128 0x3a
 3314 003c 0B       		.uleb128 0xb
 3315 003d 3B       		.uleb128 0x3b
 3316 003e 0B       		.uleb128 0xb
 3317 003f 01       		.uleb128 0x1
 3318 0040 13       		.uleb128 0x13
 3319 0041 00       		.byte	0
 3320 0042 00       		.byte	0
 3321 0043 06       		.uleb128 0x6
 3322 0044 0D       		.uleb128 0xd
 3323 0045 00       		.byte	0
 3324 0046 03       		.uleb128 0x3
 3325 0047 0E       		.uleb128 0xe
 3326 0048 3A       		.uleb128 0x3a
 3327 0049 0B       		.uleb128 0xb
ARM GAS  /tmp/ccGznRlG.s 			page 60


 3328 004a 3B       		.uleb128 0x3b
 3329 004b 0B       		.uleb128 0xb
 3330 004c 49       		.uleb128 0x49
 3331 004d 13       		.uleb128 0x13
 3332 004e 38       		.uleb128 0x38
 3333 004f 0B       		.uleb128 0xb
 3334 0050 00       		.byte	0
 3335 0051 00       		.byte	0
 3336 0052 07       		.uleb128 0x7
 3337 0053 0D       		.uleb128 0xd
 3338 0054 00       		.byte	0
 3339 0055 03       		.uleb128 0x3
 3340 0056 08       		.uleb128 0x8
 3341 0057 3A       		.uleb128 0x3a
 3342 0058 0B       		.uleb128 0xb
 3343 0059 3B       		.uleb128 0x3b
 3344 005a 0B       		.uleb128 0xb
 3345 005b 49       		.uleb128 0x49
 3346 005c 13       		.uleb128 0x13
 3347 005d 38       		.uleb128 0x38
 3348 005e 0B       		.uleb128 0xb
 3349 005f 00       		.byte	0
 3350 0060 00       		.byte	0
 3351 0061 08       		.uleb128 0x8
 3352 0062 13       		.uleb128 0x13
 3353 0063 01       		.byte	0x1
 3354 0064 0B       		.uleb128 0xb
 3355 0065 0B       		.uleb128 0xb
 3356 0066 3A       		.uleb128 0x3a
 3357 0067 0B       		.uleb128 0xb
 3358 0068 3B       		.uleb128 0x3b
 3359 0069 0B       		.uleb128 0xb
 3360 006a 01       		.uleb128 0x1
 3361 006b 13       		.uleb128 0x13
 3362 006c 00       		.byte	0
 3363 006d 00       		.byte	0
 3364 006e 09       		.uleb128 0x9
 3365 006f 0F       		.uleb128 0xf
 3366 0070 00       		.byte	0
 3367 0071 0B       		.uleb128 0xb
 3368 0072 0B       		.uleb128 0xb
 3369 0073 49       		.uleb128 0x49
 3370 0074 13       		.uleb128 0x13
 3371 0075 00       		.byte	0
 3372 0076 00       		.byte	0
 3373 0077 0A       		.uleb128 0xa
 3374 0078 0F       		.uleb128 0xf
 3375 0079 00       		.byte	0
 3376 007a 0B       		.uleb128 0xb
 3377 007b 0B       		.uleb128 0xb
 3378 007c 00       		.byte	0
 3379 007d 00       		.byte	0
 3380 007e 0B       		.uleb128 0xb
 3381 007f 0D       		.uleb128 0xd
 3382 0080 00       		.byte	0
 3383 0081 03       		.uleb128 0x3
 3384 0082 08       		.uleb128 0x8
ARM GAS  /tmp/ccGznRlG.s 			page 61


 3385 0083 3A       		.uleb128 0x3a
 3386 0084 0B       		.uleb128 0xb
 3387 0085 3B       		.uleb128 0x3b
 3388 0086 05       		.uleb128 0x5
 3389 0087 49       		.uleb128 0x49
 3390 0088 13       		.uleb128 0x13
 3391 0089 38       		.uleb128 0x38
 3392 008a 0B       		.uleb128 0xb
 3393 008b 00       		.byte	0
 3394 008c 00       		.byte	0
 3395 008d 0C       		.uleb128 0xc
 3396 008e 13       		.uleb128 0x13
 3397 008f 01       		.byte	0x1
 3398 0090 03       		.uleb128 0x3
 3399 0091 0E       		.uleb128 0xe
 3400 0092 0B       		.uleb128 0xb
 3401 0093 0B       		.uleb128 0xb
 3402 0094 3A       		.uleb128 0x3a
 3403 0095 0B       		.uleb128 0xb
 3404 0096 3B       		.uleb128 0x3b
 3405 0097 05       		.uleb128 0x5
 3406 0098 01       		.uleb128 0x1
 3407 0099 13       		.uleb128 0x13
 3408 009a 00       		.byte	0
 3409 009b 00       		.byte	0
 3410 009c 0D       		.uleb128 0xd
 3411 009d 35       		.uleb128 0x35
 3412 009e 00       		.byte	0
 3413 009f 49       		.uleb128 0x49
 3414 00a0 13       		.uleb128 0x13
 3415 00a1 00       		.byte	0
 3416 00a2 00       		.byte	0
 3417 00a3 0E       		.uleb128 0xe
 3418 00a4 17       		.uleb128 0x17
 3419 00a5 01       		.byte	0x1
 3420 00a6 0B       		.uleb128 0xb
 3421 00a7 0B       		.uleb128 0xb
 3422 00a8 3A       		.uleb128 0x3a
 3423 00a9 0B       		.uleb128 0xb
 3424 00aa 3B       		.uleb128 0x3b
 3425 00ab 0B       		.uleb128 0xb
 3426 00ac 01       		.uleb128 0x1
 3427 00ad 13       		.uleb128 0x13
 3428 00ae 00       		.byte	0
 3429 00af 00       		.byte	0
 3430 00b0 0F       		.uleb128 0xf
 3431 00b1 0D       		.uleb128 0xd
 3432 00b2 00       		.byte	0
 3433 00b3 03       		.uleb128 0x3
 3434 00b4 0E       		.uleb128 0xe
 3435 00b5 3A       		.uleb128 0x3a
 3436 00b6 0B       		.uleb128 0xb
 3437 00b7 3B       		.uleb128 0x3b
 3438 00b8 0B       		.uleb128 0xb
 3439 00b9 49       		.uleb128 0x49
 3440 00ba 13       		.uleb128 0x13
 3441 00bb 00       		.byte	0
ARM GAS  /tmp/ccGznRlG.s 			page 62


 3442 00bc 00       		.byte	0
 3443 00bd 10       		.uleb128 0x10
 3444 00be 26       		.uleb128 0x26
 3445 00bf 00       		.byte	0
 3446 00c0 49       		.uleb128 0x49
 3447 00c1 13       		.uleb128 0x13
 3448 00c2 00       		.byte	0
 3449 00c3 00       		.byte	0
 3450 00c4 11       		.uleb128 0x11
 3451 00c5 15       		.uleb128 0x15
 3452 00c6 01       		.byte	0x1
 3453 00c7 27       		.uleb128 0x27
 3454 00c8 19       		.uleb128 0x19
 3455 00c9 01       		.uleb128 0x1
 3456 00ca 13       		.uleb128 0x13
 3457 00cb 00       		.byte	0
 3458 00cc 00       		.byte	0
 3459 00cd 12       		.uleb128 0x12
 3460 00ce 05       		.uleb128 0x5
 3461 00cf 00       		.byte	0
 3462 00d0 49       		.uleb128 0x49
 3463 00d1 13       		.uleb128 0x13
 3464 00d2 00       		.byte	0
 3465 00d3 00       		.byte	0
 3466 00d4 13       		.uleb128 0x13
 3467 00d5 15       		.uleb128 0x15
 3468 00d6 01       		.byte	0x1
 3469 00d7 27       		.uleb128 0x27
 3470 00d8 19       		.uleb128 0x19
 3471 00d9 49       		.uleb128 0x49
 3472 00da 13       		.uleb128 0x13
 3473 00db 01       		.uleb128 0x1
 3474 00dc 13       		.uleb128 0x13
 3475 00dd 00       		.byte	0
 3476 00de 00       		.byte	0
 3477 00df 14       		.uleb128 0x14
 3478 00e0 16       		.uleb128 0x16
 3479 00e1 00       		.byte	0
 3480 00e2 03       		.uleb128 0x3
 3481 00e3 0E       		.uleb128 0xe
 3482 00e4 3A       		.uleb128 0x3a
 3483 00e5 0B       		.uleb128 0xb
 3484 00e6 3B       		.uleb128 0x3b
 3485 00e7 05       		.uleb128 0x5
 3486 00e8 49       		.uleb128 0x49
 3487 00e9 13       		.uleb128 0x13
 3488 00ea 00       		.byte	0
 3489 00eb 00       		.byte	0
 3490 00ec 15       		.uleb128 0x15
 3491 00ed 01       		.uleb128 0x1
 3492 00ee 01       		.byte	0x1
 3493 00ef 49       		.uleb128 0x49
 3494 00f0 13       		.uleb128 0x13
 3495 00f1 01       		.uleb128 0x1
 3496 00f2 13       		.uleb128 0x13
 3497 00f3 00       		.byte	0
 3498 00f4 00       		.byte	0
ARM GAS  /tmp/ccGznRlG.s 			page 63


 3499 00f5 16       		.uleb128 0x16
 3500 00f6 21       		.uleb128 0x21
 3501 00f7 00       		.byte	0
 3502 00f8 49       		.uleb128 0x49
 3503 00f9 13       		.uleb128 0x13
 3504 00fa 2F       		.uleb128 0x2f
 3505 00fb 0B       		.uleb128 0xb
 3506 00fc 00       		.byte	0
 3507 00fd 00       		.byte	0
 3508 00fe 17       		.uleb128 0x17
 3509 00ff 13       		.uleb128 0x13
 3510 0100 01       		.byte	0x1
 3511 0101 0B       		.uleb128 0xb
 3512 0102 05       		.uleb128 0x5
 3513 0103 3A       		.uleb128 0x3a
 3514 0104 0B       		.uleb128 0xb
 3515 0105 3B       		.uleb128 0x3b
 3516 0106 0B       		.uleb128 0xb
 3517 0107 01       		.uleb128 0x1
 3518 0108 13       		.uleb128 0x13
 3519 0109 00       		.byte	0
 3520 010a 00       		.byte	0
 3521 010b 18       		.uleb128 0x18
 3522 010c 0D       		.uleb128 0xd
 3523 010d 00       		.byte	0
 3524 010e 03       		.uleb128 0x3
 3525 010f 0E       		.uleb128 0xe
 3526 0110 3A       		.uleb128 0x3a
 3527 0111 0B       		.uleb128 0xb
 3528 0112 3B       		.uleb128 0x3b
 3529 0113 05       		.uleb128 0x5
 3530 0114 49       		.uleb128 0x49
 3531 0115 13       		.uleb128 0x13
 3532 0116 38       		.uleb128 0x38
 3533 0117 0B       		.uleb128 0xb
 3534 0118 00       		.byte	0
 3535 0119 00       		.byte	0
 3536 011a 19       		.uleb128 0x19
 3537 011b 0D       		.uleb128 0xd
 3538 011c 00       		.byte	0
 3539 011d 03       		.uleb128 0x3
 3540 011e 0E       		.uleb128 0xe
 3541 011f 3A       		.uleb128 0x3a
 3542 0120 0B       		.uleb128 0xb
 3543 0121 3B       		.uleb128 0x3b
 3544 0122 05       		.uleb128 0x5
 3545 0123 49       		.uleb128 0x49
 3546 0124 13       		.uleb128 0x13
 3547 0125 38       		.uleb128 0x38
 3548 0126 05       		.uleb128 0x5
 3549 0127 00       		.byte	0
 3550 0128 00       		.byte	0
 3551 0129 1A       		.uleb128 0x1a
 3552 012a 16       		.uleb128 0x16
 3553 012b 00       		.byte	0
 3554 012c 03       		.uleb128 0x3
 3555 012d 08       		.uleb128 0x8
ARM GAS  /tmp/ccGznRlG.s 			page 64


 3556 012e 3A       		.uleb128 0x3a
 3557 012f 0B       		.uleb128 0xb
 3558 0130 3B       		.uleb128 0x3b
 3559 0131 05       		.uleb128 0x5
 3560 0132 49       		.uleb128 0x49
 3561 0133 13       		.uleb128 0x13
 3562 0134 00       		.byte	0
 3563 0135 00       		.byte	0
 3564 0136 1B       		.uleb128 0x1b
 3565 0137 13       		.uleb128 0x13
 3566 0138 01       		.byte	0x1
 3567 0139 0B       		.uleb128 0xb
 3568 013a 05       		.uleb128 0x5
 3569 013b 3A       		.uleb128 0x3a
 3570 013c 0B       		.uleb128 0xb
 3571 013d 3B       		.uleb128 0x3b
 3572 013e 05       		.uleb128 0x5
 3573 013f 01       		.uleb128 0x1
 3574 0140 13       		.uleb128 0x13
 3575 0141 00       		.byte	0
 3576 0142 00       		.byte	0
 3577 0143 1C       		.uleb128 0x1c
 3578 0144 04       		.uleb128 0x4
 3579 0145 01       		.byte	0x1
 3580 0146 0B       		.uleb128 0xb
 3581 0147 0B       		.uleb128 0xb
 3582 0148 3A       		.uleb128 0x3a
 3583 0149 0B       		.uleb128 0xb
 3584 014a 3B       		.uleb128 0x3b
 3585 014b 0B       		.uleb128 0xb
 3586 014c 01       		.uleb128 0x1
 3587 014d 13       		.uleb128 0x13
 3588 014e 00       		.byte	0
 3589 014f 00       		.byte	0
 3590 0150 1D       		.uleb128 0x1d
 3591 0151 28       		.uleb128 0x28
 3592 0152 00       		.byte	0
 3593 0153 03       		.uleb128 0x3
 3594 0154 0E       		.uleb128 0xe
 3595 0155 1C       		.uleb128 0x1c
 3596 0156 0D       		.uleb128 0xd
 3597 0157 00       		.byte	0
 3598 0158 00       		.byte	0
 3599 0159 1E       		.uleb128 0x1e
 3600 015a 2E       		.uleb128 0x2e
 3601 015b 01       		.byte	0x1
 3602 015c 03       		.uleb128 0x3
 3603 015d 0E       		.uleb128 0xe
 3604 015e 3A       		.uleb128 0x3a
 3605 015f 0B       		.uleb128 0xb
 3606 0160 3B       		.uleb128 0x3b
 3607 0161 0B       		.uleb128 0xb
 3608 0162 27       		.uleb128 0x27
 3609 0163 19       		.uleb128 0x19
 3610 0164 49       		.uleb128 0x49
 3611 0165 13       		.uleb128 0x13
 3612 0166 20       		.uleb128 0x20
ARM GAS  /tmp/ccGznRlG.s 			page 65


 3613 0167 0B       		.uleb128 0xb
 3614 0168 01       		.uleb128 0x1
 3615 0169 13       		.uleb128 0x13
 3616 016a 00       		.byte	0
 3617 016b 00       		.byte	0
 3618 016c 1F       		.uleb128 0x1f
 3619 016d 05       		.uleb128 0x5
 3620 016e 00       		.byte	0
 3621 016f 03       		.uleb128 0x3
 3622 0170 0E       		.uleb128 0xe
 3623 0171 3A       		.uleb128 0x3a
 3624 0172 0B       		.uleb128 0xb
 3625 0173 3B       		.uleb128 0x3b
 3626 0174 0B       		.uleb128 0xb
 3627 0175 49       		.uleb128 0x49
 3628 0176 13       		.uleb128 0x13
 3629 0177 00       		.byte	0
 3630 0178 00       		.byte	0
 3631 0179 20       		.uleb128 0x20
 3632 017a 34       		.uleb128 0x34
 3633 017b 00       		.byte	0
 3634 017c 03       		.uleb128 0x3
 3635 017d 0E       		.uleb128 0xe
 3636 017e 3A       		.uleb128 0x3a
 3637 017f 0B       		.uleb128 0xb
 3638 0180 3B       		.uleb128 0x3b
 3639 0181 0B       		.uleb128 0xb
 3640 0182 49       		.uleb128 0x49
 3641 0183 13       		.uleb128 0x13
 3642 0184 00       		.byte	0
 3643 0185 00       		.byte	0
 3644 0186 21       		.uleb128 0x21
 3645 0187 2E       		.uleb128 0x2e
 3646 0188 01       		.byte	0x1
 3647 0189 31       		.uleb128 0x31
 3648 018a 13       		.uleb128 0x13
 3649 018b 11       		.uleb128 0x11
 3650 018c 01       		.uleb128 0x1
 3651 018d 12       		.uleb128 0x12
 3652 018e 06       		.uleb128 0x6
 3653 018f 40       		.uleb128 0x40
 3654 0190 18       		.uleb128 0x18
 3655 0191 9742     		.uleb128 0x2117
 3656 0193 19       		.uleb128 0x19
 3657 0194 01       		.uleb128 0x1
 3658 0195 13       		.uleb128 0x13
 3659 0196 00       		.byte	0
 3660 0197 00       		.byte	0
 3661 0198 22       		.uleb128 0x22
 3662 0199 05       		.uleb128 0x5
 3663 019a 00       		.byte	0
 3664 019b 31       		.uleb128 0x31
 3665 019c 13       		.uleb128 0x13
 3666 019d 02       		.uleb128 0x2
 3667 019e 17       		.uleb128 0x17
 3668 019f 00       		.byte	0
 3669 01a0 00       		.byte	0
ARM GAS  /tmp/ccGznRlG.s 			page 66


 3670 01a1 23       		.uleb128 0x23
 3671 01a2 34       		.uleb128 0x34
 3672 01a3 00       		.byte	0
 3673 01a4 31       		.uleb128 0x31
 3674 01a5 13       		.uleb128 0x13
 3675 01a6 02       		.uleb128 0x2
 3676 01a7 17       		.uleb128 0x17
 3677 01a8 00       		.byte	0
 3678 01a9 00       		.byte	0
 3679 01aa 24       		.uleb128 0x24
 3680 01ab 0B       		.uleb128 0xb
 3681 01ac 01       		.byte	0x1
 3682 01ad 11       		.uleb128 0x11
 3683 01ae 01       		.uleb128 0x1
 3684 01af 12       		.uleb128 0x12
 3685 01b0 06       		.uleb128 0x6
 3686 01b1 00       		.byte	0
 3687 01b2 00       		.byte	0
 3688 01b3 25       		.uleb128 0x25
 3689 01b4 34       		.uleb128 0x34
 3690 01b5 00       		.byte	0
 3691 01b6 31       		.uleb128 0x31
 3692 01b7 13       		.uleb128 0x13
 3693 01b8 00       		.byte	0
 3694 01b9 00       		.byte	0
 3695 01ba 26       		.uleb128 0x26
 3696 01bb 2E       		.uleb128 0x2e
 3697 01bc 01       		.byte	0x1
 3698 01bd 3F       		.uleb128 0x3f
 3699 01be 19       		.uleb128 0x19
 3700 01bf 03       		.uleb128 0x3
 3701 01c0 0E       		.uleb128 0xe
 3702 01c1 3A       		.uleb128 0x3a
 3703 01c2 0B       		.uleb128 0xb
 3704 01c3 3B       		.uleb128 0x3b
 3705 01c4 0B       		.uleb128 0xb
 3706 01c5 27       		.uleb128 0x27
 3707 01c6 19       		.uleb128 0x19
 3708 01c7 11       		.uleb128 0x11
 3709 01c8 01       		.uleb128 0x1
 3710 01c9 12       		.uleb128 0x12
 3711 01ca 06       		.uleb128 0x6
 3712 01cb 40       		.uleb128 0x40
 3713 01cc 18       		.uleb128 0x18
 3714 01cd 9742     		.uleb128 0x2117
 3715 01cf 19       		.uleb128 0x19
 3716 01d0 01       		.uleb128 0x1
 3717 01d1 13       		.uleb128 0x13
 3718 01d2 00       		.byte	0
 3719 01d3 00       		.byte	0
 3720 01d4 27       		.uleb128 0x27
 3721 01d5 05       		.uleb128 0x5
 3722 01d6 00       		.byte	0
 3723 01d7 03       		.uleb128 0x3
 3724 01d8 0E       		.uleb128 0xe
 3725 01d9 3A       		.uleb128 0x3a
 3726 01da 0B       		.uleb128 0xb
ARM GAS  /tmp/ccGznRlG.s 			page 67


 3727 01db 3B       		.uleb128 0x3b
 3728 01dc 0B       		.uleb128 0xb
 3729 01dd 49       		.uleb128 0x49
 3730 01de 13       		.uleb128 0x13
 3731 01df 02       		.uleb128 0x2
 3732 01e0 18       		.uleb128 0x18
 3733 01e1 00       		.byte	0
 3734 01e2 00       		.byte	0
 3735 01e3 28       		.uleb128 0x28
 3736 01e4 05       		.uleb128 0x5
 3737 01e5 00       		.byte	0
 3738 01e6 03       		.uleb128 0x3
 3739 01e7 0E       		.uleb128 0xe
 3740 01e8 3A       		.uleb128 0x3a
 3741 01e9 0B       		.uleb128 0xb
 3742 01ea 3B       		.uleb128 0x3b
 3743 01eb 0B       		.uleb128 0xb
 3744 01ec 49       		.uleb128 0x49
 3745 01ed 13       		.uleb128 0x13
 3746 01ee 02       		.uleb128 0x2
 3747 01ef 17       		.uleb128 0x17
 3748 01f0 00       		.byte	0
 3749 01f1 00       		.byte	0
 3750 01f2 29       		.uleb128 0x29
 3751 01f3 34       		.uleb128 0x34
 3752 01f4 00       		.byte	0
 3753 01f5 03       		.uleb128 0x3
 3754 01f6 0E       		.uleb128 0xe
 3755 01f7 3A       		.uleb128 0x3a
 3756 01f8 0B       		.uleb128 0xb
 3757 01f9 3B       		.uleb128 0x3b
 3758 01fa 0B       		.uleb128 0xb
 3759 01fb 49       		.uleb128 0x49
 3760 01fc 13       		.uleb128 0x13
 3761 01fd 02       		.uleb128 0x2
 3762 01fe 17       		.uleb128 0x17
 3763 01ff 00       		.byte	0
 3764 0200 00       		.byte	0
 3765 0201 2A       		.uleb128 0x2a
 3766 0202 898201   		.uleb128 0x4109
 3767 0205 01       		.byte	0x1
 3768 0206 11       		.uleb128 0x11
 3769 0207 01       		.uleb128 0x1
 3770 0208 31       		.uleb128 0x31
 3771 0209 13       		.uleb128 0x13
 3772 020a 01       		.uleb128 0x1
 3773 020b 13       		.uleb128 0x13
 3774 020c 00       		.byte	0
 3775 020d 00       		.byte	0
 3776 020e 2B       		.uleb128 0x2b
 3777 020f 8A8201   		.uleb128 0x410a
 3778 0212 00       		.byte	0
 3779 0213 02       		.uleb128 0x2
 3780 0214 18       		.uleb128 0x18
 3781 0215 9142     		.uleb128 0x2111
 3782 0217 18       		.uleb128 0x18
 3783 0218 00       		.byte	0
ARM GAS  /tmp/ccGznRlG.s 			page 68


 3784 0219 00       		.byte	0
 3785 021a 2C       		.uleb128 0x2c
 3786 021b 898201   		.uleb128 0x4109
 3787 021e 01       		.byte	0x1
 3788 021f 11       		.uleb128 0x11
 3789 0220 01       		.uleb128 0x1
 3790 0221 9542     		.uleb128 0x2115
 3791 0223 19       		.uleb128 0x19
 3792 0224 31       		.uleb128 0x31
 3793 0225 13       		.uleb128 0x13
 3794 0226 01       		.uleb128 0x1
 3795 0227 13       		.uleb128 0x13
 3796 0228 00       		.byte	0
 3797 0229 00       		.byte	0
 3798 022a 2D       		.uleb128 0x2d
 3799 022b 898201   		.uleb128 0x4109
 3800 022e 01       		.byte	0x1
 3801 022f 11       		.uleb128 0x11
 3802 0230 01       		.uleb128 0x1
 3803 0231 31       		.uleb128 0x31
 3804 0232 13       		.uleb128 0x13
 3805 0233 00       		.byte	0
 3806 0234 00       		.byte	0
 3807 0235 2E       		.uleb128 0x2e
 3808 0236 2E       		.uleb128 0x2e
 3809 0237 01       		.byte	0x1
 3810 0238 3F       		.uleb128 0x3f
 3811 0239 19       		.uleb128 0x19
 3812 023a 03       		.uleb128 0x3
 3813 023b 0E       		.uleb128 0xe
 3814 023c 3A       		.uleb128 0x3a
 3815 023d 0B       		.uleb128 0xb
 3816 023e 3B       		.uleb128 0x3b
 3817 023f 0B       		.uleb128 0xb
 3818 0240 27       		.uleb128 0x27
 3819 0241 19       		.uleb128 0x19
 3820 0242 49       		.uleb128 0x49
 3821 0243 13       		.uleb128 0x13
 3822 0244 11       		.uleb128 0x11
 3823 0245 01       		.uleb128 0x1
 3824 0246 12       		.uleb128 0x12
 3825 0247 06       		.uleb128 0x6
 3826 0248 40       		.uleb128 0x40
 3827 0249 18       		.uleb128 0x18
 3828 024a 9742     		.uleb128 0x2117
 3829 024c 19       		.uleb128 0x19
 3830 024d 01       		.uleb128 0x1
 3831 024e 13       		.uleb128 0x13
 3832 024f 00       		.byte	0
 3833 0250 00       		.byte	0
 3834 0251 2F       		.uleb128 0x2f
 3835 0252 2E       		.uleb128 0x2e
 3836 0253 01       		.byte	0x1
 3837 0254 3F       		.uleb128 0x3f
 3838 0255 19       		.uleb128 0x19
 3839 0256 03       		.uleb128 0x3
 3840 0257 0E       		.uleb128 0xe
ARM GAS  /tmp/ccGznRlG.s 			page 69


 3841 0258 3A       		.uleb128 0x3a
 3842 0259 0B       		.uleb128 0xb
 3843 025a 3B       		.uleb128 0x3b
 3844 025b 05       		.uleb128 0x5
 3845 025c 27       		.uleb128 0x27
 3846 025d 19       		.uleb128 0x19
 3847 025e 11       		.uleb128 0x11
 3848 025f 01       		.uleb128 0x1
 3849 0260 12       		.uleb128 0x12
 3850 0261 06       		.uleb128 0x6
 3851 0262 40       		.uleb128 0x40
 3852 0263 18       		.uleb128 0x18
 3853 0264 9742     		.uleb128 0x2117
 3854 0266 19       		.uleb128 0x19
 3855 0267 01       		.uleb128 0x1
 3856 0268 13       		.uleb128 0x13
 3857 0269 00       		.byte	0
 3858 026a 00       		.byte	0
 3859 026b 30       		.uleb128 0x30
 3860 026c 05       		.uleb128 0x5
 3861 026d 00       		.byte	0
 3862 026e 03       		.uleb128 0x3
 3863 026f 0E       		.uleb128 0xe
 3864 0270 3A       		.uleb128 0x3a
 3865 0271 0B       		.uleb128 0xb
 3866 0272 3B       		.uleb128 0x3b
 3867 0273 05       		.uleb128 0x5
 3868 0274 49       		.uleb128 0x49
 3869 0275 13       		.uleb128 0x13
 3870 0276 02       		.uleb128 0x2
 3871 0277 17       		.uleb128 0x17
 3872 0278 00       		.byte	0
 3873 0279 00       		.byte	0
 3874 027a 31       		.uleb128 0x31
 3875 027b 34       		.uleb128 0x34
 3876 027c 00       		.byte	0
 3877 027d 03       		.uleb128 0x3
 3878 027e 0E       		.uleb128 0xe
 3879 027f 49       		.uleb128 0x49
 3880 0280 13       		.uleb128 0x13
 3881 0281 34       		.uleb128 0x34
 3882 0282 19       		.uleb128 0x19
 3883 0283 02       		.uleb128 0x2
 3884 0284 18       		.uleb128 0x18
 3885 0285 00       		.byte	0
 3886 0286 00       		.byte	0
 3887 0287 32       		.uleb128 0x32
 3888 0288 05       		.uleb128 0x5
 3889 0289 00       		.byte	0
 3890 028a 03       		.uleb128 0x3
 3891 028b 0E       		.uleb128 0xe
 3892 028c 3A       		.uleb128 0x3a
 3893 028d 0B       		.uleb128 0xb
 3894 028e 3B       		.uleb128 0x3b
 3895 028f 05       		.uleb128 0x5
 3896 0290 49       		.uleb128 0x49
 3897 0291 13       		.uleb128 0x13
ARM GAS  /tmp/ccGznRlG.s 			page 70


 3898 0292 02       		.uleb128 0x2
 3899 0293 18       		.uleb128 0x18
 3900 0294 00       		.byte	0
 3901 0295 00       		.byte	0
 3902 0296 33       		.uleb128 0x33
 3903 0297 2E       		.uleb128 0x2e
 3904 0298 01       		.byte	0x1
 3905 0299 3F       		.uleb128 0x3f
 3906 029a 19       		.uleb128 0x19
 3907 029b 03       		.uleb128 0x3
 3908 029c 0E       		.uleb128 0xe
 3909 029d 3A       		.uleb128 0x3a
 3910 029e 0B       		.uleb128 0xb
 3911 029f 3B       		.uleb128 0x3b
 3912 02a0 05       		.uleb128 0x5
 3913 02a1 27       		.uleb128 0x27
 3914 02a2 19       		.uleb128 0x19
 3915 02a3 49       		.uleb128 0x49
 3916 02a4 13       		.uleb128 0x13
 3917 02a5 11       		.uleb128 0x11
 3918 02a6 01       		.uleb128 0x1
 3919 02a7 12       		.uleb128 0x12
 3920 02a8 06       		.uleb128 0x6
 3921 02a9 40       		.uleb128 0x40
 3922 02aa 18       		.uleb128 0x18
 3923 02ab 9742     		.uleb128 0x2117
 3924 02ad 19       		.uleb128 0x19
 3925 02ae 01       		.uleb128 0x1
 3926 02af 13       		.uleb128 0x13
 3927 02b0 00       		.byte	0
 3928 02b1 00       		.byte	0
 3929 02b2 34       		.uleb128 0x34
 3930 02b3 34       		.uleb128 0x34
 3931 02b4 00       		.byte	0
 3932 02b5 03       		.uleb128 0x3
 3933 02b6 0E       		.uleb128 0xe
 3934 02b7 3A       		.uleb128 0x3a
 3935 02b8 0B       		.uleb128 0xb
 3936 02b9 3B       		.uleb128 0x3b
 3937 02ba 05       		.uleb128 0x5
 3938 02bb 49       		.uleb128 0x49
 3939 02bc 13       		.uleb128 0x13
 3940 02bd 02       		.uleb128 0x2
 3941 02be 17       		.uleb128 0x17
 3942 02bf 00       		.byte	0
 3943 02c0 00       		.byte	0
 3944 02c1 35       		.uleb128 0x35
 3945 02c2 34       		.uleb128 0x34
 3946 02c3 00       		.byte	0
 3947 02c4 03       		.uleb128 0x3
 3948 02c5 0E       		.uleb128 0xe
 3949 02c6 3A       		.uleb128 0x3a
 3950 02c7 0B       		.uleb128 0xb
 3951 02c8 3B       		.uleb128 0x3b
 3952 02c9 05       		.uleb128 0x5
 3953 02ca 49       		.uleb128 0x49
 3954 02cb 13       		.uleb128 0x13
ARM GAS  /tmp/ccGznRlG.s 			page 71


 3955 02cc 3F       		.uleb128 0x3f
 3956 02cd 19       		.uleb128 0x19
 3957 02ce 3C       		.uleb128 0x3c
 3958 02cf 19       		.uleb128 0x19
 3959 02d0 00       		.byte	0
 3960 02d1 00       		.byte	0
 3961 02d2 36       		.uleb128 0x36
 3962 02d3 34       		.uleb128 0x34
 3963 02d4 00       		.byte	0
 3964 02d5 03       		.uleb128 0x3
 3965 02d6 08       		.uleb128 0x8
 3966 02d7 3A       		.uleb128 0x3a
 3967 02d8 0B       		.uleb128 0xb
 3968 02d9 3B       		.uleb128 0x3b
 3969 02da 0B       		.uleb128 0xb
 3970 02db 49       		.uleb128 0x49
 3971 02dc 13       		.uleb128 0x13
 3972 02dd 3F       		.uleb128 0x3f
 3973 02de 19       		.uleb128 0x19
 3974 02df 3C       		.uleb128 0x3c
 3975 02e0 19       		.uleb128 0x19
 3976 02e1 00       		.byte	0
 3977 02e2 00       		.byte	0
 3978 02e3 37       		.uleb128 0x37
 3979 02e4 2E       		.uleb128 0x2e
 3980 02e5 01       		.byte	0x1
 3981 02e6 3F       		.uleb128 0x3f
 3982 02e7 19       		.uleb128 0x19
 3983 02e8 03       		.uleb128 0x3
 3984 02e9 0E       		.uleb128 0xe
 3985 02ea 3A       		.uleb128 0x3a
 3986 02eb 0B       		.uleb128 0xb
 3987 02ec 3B       		.uleb128 0x3b
 3988 02ed 0B       		.uleb128 0xb
 3989 02ee 27       		.uleb128 0x27
 3990 02ef 19       		.uleb128 0x19
 3991 02f0 3C       		.uleb128 0x3c
 3992 02f1 19       		.uleb128 0x19
 3993 02f2 01       		.uleb128 0x1
 3994 02f3 13       		.uleb128 0x13
 3995 02f4 00       		.byte	0
 3996 02f5 00       		.byte	0
 3997 02f6 38       		.uleb128 0x38
 3998 02f7 18       		.uleb128 0x18
 3999 02f8 00       		.byte	0
 4000 02f9 00       		.byte	0
 4001 02fa 00       		.byte	0
 4002 02fb 39       		.uleb128 0x39
 4003 02fc 2E       		.uleb128 0x2e
 4004 02fd 01       		.byte	0x1
 4005 02fe 3F       		.uleb128 0x3f
 4006 02ff 19       		.uleb128 0x19
 4007 0300 03       		.uleb128 0x3
 4008 0301 0E       		.uleb128 0xe
 4009 0302 3A       		.uleb128 0x3a
 4010 0303 0B       		.uleb128 0xb
 4011 0304 3B       		.uleb128 0x3b
ARM GAS  /tmp/ccGznRlG.s 			page 72


 4012 0305 0B       		.uleb128 0xb
 4013 0306 27       		.uleb128 0x27
 4014 0307 19       		.uleb128 0x19
 4015 0308 3C       		.uleb128 0x3c
 4016 0309 19       		.uleb128 0x19
 4017 030a 00       		.byte	0
 4018 030b 00       		.byte	0
 4019 030c 00       		.byte	0
 4020              		.section	.debug_loc,"",%progbits
 4021              	.Ldebug_loc0:
 4022              	.LLST0:
 4023 0000 00000000 		.4byte	.LVL0
 4024 0004 40000000 		.4byte	.LVL2
 4025 0008 0100     		.2byte	0x1
 4026 000a 50       		.byte	0x50
 4027 000b 40000000 		.4byte	.LVL2
 4028 000f 46000000 		.4byte	.LVL3
 4029 0013 0400     		.2byte	0x4
 4030 0015 F3       		.byte	0xf3
 4031 0016 01       		.uleb128 0x1
 4032 0017 50       		.byte	0x50
 4033 0018 9F       		.byte	0x9f
 4034 0019 46000000 		.4byte	.LVL3
 4035 001d 4A000000 		.4byte	.LVL4
 4036 0021 0100     		.2byte	0x1
 4037 0023 50       		.byte	0x50
 4038 0024 4A000000 		.4byte	.LVL4
 4039 0028 4C000000 		.4byte	.LVL5
 4040 002c 0400     		.2byte	0x4
 4041 002e F3       		.byte	0xf3
 4042 002f 01       		.uleb128 0x1
 4043 0030 50       		.byte	0x50
 4044 0031 9F       		.byte	0x9f
 4045 0032 4C000000 		.4byte	.LVL5
 4046 0036 4E000000 		.4byte	.LVL6
 4047 003a 0100     		.2byte	0x1
 4048 003c 50       		.byte	0x50
 4049 003d 4E000000 		.4byte	.LVL6
 4050 0041 50000000 		.4byte	.LVL7
 4051 0045 0400     		.2byte	0x4
 4052 0047 F3       		.byte	0xf3
 4053 0048 01       		.uleb128 0x1
 4054 0049 50       		.byte	0x50
 4055 004a 9F       		.byte	0x9f
 4056 004b 50000000 		.4byte	.LVL7
 4057 004f 52000000 		.4byte	.LVL8
 4058 0053 0100     		.2byte	0x1
 4059 0055 50       		.byte	0x50
 4060 0056 52000000 		.4byte	.LVL8
 4061 005a 54000000 		.4byte	.LVL9
 4062 005e 0400     		.2byte	0x4
 4063 0060 F3       		.byte	0xf3
 4064 0061 01       		.uleb128 0x1
 4065 0062 50       		.byte	0x50
 4066 0063 9F       		.byte	0x9f
 4067 0064 54000000 		.4byte	.LVL9
 4068 0068 56000000 		.4byte	.LVL10
ARM GAS  /tmp/ccGznRlG.s 			page 73


 4069 006c 0100     		.2byte	0x1
 4070 006e 50       		.byte	0x50
 4071 006f 56000000 		.4byte	.LVL10
 4072 0073 58000000 		.4byte	.LVL11
 4073 0077 0400     		.2byte	0x4
 4074 0079 F3       		.byte	0xf3
 4075 007a 01       		.uleb128 0x1
 4076 007b 50       		.byte	0x50
 4077 007c 9F       		.byte	0x9f
 4078 007d 58000000 		.4byte	.LVL11
 4079 0081 5A000000 		.4byte	.LVL12
 4080 0085 0100     		.2byte	0x1
 4081 0087 50       		.byte	0x50
 4082 0088 5A000000 		.4byte	.LVL12
 4083 008c 5C000000 		.4byte	.LVL13
 4084 0090 0400     		.2byte	0x4
 4085 0092 F3       		.byte	0xf3
 4086 0093 01       		.uleb128 0x1
 4087 0094 50       		.byte	0x50
 4088 0095 9F       		.byte	0x9f
 4089 0096 5C000000 		.4byte	.LVL13
 4090 009a 5E000000 		.4byte	.LVL14
 4091 009e 0100     		.2byte	0x1
 4092 00a0 50       		.byte	0x50
 4093 00a1 5E000000 		.4byte	.LVL14
 4094 00a5 60000000 		.4byte	.LVL15
 4095 00a9 0400     		.2byte	0x4
 4096 00ab F3       		.byte	0xf3
 4097 00ac 01       		.uleb128 0x1
 4098 00ad 50       		.byte	0x50
 4099 00ae 9F       		.byte	0x9f
 4100 00af 60000000 		.4byte	.LVL15
 4101 00b3 62000000 		.4byte	.LVL16
 4102 00b7 0100     		.2byte	0x1
 4103 00b9 50       		.byte	0x50
 4104 00ba 62000000 		.4byte	.LVL16
 4105 00be 64000000 		.4byte	.LVL17
 4106 00c2 0400     		.2byte	0x4
 4107 00c4 F3       		.byte	0xf3
 4108 00c5 01       		.uleb128 0x1
 4109 00c6 50       		.byte	0x50
 4110 00c7 9F       		.byte	0x9f
 4111 00c8 64000000 		.4byte	.LVL17
 4112 00cc 66000000 		.4byte	.LVL18
 4113 00d0 0100     		.2byte	0x1
 4114 00d2 50       		.byte	0x50
 4115 00d3 66000000 		.4byte	.LVL18
 4116 00d7 68000000 		.4byte	.LVL19
 4117 00db 0400     		.2byte	0x4
 4118 00dd F3       		.byte	0xf3
 4119 00de 01       		.uleb128 0x1
 4120 00df 50       		.byte	0x50
 4121 00e0 9F       		.byte	0x9f
 4122 00e1 68000000 		.4byte	.LVL19
 4123 00e5 6C000000 		.4byte	.LVL20
 4124 00e9 0100     		.2byte	0x1
 4125 00eb 50       		.byte	0x50
ARM GAS  /tmp/ccGznRlG.s 			page 74


 4126 00ec 6C000000 		.4byte	.LVL20
 4127 00f0 6E000000 		.4byte	.LVL21
 4128 00f4 0400     		.2byte	0x4
 4129 00f6 F3       		.byte	0xf3
 4130 00f7 01       		.uleb128 0x1
 4131 00f8 50       		.byte	0x50
 4132 00f9 9F       		.byte	0x9f
 4133 00fa 6E000000 		.4byte	.LVL21
 4134 00fe 72000000 		.4byte	.LVL22
 4135 0102 0100     		.2byte	0x1
 4136 0104 50       		.byte	0x50
 4137 0105 72000000 		.4byte	.LVL22
 4138 0109 74000000 		.4byte	.LVL23
 4139 010d 0400     		.2byte	0x4
 4140 010f F3       		.byte	0xf3
 4141 0110 01       		.uleb128 0x1
 4142 0111 50       		.byte	0x50
 4143 0112 9F       		.byte	0x9f
 4144 0113 74000000 		.4byte	.LVL23
 4145 0117 78000000 		.4byte	.LVL24
 4146 011b 0100     		.2byte	0x1
 4147 011d 50       		.byte	0x50
 4148 011e 78000000 		.4byte	.LVL24
 4149 0122 7A000000 		.4byte	.LVL25
 4150 0126 0400     		.2byte	0x4
 4151 0128 F3       		.byte	0xf3
 4152 0129 01       		.uleb128 0x1
 4153 012a 50       		.byte	0x50
 4154 012b 9F       		.byte	0x9f
 4155 012c 7A000000 		.4byte	.LVL25
 4156 0130 7E000000 		.4byte	.LVL26
 4157 0134 0100     		.2byte	0x1
 4158 0136 50       		.byte	0x50
 4159 0137 7E000000 		.4byte	.LVL26
 4160 013b 80000000 		.4byte	.LVL27
 4161 013f 0400     		.2byte	0x4
 4162 0141 F3       		.byte	0xf3
 4163 0142 01       		.uleb128 0x1
 4164 0143 50       		.byte	0x50
 4165 0144 9F       		.byte	0x9f
 4166 0145 80000000 		.4byte	.LVL27
 4167 0149 84000000 		.4byte	.LVL28
 4168 014d 0100     		.2byte	0x1
 4169 014f 50       		.byte	0x50
 4170 0150 84000000 		.4byte	.LVL28
 4171 0154 86000000 		.4byte	.LVL29
 4172 0158 0400     		.2byte	0x4
 4173 015a F3       		.byte	0xf3
 4174 015b 01       		.uleb128 0x1
 4175 015c 50       		.byte	0x50
 4176 015d 9F       		.byte	0x9f
 4177 015e 86000000 		.4byte	.LVL29
 4178 0162 8A000000 		.4byte	.LVL30
 4179 0166 0100     		.2byte	0x1
 4180 0168 50       		.byte	0x50
 4181 0169 8A000000 		.4byte	.LVL30
 4182 016d 8C000000 		.4byte	.LFE43
ARM GAS  /tmp/ccGznRlG.s 			page 75


 4183 0171 0400     		.2byte	0x4
 4184 0173 F3       		.byte	0xf3
 4185 0174 01       		.uleb128 0x1
 4186 0175 50       		.byte	0x50
 4187 0176 9F       		.byte	0x9f
 4188 0177 00000000 		.4byte	0
 4189 017b 00000000 		.4byte	0
 4190              	.LLST1:
 4191 017f 00000000 		.4byte	.LVL0
 4192 0183 4A000000 		.4byte	.LVL4
 4193 0187 0200     		.2byte	0x2
 4194 0189 30       		.byte	0x30
 4195 018a 9F       		.byte	0x9f
 4196 018b 4A000000 		.4byte	.LVL4
 4197 018f 4C000000 		.4byte	.LVL5
 4198 0193 0100     		.2byte	0x1
 4199 0195 50       		.byte	0x50
 4200 0196 4C000000 		.4byte	.LVL5
 4201 019a 8C000000 		.4byte	.LFE43
 4202 019e 0200     		.2byte	0x2
 4203 01a0 30       		.byte	0x30
 4204 01a1 9F       		.byte	0x9f
 4205 01a2 00000000 		.4byte	0
 4206 01a6 00000000 		.4byte	0
 4207              	.LLST2:
 4208 01aa 36000000 		.4byte	.LVL1
 4209 01ae 40000000 		.4byte	.LVL2
 4210 01b2 0100     		.2byte	0x1
 4211 01b4 50       		.byte	0x50
 4212 01b5 40000000 		.4byte	.LVL2
 4213 01b9 46000000 		.4byte	.LVL3
 4214 01bd 0400     		.2byte	0x4
 4215 01bf F3       		.byte	0xf3
 4216 01c0 01       		.uleb128 0x1
 4217 01c1 50       		.byte	0x50
 4218 01c2 9F       		.byte	0x9f
 4219 01c3 46000000 		.4byte	.LVL3
 4220 01c7 4A000000 		.4byte	.LVL4
 4221 01cb 0100     		.2byte	0x1
 4222 01cd 50       		.byte	0x50
 4223 01ce 00000000 		.4byte	0
 4224 01d2 00000000 		.4byte	0
 4225              	.LLST3:
 4226 01d6 00000000 		.4byte	.LVL32
 4227 01da 02000000 		.4byte	.LVL33
 4228 01de 0100     		.2byte	0x1
 4229 01e0 51       		.byte	0x51
 4230 01e1 02000000 		.4byte	.LVL33
 4231 01e5 0A000000 		.4byte	.LFE37
 4232 01e9 0400     		.2byte	0x4
 4233 01eb F3       		.byte	0xf3
 4234 01ec 01       		.uleb128 0x1
 4235 01ed 51       		.byte	0x51
 4236 01ee 9F       		.byte	0x9f
 4237 01ef 00000000 		.4byte	0
 4238 01f3 00000000 		.4byte	0
 4239              	.LLST4:
ARM GAS  /tmp/ccGznRlG.s 			page 76


 4240 01f7 00000000 		.4byte	.LVL34
 4241 01fb 04000000 		.4byte	.LVL35
 4242 01ff 0100     		.2byte	0x1
 4243 0201 51       		.byte	0x51
 4244 0202 04000000 		.4byte	.LVL35
 4245 0206 14000000 		.4byte	.LFE38
 4246 020a 0400     		.2byte	0x4
 4247 020c F3       		.byte	0xf3
 4248 020d 01       		.uleb128 0x1
 4249 020e 51       		.byte	0x51
 4250 020f 9F       		.byte	0x9f
 4251 0210 00000000 		.4byte	0
 4252 0214 00000000 		.4byte	0
 4253              	.LLST5:
 4254 0218 00000000 		.4byte	.LVL34
 4255 021c 0A000000 		.4byte	.LVL36
 4256 0220 0100     		.2byte	0x1
 4257 0222 52       		.byte	0x52
 4258 0223 0A000000 		.4byte	.LVL36
 4259 0227 14000000 		.4byte	.LFE38
 4260 022b 0400     		.2byte	0x4
 4261 022d F3       		.byte	0xf3
 4262 022e 01       		.uleb128 0x1
 4263 022f 52       		.byte	0x52
 4264 0230 9F       		.byte	0x9f
 4265 0231 00000000 		.4byte	0
 4266 0235 00000000 		.4byte	0
 4267              	.LLST6:
 4268 0239 00000000 		.4byte	.LVL37
 4269 023d 10000000 		.4byte	.LVL40
 4270 0241 0100     		.2byte	0x1
 4271 0243 51       		.byte	0x51
 4272 0244 10000000 		.4byte	.LVL40
 4273 0248 22000000 		.4byte	.LFE39
 4274 024c 0400     		.2byte	0x4
 4275 024e F3       		.byte	0xf3
 4276 024f 01       		.uleb128 0x1
 4277 0250 51       		.byte	0x51
 4278 0251 9F       		.byte	0x9f
 4279 0252 00000000 		.4byte	0
 4280 0256 00000000 		.4byte	0
 4281              	.LLST7:
 4282 025a 00000000 		.4byte	.LVL37
 4283 025e 0A000000 		.4byte	.LVL39
 4284 0262 0100     		.2byte	0x1
 4285 0264 52       		.byte	0x52
 4286 0265 0A000000 		.4byte	.LVL39
 4287 0269 22000000 		.4byte	.LFE39
 4288 026d 0400     		.2byte	0x4
 4289 026f F3       		.byte	0xf3
 4290 0270 01       		.uleb128 0x1
 4291 0271 52       		.byte	0x52
 4292 0272 9F       		.byte	0x9f
 4293 0273 00000000 		.4byte	0
 4294 0277 00000000 		.4byte	0
 4295              	.LLST8:
 4296 027b 00000000 		.4byte	.LVL37
ARM GAS  /tmp/ccGznRlG.s 			page 77


 4297 027f 04000000 		.4byte	.LVL38
 4298 0283 0100     		.2byte	0x1
 4299 0285 53       		.byte	0x53
 4300 0286 04000000 		.4byte	.LVL38
 4301 028a 22000000 		.4byte	.LFE39
 4302 028e 0400     		.2byte	0x4
 4303 0290 F3       		.byte	0xf3
 4304 0291 01       		.uleb128 0x1
 4305 0292 53       		.byte	0x53
 4306 0293 9F       		.byte	0x9f
 4307 0294 00000000 		.4byte	0
 4308 0298 00000000 		.4byte	0
 4309              	.LLST9:
 4310 029c 00000000 		.4byte	.LVL41
 4311 02a0 04000000 		.4byte	.LVL42
 4312 02a4 0100     		.2byte	0x1
 4313 02a6 51       		.byte	0x51
 4314 02a7 04000000 		.4byte	.LVL42
 4315 02ab 0E000000 		.4byte	.LFE40
 4316 02af 0400     		.2byte	0x4
 4317 02b1 F3       		.byte	0xf3
 4318 02b2 01       		.uleb128 0x1
 4319 02b3 51       		.byte	0x51
 4320 02b4 9F       		.byte	0x9f
 4321 02b5 00000000 		.4byte	0
 4322 02b9 00000000 		.4byte	0
 4323              	.LLST10:
 4324 02bd 00000000 		.4byte	.LVL43
 4325 02c1 0A000000 		.4byte	.LVL45
 4326 02c5 0100     		.2byte	0x1
 4327 02c7 51       		.byte	0x51
 4328 02c8 0A000000 		.4byte	.LVL45
 4329 02cc 16000000 		.4byte	.LFE41
 4330 02d0 0400     		.2byte	0x4
 4331 02d2 F3       		.byte	0xf3
 4332 02d3 01       		.uleb128 0x1
 4333 02d4 51       		.byte	0x51
 4334 02d5 9F       		.byte	0x9f
 4335 02d6 00000000 		.4byte	0
 4336 02da 00000000 		.4byte	0
 4337              	.LLST11:
 4338 02de 00000000 		.4byte	.LVL43
 4339 02e2 04000000 		.4byte	.LVL44
 4340 02e6 0100     		.2byte	0x1
 4341 02e8 52       		.byte	0x52
 4342 02e9 04000000 		.4byte	.LVL44
 4343 02ed 16000000 		.4byte	.LFE41
 4344 02f1 0400     		.2byte	0x4
 4345 02f3 F3       		.byte	0xf3
 4346 02f4 01       		.uleb128 0x1
 4347 02f5 52       		.byte	0x52
 4348 02f6 9F       		.byte	0x9f
 4349 02f7 00000000 		.4byte	0
 4350 02fb 00000000 		.4byte	0
 4351              	.LLST12:
 4352 02ff 00000000 		.4byte	.LVL46
 4353 0303 06000000 		.4byte	.LVL47
ARM GAS  /tmp/ccGznRlG.s 			page 78


 4354 0307 0100     		.2byte	0x1
 4355 0309 51       		.byte	0x51
 4356 030a 06000000 		.4byte	.LVL47
 4357 030e 0A000000 		.4byte	.LFE42
 4358 0312 0400     		.2byte	0x4
 4359 0314 F3       		.byte	0xf3
 4360 0315 01       		.uleb128 0x1
 4361 0316 51       		.byte	0x51
 4362 0317 9F       		.byte	0x9f
 4363 0318 00000000 		.4byte	0
 4364 031c 00000000 		.4byte	0
 4365              	.LLST13:
 4366 0320 00000000 		.4byte	.LVL48
 4367 0324 14000000 		.4byte	.LVL52
 4368 0328 0100     		.2byte	0x1
 4369 032a 50       		.byte	0x50
 4370 032b 14000000 		.4byte	.LVL52
 4371 032f 8E000000 		.4byte	.LVL63
 4372 0333 0100     		.2byte	0x1
 4373 0335 56       		.byte	0x56
 4374 0336 8E000000 		.4byte	.LVL63
 4375 033a 9A000000 		.4byte	.LVL64
 4376 033e 0400     		.2byte	0x4
 4377 0340 F3       		.byte	0xf3
 4378 0341 01       		.uleb128 0x1
 4379 0342 50       		.byte	0x50
 4380 0343 9F       		.byte	0x9f
 4381 0344 9A000000 		.4byte	.LVL64
 4382 0348 B4000000 		.4byte	.LVL68
 4383 034c 0100     		.2byte	0x1
 4384 034e 56       		.byte	0x56
 4385 034f B4000000 		.4byte	.LVL68
 4386 0353 BE000000 		.4byte	.LVL69
 4387 0357 0400     		.2byte	0x4
 4388 0359 F3       		.byte	0xf3
 4389 035a 01       		.uleb128 0x1
 4390 035b 50       		.byte	0x50
 4391 035c 9F       		.byte	0x9f
 4392 035d BE000000 		.4byte	.LVL69
 4393 0361 F8000000 		.4byte	.LFE44
 4394 0365 0100     		.2byte	0x1
 4395 0367 56       		.byte	0x56
 4396 0368 00000000 		.4byte	0
 4397 036c 00000000 		.4byte	0
 4398              	.LLST14:
 4399 0370 00000000 		.4byte	.LVL48
 4400 0374 16000000 		.4byte	.LVL53
 4401 0378 0100     		.2byte	0x1
 4402 037a 51       		.byte	0x51
 4403 037b 16000000 		.4byte	.LVL53
 4404 037f F8000000 		.4byte	.LFE44
 4405 0383 0400     		.2byte	0x4
 4406 0385 F3       		.byte	0xf3
 4407 0386 01       		.uleb128 0x1
 4408 0387 51       		.byte	0x51
 4409 0388 9F       		.byte	0x9f
 4410 0389 00000000 		.4byte	0
ARM GAS  /tmp/ccGznRlG.s 			page 79


 4411 038d 00000000 		.4byte	0
 4412              	.LLST15:
 4413 0391 12000000 		.4byte	.LVL51
 4414 0395 44000000 		.4byte	.LVL57
 4415 0399 0100     		.2byte	0x1
 4416 039b 54       		.byte	0x54
 4417 039c 58000000 		.4byte	.LVL59
 4418 03a0 84000000 		.4byte	.LVL62
 4419 03a4 0100     		.2byte	0x1
 4420 03a6 54       		.byte	0x54
 4421 03a7 9A000000 		.4byte	.LVL64
 4422 03ab AE000000 		.4byte	.LVL67
 4423 03af 0100     		.2byte	0x1
 4424 03b1 54       		.byte	0x54
 4425 03b2 BE000000 		.4byte	.LVL69
 4426 03b6 F8000000 		.4byte	.LFE44
 4427 03ba 0100     		.2byte	0x1
 4428 03bc 54       		.byte	0x54
 4429 03bd 00000000 		.4byte	0
 4430 03c1 00000000 		.4byte	0
 4431              	.LLST16:
 4432 03c5 04000000 		.4byte	.LVL49
 4433 03c9 0A000000 		.4byte	.LVL50
 4434 03cd 0900     		.2byte	0x9
 4435 03cf 74       		.byte	0x74
 4436 03d0 00       		.sleb128 0
 4437 03d1 0A       		.byte	0xa
 4438 03d2 00FF     		.2byte	0xff00
 4439 03d4 1A       		.byte	0x1a
 4440 03d5 38       		.byte	0x38
 4441 03d6 25       		.byte	0x25
 4442 03d7 9F       		.byte	0x9f
 4443 03d8 00000000 		.4byte	0
 4444 03dc 00000000 		.4byte	0
 4445              	.LLST17:
 4446 03e0 2E000000 		.4byte	.LVL55
 4447 03e4 38000000 		.4byte	.LVL56
 4448 03e8 0100     		.2byte	0x1
 4449 03ea 55       		.byte	0x55
 4450 03eb A6000000 		.4byte	.LVL66
 4451 03ef AE000000 		.4byte	.LVL67
 4452 03f3 0900     		.2byte	0x9
 4453 03f5 75       		.byte	0x75
 4454 03f6 00       		.sleb128 0
 4455 03f7 4E       		.byte	0x4e
 4456 03f8 3F       		.byte	0x3f
 4457 03f9 24       		.byte	0x24
 4458 03fa 1A       		.byte	0x1a
 4459 03fb 40       		.byte	0x40
 4460 03fc 25       		.byte	0x25
 4461 03fd 9F       		.byte	0x9f
 4462 03fe BE000000 		.4byte	.LVL69
 4463 0402 C4000000 		.4byte	.LVL70
 4464 0406 0900     		.2byte	0x9
 4465 0408 75       		.byte	0x75
 4466 0409 00       		.sleb128 0
 4467 040a 4E       		.byte	0x4e
ARM GAS  /tmp/ccGznRlG.s 			page 80


 4468 040b 3F       		.byte	0x3f
 4469 040c 24       		.byte	0x24
 4470 040d 1A       		.byte	0x1a
 4471 040e 40       		.byte	0x40
 4472 040f 25       		.byte	0x25
 4473 0410 9F       		.byte	0x9f
 4474 0411 00000000 		.4byte	0
 4475 0415 00000000 		.4byte	0
 4476              	.LLST18:
 4477 0419 00000000 		.4byte	.LVL72
 4478 041d 0A000000 		.4byte	.LVL74
 4479 0421 0100     		.2byte	0x1
 4480 0423 50       		.byte	0x50
 4481 0424 0A000000 		.4byte	.LVL74
 4482 0428 0E000000 		.4byte	.LFE45
 4483 042c 0400     		.2byte	0x4
 4484 042e F3       		.byte	0xf3
 4485 042f 01       		.uleb128 0x1
 4486 0430 50       		.byte	0x50
 4487 0431 9F       		.byte	0x9f
 4488 0432 00000000 		.4byte	0
 4489 0436 00000000 		.4byte	0
 4490              	.LLST19:
 4491 043a 00000000 		.4byte	.LVL72
 4492 043e 06000000 		.4byte	.LVL73
 4493 0442 0100     		.2byte	0x1
 4494 0444 51       		.byte	0x51
 4495 0445 06000000 		.4byte	.LVL73
 4496 0449 0E000000 		.4byte	.LFE45
 4497 044d 0400     		.2byte	0x4
 4498 044f F3       		.byte	0xf3
 4499 0450 01       		.uleb128 0x1
 4500 0451 51       		.byte	0x51
 4501 0452 9F       		.byte	0x9f
 4502 0453 00000000 		.4byte	0
 4503 0457 00000000 		.4byte	0
 4504              	.LLST20:
 4505 045b 00000000 		.4byte	.LVL72
 4506 045f 0A000000 		.4byte	.LVL74
 4507 0463 0200     		.2byte	0x2
 4508 0465 30       		.byte	0x30
 4509 0466 9F       		.byte	0x9f
 4510 0467 0A000000 		.4byte	.LVL74
 4511 046b 0E000000 		.4byte	.LFE45
 4512 046f 0100     		.2byte	0x1
 4513 0471 50       		.byte	0x50
 4514 0472 00000000 		.4byte	0
 4515 0476 00000000 		.4byte	0
 4516              	.LLST21:
 4517 047a 00000000 		.4byte	.LVL76
 4518 047e 2C000000 		.4byte	.LVL79
 4519 0482 0100     		.2byte	0x1
 4520 0484 50       		.byte	0x50
 4521 0485 2C000000 		.4byte	.LVL79
 4522 0489 44000000 		.4byte	.LFE46
 4523 048d 0400     		.2byte	0x4
 4524 048f F3       		.byte	0xf3
ARM GAS  /tmp/ccGznRlG.s 			page 81


 4525 0490 01       		.uleb128 0x1
 4526 0491 50       		.byte	0x50
 4527 0492 9F       		.byte	0x9f
 4528 0493 00000000 		.4byte	0
 4529 0497 00000000 		.4byte	0
 4530              	.LLST22:
 4531 049b 00000000 		.4byte	.LVL76
 4532 049f 26000000 		.4byte	.LVL77
 4533 04a3 0100     		.2byte	0x1
 4534 04a5 51       		.byte	0x51
 4535 04a6 26000000 		.4byte	.LVL77
 4536 04aa 2A000000 		.4byte	.LVL78
 4537 04ae 0400     		.2byte	0x4
 4538 04b0 F3       		.byte	0xf3
 4539 04b1 01       		.uleb128 0x1
 4540 04b2 51       		.byte	0x51
 4541 04b3 9F       		.byte	0x9f
 4542 04b4 2A000000 		.4byte	.LVL78
 4543 04b8 30000000 		.4byte	.LVL80
 4544 04bc 0100     		.2byte	0x1
 4545 04be 51       		.byte	0x51
 4546 04bf 30000000 		.4byte	.LVL80
 4547 04c3 44000000 		.4byte	.LFE46
 4548 04c7 0400     		.2byte	0x4
 4549 04c9 F3       		.byte	0xf3
 4550 04ca 01       		.uleb128 0x1
 4551 04cb 51       		.byte	0x51
 4552 04cc 9F       		.byte	0x9f
 4553 04cd 00000000 		.4byte	0
 4554 04d1 00000000 		.4byte	0
 4555              	.LLST23:
 4556 04d5 00000000 		.4byte	.LVL82
 4557 04d9 06000000 		.4byte	.LVL83
 4558 04dd 0100     		.2byte	0x1
 4559 04df 51       		.byte	0x51
 4560 04e0 06000000 		.4byte	.LVL83
 4561 04e4 14000000 		.4byte	.LFE47
 4562 04e8 0400     		.2byte	0x4
 4563 04ea F3       		.byte	0xf3
 4564 04eb 01       		.uleb128 0x1
 4565 04ec 51       		.byte	0x51
 4566 04ed 9F       		.byte	0x9f
 4567 04ee 00000000 		.4byte	0
 4568 04f2 00000000 		.4byte	0
 4569              	.LLST24:
 4570 04f6 00000000 		.4byte	.LVL85
 4571 04fa 02000000 		.4byte	.LVL86
 4572 04fe 0100     		.2byte	0x1
 4573 0500 50       		.byte	0x50
 4574 0501 02000000 		.4byte	.LVL86
 4575 0505 06000000 		.4byte	.LFE49
 4576 0509 0400     		.2byte	0x4
 4577 050b F3       		.byte	0xf3
 4578 050c 01       		.uleb128 0x1
 4579 050d 50       		.byte	0x50
 4580 050e 9F       		.byte	0x9f
 4581 050f 00000000 		.4byte	0
ARM GAS  /tmp/ccGznRlG.s 			page 82


 4582 0513 00000000 		.4byte	0
 4583              	.LLST25:
 4584 0517 00000000 		.4byte	.LVL87
 4585 051b 02000000 		.4byte	.LVL88
 4586 051f 0100     		.2byte	0x1
 4587 0521 50       		.byte	0x50
 4588 0522 02000000 		.4byte	.LVL88
 4589 0526 06000000 		.4byte	.LFE50
 4590 052a 0400     		.2byte	0x4
 4591 052c F3       		.byte	0xf3
 4592 052d 01       		.uleb128 0x1
 4593 052e 50       		.byte	0x50
 4594 052f 9F       		.byte	0x9f
 4595 0530 00000000 		.4byte	0
 4596 0534 00000000 		.4byte	0
 4597              	.LLST26:
 4598 0538 00000000 		.4byte	.LVL89
 4599 053c 06000000 		.4byte	.LVL91
 4600 0540 0100     		.2byte	0x1
 4601 0542 50       		.byte	0x50
 4602 0543 06000000 		.4byte	.LVL91
 4603 0547 10000000 		.4byte	.LFE51
 4604 054b 0400     		.2byte	0x4
 4605 054d F3       		.byte	0xf3
 4606 054e 01       		.uleb128 0x1
 4607 054f 50       		.byte	0x50
 4608 0550 9F       		.byte	0x9f
 4609 0551 00000000 		.4byte	0
 4610 0555 00000000 		.4byte	0
 4611              	.LLST27:
 4612 0559 04000000 		.4byte	.LVL90
 4613 055d 06000000 		.4byte	.LVL91
 4614 0561 0C00     		.2byte	0xc
 4615 0563 73       		.byte	0x73
 4616 0564 00       		.sleb128 0
 4617 0565 73       		.byte	0x73
 4618 0566 00       		.sleb128 0
 4619 0567 70       		.byte	0x70
 4620 0568 00       		.sleb128 0
 4621 0569 1A       		.byte	0x1a
 4622 056a 29       		.byte	0x29
 4623 056b 08       		.byte	0x8
 4624 056c FF       		.byte	0xff
 4625 056d 1A       		.byte	0x1a
 4626 056e 9F       		.byte	0x9f
 4627 056f 06000000 		.4byte	.LVL91
 4628 0573 10000000 		.4byte	.LFE51
 4629 0577 0D00     		.2byte	0xd
 4630 0579 73       		.byte	0x73
 4631 057a 00       		.sleb128 0
 4632 057b 73       		.byte	0x73
 4633 057c 00       		.sleb128 0
 4634 057d F3       		.byte	0xf3
 4635 057e 01       		.uleb128 0x1
 4636 057f 50       		.byte	0x50
 4637 0580 1A       		.byte	0x1a
 4638 0581 29       		.byte	0x29
ARM GAS  /tmp/ccGznRlG.s 			page 83


 4639 0582 08       		.byte	0x8
 4640 0583 FF       		.byte	0xff
 4641 0584 1A       		.byte	0x1a
 4642 0585 9F       		.byte	0x9f
 4643 0586 00000000 		.4byte	0
 4644 058a 00000000 		.4byte	0
 4645              	.LLST28:
 4646 058e 00000000 		.4byte	.LVL92
 4647 0592 06000000 		.4byte	.LVL93
 4648 0596 0100     		.2byte	0x1
 4649 0598 50       		.byte	0x50
 4650 0599 06000000 		.4byte	.LVL93
 4651 059d 3C000000 		.4byte	.LFE52
 4652 05a1 0100     		.2byte	0x1
 4653 05a3 53       		.byte	0x53
 4654 05a4 00000000 		.4byte	0
 4655 05a8 00000000 		.4byte	0
 4656              		.section	.debug_aranges,"",%progbits
 4657 0000 9C000000 		.4byte	0x9c
 4658 0004 0200     		.2byte	0x2
 4659 0006 00000000 		.4byte	.Ldebug_info0
 4660 000a 04       		.byte	0x4
 4661 000b 00       		.byte	0
 4662 000c 0000     		.2byte	0
 4663 000e 0000     		.2byte	0
 4664 0010 00000000 		.4byte	.LFB43
 4665 0014 8C000000 		.4byte	.LFE43-.LFB43
 4666 0018 00000000 		.4byte	.LFB36
 4667 001c 30000000 		.4byte	.LFE36-.LFB36
 4668 0020 00000000 		.4byte	.LFB37
 4669 0024 0A000000 		.4byte	.LFE37-.LFB37
 4670 0028 00000000 		.4byte	.LFB38
 4671 002c 14000000 		.4byte	.LFE38-.LFB38
 4672 0030 00000000 		.4byte	.LFB39
 4673 0034 22000000 		.4byte	.LFE39-.LFB39
 4674 0038 00000000 		.4byte	.LFB40
 4675 003c 0E000000 		.4byte	.LFE40-.LFB40
 4676 0040 00000000 		.4byte	.LFB41
 4677 0044 16000000 		.4byte	.LFE41-.LFB41
 4678 0048 00000000 		.4byte	.LFB42
 4679 004c 0A000000 		.4byte	.LFE42-.LFB42
 4680 0050 00000000 		.4byte	.LFB44
 4681 0054 F8000000 		.4byte	.LFE44-.LFB44
 4682 0058 00000000 		.4byte	.LFB45
 4683 005c 0E000000 		.4byte	.LFE45-.LFB45
 4684 0060 00000000 		.4byte	.LFB46
 4685 0064 44000000 		.4byte	.LFE46-.LFB46
 4686 0068 00000000 		.4byte	.LFB47
 4687 006c 14000000 		.4byte	.LFE47-.LFB47
 4688 0070 00000000 		.4byte	.LFB48
 4689 0074 04000000 		.4byte	.LFE48-.LFB48
 4690 0078 00000000 		.4byte	.LFB49
 4691 007c 06000000 		.4byte	.LFE49-.LFB49
 4692 0080 00000000 		.4byte	.LFB50
 4693 0084 06000000 		.4byte	.LFE50-.LFB50
 4694 0088 00000000 		.4byte	.LFB51
 4695 008c 10000000 		.4byte	.LFE51-.LFB51
ARM GAS  /tmp/ccGznRlG.s 			page 84


 4696 0090 00000000 		.4byte	.LFB52
 4697 0094 3C000000 		.4byte	.LFE52-.LFB52
 4698 0098 00000000 		.4byte	0
 4699 009c 00000000 		.4byte	0
 4700              		.section	.debug_ranges,"",%progbits
 4701              	.Ldebug_ranges0:
 4702 0000 00000000 		.4byte	.LFB43
 4703 0004 8C000000 		.4byte	.LFE43
 4704 0008 00000000 		.4byte	.LFB36
 4705 000c 30000000 		.4byte	.LFE36
 4706 0010 00000000 		.4byte	.LFB37
 4707 0014 0A000000 		.4byte	.LFE37
 4708 0018 00000000 		.4byte	.LFB38
 4709 001c 14000000 		.4byte	.LFE38
 4710 0020 00000000 		.4byte	.LFB39
 4711 0024 22000000 		.4byte	.LFE39
 4712 0028 00000000 		.4byte	.LFB40
 4713 002c 0E000000 		.4byte	.LFE40
 4714 0030 00000000 		.4byte	.LFB41
 4715 0034 16000000 		.4byte	.LFE41
 4716 0038 00000000 		.4byte	.LFB42
 4717 003c 0A000000 		.4byte	.LFE42
 4718 0040 00000000 		.4byte	.LFB44
 4719 0044 F8000000 		.4byte	.LFE44
 4720 0048 00000000 		.4byte	.LFB45
 4721 004c 0E000000 		.4byte	.LFE45
 4722 0050 00000000 		.4byte	.LFB46
 4723 0054 44000000 		.4byte	.LFE46
 4724 0058 00000000 		.4byte	.LFB47
 4725 005c 14000000 		.4byte	.LFE47
 4726 0060 00000000 		.4byte	.LFB48
 4727 0064 04000000 		.4byte	.LFE48
 4728 0068 00000000 		.4byte	.LFB49
 4729 006c 06000000 		.4byte	.LFE49
 4730 0070 00000000 		.4byte	.LFB50
 4731 0074 06000000 		.4byte	.LFE50
 4732 0078 00000000 		.4byte	.LFB51
 4733 007c 10000000 		.4byte	.LFE51
 4734 0080 00000000 		.4byte	.LFB52
 4735 0084 3C000000 		.4byte	.LFE52
 4736 0088 00000000 		.4byte	0
 4737 008c 00000000 		.4byte	0
 4738              		.section	.debug_line,"",%progbits
 4739              	.Ldebug_line0:
 4740 0000 FB050000 		.section	.debug_str,"MS",%progbits,1
 4740      02002C04 
 4740      00000201 
 4740      FB0E0D00 
 4740      01010101 
 4741              	.LASF204:
 4742 0000 4144435F 		.ascii	"ADC_CfgChannelMode\000"
 4742      43666743 
 4742      68616E6E 
 4742      656C4D6F 
 4742      646500
 4743              	.LASF144:
 4744 0013 504D435F 		.ascii	"PMC_FSPR\000"
ARM GAS  /tmp/ccGznRlG.s 			page 85


 4744      46535052 
 4744      00
 4745              	.LASF2:
 4746 001c 73697A65 		.ascii	"size_t\000"
 4746      5F7400
 4747              	.LASF51:
 4748 0023 73697A65 		.ascii	"sizetype\000"
 4748      74797065 
 4748      00
 4749              	.LASF26:
 4750 002c 73797374 		.ascii	"systime_t\000"
 4750      696D655F 
 4750      7400
 4751              	.LASF31:
 4752 0036 705F6374 		.ascii	"p_ctx\000"
 4752      7800
 4753              	.LASF23:
 4754 003c 74707269 		.ascii	"tprio_t\000"
 4754      6F5F7400 
 4755              	.LASF135:
 4756 0044 434B4752 		.ascii	"CKGR_PLLBR\000"
 4756      5F504C4C 
 4756      425200
 4757              	.LASF205:
 4758 004f 75736571 		.ascii	"useq\000"
 4758      00
 4759              	.LASF40:
 4760 0054 705F6D73 		.ascii	"p_msgqueue\000"
 4760      67717565 
 4760      756500
 4761              	.LASF16:
 4762 005f 696E7433 		.ascii	"int32_t\000"
 4762      325F7400 
 4763              	.LASF83:
 4764 0067 77726974 		.ascii	"writet\000"
 4764      657400
 4765              	.LASF137:
 4766 006e 504D435F 		.ascii	"PMC_USB\000"
 4766      55534200 
 4767              	.LASF105:
 4768 0076 4144435F 		.ascii	"ADC_EMR\000"
 4768      454D5200 
 4769              	.LASF102:
 4770 007e 4144435F 		.ascii	"ADC_ISR\000"
 4770      49535200 
 4771              	.LASF88:
 4772 0086 576F5265 		.ascii	"WoReg\000"
 4772      6700
 4773              	.LASF213:
 4774 008c 5F5F6675 		.ascii	"__func__\000"
 4774      6E635F5F 
 4774      00
 4775              	.LASF79:
 4776 0095 77726974 		.ascii	"write\000"
 4776      6500
 4777              	.LASF212:
 4778 009b 73746172 		.ascii	"startup_value\000"
ARM GAS  /tmp/ccGznRlG.s 			page 86


 4778      7475705F 
 4778      76616C75 
 4778      6500
 4779              	.LASF190:
 4780 00a9 70416463 		.ascii	"pAdc\000"
 4780      00
 4781              	.LASF160:
 4782 00ae 55415254 		.ascii	"UART_SR\000"
 4782      5F535200 
 4783              	.LASF214:
 4784 00b6 4144435F 		.ascii	"ADC_SetCompareMode\000"
 4784      53657443 
 4784      6F6D7061 
 4784      72654D6F 
 4784      646500
 4785              	.LASF157:
 4786 00c9 55415254 		.ascii	"UART_IER\000"
 4786      5F494552 
 4786      00
 4787              	.LASF227:
 4788 00d2 70774275 		.ascii	"pwBuffer\000"
 4788      66666572 
 4788      00
 4789              	.LASF163:
 4790 00db 55415254 		.ascii	"UART_BRGR\000"
 4790      5F425247 
 4790      5200
 4791              	.LASF194:
 4792 00e5 70726573 		.ascii	"prescal\000"
 4792      63616C00 
 4793              	.LASF153:
 4794 00ed 52657365 		.ascii	"Reserved8\000"
 4794      72766564 
 4794      3800
 4795              	.LASF148:
 4796 00f7 504D435F 		.ascii	"PMC_WPSR\000"
 4796      57505352 
 4796      00
 4797              	.LASF120:
 4798 0100 4144435F 		.ascii	"ADC_RNPR\000"
 4798      524E5052 
 4798      00
 4799              	.LASF172:
 4800 0109 55415254 		.ascii	"UART_PTCR\000"
 4800      5F505443 
 4800      5200
 4801              	.LASF122:
 4802 0113 4144435F 		.ascii	"ADC_TNPR\000"
 4802      544E5052 
 4802      00
 4803              	.LASF219:
 4804 011c 4144435F 		.ascii	"ADC_IsInterruptMasked\000"
 4804      4973496E 
 4804      74657272 
 4804      7570744D 
 4804      61736B65 
 4805              	.LASF54:
ARM GAS  /tmp/ccGznRlG.s 			page 87


 4806 0132 6D5F6F77 		.ascii	"m_owner\000"
 4806      6E657200 
 4807              	.LASF63:
 4808 013a 65786974 		.ascii	"exitcode\000"
 4808      636F6465 
 4808      00
 4809              	.LASF3:
 4810 0143 5F5F7569 		.ascii	"__uint8_t\000"
 4810      6E74385F 
 4810      7400
 4811              	.LASF71:
 4812 014d 715F746F 		.ascii	"q_top\000"
 4812      7000
 4813              	.LASF114:
 4814 0153 4144435F 		.ascii	"ADC_WPSR\000"
 4814      57505352 
 4814      00
 4815              	.LASF84:
 4816 015c 72656164 		.ascii	"readt\000"
 4816      7400
 4817              	.LASF70:
 4818 0162 715F6275 		.ascii	"q_buffer\000"
 4818      66666572 
 4818      00
 4819              	.LASF140:
 4820 016b 504D435F 		.ascii	"PMC_IDR\000"
 4820      49445200 
 4821              	.LASF74:
 4822 0173 715F6E6F 		.ascii	"q_notify\000"
 4822      74696679 
 4822      00
 4823              	.LASF32:
 4824 017c 705F6E65 		.ascii	"p_newer\000"
 4824      77657200 
 4825              	.LASF9:
 4826 0184 6C6F6E67 		.ascii	"long int\000"
 4826      20696E74 
 4826      00
 4827              	.LASF28:
 4828 018d 705F6E65 		.ascii	"p_next\000"
 4828      787400
 4829              	.LASF73:
 4830 0194 715F7264 		.ascii	"q_rdptr\000"
 4830      70747200 
 4831              	.LASF136:
 4832 019c 504D435F 		.ascii	"PMC_MCKR\000"
 4832      4D434B52 
 4832      00
 4833              	.LASF29:
 4834 01a5 705F7072 		.ascii	"p_prev\000"
 4834      657600
 4835              	.LASF118:
 4836 01ac 4144435F 		.ascii	"ADC_TPR\000"
 4836      54505200 
 4837              	.LASF21:
 4838 01b4 74737461 		.ascii	"tstate_t\000"
 4838      74655F74 
ARM GAS  /tmp/ccGznRlG.s 			page 88


 4838      00
 4839              	.LASF129:
 4840 01bd 504D435F 		.ascii	"PMC_PCER0\000"
 4840      50434552 
 4840      3000
 4841              	.LASF150:
 4842 01c7 504D435F 		.ascii	"PMC_PCER1\000"
 4842      50434552 
 4842      3100
 4843              	.LASF43:
 4844 01d1 705F6D74 		.ascii	"p_mtxlist\000"
 4844      786C6973 
 4844      7400
 4845              	.LASF184:
 4846 01db 6F717565 		.ascii	"oqueue\000"
 4846      756500
 4847              	.LASF48:
 4848 01e2 72656761 		.ascii	"regarm_t\000"
 4848      726D5F74 
 4848      00
 4849              	.LASF132:
 4850 01eb 434B4752 		.ascii	"CKGR_MOR\000"
 4850      5F4D4F52 
 4850      00
 4851              	.LASF91:
 4852 01f4 4144435F 		.ascii	"ADC_MR\000"
 4852      4D5200
 4853              	.LASF225:
 4854 01fb 4144435F 		.ascii	"ADC_ReadBuffer\000"
 4854      52656164 
 4854      42756666 
 4854      657200
 4855              	.LASF224:
 4856 020a 64775374 		.ascii	"dwStatus\000"
 4856      61747573 
 4856      00
 4857              	.LASF220:
 4858 0213 6477466C 		.ascii	"dwFlag\000"
 4858      616700
 4859              	.LASF197:
 4860 021a 74726753 		.ascii	"trgSel\000"
 4860      656C00
 4861              	.LASF1:
 4862 0221 7369676E 		.ascii	"signed char\000"
 4862      65642063 
 4862      68617200 
 4863              	.LASF65:
 4864 022d 65776D61 		.ascii	"ewmask\000"
 4864      736B00
 4865              	.LASF14:
 4866 0234 75696E74 		.ascii	"uint8_t\000"
 4866      385F7400 
 4867              	.LASF25:
 4868 023c 6576656E 		.ascii	"eventmask_t\000"
 4868      746D6173 
 4868      6B5F7400 
 4869              	.LASF50:
ARM GAS  /tmp/ccGznRlG.s 			page 89


 4870 0248 636F6E74 		.ascii	"context\000"
 4870      65787400 
 4871              	.LASF4:
 4872 0250 756E7369 		.ascii	"unsigned char\000"
 4872      676E6564 
 4872      20636861 
 4872      7200
 4873              	.LASF167:
 4874 025e 55415254 		.ascii	"UART_TCR\000"
 4874      5F544352 
 4874      00
 4875              	.LASF221:
 4876 0267 4144435F 		.ascii	"ADC_IsStatusSet\000"
 4876      49735374 
 4876      61747573 
 4876      53657400 
 4877              	.LASF175:
 4878 0277 53445F55 		.ascii	"SD_UNINIT\000"
 4878      4E494E49 
 4878      5400
 4879              	.LASF164:
 4880 0281 55415254 		.ascii	"UART_RPR\000"
 4880      5F525052 
 4880      00
 4881              	.LASF218:
 4882 028a 4144435F 		.ascii	"ADC_GetConvertedData\000"
 4882      47657443 
 4882      6F6E7665 
 4882      72746564 
 4882      44617461 
 4883              	.LASF155:
 4884 029f 55415254 		.ascii	"UART_CR\000"
 4884      5F435200 
 4885              	.LASF66:
 4886 02a7 63686172 		.ascii	"char\000"
 4886      00
 4887              	.LASF30:
 4888 02ac 705F7072 		.ascii	"p_prio\000"
 4888      696F00
 4889              	.LASF67:
 4890 02b3 47656E65 		.ascii	"GenericQueue\000"
 4890      72696351 
 4890      75657565 
 4890      00
 4891              	.LASF64:
 4892 02c0 77746F62 		.ascii	"wtobjp\000"
 4892      6A7000
 4893              	.LASF189:
 4894 02c7 4144435F 		.ascii	"ADC_CfgTiming\000"
 4894      43666754 
 4894      696D696E 
 4894      6700
 4895              	.LASF181:
 4896 02d5 666C6167 		.ascii	"flags\000"
 4896      7300
 4897              	.LASF77:
 4898 02db 4F757470 		.ascii	"OutputQueue\000"
ARM GAS  /tmp/ccGznRlG.s 			page 90


 4898      75745175 
 4898      65756500 
 4899              	.LASF154:
 4900 02e7 504D435F 		.ascii	"PMC_OCR\000"
 4900      4F435200 
 4901              	.LASF81:
 4902 02ef 70757477 		.ascii	"putwouldblock\000"
 4902      6F756C64 
 4902      626C6F63 
 4902      6B00
 4903              	.LASF133:
 4904 02fd 434B4752 		.ascii	"CKGR_MCFR\000"
 4904      5F4D4346 
 4904      5200
 4905              	.LASF117:
 4906 0307 4144435F 		.ascii	"ADC_RCR\000"
 4906      52435200 
 4907              	.LASF168:
 4908 030f 55415254 		.ascii	"UART_RNPR\000"
 4908      5F524E50 
 4908      5200
 4909              	.LASF159:
 4910 0319 55415254 		.ascii	"UART_IMR\000"
 4910      5F494D52 
 4910      00
 4911              	.LASF174:
 4912 0322 55617274 		.ascii	"Uart\000"
 4912      00
 4913              	.LASF109:
 4914 0327 4144435F 		.ascii	"ADC_CDR\000"
 4914      43445200 
 4915              	.LASF170:
 4916 032f 55415254 		.ascii	"UART_TNPR\000"
 4916      5F544E50 
 4916      5200
 4917              	.LASF195:
 4918 0339 4144435F 		.ascii	"ADC_CfgTrigering\000"
 4918      43666754 
 4918      72696765 
 4918      72696E67 
 4918      00
 4919              	.LASF233:
 4920 034a 63687072 		.ascii	"chprintf\000"
 4920      696E7466 
 4920      00
 4921              	.LASF202:
 4922 0353 736C6565 		.ascii	"sleep\000"
 4922      7000
 4923              	.LASF223:
 4924 0359 64774164 		.ascii	"dwAdc_sr\000"
 4924      635F7372 
 4924      00
 4925              	.LASF49:
 4926 0362 696E7463 		.ascii	"intctx\000"
 4926      747800
 4927              	.LASF42:
 4928 0369 705F6570 		.ascii	"p_epending\000"
ARM GAS  /tmp/ccGznRlG.s 			page 91


 4928      656E6469 
 4928      6E6700
 4929              	.LASF230:
 4930 0374 474E5520 		.ascii	"GNU C 4.9.3 20150529 (release) [ARM/embedded-4_9-br"
 4930      4320342E 
 4930      392E3320 
 4930      32303135 
 4930      30353239 
 4931 03a7 616E6368 		.ascii	"anch revision 227977] -mcpu=cortex-m3 -mno-thumb-in"
 4931      20726576 
 4931      6973696F 
 4931      6E203232 
 4931      37393737 
 4932 03da 74657277 		.ascii	"terwork -mthumb -ggdb -O2 -std=gnu99 -fomit-frame-p"
 4932      6F726B20 
 4932      2D6D7468 
 4932      756D6220 
 4932      2D676764 
 4933 040d 6F696E74 		.ascii	"ointer -falign-functions=16 -ffunction-sections -fd"
 4933      6572202D 
 4933      66616C69 
 4933      676E2D66 
 4933      756E6374 
 4934 0440 6174612D 		.ascii	"ata-sections -fno-common\000"
 4934      73656374 
 4934      696F6E73 
 4934      202D666E 
 4934      6F2D636F 
 4935              	.LASF234:
 4936 0459 5F5F6173 		.ascii	"__assert_func\000"
 4936      73657274 
 4936      5F66756E 
 4936      6300
 4937              	.LASF162:
 4938 0467 55415254 		.ascii	"UART_THR\000"
 4938      5F544852 
 4938      00
 4939              	.LASF61:
 4940 0470 65735F6E 		.ascii	"es_next\000"
 4940      65787400 
 4941              	.LASF69:
 4942 0478 715F636F 		.ascii	"q_counter\000"
 4942      756E7465 
 4942      7200
 4943              	.LASF60:
 4944 0482 4576656E 		.ascii	"EventSource\000"
 4944      74536F75 
 4944      72636500 
 4945              	.LASF96:
 4946 048e 4144435F 		.ascii	"ADC_CHSR\000"
 4946      43485352 
 4946      00
 4947              	.LASF11:
 4948 0497 6C6F6E67 		.ascii	"long unsigned int\000"
 4948      20756E73 
 4948      69676E65 
 4948      6420696E 
ARM GAS  /tmp/ccGznRlG.s 			page 92


 4948      7400
 4949              	.LASF198:
 4950 04a9 66726565 		.ascii	"freeRun\000"
 4950      52756E00 
 4951              	.LASF215:
 4952 04b1 64774D6F 		.ascii	"dwMode\000"
 4952      646500
 4953              	.LASF232:
 4954 04b8 63616C63 		.ascii	"calcul_startup\000"
 4954      756C5F73 
 4954      74617274 
 4954      757000
 4955              	.LASF142:
 4956 04c7 504D435F 		.ascii	"PMC_IMR\000"
 4956      494D5200 
 4957              	.LASF57:
 4958 04cf 656C5F6E 		.ascii	"el_next\000"
 4958      65787400 
 4959              	.LASF107:
 4960 04d7 4144435F 		.ascii	"ADC_CGR\000"
 4960      43475200 
 4961              	.LASF72:
 4962 04df 715F7772 		.ascii	"q_wrptr\000"
 4962      70747200 
 4963              	.LASF128:
 4964 04e7 504D435F 		.ascii	"PMC_SCSR\000"
 4964      53435352 
 4964      00
 4965              	.LASF209:
 4966 04f0 64774368 		.ascii	"dwChannel\000"
 4966      616E6E65 
 4966      6C00
 4967              	.LASF186:
 4968 04fa 53657269 		.ascii	"SerialDriverVMT\000"
 4968      616C4472 
 4968      69766572 
 4968      564D5400 
 4969              	.LASF98:
 4970 050a 4144435F 		.ascii	"ADC_LCDR\000"
 4970      4C434452 
 4970      00
 4971              	.LASF203:
 4972 0513 66777570 		.ascii	"fwup\000"
 4972      00
 4973              	.LASF10:
 4974 0518 5F5F7569 		.ascii	"__uint32_t\000"
 4974      6E743332 
 4974      5F7400
 4975              	.LASF52:
 4976 0523 4D757465 		.ascii	"Mutex\000"
 4976      7800
 4977              	.LASF12:
 4978 0529 6C6F6E67 		.ascii	"long long int\000"
 4978      206C6F6E 
 4978      6720696E 
 4978      7400
 4979              	.LASF222:
ARM GAS  /tmp/ccGznRlG.s 			page 93


 4980 0537 4144435F 		.ascii	"ADC_IsChannelInterruptStatusSet\000"
 4980      49734368 
 4980      616E6E65 
 4980      6C496E74 
 4980      65727275 
 4981              	.LASF131:
 4982 0557 504D435F 		.ascii	"PMC_PCSR0\000"
 4982      50435352 
 4982      3000
 4983              	.LASF53:
 4984 0561 6D5F7175 		.ascii	"m_queue\000"
 4984      65756500 
 4985              	.LASF138:
 4986 0569 504D435F 		.ascii	"PMC_PCK\000"
 4986      50434B00 
 4987              	.LASF217:
 4988 0571 64774869 		.ascii	"dwHi_Lo\000"
 4988      5F4C6F00 
 4989              	.LASF229:
 4990 0579 49544D5F 		.ascii	"ITM_RxBuffer\000"
 4990      52784275 
 4990      66666572 
 4990      00
 4991              	.LASF75:
 4992 0586 716E6F74 		.ascii	"qnotify_t\000"
 4992      6966795F 
 4992      7400
 4993              	.LASF39:
 4994 0590 705F7761 		.ascii	"p_waiting\000"
 4994      6974696E 
 4994      6700
 4995              	.LASF180:
 4996 059a 6576656E 		.ascii	"event\000"
 4996      7400
 4997              	.LASF36:
 4998 05a0 705F666C 		.ascii	"p_flags\000"
 4998      61677300 
 4999              	.LASF145:
 5000 05a8 504D435F 		.ascii	"PMC_FOCR\000"
 5000      464F4352 
 5000      00
 5001              	.LASF80:
 5002 05b1 72656164 		.ascii	"read\000"
 5002      00
 5003              	.LASF100:
 5004 05b6 4144435F 		.ascii	"ADC_IDR\000"
 5004      49445200 
 5005              	.LASF0:
 5006 05be 756E7369 		.ascii	"unsigned int\000"
 5006      676E6564 
 5006      20696E74 
 5006      00
 5007              	.LASF45:
 5008 05cb 705F6D70 		.ascii	"p_mpool\000"
 5008      6F6F6C00 
 5009              	.LASF216:
 5010 05d3 4144435F 		.ascii	"ADC_SetComparisonWindow\000"
ARM GAS  /tmp/ccGznRlG.s 			page 94


 5010      53657443 
 5010      6F6D7061 
 5010      7269736F 
 5010      6E57696E 
 5011              	.LASF196:
 5012 05eb 74726745 		.ascii	"trgEn\000"
 5012      6E00
 5013              	.LASF37:
 5014 05f1 705F7265 		.ascii	"p_refs\000"
 5014      667300
 5015              	.LASF206:
 5016 05f8 4144435F 		.ascii	"ADC_check\000"
 5016      63686563 
 5016      6B00
 5017              	.LASF210:
 5018 0602 64774461 		.ascii	"dwData\000"
 5018      746100
 5019              	.LASF99:
 5020 0609 4144435F 		.ascii	"ADC_IER\000"
 5020      49455200 
 5021              	.LASF199:
 5022 0611 4144435F 		.ascii	"ADC_CfgLowRes\000"
 5022      4366674C 
 5022      6F775265 
 5022      7300
 5023              	.LASF47:
 5024 061f 54687265 		.ascii	"ThreadsList\000"
 5024      6164734C 
 5024      69737400 
 5025              	.LASF86:
 5026 062b 696F666C 		.ascii	"ioflags_t\000"
 5026      6167735F 
 5026      7400
 5027              	.LASF38:
 5028 0635 705F7469 		.ascii	"p_time\000"
 5028      6D6500
 5029              	.LASF173:
 5030 063c 55415254 		.ascii	"UART_PTSR\000"
 5030      5F505453 
 5030      5200
 5031              	.LASF44:
 5032 0646 705F7265 		.ascii	"p_realprio\000"
 5032      616C7072 
 5032      696F00
 5033              	.LASF82:
 5034 0651 67657477 		.ascii	"getwouldblock\000"
 5034      6F756C64 
 5034      626C6F63 
 5034      6B00
 5035              	.LASF166:
 5036 065f 55415254 		.ascii	"UART_TPR\000"
 5036      5F545052 
 5036      00
 5037              	.LASF193:
 5038 0668 73746172 		.ascii	"startup\000"
 5038      74757000 
 5039              	.LASF192:
ARM GAS  /tmp/ccGznRlG.s 			page 95


 5040 0670 4144435F 		.ascii	"ADC_cfgFrequency\000"
 5040      63666746 
 5040      72657175 
 5040      656E6379 
 5040      00
 5041              	.LASF121:
 5042 0681 4144435F 		.ascii	"ADC_RNCR\000"
 5042      524E4352 
 5042      00
 5043              	.LASF183:
 5044 068a 69717565 		.ascii	"iqueue\000"
 5044      756500
 5045              	.LASF169:
 5046 0691 55415254 		.ascii	"UART_RNCR\000"
 5046      5F524E43 
 5046      5200
 5047              	.LASF123:
 5048 069b 4144435F 		.ascii	"ADC_TNCR\000"
 5048      544E4352 
 5048      00
 5049              	.LASF158:
 5050 06a4 55415254 		.ascii	"UART_IDR\000"
 5050      5F494452 
 5050      00
 5051              	.LASF13:
 5052 06ad 6C6F6E67 		.ascii	"long long unsigned int\000"
 5052      206C6F6E 
 5052      6720756E 
 5052      7369676E 
 5052      65642069 
 5053              	.LASF33:
 5054 06c4 705F6F6C 		.ascii	"p_older\000"
 5054      64657200 
 5055              	.LASF24:
 5056 06cc 6D73675F 		.ascii	"msg_t\000"
 5056      7400
 5057              	.LASF108:
 5058 06d2 4144435F 		.ascii	"ADC_COR\000"
 5058      434F5200 
 5059              	.LASF208:
 5060 06da 6164635F 		.ascii	"adc_freq\000"
 5060      66726571 
 5060      00
 5061              	.LASF125:
 5062 06e3 4144435F 		.ascii	"ADC_PTSR\000"
 5062      50545352 
 5062      00
 5063              	.LASF119:
 5064 06ec 4144435F 		.ascii	"ADC_TCR\000"
 5064      54435200 
 5065              	.LASF5:
 5066 06f4 5F5F696E 		.ascii	"__int16_t\000"
 5066      7431365F 
 5066      7400
 5067              	.LASF139:
 5068 06fe 504D435F 		.ascii	"PMC_IER\000"
 5068      49455200 
ARM GAS  /tmp/ccGznRlG.s 			page 96


 5069              	.LASF179:
 5070 0706 53657269 		.ascii	"SerialDriver\000"
 5070      616C4472 
 5070      69766572 
 5070      00
 5071              	.LASF116:
 5072 0713 4144435F 		.ascii	"ADC_RPR\000"
 5072      52505200 
 5073              	.LASF92:
 5074 071b 4144435F 		.ascii	"ADC_SEQR1\000"
 5074      53455152 
 5074      3100
 5075              	.LASF93:
 5076 0725 4144435F 		.ascii	"ADC_SEQR2\000"
 5076      53455152 
 5076      3200
 5077              	.LASF231:
 5078 072f 2F686F6D 		.ascii	"/home/nicolas/Escritorio/Embebidos/stamp_repo/files"
 5078      652F6E69 
 5078      636F6C61 
 5078      732F4573 
 5078      63726974 
 5079 0762 2F636F64 		.ascii	"/code/ext/ChibiOS/os/hal/platforms/AT91SAM3S/atmel_"
 5079      652F6578 
 5079      742F4368 
 5079      6962694F 
 5079      532F6F73 
 5080 0795 6164632E 		.ascii	"adc.c\000"
 5080      6300
 5081              	.LASF68:
 5082 079b 715F7761 		.ascii	"q_waiting\000"
 5082      6974696E 
 5082      6700
 5083              	.LASF97:
 5084 07a5 52657365 		.ascii	"Reserved1\000"
 5084      72766564 
 5084      3100
 5085              	.LASF103:
 5086 07af 52657365 		.ascii	"Reserved2\000"
 5086      72766564 
 5086      3200
 5087              	.LASF110:
 5088 07b9 52657365 		.ascii	"Reserved3\000"
 5088      72766564 
 5088      3300
 5089              	.LASF112:
 5090 07c3 52657365 		.ascii	"Reserved4\000"
 5090      72766564 
 5090      3400
 5091              	.LASF115:
 5092 07cd 52657365 		.ascii	"Reserved5\000"
 5092      72766564 
 5092      3500
 5093              	.LASF146:
 5094 07d7 52657365 		.ascii	"Reserved6\000"
 5094      72766564 
 5094      3600
ARM GAS  /tmp/ccGznRlG.s 			page 97


 5095              	.LASF149:
 5096 07e1 52657365 		.ascii	"Reserved7\000"
 5096      72766564 
 5096      3700
 5097              	.LASF20:
 5098 07eb 746D6F64 		.ascii	"tmode_t\000"
 5098      655F7400 
 5099              	.LASF178:
 5100 07f3 73647374 		.ascii	"sdstate_t\000"
 5100      6174655F 
 5100      7400
 5101              	.LASF177:
 5102 07fd 53445F52 		.ascii	"SD_READY\000"
 5102      45414459 
 5102      00
 5103              	.LASF207:
 5104 0806 6D636B5F 		.ascii	"mck_freq\000"
 5104      66726571 
 5104      00
 5105              	.LASF6:
 5106 080f 73686F72 		.ascii	"short int\000"
 5106      7420696E 
 5106      7400
 5107              	.LASF87:
 5108 0819 526F5265 		.ascii	"RoReg\000"
 5108      6700
 5109              	.LASF165:
 5110 081f 55415254 		.ascii	"UART_RCR\000"
 5110      5F524352 
 5110      00
 5111              	.LASF200:
 5112 0828 7265736F 		.ascii	"resolution\000"
 5112      6C757469 
 5112      6F6E00
 5113              	.LASF185:
 5114 0833 75617274 		.ascii	"uart\000"
 5114      00
 5115              	.LASF15:
 5116 0838 696E7431 		.ascii	"int16_t\000"
 5116      365F7400 
 5117              	.LASF182:
 5118 0840 73746174 		.ascii	"state\000"
 5118      6500
 5119              	.LASF141:
 5120 0846 504D435F 		.ascii	"PMC_SR\000"
 5120      535200
 5121              	.LASF104:
 5122 084d 4144435F 		.ascii	"ADC_OVER\000"
 5122      4F564552 
 5122      00
 5123              	.LASF19:
 5124 0856 626F6F6C 		.ascii	"bool_t\000"
 5124      5F7400
 5125              	.LASF101:
 5126 085d 4144435F 		.ascii	"ADC_IMR\000"
 5126      494D5200 
 5127              	.LASF90:
ARM GAS  /tmp/ccGznRlG.s 			page 98


 5128 0865 4144435F 		.ascii	"ADC_CR\000"
 5128      435200
 5129              	.LASF27:
 5130 086c 54687265 		.ascii	"Thread\000"
 5130      616400
 5131              	.LASF89:
 5132 0873 52775265 		.ascii	"RwReg\000"
 5132      6700
 5133              	.LASF187:
 5134 0879 67657466 		.ascii	"getflags\000"
 5134      6C616773 
 5134      00
 5135              	.LASF124:
 5136 0882 4144435F 		.ascii	"ADC_PTCR\000"
 5136      50544352 
 5136      00
 5137              	.LASF156:
 5138 088b 55415254 		.ascii	"UART_MR\000"
 5138      5F4D5200 
 5139              	.LASF22:
 5140 0893 74726566 		.ascii	"trefs_t\000"
 5140      735F7400 
 5141              	.LASF226:
 5142 089b 70414443 		.ascii	"pADC\000"
 5142      00
 5143              	.LASF56:
 5144 08a0 4576656E 		.ascii	"EventListener\000"
 5144      744C6973 
 5144      74656E65 
 5144      7200
 5145              	.LASF147:
 5146 08ae 504D435F 		.ascii	"PMC_WPMR\000"
 5146      57504D52 
 5146      00
 5147              	.LASF211:
 5148 08b7 4144435F 		.ascii	"ADC_SetCompareChannel\000"
 5148      53657443 
 5148      6F6D7061 
 5148      72654368 
 5148      616E6E65 
 5149              	.LASF17:
 5150 08cd 75696E74 		.ascii	"uint32_t\000"
 5150      33325F74 
 5150      00
 5151              	.LASF111:
 5152 08d6 4144435F 		.ascii	"ADC_ACR\000"
 5152      41435200 
 5153              	.LASF46:
 5154 08de 54687265 		.ascii	"ThreadsQueue\000"
 5154      61647351 
 5154      75657565 
 5154      00
 5155              	.LASF143:
 5156 08eb 504D435F 		.ascii	"PMC_FSMR\000"
 5156      46534D52 
 5156      00
 5157              	.LASF18:
ARM GAS  /tmp/ccGznRlG.s 			page 99


 5158 08f4 75696E74 		.ascii	"uint_fast16_t\000"
 5158      5F666173 
 5158      7431365F 
 5158      7400
 5159              	.LASF191:
 5160 0902 74726163 		.ascii	"tracking\000"
 5160      6B696E67 
 5160      00
 5161              	.LASF95:
 5162 090b 4144435F 		.ascii	"ADC_CHDR\000"
 5162      43484452 
 5162      00
 5163              	.LASF62:
 5164 0914 7264796D 		.ascii	"rdymsg\000"
 5164      736700
 5165              	.LASF7:
 5166 091b 73686F72 		.ascii	"short unsigned int\000"
 5166      7420756E 
 5166      7369676E 
 5166      65642069 
 5166      6E7400
 5167              	.LASF113:
 5168 092e 4144435F 		.ascii	"ADC_WPMR\000"
 5168      57504D52 
 5168      00
 5169              	.LASF94:
 5170 0937 4144435F 		.ascii	"ADC_CHER\000"
 5170      43484552 
 5170      00
 5171              	.LASF76:
 5172 0940 496E7075 		.ascii	"InputQueue\000"
 5172      74517565 
 5172      756500
 5173              	.LASF8:
 5174 094b 5F5F696E 		.ascii	"__int32_t\000"
 5174      7433325F 
 5174      7400
 5175              	.LASF176:
 5176 0955 53445F53 		.ascii	"SD_STOP\000"
 5176      544F5000 
 5177              	.LASF127:
 5178 095d 504D435F 		.ascii	"PMC_SCDR\000"
 5178      53434452 
 5178      00
 5179              	.LASF78:
 5180 0966 42617365 		.ascii	"BaseChannelVMT\000"
 5180      4368616E 
 5180      6E656C56 
 5180      4D5400
 5181              	.LASF59:
 5182 0975 656C5F6D 		.ascii	"el_mask\000"
 5182      61736B00 
 5183              	.LASF130:
 5184 097d 504D435F 		.ascii	"PMC_PCDR0\000"
 5184      50434452 
 5184      3000
 5185              	.LASF151:
ARM GAS  /tmp/ccGznRlG.s 			page 100


 5186 0987 504D435F 		.ascii	"PMC_PCDR1\000"
 5186      50434452 
 5186      3100
 5187              	.LASF106:
 5188 0991 4144435F 		.ascii	"ADC_CWR\000"
 5188      43575200 
 5189              	.LASF188:
 5190 0999 4144435F 		.ascii	"ADC_Initialize\000"
 5190      496E6974 
 5190      69616C69 
 5190      7A6500
 5191              	.LASF228:
 5192 09a8 64775369 		.ascii	"dwSize\000"
 5192      7A6500
 5193              	.LASF34:
 5194 09af 705F6E61 		.ascii	"p_name\000"
 5194      6D6500
 5195              	.LASF55:
 5196 09b6 6D5F6E65 		.ascii	"m_next\000"
 5196      787400
 5197              	.LASF85:
 5198 09bd 42617365 		.ascii	"BaseChannel\000"
 5198      4368616E 
 5198      6E656C00 
 5199              	.LASF126:
 5200 09c9 504D435F 		.ascii	"PMC_SCER\000"
 5200      53434552 
 5200      00
 5201              	.LASF152:
 5202 09d2 504D435F 		.ascii	"PMC_PCSR1\000"
 5202      50435352 
 5202      3100
 5203              	.LASF171:
 5204 09dc 55415254 		.ascii	"UART_TNCR\000"
 5204      5F544E43 
 5204      5200
 5205              	.LASF161:
 5206 09e6 55415254 		.ascii	"UART_RHR\000"
 5206      5F524852 
 5206      00
 5207              	.LASF134:
 5208 09ef 434B4752 		.ascii	"CKGR_PLLAR\000"
 5208      5F504C4C 
 5208      415200
 5209              	.LASF41:
 5210 09fa 705F6D73 		.ascii	"p_msg\000"
 5210      6700
 5211              	.LASF58:
 5212 0a00 656C5F6C 		.ascii	"el_listener\000"
 5212      69737465 
 5212      6E657200 
 5213              	.LASF201:
 5214 0a0c 4144435F 		.ascii	"ADC_CfgPowerSave\000"
 5214      43666750 
 5214      6F776572 
 5214      53617665 
 5214      00
ARM GAS  /tmp/ccGznRlG.s 			page 101


 5215              	.LASF35:
 5216 0a1d 705F7374 		.ascii	"p_state\000"
 5216      61746500 
 5217              		.ident	"GCC: (GNU Tools for ARM Embedded Processors) 4.9.3 20150529 (release) [ARM/embedded-4_9-br
ARM GAS  /tmp/ccGznRlG.s 			page 102


DEFINED SYMBOLS
                            *ABS*:00000000 atmel_adc.c
     /tmp/ccGznRlG.s:19     .text.calcul_startup:00000000 $t
     /tmp/ccGznRlG.s:24     .text.calcul_startup:00000000 calcul_startup
     /tmp/ccGznRlG.s:180    .text.ADC_Initialize:00000000 $t
     /tmp/ccGznRlG.s:186    .text.ADC_Initialize:00000000 ADC_Initialize
     /tmp/ccGznRlG.s:231    .text.ADC_Initialize:00000024 $d
     /tmp/ccGznRlG.s:238    .text.ADC_CfgTiming:00000000 $t
     /tmp/ccGznRlG.s:244    .text.ADC_CfgTiming:00000000 ADC_CfgTiming
     /tmp/ccGznRlG.s:262    .text.ADC_cfgFrequency:00000000 $t
     /tmp/ccGznRlG.s:268    .text.ADC_cfgFrequency:00000000 ADC_cfgFrequency
     /tmp/ccGznRlG.s:294    .text.ADC_CfgTrigering:00000000 $t
     /tmp/ccGznRlG.s:300    .text.ADC_CfgTrigering:00000000 ADC_CfgTrigering
     /tmp/ccGznRlG.s:340    .text.ADC_CfgLowRes:00000000 $t
     /tmp/ccGznRlG.s:346    .text.ADC_CfgLowRes:00000000 ADC_CfgLowRes
     /tmp/ccGznRlG.s:366    .text.ADC_CfgPowerSave:00000000 $t
     /tmp/ccGznRlG.s:372    .text.ADC_CfgPowerSave:00000000 ADC_CfgPowerSave
     /tmp/ccGznRlG.s:398    .text.ADC_CfgChannelMode:00000000 $t
     /tmp/ccGznRlG.s:404    .text.ADC_CfgChannelMode:00000000 ADC_CfgChannelMode
     /tmp/ccGznRlG.s:422    .text.ADC_check:00000000 $t
     /tmp/ccGznRlG.s:428    .text.ADC_check:00000000 ADC_check
     /tmp/ccGznRlG.s:608    .text.ADC_check:000000d8 $d
     /tmp/ccGznRlG.s:620    .text.ADC_GetConvertedData:00000000 $t
     /tmp/ccGznRlG.s:626    .text.ADC_GetConvertedData:00000000 ADC_GetConvertedData
     /tmp/ccGznRlG.s:651    .text.ADC_SetCompareChannel:00000000 $t
     /tmp/ccGznRlG.s:657    .text.ADC_SetCompareChannel:00000000 ADC_SetCompareChannel
     /tmp/ccGznRlG.s:709    .text.ADC_SetCompareChannel:00000038 $d
     /tmp/ccGznRlG.s:716    .text.ADC_SetCompareMode:00000000 $t
     /tmp/ccGznRlG.s:722    .text.ADC_SetCompareMode:00000000 ADC_SetCompareMode
     /tmp/ccGznRlG.s:747    .text.ADC_SetComparisonWindow:00000000 $t
     /tmp/ccGznRlG.s:753    .text.ADC_SetComparisonWindow:00000000 ADC_SetComparisonWindow
     /tmp/ccGznRlG.s:768    .text.ADC_IsInterruptMasked:00000000 $t
     /tmp/ccGznRlG.s:774    .text.ADC_IsInterruptMasked:00000000 ADC_IsInterruptMasked
     /tmp/ccGznRlG.s:792    .text.ADC_IsStatusSet:00000000 $t
     /tmp/ccGznRlG.s:798    .text.ADC_IsStatusSet:00000000 ADC_IsStatusSet
     /tmp/ccGznRlG.s:816    .text.ADC_IsChannelInterruptStatusSet:00000000 $t
     /tmp/ccGznRlG.s:822    .text.ADC_IsChannelInterruptStatusSet:00000000 ADC_IsChannelInterruptStatusSet
     /tmp/ccGznRlG.s:845    .text.ADC_ReadBuffer:00000000 $t
     /tmp/ccGznRlG.s:851    .text.ADC_ReadBuffer:00000000 ADC_ReadBuffer
     /tmp/ccGznRlG.s:907    .rodata.str1.4:00000000 $d
     /tmp/ccGznRlG.s:932    .rodata.__func__.6032:00000000 $d
     /tmp/ccGznRlG.s:936    .rodata.__func__.6032:00000000 __func__.6032
                     .debug_frame:00000010 $d

UNDEFINED SYMBOLS
chprintf
SD2
__assert_func
