ARM GAS  /tmp/ccGznRlG.s 			page 1


   1              		.syntax unified
   2              		.cpu cortex-m3
   3              		.fpu softvfp
   4              		.eabi_attribute 20, 1
   5              		.eabi_attribute 21, 1
   6              		.eabi_attribute 23, 3
   7              		.eabi_attribute 24, 1
   8              		.eabi_attribute 25, 1
   9              		.eabi_attribute 26, 1
  10              		.eabi_attribute 30, 2
  11              		.eabi_attribute 34, 1
  12              		.eabi_attribute 18, 4
  13              		.thumb
  14              		.file	"atmel_adc.c"
  15              		.text
  16              	.Ltext0:
  17              		.cfi_sections	.debug_frame
  18              		.section	.text.calcul_startup,"ax",%progbits
  19              		.align	2
  20              		.p2align 4,,15
  21              		.thumb
  22              		.thumb_func
  23              		.type	calcul_startup, %function
  24              	calcul_startup:
  25              	.LFB43:
  26              		.file 1 "/home/nicolas/Escritorio/Embebidos/stamp_repo/files/code/ext/ChibiOS/os/hal/platforms/AT9
  27              		.loc 1 133 0
  28              		.cfi_startproc
  29              		@ args = 0, pretend = 0, frame = 0
  30              		@ frame_needed = 0, uses_anonymous_args = 0
  31              		@ link register save eliminated.
  32              	.LVL0:
  33              		.loc 1 136 0
  34 0000 18B3     		cbz	r0, .L2
  35              		.loc 1 138 0
  36 0002 0128     		cmp	r0, #1
  37 0004 22D0     		beq	.L4
  38              		.loc 1 140 0
  39 0006 0228     		cmp	r0, #2
  40 0008 22D0     		beq	.L5
  41              		.loc 1 142 0
  42 000a 0328     		cmp	r0, #3
  43 000c 22D0     		beq	.L6
  44              		.loc 1 144 0
  45 000e 0428     		cmp	r0, #4
  46 0010 24D0     		beq	.L7
  47              		.loc 1 146 0
  48 0012 0528     		cmp	r0, #5
  49 0014 20D0     		beq	.L8
  50              		.loc 1 148 0
  51 0016 0628     		cmp	r0, #6
  52 0018 22D0     		beq	.L9
  53              		.loc 1 150 0
  54 001a 0728     		cmp	r0, #7
  55 001c 22D0     		beq	.L10
  56              		.loc 1 152 0
  57 001e 0828     		cmp	r0, #8
ARM GAS  /tmp/ccGznRlG.s 			page 2


  58 0020 22D0     		beq	.L11
  59              		.loc 1 154 0
  60 0022 0928     		cmp	r0, #9
  61 0024 23D0     		beq	.L12
  62              		.loc 1 156 0
  63 0026 0A28     		cmp	r0, #10
  64 0028 24D0     		beq	.L13
  65              		.loc 1 158 0
  66 002a 0B28     		cmp	r0, #11
  67 002c 25D0     		beq	.L14
  68              		.loc 1 160 0
  69 002e 0C28     		cmp	r0, #12
  70 0030 26D0     		beq	.L15
  71              		.loc 1 162 0
  72 0032 0D28     		cmp	r0, #13
  73 0034 27D0     		beq	.L16
  74              	.LVL1:
  75              	.LBB4:
  76              	.LBB5:
  77              		.loc 1 164 0
  78 0036 0E28     		cmp	r0, #14
  79 0038 05D0     		beq	.L17
  80              		.loc 1 166 0
  81 003a 0F28     		cmp	r0, #15
  82              		.loc 1 167 0
  83 003c 14BF     		ite	ne
  84 003e 0020     		movne	r0, #0
  85              	.LVL2:
  86 0040 4FF47070 		moveq	r0, #960
  87 0044 7047     		bx	lr
  88              	.LVL3:
  89              	.L17:
  90              		.loc 1 165 0
  91 0046 4FF46070 		mov	r0, #896
  92              	.LVL4:
  93              	.L2:
  94              	.LBE5:
  95              	.LBE4:
  96              		.loc 1 170 0
  97 004a 7047     		bx	lr
  98              	.LVL5:
  99              	.L4:
 100              		.loc 1 139 0
 101 004c 0820     		movs	r0, #8
 102              	.LVL6:
 103 004e 7047     		bx	lr
 104              	.LVL7:
 105              	.L5:
 106              		.loc 1 141 0
 107 0050 1020     		movs	r0, #16
 108              	.LVL8:
 109 0052 7047     		bx	lr
 110              	.LVL9:
 111              	.L6:
 112              		.loc 1 143 0
 113 0054 1820     		movs	r0, #24
 114              	.LVL10:
ARM GAS  /tmp/ccGznRlG.s 			page 3


 115 0056 7047     		bx	lr
 116              	.LVL11:
 117              	.L8:
 118              		.loc 1 147 0
 119 0058 5020     		movs	r0, #80
 120              	.LVL12:
 121 005a 7047     		bx	lr
 122              	.LVL13:
 123              	.L7:
 124              		.loc 1 145 0
 125 005c 4020     		movs	r0, #64
 126              	.LVL14:
 127 005e 7047     		bx	lr
 128              	.LVL15:
 129              	.L9:
 130              		.loc 1 149 0
 131 0060 6020     		movs	r0, #96
 132              	.LVL16:
 133 0062 7047     		bx	lr
 134              	.LVL17:
 135              	.L10:
 136              		.loc 1 151 0
 137 0064 7020     		movs	r0, #112
 138              	.LVL18:
 139 0066 7047     		bx	lr
 140              	.LVL19:
 141              	.L11:
 142              		.loc 1 153 0
 143 0068 4FF40070 		mov	r0, #512
 144              	.LVL20:
 145 006c 7047     		bx	lr
 146              	.LVL21:
 147              	.L12:
 148              		.loc 1 155 0
 149 006e 4FF41070 		mov	r0, #576
 150              	.LVL22:
 151 0072 7047     		bx	lr
 152              	.LVL23:
 153              	.L13:
 154              		.loc 1 157 0
 155 0074 4FF42070 		mov	r0, #640
 156              	.LVL24:
 157 0078 7047     		bx	lr
 158              	.LVL25:
 159              	.L14:
 160              		.loc 1 159 0
 161 007a 4FF43070 		mov	r0, #704
 162              	.LVL26:
 163 007e 7047     		bx	lr
 164              	.LVL27:
 165              	.L15:
 166              		.loc 1 161 0
 167 0080 4FF44070 		mov	r0, #768
 168              	.LVL28:
 169 0084 7047     		bx	lr
 170              	.LVL29:
 171              	.L16:
ARM GAS  /tmp/ccGznRlG.s 			page 4


 172              		.loc 1 163 0
 173 0086 4FF45070 		mov	r0, #832
 174              	.LVL30:
 175 008a 7047     		bx	lr
 176              		.cfi_endproc
 177              	.LFE43:
 178              		.size	calcul_startup, .-calcul_startup
 179              		.section	.text.ADC_Initialize,"ax",%progbits
 180              		.align	2
 181              		.p2align 4,,15
 182              		.global	ADC_Initialize
 183              		.thumb
 184              		.thumb_func
 185              		.type	ADC_Initialize, %function
 186              	ADC_Initialize:
 187              	.LFB36:
 188              		.loc 1 62 0
 189              		.cfi_startproc
 190              		@ args = 0, pretend = 0, frame = 0
 191              		@ frame_needed = 0, uses_anonymous_args = 0
 192              		@ link register save eliminated.
 193              	.LVL31:
 194 0000 70B4     		push	{r4, r5, r6}
 195              		.cfi_def_cfa_offset 12
 196              		.cfi_offset 4, -12
 197              		.cfi_offset 5, -8
 198              		.cfi_offset 6, -4
 199              		.loc 1 64 0
 200 0002 084B     		ldr	r3, .L22
 201 0004 084E     		ldr	r6, .L22+4
 202              		.loc 1 66 0
 203 0006 094C     		ldr	r4, .L22+8
 204              		.loc 1 65 0
 205 0008 4FF00055 		mov	r5, #536870912
 206              		.loc 1 69 0
 207 000c 0121     		movs	r1, #1
 208              		.loc 1 73 0
 209 000e 0022     		movs	r2, #0
 210              		.loc 1 64 0
 211 0010 C3F8E460 		str	r6, [r3, #228]
 212              		.loc 1 65 0
 213 0014 1D61     		str	r5, [r3, #16]
 214              		.loc 1 66 0
 215 0016 C3F8E440 		str	r4, [r3, #228]
 216              		.loc 1 69 0
 217 001a 0160     		str	r1, [r0]
 218              		.loc 1 74 0
 219 001c 70BC     		pop	{r4, r5, r6}
 220              		.cfi_restore 6
 221              		.cfi_restore 5
 222              		.cfi_restore 4
 223              		.cfi_def_cfa_offset 0
 224              		.loc 1 73 0
 225 001e 4260     		str	r2, [r0, #4]
 226              		.loc 1 74 0
 227 0020 7047     		bx	lr
 228              	.L23:
ARM GAS  /tmp/ccGznRlG.s 			page 5


 229 0022 00BF     		.align	2
 230              	.L22:
 231 0024 00040E40 		.word	1074660352
 232 0028 00434D50 		.word	1347240704
 233 002c 01434D50 		.word	1347240705
 234              		.cfi_endproc
 235              	.LFE36:
 236              		.size	ADC_Initialize, .-ADC_Initialize
 237              		.section	.text.ADC_CfgTiming,"ax",%progbits
 238              		.align	2
 239              		.p2align 4,,15
 240              		.global	ADC_CfgTiming
 241              		.thumb
 242              		.thumb_func
 243              		.type	ADC_CfgTiming, %function
 244              	ADC_CfgTiming:
 245              	.LFB37:
 246              		.loc 1 80 0
 247              		.cfi_startproc
 248              		@ args = 0, pretend = 0, frame = 0
 249              		@ frame_needed = 0, uses_anonymous_args = 0
 250              		@ link register save eliminated.
 251              	.LVL32:
 252              		.loc 1 81 0
 253 0000 0906     		lsls	r1, r1, #24
 254              	.LVL33:
 255 0002 01F07061 		and	r1, r1, #251658240
 256 0006 4160     		str	r1, [r0, #4]
 257 0008 7047     		bx	lr
 258              		.cfi_endproc
 259              	.LFE37:
 260              		.size	ADC_CfgTiming, .-ADC_CfgTiming
 261 000a 00BF     		.section	.text.ADC_cfgFrequency,"ax",%progbits
 262              		.align	2
 263              		.p2align 4,,15
 264              		.global	ADC_cfgFrequency
 265              		.thumb
 266              		.thumb_func
 267              		.type	ADC_cfgFrequency, %function
 268              	ADC_cfgFrequency:
 269              	.LFB38:
 270              		.loc 1 88 0
 271              		.cfi_startproc
 272              		@ args = 0, pretend = 0, frame = 0
 273              		@ frame_needed = 0, uses_anonymous_args = 0
 274              		@ link register save eliminated.
 275              	.LVL34:
 276              		.loc 1 89 0
 277 0000 4368     		ldr	r3, [r0, #4]
 278              		.loc 1 90 0
 279 0002 0904     		lsls	r1, r1, #16
 280              	.LVL35:
 281 0004 01F47021 		and	r1, r1, #983040
 282              		.loc 1 89 0
 283 0008 1202     		lsls	r2, r2, #8
 284              	.LVL36:
 285 000a 92B2     		uxth	r2, r2
ARM GAS  /tmp/ccGznRlG.s 			page 6


 286 000c 0B43     		orrs	r3, r3, r1
 287 000e 1A43     		orrs	r2, r2, r3
 288 0010 4260     		str	r2, [r0, #4]
 289 0012 7047     		bx	lr
 290              		.cfi_endproc
 291              	.LFE38:
 292              		.size	ADC_cfgFrequency, .-ADC_cfgFrequency
 293              		.section	.text.ADC_CfgTrigering,"ax",%progbits
 294              		.align	2
 295              		.p2align 4,,15
 296              		.global	ADC_CfgTrigering
 297              		.thumb
 298              		.thumb_func
 299              		.type	ADC_CfgTrigering, %function
 300              	ADC_CfgTrigering:
 301              	.LFB39:
 302              		.loc 1 97 0
 303              		.cfi_startproc
 304              		@ args = 0, pretend = 0, frame = 0
 305              		@ frame_needed = 0, uses_anonymous_args = 0
 306              		@ link register save eliminated.
 307              	.LVL37:
 308 0000 10B4     		push	{r4}
 309              		.cfi_def_cfa_offset 4
 310              		.cfi_offset 4, -4
 311              		.loc 1 100 0
 312 0002 DB01     		lsls	r3, r3, #7
 313              	.LVL38:
 314              		.loc 1 98 0
 315 0004 4468     		ldr	r4, [r0, #4]
 316              		.loc 1 100 0
 317 0006 DBB2     		uxtb	r3, r3
 318              		.loc 1 99 0
 319 0008 5200     		lsls	r2, r2, #1
 320              	.LVL39:
 321 000a 2343     		orrs	r3, r3, r4
 322              		.loc 1 98 0
 323 000c 01F00101 		and	r1, r1, #1
 324              	.LVL40:
 325              		.loc 1 99 0
 326 0010 02F00E04 		and	r4, r2, #14
 327 0014 43EA0102 		orr	r2, r3, r1
 328              		.loc 1 98 0
 329 0018 2243     		orrs	r2, r2, r4
 330 001a 4260     		str	r2, [r0, #4]
 331              		.loc 1 101 0
 332 001c 5DF8044B 		ldr	r4, [sp], #4
 333              		.cfi_restore 4
 334              		.cfi_def_cfa_offset 0
 335 0020 7047     		bx	lr
 336              		.cfi_endproc
 337              	.LFE39:
 338              		.size	ADC_CfgTrigering, .-ADC_CfgTrigering
 339 0022 00BF     		.section	.text.ADC_CfgLowRes,"ax",%progbits
 340              		.align	2
 341              		.p2align 4,,15
 342              		.global	ADC_CfgLowRes
ARM GAS  /tmp/ccGznRlG.s 			page 7


 343              		.thumb
 344              		.thumb_func
 345              		.type	ADC_CfgLowRes, %function
 346              	ADC_CfgLowRes:
 347              	.LFB40:
 348              		.loc 1 107 0
 349              		.cfi_startproc
 350              		@ args = 0, pretend = 0, frame = 0
 351              		@ frame_needed = 0, uses_anonymous_args = 0
 352              		@ link register save eliminated.
 353              	.LVL41:
 354              		.loc 1 108 0
 355 0000 4368     		ldr	r3, [r0, #4]
 356 0002 0901     		lsls	r1, r1, #4
 357              	.LVL42:
 358 0004 01F01001 		and	r1, r1, #16
 359 0008 1943     		orrs	r1, r1, r3
 360 000a 4160     		str	r1, [r0, #4]
 361 000c 7047     		bx	lr
 362              		.cfi_endproc
 363              	.LFE40:
 364              		.size	ADC_CfgLowRes, .-ADC_CfgLowRes
 365 000e 00BF     		.section	.text.ADC_CfgPowerSave,"ax",%progbits
 366              		.align	2
 367              		.p2align 4,,15
 368              		.global	ADC_CfgPowerSave
 369              		.thumb
 370              		.thumb_func
 371              		.type	ADC_CfgPowerSave, %function
 372              	ADC_CfgPowerSave:
 373              	.LFB41:
 374              		.loc 1 115 0
 375              		.cfi_startproc
 376              		@ args = 0, pretend = 0, frame = 0
 377              		@ frame_needed = 0, uses_anonymous_args = 0
 378              		@ link register save eliminated.
 379              	.LVL43:
 380              		.loc 1 116 0
 381 0000 4368     		ldr	r3, [r0, #4]
 382              		.loc 1 117 0
 383 0002 9201     		lsls	r2, r2, #6
 384              	.LVL44:
 385 0004 02F04002 		and	r2, r2, #64
 386              		.loc 1 116 0
 387 0008 4901     		lsls	r1, r1, #5
 388              	.LVL45:
 389 000a 01F02001 		and	r1, r1, #32
 390 000e 1343     		orrs	r3, r3, r2
 391 0010 1943     		orrs	r1, r1, r3
 392 0012 4160     		str	r1, [r0, #4]
 393 0014 7047     		bx	lr
 394              		.cfi_endproc
 395              	.LFE41:
 396              		.size	ADC_CfgPowerSave, .-ADC_CfgPowerSave
 397 0016 00BF     		.section	.text.ADC_CfgChannelMode,"ax",%progbits
 398              		.align	2
 399              		.p2align 4,,15
ARM GAS  /tmp/ccGznRlG.s 			page 8


 400              		.global	ADC_CfgChannelMode
 401              		.thumb
 402              		.thumb_func
 403              		.type	ADC_CfgChannelMode, %function
 404              	ADC_CfgChannelMode:
 405              	.LFB42:
 406              		.loc 1 124 0
 407              		.cfi_startproc
 408              		@ args = 0, pretend = 0, frame = 0
 409              		@ frame_needed = 0, uses_anonymous_args = 0
 410              		@ link register save eliminated.
 411              	.LVL46:
 412              		.loc 1 125 0
 413 0000 4368     		ldr	r3, [r0, #4]
 414 0002 43EAC171 		orr	r1, r3, r1, lsl #31
 415              	.LVL47:
 416 0006 4160     		str	r1, [r0, #4]
 417 0008 7047     		bx	lr
 418              		.cfi_endproc
 419              	.LFE42:
 420              		.size	ADC_CfgChannelMode, .-ADC_CfgChannelMode
 421              		.section	.text.ADC_check,"ax",%progbits
 422              		.align	2
 423              		.p2align 4,,15
 424              		.global	ADC_check
 425              		.thumb
 426              		.thumb_func
 427              		.type	ADC_check, %function
 428              	ADC_check:
 429              	.LFB44:
 430              		.loc 1 176 0
 431              		.cfi_startproc
 432              		@ args = 0, pretend = 0, frame = 0
 433              		@ frame_needed = 0, uses_anonymous_args = 0
 434              	.LVL48:
 435 0000 70B5     		push	{r4, r5, r6, lr}
 436              		.cfi_def_cfa_offset 16
 437              		.cfi_offset 4, -16
 438              		.cfi_offset 5, -12
 439              		.cfi_offset 6, -8
 440              		.cfi_offset 14, -4
 441              		.loc 1 182 0
 442 0002 4468     		ldr	r4, [r0, #4]
 443              	.LVL49:
 444              		.loc 1 176 0
 445 0004 0646     		mov	r6, r0
 446              		.loc 1 182 0
 447 0006 C4F30724 		ubfx	r4, r4, #8, #8
 448              	.LVL50:
 449              		.loc 1 183 0
 450 000a 0134     		adds	r4, r4, #1
 451 000c 6400     		lsls	r4, r4, #1
 452 000e B1FBF4F4 		udiv	r4, r1, r4
 453              	.LVL51:
 454              		.loc 1 184 0
 455 0012 3148     		ldr	r0, .L54
 456              	.LVL52:
ARM GAS  /tmp/ccGznRlG.s 			page 9


 457 0014 3149     		ldr	r1, .L54+4
 458              	.LVL53:
 459 0016 2246     		mov	r2, r4
 460 0018 FFF7FEFF 		bl	chprintf
 461              	.LVL54:
 462              		.loc 1 186 0
 463 001c 002C     		cmp	r4, #0
 464 001e 3CD0     		beq	.L50
 465              		.loc 1 190 0
 466 0020 2F4A     		ldr	r2, .L54+8
 467 0022 9442     		cmp	r4, r2
 468 0024 18D8     		bhi	.L51
 469              	.L35:
 470              		.loc 1 195 0
 471 0026 7568     		ldr	r5, [r6, #4]
 472              		.loc 1 196 0
 473 0028 7368     		ldr	r3, [r6, #4]
 474              		.loc 1 195 0
 475 002a C5F30345 		ubfx	r5, r5, #16, #4
 476              	.LVL55:
 477              		.loc 1 196 0
 478 002e 9806     		lsls	r0, r3, #26
 479 0030 05D5     		bpl	.L49
 480              		.loc 1 206 0
 481 0032 7368     		ldr	r3, [r6, #4]
 482 0034 1906     		lsls	r1, r3, #24
 483 0036 47D4     		bmi	.L52
 484              	.LVL56:
 485              	.L38:
 486              		.loc 1 210 0
 487 0038 7368     		ldr	r3, [r6, #4]
 488 003a 5A06     		lsls	r2, r3, #25
 489 003c 11D4     		bmi	.L39
 490              	.L49:
 491              		.loc 1 213 0
 492 003e 294A     		ldr	r2, .L54+12
 493 0040 04EB8404 		add	r4, r4, r4, lsl #2
 494              	.LVL57:
 495 0044 E400     		lsls	r4, r4, #3
 496 0046 2846     		mov	r0, r5
 497 0048 A2FB0434 		umull	r3, r4, r2, r4
 498 004c FFF7FEFF 		bl	calcul_startup
 499              	.LVL58:
 500 0050 A40C     		lsrs	r4, r4, #18
 501 0052 8442     		cmp	r4, r0
 502 0054 2BD8     		bhi	.L53
 503              	.L31:
 504 0056 70BD     		pop	{r4, r5, r6, pc}
 505              	.LVL59:
 506              	.L51:
 507              		.loc 1 192 0
 508 0058 1F48     		ldr	r0, .L54
 509 005a 2349     		ldr	r1, .L54+16
 510 005c FFF7FEFF 		bl	chprintf
 511              	.LVL60:
 512 0060 E1E7     		b	.L35
 513              	.L39:
ARM GAS  /tmp/ccGznRlG.s 			page 10


 514              		.loc 1 220 0
 515 0062 7368     		ldr	r3, [r6, #4]
 516 0064 5B06     		lsls	r3, r3, #25
 517 0066 F6D5     		bpl	.L31
 518              		.loc 1 223 0
 519 0068 2846     		mov	r0, r5
 520 006a FFF7FEFF 		bl	calcul_startup
 521              	.LVL61:
 522 006e 04EB4401 		add	r1, r4, r4, lsl #1
 523 0072 1C4A     		ldr	r2, .L54+12
 524 0074 8900     		lsls	r1, r1, #2
 525 0076 A2FB0131 		umull	r3, r1, r2, r1
 526 007a B0EB914F 		cmp	r0, r1, lsr #18
 527 007e EAD2     		bcs	.L31
 528              		.loc 1 225 0
 529 0080 04EB8404 		add	r4, r4, r4, lsl #2
 530              	.LVL62:
 531 0084 E400     		lsls	r4, r4, #3
 532 0086 A2FB0432 		umull	r3, r2, r2, r4
 533              		.loc 1 234 0
 534 008a BDE87040 		pop	{r4, r5, r6, lr}
 535              		.cfi_remember_state
 536              		.cfi_restore 14
 537              		.cfi_restore 6
 538              		.cfi_restore 5
 539              		.cfi_restore 4
 540              		.cfi_def_cfa_offset 0
 541              	.LVL63:
 542              		.loc 1 225 0
 543 008e 0346     		mov	r3, r0
 544 0090 920C     		lsrs	r2, r2, #18
 545 0092 1148     		ldr	r0, .L54
 546 0094 1549     		ldr	r1, .L54+20
 547 0096 FFF7FEBF 		b	chprintf
 548              	.LVL64:
 549              	.L50:
 550              		.cfi_restore_state
 551              		.loc 1 188 0
 552 009a 0F48     		ldr	r0, .L54
 553 009c 1449     		ldr	r1, .L54+24
 554 009e 0122     		movs	r2, #1
 555 00a0 FFF7FEFF 		bl	chprintf
 556              	.LVL65:
 557              		.loc 1 195 0
 558 00a4 7568     		ldr	r5, [r6, #4]
 559              	.LVL66:
 560              		.loc 1 196 0
 561 00a6 7368     		ldr	r3, [r6, #4]
 562 00a8 9B06     		lsls	r3, r3, #26
 563 00aa 08D4     		bmi	.L33
 564 00ac 70BD     		pop	{r4, r5, r6, pc}
 565              	.LVL67:
 566              	.L53:
 567              		.loc 1 215 0
 568 00ae 2246     		mov	r2, r4
 569              		.loc 1 234 0
 570 00b0 BDE87040 		pop	{r4, r5, r6, lr}
ARM GAS  /tmp/ccGznRlG.s 			page 11


 571              		.cfi_remember_state
 572              		.cfi_restore 14
 573              		.cfi_restore 6
 574              		.cfi_restore 5
 575              		.cfi_restore 4
 576              		.cfi_def_cfa_offset 0
 577              	.LVL68:
 578              		.loc 1 215 0
 579 00b4 0346     		mov	r3, r0
 580 00b6 0D49     		ldr	r1, .L54+20
 581 00b8 0748     		ldr	r0, .L54
 582 00ba FFF7FEBF 		b	chprintf
 583              	.LVL69:
 584              	.L33:
 585              		.cfi_restore_state
 586              		.loc 1 206 0
 587 00be 7368     		ldr	r3, [r6, #4]
 588              		.loc 1 195 0
 589 00c0 C5F30345 		ubfx	r5, r5, #16, #4
 590              	.LVL70:
 591              		.loc 1 206 0
 592 00c4 1906     		lsls	r1, r3, #24
 593 00c6 B7D5     		bpl	.L38
 594              	.L52:
 595              		.loc 1 208 0
 596 00c8 0348     		ldr	r0, .L54
 597 00ca 0A49     		ldr	r1, .L54+28
 598 00cc FFF7FEFF 		bl	chprintf
 599              	.LVL71:
 600              		.loc 1 210 0
 601 00d0 7368     		ldr	r3, [r6, #4]
 602 00d2 5A06     		lsls	r2, r3, #25
 603 00d4 C5D4     		bmi	.L39
 604 00d6 B2E7     		b	.L49
 605              	.L55:
 606              		.align	2
 607              	.L54:
 608 00d8 00000000 		.word	SD2
 609 00dc 00000000 		.word	.LC0
 610 00e0 00127A00 		.word	8000000
 611 00e4 83DE1B43 		.word	1125899907
 612 00e8 58000000 		.word	.LC2
 613 00ec 90000000 		.word	.LC3
 614 00f0 20000000 		.word	.LC1
 615 00f4 C0000000 		.word	.LC4
 616              		.cfi_endproc
 617              	.LFE44:
 618              		.size	ADC_check, .-ADC_check
 619              		.section	.text.ADC_GetConvertedData,"ax",%progbits
 620              		.align	2
 621              		.p2align 4,,15
 622              		.global	ADC_GetConvertedData
 623              		.thumb
 624              		.thumb_func
 625              		.type	ADC_GetConvertedData, %function
 626              	ADC_GetConvertedData:
 627              	.LFB45:
ARM GAS  /tmp/ccGznRlG.s 			page 12


 628              		.loc 1 245 0
 629              		.cfi_startproc
 630              		@ args = 0, pretend = 0, frame = 0
 631              		@ frame_needed = 0, uses_anonymous_args = 0
 632              		@ link register save eliminated.
 633              	.LVL72:
 634              		.loc 1 249 0
 635 0000 0F29     		cmp	r1, #15
 636              		.loc 1 251 0
 637 0002 9ABF     		itte	ls
 638 0004 1431     		addls	r1, r1, #20
 639              	.LVL73:
 640 0006 50F82100 		ldrls	r0, [r0, r1, lsl #2]
 641              	.LVL74:
 642              		.loc 1 246 0
 643 000a 0020     		movhi	r0, #0
 644              	.LVL75:
 645              		.loc 1 255 0
 646 000c 7047     		bx	lr
 647              		.cfi_endproc
 648              	.LFE45:
 649              		.size	ADC_GetConvertedData, .-ADC_GetConvertedData
 650 000e 00BF     		.section	.text.ADC_SetCompareChannel,"ax",%progbits
 651              		.align	2
 652              		.p2align 4,,15
 653              		.global	ADC_SetCompareChannel
 654              		.thumb
 655              		.thumb_func
 656              		.type	ADC_SetCompareChannel, %function
 657              	ADC_SetCompareChannel:
 658              	.LFB46:
 659              		.loc 1 263 0
 660              		.cfi_startproc
 661              		@ args = 0, pretend = 0, frame = 0
 662              		@ frame_needed = 0, uses_anonymous_args = 0
 663              	.LVL76:
 664              		.loc 1 264 0
 665 0000 1029     		cmp	r1, #16
 666              		.loc 1 263 0
 667 0002 08B5     		push	{r3, lr}
 668              		.cfi_def_cfa_offset 8
 669              		.cfi_offset 3, -8
 670              		.cfi_offset 14, -4
 671              		.loc 1 264 0
 672 0004 11D8     		bhi	.L64
 673              		.loc 1 268 0
 674 0006 036C     		ldr	r3, [r0, #64]
 675              		.loc 1 266 0
 676 0008 03D1     		bne	.L65
 677              		.loc 1 274 0
 678 000a 43F40073 		orr	r3, r3, #512
 679 000e 0364     		str	r3, [r0, #64]
 680 0010 08BD     		pop	{r3, pc}
 681              	.L65:
 682              		.loc 1 268 0
 683 0012 23F40073 		bic	r3, r3, #512
 684 0016 0364     		str	r3, [r0, #64]
ARM GAS  /tmp/ccGznRlG.s 			page 13


 685              		.loc 1 269 0
 686 0018 036C     		ldr	r3, [r0, #64]
 687 001a 23F0F003 		bic	r3, r3, #240
 688 001e 0364     		str	r3, [r0, #64]
 689              		.loc 1 270 0
 690 0020 036C     		ldr	r3, [r0, #64]
 691 0022 43EA0111 		orr	r1, r3, r1, lsl #4
 692              	.LVL77:
 693 0026 0164     		str	r1, [r0, #64]
 694 0028 08BD     		pop	{r3, pc}
 695              	.LVL78:
 696              	.L64:
 697              		.loc 1 264 0 discriminator 1
 698 002a 0348     		ldr	r0, .L66
 699              	.LVL79:
 700 002c 4FF48471 		mov	r1, #264
 701              	.LVL80:
 702 0030 024A     		ldr	r2, .L66+4
 703 0032 034B     		ldr	r3, .L66+8
 704 0034 FFF7FEFF 		bl	__assert_func
 705              	.LVL81:
 706              	.L67:
 707              		.align	2
 708              	.L66:
 709 0038 E4000000 		.word	.LC5
 710 003c 00000000 		.word	.LANCHOR0
 711 0040 50010000 		.word	.LC6
 712              		.cfi_endproc
 713              	.LFE46:
 714              		.size	ADC_SetCompareChannel, .-ADC_SetCompareChannel
 715              		.section	.text.ADC_SetCompareMode,"ax",%progbits
 716              		.align	2
 717              		.p2align 4,,15
 718              		.global	ADC_SetCompareMode
 719              		.thumb
 720              		.thumb_func
 721              		.type	ADC_SetCompareMode, %function
 722              	ADC_SetCompareMode:
 723              	.LFB47:
 724              		.loc 1 284 0
 725              		.cfi_startproc
 726              		@ args = 0, pretend = 0, frame = 0
 727              		@ frame_needed = 0, uses_anonymous_args = 0
 728              		@ link register save eliminated.
 729              	.LVL82:
 730              		.loc 1 285 0
 731 0000 036C     		ldr	r3, [r0, #64]
 732              		.loc 1 286 0
 733 0002 01F00301 		and	r1, r1, #3
 734              	.LVL83:
 735              		.loc 1 285 0
 736 0006 23F00303 		bic	r3, r3, #3
 737 000a 0364     		str	r3, [r0, #64]
 738              		.loc 1 286 0
 739 000c 036C     		ldr	r3, [r0, #64]
 740 000e 1943     		orrs	r1, r1, r3
 741 0010 0164     		str	r1, [r0, #64]
ARM GAS  /tmp/ccGznRlG.s 			page 14


 742 0012 7047     		bx	lr
 743              		.cfi_endproc
 744              	.LFE47:
 745              		.size	ADC_SetCompareMode, .-ADC_SetCompareMode
 746              		.section	.text.ADC_SetComparisonWindow,"ax",%progbits
 747              		.align	2
 748              		.p2align 4,,15
 749              		.global	ADC_SetComparisonWindow
 750              		.thumb
 751              		.thumb_func
 752              		.type	ADC_SetComparisonWindow, %function
 753              	ADC_SetComparisonWindow:
 754              	.LFB48:
 755              		.loc 1 295 0
 756              		.cfi_startproc
 757              		@ args = 0, pretend = 0, frame = 0
 758              		@ frame_needed = 0, uses_anonymous_args = 0
 759              		@ link register save eliminated.
 760              	.LVL84:
 761              		.loc 1 296 0
 762 0000 4164     		str	r1, [r0, #68]
 763 0002 7047     		bx	lr
 764              		.cfi_endproc
 765              	.LFE48:
 766              		.size	ADC_SetComparisonWindow, .-ADC_SetComparisonWindow
 767              		.section	.text.ADC_IsInterruptMasked,"ax",%progbits
 768              		.align	2
 769              		.p2align 4,,15
 770              		.global	ADC_IsInterruptMasked
 771              		.thumb
 772              		.thumb_func
 773              		.type	ADC_IsInterruptMasked, %function
 774              	ADC_IsInterruptMasked:
 775              	.LFB49:
 776              		.loc 1 308 0
 777              		.cfi_startproc
 778              		@ args = 0, pretend = 0, frame = 0
 779              		@ frame_needed = 0, uses_anonymous_args = 0
 780              		@ link register save eliminated.
 781              	.LVL85:
 782              		.loc 1 309 0
 783 0000 C06A     		ldr	r0, [r0, #44]
 784              	.LVL86:
 785              		.loc 1 310 0
 786 0002 0840     		ands	r0, r0, r1
 787 0004 7047     		bx	lr
 788              		.cfi_endproc
 789              	.LFE49:
 790              		.size	ADC_IsInterruptMasked, .-ADC_IsInterruptMasked
 791 0006 00BF     		.section	.text.ADC_IsStatusSet,"ax",%progbits
 792              		.align	2
 793              		.p2align 4,,15
 794              		.global	ADC_IsStatusSet
 795              		.thumb
 796              		.thumb_func
 797              		.type	ADC_IsStatusSet, %function
 798              	ADC_IsStatusSet:
ARM GAS  /tmp/ccGznRlG.s 			page 15


 799              	.LFB50:
 800              		.loc 1 321 0
 801              		.cfi_startproc
 802              		@ args = 0, pretend = 0, frame = 0
 803              		@ frame_needed = 0, uses_anonymous_args = 0
 804              		@ link register save eliminated.
 805              	.LVL87:
 806              		.loc 1 322 0
 807 0000 006B     		ldr	r0, [r0, #48]
 808              	.LVL88:
 809              		.loc 1 323 0
 810 0002 0840     		ands	r0, r0, r1
 811 0004 7047     		bx	lr
 812              		.cfi_endproc
 813              	.LFE50:
 814              		.size	ADC_IsStatusSet, .-ADC_IsStatusSet
 815 0006 00BF     		.section	.text.ADC_IsChannelInterruptStatusSet,"ax",%progbits
 816              		.align	2
 817              		.p2align 4,,15
 818              		.global	ADC_IsChannelInterruptStatusSet
 819              		.thumb
 820              		.thumb_func
 821              		.type	ADC_IsChannelInterruptStatusSet, %function
 822              	ADC_IsChannelInterruptStatusSet:
 823              	.LFB51:
 824              		.loc 1 334 0
 825              		.cfi_startproc
 826              		@ args = 0, pretend = 0, frame = 0
 827              		@ frame_needed = 0, uses_anonymous_args = 0
 828              		@ link register save eliminated.
 829              	.LVL89:
 830              		.loc 1 337 0
 831 0000 0123     		movs	r3, #1
 832 0002 8B40     		lsls	r3, r3, r1
 833              	.LVL90:
 834 0004 1840     		ands	r0, r0, r3
 835              	.LVL91:
 836              		.loc 1 347 0
 837 0006 181A     		subs	r0, r3, r0
 838 0008 B0FA80F0 		clz	r0, r0
 839 000c 4009     		lsrs	r0, r0, #5
 840 000e 7047     		bx	lr
 841              		.cfi_endproc
 842              	.LFE51:
 843              		.size	ADC_IsChannelInterruptStatusSet, .-ADC_IsChannelInterruptStatusSet
 844              		.section	.text.ADC_ReadBuffer,"ax",%progbits
 845              		.align	2
 846              		.p2align 4,,15
 847              		.global	ADC_ReadBuffer
 848              		.thumb
 849              		.thumb_func
 850              		.type	ADC_ReadBuffer, %function
 851              	ADC_ReadBuffer:
 852              	.LFB52:
 853              		.loc 1 357 0
 854              		.cfi_startproc
 855              		@ args = 0, pretend = 0, frame = 0
ARM GAS  /tmp/ccGznRlG.s 			page 16


 856              		@ frame_needed = 0, uses_anonymous_args = 0
 857              		@ link register save eliminated.
 858              	.LVL92:
 859 0000 0346     		mov	r3, r0
 860              		.loc 1 359 0
 861 0002 D0F80401 		ldr	r0, [r0, #260]
 862              	.LVL93:
 863 0006 10B9     		cbnz	r0, .L74
 864              		.loc 1 359 0 is_stmt 0 discriminator 1
 865 0008 D3F81401 		ldr	r0, [r3, #276]
 866 000c 50B1     		cbz	r0, .L79
 867              	.L74:
 868              		.loc 1 370 0 is_stmt 1
 869 000e D3F81401 		ldr	r0, [r3, #276]
 870 0012 28B9     		cbnz	r0, .L76
 871              		.loc 1 372 0
 872 0014 C3F81011 		str	r1, [r3, #272]
 873              		.loc 1 375 0
 874 0018 0120     		movs	r0, #1
 875              		.loc 1 373 0
 876 001a C3F81421 		str	r2, [r3, #276]
 877              		.loc 1 375 0
 878 001e 7047     		bx	lr
 879              	.L76:
 880              		.loc 1 379 0
 881 0020 0020     		movs	r0, #0
 882 0022 7047     		bx	lr
 883              	.L79:
 884              		.loc 1 357 0
 885 0024 10B4     		push	{r4}
 886              		.cfi_def_cfa_offset 4
 887              		.cfi_offset 4, -4
 888              		.loc 1 363 0
 889 0026 0124     		movs	r4, #1
 890              		.loc 1 361 0
 891 0028 C3F80011 		str	r1, [r3, #256]
 892              		.loc 1 365 0
 893 002c 2046     		mov	r0, r4
 894              		.loc 1 362 0
 895 002e C3F80421 		str	r2, [r3, #260]
 896              		.loc 1 363 0
 897 0032 C3F82041 		str	r4, [r3, #288]
 898              		.loc 1 382 0
 899 0036 5DF8044B 		ldr	r4, [sp], #4
 900              		.cfi_restore 4
 901              		.cfi_def_cfa_offset 0
 902 003a 7047     		bx	lr
 903              		.cfi_endproc
 904              	.LFE52:
 905              		.size	ADC_ReadBuffer, .-ADC_ReadBuffer
 906              		.section	.rodata.str1.4,"aMS",%progbits,1
 907              		.align	2
 908              	.LC0:
 909 0000 41444320 		.ascii	"ADC clock frequency =  %d Hz\015\012\000"
 909      636C6F63 
 909      6B206672 
 909      65717565 
ARM GAS  /tmp/ccGznRlG.s 			page 17


 909      6E637920 
 910 001f 00       		.space	1
 911              	.LC1:
 912 0020 61646320 		.ascii	"adc frequency too low (out of specification: %d Hz)"
 912      66726571 
 912      75656E63 
 912      7920746F 
 912      6F206C6F 
 913 0053 0D0A00   		.ascii	"\015\012\000"
 914 0056 0000     		.space	2
 915              	.LC2:
 916 0058 61646320 		.ascii	"adc frequency too high (out of specification: %d Hz"
 916      66726571 
 916      75656E63 
 916      7920746F 
 916      6F206869 
 917 008b 290D0A00 		.ascii	")\015\012\000"
 918 008f 00       		.space	1
 919              	.LC3:
 920 0090 53746172 		.ascii	"Startup time too small: %d, programmed: %d\015\012\000"
 920      74757020 
 920      74696D65 
 920      20746F6F 
 920      20736D61 
 921 00bd 000000   		.space	3
 922              	.LC4:
 923 00c0 46726565 		.ascii	"FreeRun forbidden in sleep mode\012\015\000"
 923      52756E20 
 923      666F7262 
 923      69646465 
 923      6E20696E 
 924 00e2 0000     		.space	2
 925              	.LC5:
 926 00e4 2F686F6D 		.ascii	"/home/nicolas/Escritorio/Embebidos/stamp_repo/files"
 926      652F6E69 
 926      636F6C61 
 926      732F4573 
 926      63726974 
 927 0117 2F636F64 		.ascii	"/code/ext/ChibiOS/os/hal/platforms/AT91SAM3S/atmel_"
 927      652F6578 
 927      742F4368 
 927      6962694F 
 927      532F6F73 
 928 014a 6164632E 		.ascii	"adc.c\000"
 928      6300
 929              	.LC6:
 930 0150 64774368 		.ascii	"dwChannel <= 16\000"
 930      616E6E65 
 930      6C203C3D 
 930      20313600 
 931              		.section	.rodata.__func__.6032,"a",%progbits
 932              		.align	2
 933              		.set	.LANCHOR0,. + 0
 934              		.type	__func__.6032, %object
 935              		.size	__func__.6032, 22
 936              	__func__.6032:
 937 0000 4144435F 		.ascii	"ADC_SetCompareChannel\000"
ARM GAS  /tmp/ccGznRlG.s 			page 18


 937      53657443 
 937      6F6D7061 
 937      72654368 
 937      616E6E65 
 938              		.text
 939              	.Letext0:
 940              		.file 2 "/opt/gcc-arm-none-eabi-4_9-2015q3/lib/gcc/arm-none-eabi/4.9.3/include/stddef.h"
 941              		.file 3 "/opt/gcc-arm-none-eabi-4_9-2015q3/arm-none-eabi/include/machine/_default_types.h"
 942              		.file 4 "/opt/gcc-arm-none-eabi-4_9-2015q3/arm-none-eabi/include/sys/_stdint.h"
 943              		.file 5 "/opt/gcc-arm-none-eabi-4_9-2015q3/arm-none-eabi/include/stdint.h"
 944              		.file 6 "/home/nicolas/Escritorio/Embebidos/stamp_repo/files/code/ext/ChibiOS/os/ports/GCC/ARMCMx/
 945              		.file 7 "/home/nicolas/Escritorio/Embebidos/stamp_repo/files/code/ext/ChibiOS/os/kernel/include/ch
 946              		.file 8 "/home/nicolas/Escritorio/Embebidos/stamp_repo/files/code/ext/ChibiOS/os/kernel/include/ch
 947              		.file 9 "/home/nicolas/Escritorio/Embebidos/stamp_repo/files/code/ext/ChibiOS/os/ports/GCC/ARMCMx/
 948              		.file 10 "/home/nicolas/Escritorio/Embebidos/stamp_repo/files/code/ext/ChibiOS/os/kernel/include/c
 949              		.file 11 "/home/nicolas/Escritorio/Embebidos/stamp_repo/files/code/ext/ChibiOS/os/kernel/include/c
 950              		.file 12 "/home/nicolas/Escritorio/Embebidos/stamp_repo/files/code/ext/ChibiOS/os/kernel/include/c
 951              		.file 13 "/home/nicolas/Escritorio/Embebidos/stamp_repo/files/code/ext/ChibiOS/os/kernel/include/c
 952              		.file 14 "/home/nicolas/Escritorio/Embebidos/stamp_repo/files/code/ext/ChibiOS/os/hal/platforms/AT
 953              		.file 15 "/home/nicolas/Escritorio/Embebidos/stamp_repo/files/code/ext/ChibiOS/os/hal/include/seri
 954              		.file 16 "/home/nicolas/Escritorio/Embebidos/stamp_repo/files/code/ext/ChibiOS/os/hal/platforms/AT
 955              		.file 17 "/home/nicolas/Escritorio/Embebidos/stamp_repo/files/code/ext/ChibiOS/os/hal/platforms/AT
 956              		.file 18 "/home/nicolas/Escritorio/Embebidos/stamp_repo/files/code/ext/ChibiOS/os/various/chprintf
 957              		.file 19 "/opt/gcc-arm-none-eabi-4_9-2015q3/arm-none-eabi/include/assert.h"