ARM GAS  /tmp/ccMNbNq9.s 			page 1


   1              		.syntax unified
   2              		.cpu cortex-m3
   3              		.fpu softvfp
   4              		.eabi_attribute 20, 1
   5              		.eabi_attribute 21, 1
   6              		.eabi_attribute 23, 3
   7              		.eabi_attribute 24, 1
   8              		.eabi_attribute 25, 1
   9              		.eabi_attribute 26, 1
  10              		.eabi_attribute 30, 2
  11              		.eabi_attribute 34, 1
  12              		.eabi_attribute 18, 4
  13              		.thumb
  14              		.file	"chheap.c"
  15              		.text
  16              	.Ltext0:
  17              		.cfi_sections	.debug_frame
  18              		.section	.text._heap_init,"ax",%progbits
  19              		.align	2
  20              		.p2align 4,,15
  21              		.global	_heap_init
  22              		.thumb
  23              		.thumb_func
  24              		.type	_heap_init, %function
  25              	_heap_init:
  26              	.LFB7:
  27              		.file 1 "/home/diana/Documentos/Embebidos/stamp_repo/files/code/ext/ChibiOS/os/kernel/src/chheap.c
  28              		.loc 1 75 0
  29              		.cfi_startproc
  30              		@ args = 0, pretend = 0, frame = 0
  31              		@ frame_needed = 0, uses_anonymous_args = 0
  32              		@ link register save eliminated.
  33              		.loc 1 76 0
  34 0000 044B     		ldr	r3, .L2
  35 0002 0549     		ldr	r1, .L2+4
  36              		.loc 1 77 0
  37 0004 0022     		movs	r2, #0
  38              		.loc 1 80 0
  39 0006 03F11000 		add	r0, r3, #16
  40              		.loc 1 76 0
  41 000a 1960     		str	r1, [r3]
  42              		.loc 1 77 0
  43 000c 9A60     		str	r2, [r3, #8]
  44              		.loc 1 78 0
  45 000e DA60     		str	r2, [r3, #12]
  46              		.loc 1 80 0
  47 0010 FFF7FEBF 		b	chMtxInit
  48              	.LVL0:
  49              	.L3:
  50              		.align	2
  51              	.L2:
  52 0014 00000000 		.word	.LANCHOR0
  53 0018 00000000 		.word	chCoreAlloc
  54              		.cfi_endproc
  55              	.LFE7:
  56              		.size	_heap_init, .-_heap_init
  57              		.section	.text.chHeapInit,"ax",%progbits
ARM GAS  /tmp/ccMNbNq9.s 			page 2


  58              		.align	2
  59              		.p2align 4,,15
  60              		.global	chHeapInit
  61              		.thumb
  62              		.thumb_func
  63              		.type	chHeapInit, %function
  64              	chHeapInit:
  65              	.LFB8:
  66              		.loc 1 99 0
  67              		.cfi_startproc
  68              		@ args = 0, pretend = 0, frame = 0
  69              		@ frame_needed = 0, uses_anonymous_args = 0
  70              		@ link register save eliminated.
  71              	.LVL1:
  72              		.loc 1 104 0
  73 0000 0023     		movs	r3, #0
  74              		.loc 1 108 0
  75 0002 083A     		subs	r2, r2, #8
  76              	.LVL2:
  77              		.loc 1 105 0
  78 0004 8160     		str	r1, [r0, #8]
  79              		.loc 1 104 0
  80 0006 0360     		str	r3, [r0]
  81              	.LVL3:
  82              		.loc 1 106 0
  83 0008 C360     		str	r3, [r0, #12]
  84              		.loc 1 110 0
  85 000a 1030     		adds	r0, r0, #16
  86              	.LVL4:
  87              		.loc 1 108 0
  88 000c 4A60     		str	r2, [r1, #4]
  89              		.loc 1 107 0
  90 000e 0B60     		str	r3, [r1]
  91              		.loc 1 110 0
  92 0010 FFF7FEBF 		b	chMtxInit
  93              	.LVL5:
  94              		.cfi_endproc
  95              	.LFE8:
  96              		.size	chHeapInit, .-chHeapInit
  97              		.section	.text.chHeapAlloc,"ax",%progbits
  98              		.align	2
  99              		.p2align 4,,15
 100              		.global	chHeapAlloc
 101              		.thumb
 102              		.thumb_func
 103              		.type	chHeapAlloc, %function
 104              	chHeapAlloc:
 105              	.LFB9:
 106              		.loc 1 132 0
 107              		.cfi_startproc
 108              		@ args = 0, pretend = 0, frame = 0
 109              		@ frame_needed = 0, uses_anonymous_args = 0
 110              	.LVL6:
 111 0000 F8B5     		push	{r3, r4, r5, r6, r7, lr}
 112              		.cfi_def_cfa_offset 24
 113              		.cfi_offset 3, -24
 114              		.cfi_offset 4, -20
ARM GAS  /tmp/ccMNbNq9.s 			page 3


 115              		.cfi_offset 5, -16
 116              		.cfi_offset 6, -12
 117              		.cfi_offset 7, -8
 118              		.cfi_offset 14, -4
 119              		.loc 1 136 0
 120 0002 1E4E     		ldr	r6, .L21
 121              		.loc 1 138 0
 122 0004 0731     		adds	r1, r1, #7
 123              	.LVL7:
 124              		.loc 1 136 0
 125 0006 0028     		cmp	r0, #0
 126 0008 18BF     		it	ne
 127 000a 0646     		movne	r6, r0
 128              	.LVL8:
 129              		.loc 1 140 0
 130 000c 06F11000 		add	r0, r6, #16
 131              		.loc 1 138 0
 132 0010 21F00705 		bic	r5, r1, #7
 133              	.LVL9:
 134              		.loc 1 139 0
 135 0014 06F10804 		add	r4, r6, #8
 136              	.LVL10:
 137              		.loc 1 140 0
 138 0018 FFF7FEFF 		bl	chMtxLock
 139              	.LVL11:
 140              		.loc 1 142 0
 141 001c 03E0     		b	.L7
 142              	.LVL12:
 143              	.L11:
 144              		.loc 1 144 0
 145 001e 4368     		ldr	r3, [r0, #4]
 146 0020 9D42     		cmp	r5, r3
 147 0022 11D9     		bls	.L20
 148 0024 0446     		mov	r4, r0
 149              	.LVL13:
 150              	.L7:
 151              		.loc 1 142 0
 152 0026 2068     		ldr	r0, [r4]
 153              	.LVL14:
 154 0028 0028     		cmp	r0, #0
 155 002a F8D1     		bne	.L11
 156              		.loc 1 167 0
 157 002c FFF7FEFF 		bl	chMtxUnlock
 158              	.LVL15:
 159              		.loc 1 171 0
 160 0030 3368     		ldr	r3, [r6]
 161 0032 0BB3     		cbz	r3, .L13
 162              		.loc 1 172 0
 163 0034 05F10800 		add	r0, r5, #8
 164 0038 9847     		blx	r3
 165              	.LVL16:
 166              		.loc 1 173 0
 167 003a E8B1     		cbz	r0, .L13
 168              		.loc 1 174 0
 169 003c 0660     		str	r6, [r0]
 170              		.loc 1 175 0
 171 003e 4560     		str	r5, [r0, #4]
ARM GAS  /tmp/ccMNbNq9.s 			page 4


 172              		.loc 1 176 0
 173 0040 00F10804 		add	r4, r0, #8
 174              	.LVL17:
 175              	.L10:
 176              		.loc 1 181 0
 177 0044 2046     		mov	r0, r4
 178 0046 F8BD     		pop	{r3, r4, r5, r6, r7, pc}
 179              	.LVL18:
 180              	.L20:
 181              		.loc 1 145 0
 182 0048 05F10802 		add	r2, r5, #8
 183 004c 9A42     		cmp	r2, r3
 184 004e 08D9     		bls	.L8
 185              		.loc 1 149 0
 186 0050 0368     		ldr	r3, [r0]
 187 0052 2360     		str	r3, [r4]
 188              	.L9:
 189              		.loc 1 159 0
 190 0054 0446     		mov	r4, r0
 191              	.LVL19:
 192 0056 44F8086B 		str	r6, [r4], #8
 193              		.loc 1 161 0
 194 005a FFF7FEFF 		bl	chMtxUnlock
 195              	.LVL20:
 196              		.loc 1 181 0
 197 005e 2046     		mov	r0, r4
 198 0060 F8BD     		pop	{r3, r4, r5, r6, r7, pc}
 199              	.LVL21:
 200              	.L8:
 201 0062 6FF00707 		mvn	r7, #7
 202              		.loc 1 154 0
 203 0066 0168     		ldr	r1, [r0]
 204 0068 7F1B     		subs	r7, r7, r5
 205              		.loc 1 155 0
 206 006a 3B44     		add	r3, r3, r7
 207              		.loc 1 153 0
 208 006c 8718     		adds	r7, r0, r2
 209              	.LVL22:
 210              		.loc 1 154 0
 211 006e 8150     		str	r1, [r0, r2]
 212              		.loc 1 155 0
 213 0070 7B60     		str	r3, [r7, #4]
 214              		.loc 1 156 0
 215 0072 2760     		str	r7, [r4]
 216              		.loc 1 157 0
 217 0074 4560     		str	r5, [r0, #4]
 218 0076 EDE7     		b	.L9
 219              	.LVL23:
 220              	.L13:
 221              		.loc 1 180 0
 222 0078 0024     		movs	r4, #0
 223              	.LVL24:
 224 007a E3E7     		b	.L10
 225              	.L22:
 226              		.align	2
 227              	.L21:
 228 007c 00000000 		.word	.LANCHOR0
ARM GAS  /tmp/ccMNbNq9.s 			page 5


 229              		.cfi_endproc
 230              	.LFE9:
 231              		.size	chHeapAlloc, .-chHeapAlloc
 232              		.section	.text.chHeapFree,"ax",%progbits
 233              		.align	2
 234              		.p2align 4,,15
 235              		.global	chHeapFree
 236              		.thumb
 237              		.thumb_func
 238              		.type	chHeapFree, %function
 239              	chHeapFree:
 240              	.LFB10:
 241              		.loc 1 194 0
 242              		.cfi_startproc
 243              		@ args = 0, pretend = 0, frame = 0
 244              		@ frame_needed = 0, uses_anonymous_args = 0
 245              	.LVL25:
 246 0000 70B5     		push	{r4, r5, r6, lr}
 247              		.cfi_def_cfa_offset 16
 248              		.cfi_offset 4, -16
 249              		.cfi_offset 5, -12
 250              		.cfi_offset 6, -8
 251              		.cfi_offset 14, -4
 252              		.loc 1 194 0
 253 0002 0646     		mov	r6, r0
 254              		.loc 1 201 0
 255 0004 50F8080C 		ldr	r0, [r0, #-8]
 256              	.LVL26:
 257              		.loc 1 200 0
 258 0008 A6F10804 		sub	r4, r6, #8
 259              	.LVL27:
 260              		.loc 1 202 0
 261 000c 00F10805 		add	r5, r0, #8
 262              	.LVL28:
 263              		.loc 1 203 0
 264 0010 1030     		adds	r0, r0, #16
 265              	.LVL29:
 266 0012 FFF7FEFF 		bl	chMtxLock
 267              	.LVL30:
 268              		.loc 1 202 0
 269 0016 2B46     		mov	r3, r5
 270              	.LVL31:
 271              	.L30:
 272              		.loc 1 210 0
 273 0018 AB42     		cmp	r3, r5
 274 001a 04D0     		beq	.L24
 275              	.L36:
 276              		.loc 1 210 0 is_stmt 0 discriminator 2
 277 001c A342     		cmp	r3, r4
 278 001e 02D3     		bcc	.L24
 279 0020 1B68     		ldr	r3, [r3]
 280              	.LVL32:
 281              		.loc 1 210 0
 282 0022 AB42     		cmp	r3, r5
 283 0024 FAD1     		bne	.L36
 284              	.L24:
 285              		.loc 1 211 0 is_stmt 1 discriminator 3
ARM GAS  /tmp/ccMNbNq9.s 			page 6


 286 0026 1A68     		ldr	r2, [r3]
 287              		.loc 1 210 0 discriminator 3
 288 0028 1AB1     		cbz	r2, .L26
 289              		.loc 1 211 0
 290 002a 9442     		cmp	r4, r2
 291 002c 01D3     		bcc	.L26
 292 002e 1346     		mov	r3, r2
 293              	.LVL33:
 294              		.loc 1 229 0
 295 0030 F2E7     		b	.L30
 296              	.LVL34:
 297              	.L26:
 298              		.loc 1 216 0
 299 0032 56F8041C 		ldr	r1, [r6, #-4]
 300              		.loc 1 213 0
 301 0036 46F8082C 		str	r2, [r6, #-8]
 302              		.loc 1 214 0
 303 003a 1C60     		str	r4, [r3]
 304              		.loc 1 216 0
 305 003c 01F10802 		add	r2, r1, #8
 306 0040 56F8085C 		ldr	r5, [r6, #-8]
 307              	.LVL35:
 308 0044 A018     		adds	r0, r4, r2
 309 0046 A842     		cmp	r0, r5
 310 0048 09D0     		beq	.L37
 311              		.loc 1 221 0
 312 004a 5968     		ldr	r1, [r3, #4]
 313 004c 01F10802 		add	r2, r1, #8
 314 0050 1A44     		add	r2, r2, r3
 315 0052 9442     		cmp	r4, r2
 316 0054 11D0     		beq	.L38
 317              	.L29:
 318              		.loc 1 233 0
 319 0056 BDE87040 		pop	{r4, r5, r6, lr}
 320              		.cfi_remember_state
 321              		.cfi_restore 14
 322              		.cfi_restore 6
 323              		.cfi_restore 5
 324              		.cfi_restore 4
 325              		.cfi_def_cfa_offset 0
 326              	.LVL36:
 327              		.loc 1 231 0
 328 005a FFF7FEBF 		b	chMtxUnlock
 329              	.LVL37:
 330              	.L37:
 331              		.cfi_restore_state
 332              		.loc 1 218 0
 333 005e 4068     		ldr	r0, [r0, #4]
 334              		.loc 1 219 0
 335 0060 A558     		ldr	r5, [r4, r2]
 336              		.loc 1 218 0
 337 0062 0A18     		adds	r2, r1, r0
 338 0064 0832     		adds	r2, r2, #8
 339 0066 46F8042C 		str	r2, [r6, #-4]
 340              		.loc 1 221 0
 341 006a 5968     		ldr	r1, [r3, #4]
 342              		.loc 1 219 0
ARM GAS  /tmp/ccMNbNq9.s 			page 7


 343 006c 46F8085C 		str	r5, [r6, #-8]
 344              		.loc 1 221 0
 345 0070 01F10802 		add	r2, r1, #8
 346 0074 1A44     		add	r2, r2, r3
 347 0076 9442     		cmp	r4, r2
 348 0078 EDD1     		bne	.L29
 349              	.L38:
 350              		.loc 1 224 0
 351 007a 16E90500 		ldmdb	r6, {r0, r2}
 352              		.loc 1 223 0
 353 007e 0A44     		add	r2, r2, r1
 354 0080 0832     		adds	r2, r2, #8
 355              		.loc 1 224 0
 356 0082 83E80500 		stmia	r3, {r0, r2}
 357              		.loc 1 233 0
 358 0086 BDE87040 		pop	{r4, r5, r6, lr}
 359              		.cfi_restore 4
 360              		.cfi_restore 5
 361              		.cfi_restore 6
 362              		.cfi_restore 14
 363              		.cfi_def_cfa_offset 0
 364              	.LVL38:
 365              		.loc 1 231 0
 366 008a FFF7FEBF 		b	chMtxUnlock
 367              	.LVL39:
 368              		.cfi_endproc
 369              	.LFE10:
 370              		.size	chHeapFree, .-chHeapFree
 371 008e 00BF     		.section	.text.chHeapStatus,"ax",%progbits
 372              		.align	2
 373              		.p2align 4,,15
 374              		.global	chHeapStatus
 375              		.thumb
 376              		.thumb_func
 377              		.type	chHeapStatus, %function
 378              	chHeapStatus:
 379              	.LFB11:
 380              		.loc 1 250 0
 381              		.cfi_startproc
 382              		@ args = 0, pretend = 0, frame = 0
 383              		@ frame_needed = 0, uses_anonymous_args = 0
 384              	.LVL40:
 385 0000 38B5     		push	{r3, r4, r5, lr}
 386              		.cfi_def_cfa_offset 16
 387              		.cfi_offset 3, -16
 388              		.cfi_offset 4, -12
 389              		.cfi_offset 5, -8
 390              		.cfi_offset 14, -4
 391              		.loc 1 255 0
 392 0002 0E4C     		ldr	r4, .L50
 393              		.loc 1 250 0
 394 0004 0D46     		mov	r5, r1
 395              		.loc 1 255 0
 396 0006 0028     		cmp	r0, #0
 397 0008 18BF     		it	ne
 398 000a 0446     		movne	r4, r0
 399              	.LVL41:
ARM GAS  /tmp/ccMNbNq9.s 			page 8


 400              		.loc 1 257 0
 401 000c 04F11000 		add	r0, r4, #16
 402 0010 FFF7FEFF 		bl	chMtxLock
 403              	.LVL42:
 404              		.loc 1 260 0
 405 0014 A368     		ldr	r3, [r4, #8]
 406 0016 6BB1     		cbz	r3, .L44
 407              		.loc 1 260 0 is_stmt 0 discriminator 3
 408 0018 0022     		movs	r2, #0
 409 001a 1446     		mov	r4, r2
 410              	.LVL43:
 411              	.L42:
 412              		.loc 1 261 0 is_stmt 1 discriminator 3
 413 001c 5868     		ldr	r0, [r3, #4]
 414              		.loc 1 260 0 discriminator 3
 415 001e 1B68     		ldr	r3, [r3]
 416 0020 0134     		adds	r4, r4, #1
 417              	.LVL44:
 418              		.loc 1 261 0 discriminator 3
 419 0022 0244     		add	r2, r2, r0
 420              	.LVL45:
 421              		.loc 1 260 0 discriminator 3
 422 0024 002B     		cmp	r3, #0
 423 0026 F9D1     		bne	.L42
 424              	.LVL46:
 425              	.L41:
 426              		.loc 1 262 0
 427 0028 05B1     		cbz	r5, .L43
 428              		.loc 1 263 0
 429 002a 2A60     		str	r2, [r5]
 430              	.L43:
 431              		.loc 1 265 0
 432 002c FFF7FEFF 		bl	chMtxUnlock
 433              	.LVL47:
 434              		.loc 1 267 0
 435 0030 2046     		mov	r0, r4
 436 0032 38BD     		pop	{r3, r4, r5, pc}
 437              	.LVL48:
 438              	.L44:
 439              		.loc 1 259 0
 440 0034 1A46     		mov	r2, r3
 441              		.loc 1 260 0
 442 0036 1C46     		mov	r4, r3
 443              	.LVL49:
 444 0038 F6E7     		b	.L41
 445              	.L51:
 446 003a 00BF     		.align	2
 447              	.L50:
 448 003c 00000000 		.word	.LANCHOR0
 449              		.cfi_endproc
 450              	.LFE11:
 451              		.size	chHeapStatus, .-chHeapStatus
 452              		.section	.bss.default_heap,"aw",%nobits
 453              		.align	3
 454              		.set	.LANCHOR0,. + 0
 455              		.type	default_heap, %object
 456              		.size	default_heap, 32
ARM GAS  /tmp/ccMNbNq9.s 			page 9


 457              	default_heap:
 458 0000 00000000 		.space	32
 458      00000000 
 458      00000000 
 458      00000000 
 458      00000000 
 459              		.text
 460              	.Letext0:
 461              		.file 2 "/media/diana/ACER/Diana/Documents/College/VIII/Embebidos/gcc-arm-none-eabi-4_9-2015q3/lib
 462              		.file 3 "/media/diana/ACER/Diana/Documents/College/VIII/Embebidos/gcc-arm-none-eabi-4_9-2015q3/arm
 463              		.file 4 "/media/diana/ACER/Diana/Documents/College/VIII/Embebidos/gcc-arm-none-eabi-4_9-2015q3/arm
 464              		.file 5 "/home/diana/Documentos/Embebidos/stamp_repo/files/code/ext/ChibiOS/os/ports/GCC/ARMCMx/ch
 465              		.file 6 "/home/diana/Documentos/Embebidos/stamp_repo/files/code/ext/ChibiOS/os/kernel/include/chli
 466              		.file 7 "/home/diana/Documentos/Embebidos/stamp_repo/files/code/ext/ChibiOS/os/kernel/include/chth
 467              		.file 8 "/home/diana/Documentos/Embebidos/stamp_repo/files/code/ext/ChibiOS/os/ports/GCC/ARMCMx/ch
 468              		.file 9 "/home/diana/Documentos/Embebidos/stamp_repo/files/code/ext/ChibiOS/os/kernel/include/chmt
 469              		.file 10 "/home/diana/Documentos/Embebidos/stamp_repo/files/code/ext/ChibiOS/os/kernel/include/chm
 470              		.file 11 "/home/diana/Documentos/Embebidos/stamp_repo/files/code/ext/ChibiOS/os/kernel/include/chh