ARM GAS  /tmp/ccb6YHLh.s 			page 1


   1              		.syntax unified
   2              		.cpu cortex-m3
   3              		.fpu softvfp
   4              		.eabi_attribute 20, 1
   5              		.eabi_attribute 21, 1
   6              		.eabi_attribute 23, 3
   7              		.eabi_attribute 24, 1
   8              		.eabi_attribute 25, 1
   9              		.eabi_attribute 26, 1
  10              		.eabi_attribute 30, 2
  11              		.eabi_attribute 34, 1
  12              		.eabi_attribute 18, 4
  13              		.thumb
  14              		.file	"chmempools.c"
  15              		.text
  16              	.Ltext0:
  17              		.cfi_sections	.debug_frame
  18              		.section	.text.chPoolInit,"ax",%progbits
  19              		.align	2
  20              		.p2align 4,,15
  21              		.global	chPoolInit
  22              		.thumb
  23              		.thumb_func
  24              		.type	chPoolInit, %function
  25              	chPoolInit:
  26              	.LFB7:
  27              		.file 1 "/home/nicolas/Desktop/Embebidos/stamp_repo/files/code/ext/ChibiOS/os/kernel/src/chmempool
  28              		.loc 1 61 0
  29              		.cfi_startproc
  30              		@ args = 0, pretend = 0, frame = 0
  31              		@ frame_needed = 0, uses_anonymous_args = 0
  32              		@ link register save eliminated.
  33              	.LVL0:
  34              		.loc 1 66 0
  35 0000 0731     		adds	r1, r1, #7
  36              	.LVL1:
  37 0002 21F00701 		bic	r1, r1, #7
  38              	.LVL2:
  39              		.loc 1 65 0
  40 0006 0023     		movs	r3, #0
  41              		.loc 1 66 0
  42 0008 4160     		str	r1, [r0, #4]
  43              		.loc 1 67 0
  44 000a 8260     		str	r2, [r0, #8]
  45              		.loc 1 65 0
  46 000c 0360     		str	r3, [r0]
  47 000e 7047     		bx	lr
  48              		.cfi_endproc
  49              	.LFE7:
  50              		.size	chPoolInit, .-chPoolInit
  51              		.section	.text.chPoolAllocI,"ax",%progbits
  52              		.align	2
  53              		.p2align 4,,15
  54              		.global	chPoolAllocI
  55              		.thumb
  56              		.thumb_func
  57              		.type	chPoolAllocI, %function
ARM GAS  /tmp/ccb6YHLh.s 			page 2


  58              	chPoolAllocI:
  59              	.LFB8:
  60              		.loc 1 79 0
  61              		.cfi_startproc
  62              		@ args = 0, pretend = 0, frame = 0
  63              		@ frame_needed = 0, uses_anonymous_args = 0
  64              		@ link register save eliminated.
  65              	.LVL3:
  66              		.loc 1 85 0
  67 0000 0368     		ldr	r3, [r0]
  68              	.LVL4:
  69 0002 1BB1     		cbz	r3, .L3
  70              		.loc 1 86 0
  71 0004 1A68     		ldr	r2, [r3]
  72 0006 0260     		str	r2, [r0]
  73              	.L4:
  74              		.loc 1 90 0
  75 0008 1846     		mov	r0, r3
  76              	.LVL5:
  77 000a 7047     		bx	lr
  78              	.LVL6:
  79              	.L3:
  80              		.loc 1 87 0
  81 000c 8268     		ldr	r2, [r0, #8]
  82 000e 002A     		cmp	r2, #0
  83 0010 FAD0     		beq	.L4
  84              		.loc 1 88 0
  85 0012 4068     		ldr	r0, [r0, #4]
  86              	.LVL7:
  87 0014 1047     		bx	r2
  88              	.LVL8:
  89              		.cfi_endproc
  90              	.LFE8:
  91              		.size	chPoolAllocI, .-chPoolAllocI
  92 0016 00BF     		.section	.text.chPoolAlloc,"ax",%progbits
  93              		.align	2
  94              		.p2align 4,,15
  95              		.global	chPoolAlloc
  96              		.thumb
  97              		.thumb_func
  98              		.type	chPoolAlloc, %function
  99              	chPoolAlloc:
 100              	.LFB9:
 101              		.loc 1 101 0
 102              		.cfi_startproc
 103              		@ args = 0, pretend = 0, frame = 0
 104              		@ frame_needed = 0, uses_anonymous_args = 0
 105              	.LVL9:
 106 0000 08B5     		push	{r3, lr}
 107              		.cfi_def_cfa_offset 8
 108              		.cfi_offset 3, -8
 109              		.cfi_offset 14, -4
 110              		.loc 1 101 0
 111 0002 0246     		mov	r2, r0
 112              	.LBB10:
 113              		.loc 1 104 0
 114 0004 2023     		movs	r3, #32
ARM GAS  /tmp/ccb6YHLh.s 			page 3


 115              	@ 104 "/home/nicolas/Desktop/Embebidos/stamp_repo/files/code/ext/ChibiOS/os/kernel/src/chmempools.c
 116 0006 83F31188 		msr     BASEPRI, r3
 117              	@ 0 "" 2
 118              	.LVL10:
 119              		.thumb
 120              	.LBE10:
 121              	.LBB11:
 122              	.LBB12:
 123              		.loc 1 85 0
 124 000a 0068     		ldr	r0, [r0]
 125              	.LVL11:
 126 000c 28B1     		cbz	r0, .L10
 127              		.loc 1 86 0
 128 000e 0368     		ldr	r3, [r0]
 129 0010 1360     		str	r3, [r2]
 130              	.L11:
 131              	.LBE12:
 132              	.LBE11:
 133              	.LBB14:
 134              		.loc 1 106 0
 135 0012 0023     		movs	r3, #0
 136              	@ 106 "/home/nicolas/Desktop/Embebidos/stamp_repo/files/code/ext/ChibiOS/os/kernel/src/chmempools.c
 137 0014 83F31188 		msr     BASEPRI, r3
 138              	@ 0 "" 2
 139              		.thumb
 140              	.LBE14:
 141              		.loc 1 108 0
 142 0018 08BD     		pop	{r3, pc}
 143              	.L10:
 144              	.LBB15:
 145              	.LBB13:
 146              		.loc 1 87 0
 147 001a 9368     		ldr	r3, [r2, #8]
 148 001c 002B     		cmp	r3, #0
 149 001e F8D0     		beq	.L11
 150              		.loc 1 88 0
 151 0020 5068     		ldr	r0, [r2, #4]
 152              	.LVL12:
 153 0022 9847     		blx	r3
 154              	.LVL13:
 155              	.LBE13:
 156              	.LBE15:
 157              	.LBB16:
 158              		.loc 1 106 0
 159 0024 0023     		movs	r3, #0
 160              	@ 106 "/home/nicolas/Desktop/Embebidos/stamp_repo/files/code/ext/ChibiOS/os/kernel/src/chmempools.c
 161 0026 83F31188 		msr     BASEPRI, r3
 162              	@ 0 "" 2
 163              		.thumb
 164              	.LBE16:
 165              		.loc 1 108 0
 166 002a 08BD     		pop	{r3, pc}
 167              		.cfi_endproc
 168              	.LFE9:
 169              		.size	chPoolAlloc, .-chPoolAlloc
 170              		.section	.text.chPoolFreeI,"ax",%progbits
 171              		.align	2
ARM GAS  /tmp/ccb6YHLh.s 			page 4


 172              		.p2align 4,,15
 173              		.global	chPoolFreeI
 174              		.thumb
 175              		.thumb_func
 176              		.type	chPoolFreeI, %function
 177              	chPoolFreeI:
 178              	.LFB10:
 179              		.loc 1 122 0
 180              		.cfi_startproc
 181              		@ args = 0, pretend = 0, frame = 0
 182              		@ frame_needed = 0, uses_anonymous_args = 0
 183              		@ link register save eliminated.
 184              	.LVL14:
 185              		.loc 1 129 0
 186 0000 0368     		ldr	r3, [r0]
 187 0002 0B60     		str	r3, [r1]
 188              		.loc 1 130 0
 189 0004 0160     		str	r1, [r0]
 190 0006 7047     		bx	lr
 191              		.cfi_endproc
 192              	.LFE10:
 193              		.size	chPoolFreeI, .-chPoolFreeI
 194              		.section	.text.chPoolFree,"ax",%progbits
 195              		.align	2
 196              		.p2align 4,,15
 197              		.global	chPoolFree
 198              		.thumb
 199              		.thumb_func
 200              		.type	chPoolFree, %function
 201              	chPoolFree:
 202              	.LFB11:
 203              		.loc 1 145 0
 204              		.cfi_startproc
 205              		@ args = 0, pretend = 0, frame = 0
 206              		@ frame_needed = 0, uses_anonymous_args = 0
 207              		@ link register save eliminated.
 208              	.LVL15:
 209              	.LBB17:
 210              		.loc 1 147 0
 211 0000 2023     		movs	r3, #32
 212              	@ 147 "/home/nicolas/Desktop/Embebidos/stamp_repo/files/code/ext/ChibiOS/os/kernel/src/chmempools.c
 213 0002 83F31188 		msr     BASEPRI, r3
 214              	@ 0 "" 2
 215              	.LVL16:
 216              		.thumb
 217              	.LBE17:
 218              	.LBB18:
 219              	.LBB19:
 220              		.loc 1 129 0
 221 0006 0268     		ldr	r2, [r0]
 222              	.LBE19:
 223              	.LBE18:
 224              	.LBB21:
 225              		.loc 1 149 0
 226 0008 0023     		movs	r3, #0
 227              	.LBE21:
 228              	.LBB22:
ARM GAS  /tmp/ccb6YHLh.s 			page 5


 229              	.LBB20:
 230              		.loc 1 129 0
 231 000a 0A60     		str	r2, [r1]
 232              		.loc 1 130 0
 233 000c 0160     		str	r1, [r0]
 234              	.LBE20:
 235              	.LBE22:
 236              	.LBB23:
 237              		.loc 1 149 0
 238              	@ 149 "/home/nicolas/Desktop/Embebidos/stamp_repo/files/code/ext/ChibiOS/os/kernel/src/chmempools.c
 239 000e 83F31188 		msr     BASEPRI, r3
 240              	@ 0 "" 2
 241              		.thumb
 242 0012 7047     		bx	lr
 243              	.LBE23:
 244              		.cfi_endproc
 245              	.LFE11:
 246              		.size	chPoolFree, .-chPoolFree
 247              		.text
 248              	.Letext0:
 249              		.file 2 "/opt/gcc-arm-none-eabi-4_9-2015q3/lib/gcc/arm-none-eabi/4.9.3/include/stddef.h"
 250              		.file 3 "/opt/gcc-arm-none-eabi-4_9-2015q3/arm-none-eabi/include/machine/_default_types.h"
 251              		.file 4 "/opt/gcc-arm-none-eabi-4_9-2015q3/arm-none-eabi/include/sys/_stdint.h"
 252              		.file 5 "/home/nicolas/Desktop/Embebidos/stamp_repo/files/code/ext/ChibiOS/os/kernel/include/chmem
 253              		.file 6 "/home/nicolas/Desktop/Embebidos/stamp_repo/files/code/ext/ChibiOS/os/kernel/include/chmem