ARM GAS  /tmp/ccuzNTuK.s 			page 1


   1              		.syntax unified
   2              		.cpu cortex-m3
   3              		.fpu softvfp
   4              		.eabi_attribute 20, 1
   5              		.eabi_attribute 21, 1
   6              		.eabi_attribute 23, 3
   7              		.eabi_attribute 24, 1
   8              		.eabi_attribute 25, 1
   9              		.eabi_attribute 26, 1
  10              		.eabi_attribute 30, 2
  11              		.eabi_attribute 34, 1
  12              		.eabi_attribute 18, 4
  13              		.thumb
  14              		.file	"chmsg.c"
  15              		.text
  16              	.Ltext0:
  17              		.cfi_sections	.debug_frame
  18              		.section	.text.chMsgSend,"ax",%progbits
  19              		.align	2
  20              		.p2align 4,,15
  21              		.global	chMsgSend
  22              		.thumb
  23              		.thumb_func
  24              		.type	chMsgSend, %function
  25              	chMsgSend:
  26              	.LFB7:
  27              		.file 1 "/home/nicolas/Desktop/Embebidos/stamp_repo/files/code/ext/ChibiOS/os/kernel/src/chmsg.c"
  28              		.loc 1 75 0
  29              		.cfi_startproc
  30              		@ args = 0, pretend = 0, frame = 0
  31              		@ frame_needed = 0, uses_anonymous_args = 0
  32              	.LVL0:
  33              		.loc 1 76 0
  34 0000 0E4B     		ldr	r3, .L6
  35              		.loc 1 75 0
  36 0002 70B5     		push	{r4, r5, r6, lr}
  37              		.cfi_def_cfa_offset 16
  38              		.cfi_offset 4, -16
  39              		.cfi_offset 5, -12
  40              		.cfi_offset 6, -8
  41              		.cfi_offset 14, -4
  42              		.loc 1 76 0
  43 0004 DC69     		ldr	r4, [r3, #28]
  44              	.LVL1:
  45              	.LBB10:
  46              		.loc 1 80 0
  47 0006 2023     		movs	r3, #32
  48              	@ 80 "/home/nicolas/Desktop/Embebidos/stamp_repo/files/code/ext/ChibiOS/os/kernel/src/chmsg.c" 1
  49 0008 83F31188 		msr     BASEPRI, r3
  50              	@ 0 "" 2
  51              		.thumb
  52              	.LBE10:
  53              		.loc 1 82 0
  54 000c 00F12C05 		add	r5, r0, #44
  55              		.loc 1 84 0
  56 0010 067F     		ldrb	r6, [r0, #28]	@ zero_extendqisi2
  57              		.loc 1 82 0
ARM GAS  /tmp/ccuzNTuK.s 			page 2


  58 0012 6562     		str	r5, [r4, #36]
  59              	.LVL2:
  60              	.LBB11:
  61              	.LBB12:
  62              		.file 2 "/home/nicolas/Desktop/Embebidos/stamp_repo/files/code/ext/ChibiOS/os/kernel/include/chinl
  63              		.loc 2 55 0
  64 0014 036B     		ldr	r3, [r0, #48]
  65              	.LBE12:
  66              	.LBE11:
  67              		.loc 1 84 0
  68 0016 0C2E     		cmp	r6, #12
  69              		.loc 1 81 0
  70 0018 6163     		str	r1, [r4, #52]
  71              	.LBB14:
  72              	.LBB13:
  73              		.loc 2 54 0
  74 001a 2560     		str	r5, [r4]
  75              		.loc 2 55 0
  76 001c 6360     		str	r3, [r4, #4]
  77              		.loc 2 56 0
  78 001e 0463     		str	r4, [r0, #48]
  79 0020 1C60     		str	r4, [r3]
  80              	.LBE13:
  81              	.LBE14:
  82              		.loc 1 84 0
  83 0022 07D0     		beq	.L5
  84              	.LVL3:
  85              	.L2:
  86              		.loc 1 86 0
  87 0024 0A20     		movs	r0, #10
  88 0026 FFF7FEFF 		bl	chSchGoSleepS
  89              	.LVL4:
  90              		.loc 1 87 0
  91 002a 606A     		ldr	r0, [r4, #36]
  92              	.LVL5:
  93              	.LBB15:
  94              		.loc 1 88 0
  95 002c 0023     		movs	r3, #0
  96              	@ 88 "/home/nicolas/Desktop/Embebidos/stamp_repo/files/code/ext/ChibiOS/os/kernel/src/chmsg.c" 1
  97 002e 83F31188 		msr     BASEPRI, r3
  98              	@ 0 "" 2
  99              		.thumb
 100              	.LBE15:
 101              		.loc 1 90 0
 102 0032 70BD     		pop	{r4, r5, r6, pc}
 103              	.LVL6:
 104              	.L5:
 105              		.loc 1 85 0
 106 0034 FFF7FEFF 		bl	chSchReadyI
 107              	.LVL7:
 108 0038 F4E7     		b	.L2
 109              	.L7:
 110 003a 00BF     		.align	2
 111              	.L6:
 112 003c 00000000 		.word	rlist
 113              		.cfi_endproc
 114              	.LFE7:
ARM GAS  /tmp/ccuzNTuK.s 			page 3


 115              		.size	chMsgSend, .-chMsgSend
 116              		.section	.text.chMsgWait,"ax",%progbits
 117              		.align	2
 118              		.p2align 4,,15
 119              		.global	chMsgWait
 120              		.thumb
 121              		.thumb_func
 122              		.type	chMsgWait, %function
 123              	chMsgWait:
 124              	.LFB8:
 125              		.loc 1 106 0
 126              		.cfi_startproc
 127              		@ args = 0, pretend = 0, frame = 0
 128              		@ frame_needed = 0, uses_anonymous_args = 0
 129 0000 10B5     		push	{r4, lr}
 130              		.cfi_def_cfa_offset 8
 131              		.cfi_offset 4, -8
 132              		.cfi_offset 14, -4
 133              	.LBB16:
 134              		.loc 1 109 0
 135 0002 2023     		movs	r3, #32
 136              	@ 109 "/home/nicolas/Desktop/Embebidos/stamp_repo/files/code/ext/ChibiOS/os/kernel/src/chmsg.c" 1
 137 0004 83F31188 		msr     BASEPRI, r3
 138              	@ 0 "" 2
 139              		.thumb
 140              	.LBE16:
 141              		.loc 1 110 0
 142 0008 0B4C     		ldr	r4, .L12
 143 000a E369     		ldr	r3, [r4, #28]
 144 000c 1A46     		mov	r2, r3
 145 000e 52F82C0F 		ldr	r0, [r2, #44]!
 146 0012 9042     		cmp	r0, r2
 147 0014 08D0     		beq	.L11
 148              	.L9:
 149              	.LVL8:
 150              	.LBB17:
 151              	.LBB18:
 152              		.loc 2 62 0
 153 0016 0168     		ldr	r1, [r0]
 154              	.LBE18:
 155              	.LBE17:
 156              		.loc 1 113 0
 157 0018 0B24     		movs	r4, #11
 158              	.LBB20:
 159              	.LBB19:
 160              		.loc 2 62 0
 161 001a D962     		str	r1, [r3, #44]
 162 001c 4A60     		str	r2, [r1, #4]
 163              	.LBE19:
 164              	.LBE20:
 165              	.LBB21:
 166              		.loc 1 114 0
 167 001e 0023     		movs	r3, #0
 168              	.LBE21:
 169              		.loc 1 113 0
 170 0020 0477     		strb	r4, [r0, #28]
 171              	.LBB22:
ARM GAS  /tmp/ccuzNTuK.s 			page 4


 172              		.loc 1 114 0
 173              	@ 114 "/home/nicolas/Desktop/Embebidos/stamp_repo/files/code/ext/ChibiOS/os/kernel/src/chmsg.c" 1
 174 0022 83F31188 		msr     BASEPRI, r3
 175              	@ 0 "" 2
 176              		.thumb
 177              	.LBE22:
 178              		.loc 1 116 0
 179 0026 10BD     		pop	{r4, pc}
 180              	.LVL9:
 181              	.L11:
 182              		.loc 1 111 0
 183 0028 0C20     		movs	r0, #12
 184 002a FFF7FEFF 		bl	chSchGoSleepS
 185              	.LVL10:
 186 002e E369     		ldr	r3, [r4, #28]
 187 0030 D86A     		ldr	r0, [r3, #44]
 188 0032 03F12C02 		add	r2, r3, #44
 189 0036 EEE7     		b	.L9
 190              	.L13:
 191              		.align	2
 192              	.L12:
 193 0038 00000000 		.word	rlist
 194              		.cfi_endproc
 195              	.LFE8:
 196              		.size	chMsgWait, .-chMsgWait
 197              		.section	.text.chMsgRelease,"ax",%progbits
 198              		.align	2
 199              		.p2align 4,,15
 200              		.global	chMsgRelease
 201              		.thumb
 202              		.thumb_func
 203              		.type	chMsgRelease, %function
 204              	chMsgRelease:
 205              	.LFB9:
 206              		.loc 1 128 0
 207              		.cfi_startproc
 208              		@ args = 0, pretend = 0, frame = 0
 209              		@ frame_needed = 0, uses_anonymous_args = 0
 210              	.LVL11:
 211 0000 08B5     		push	{r3, lr}
 212              		.cfi_def_cfa_offset 8
 213              		.cfi_offset 3, -8
 214              		.cfi_offset 14, -4
 215              	.LBB23:
 216              		.loc 1 130 0
 217 0002 2023     		movs	r3, #32
 218              	@ 130 "/home/nicolas/Desktop/Embebidos/stamp_repo/files/code/ext/ChibiOS/os/kernel/src/chmsg.c" 1
 219 0004 83F31188 		msr     BASEPRI, r3
 220              	@ 0 "" 2
 221              		.thumb
 222              	.LBE23:
 223              		.loc 1 133 0
 224 0008 FFF7FEFF 		bl	chSchWakeupS
 225              	.LVL12:
 226              	.LBB24:
 227              		.loc 1 134 0
 228 000c 0023     		movs	r3, #0
ARM GAS  /tmp/ccuzNTuK.s 			page 5


 229              	@ 134 "/home/nicolas/Desktop/Embebidos/stamp_repo/files/code/ext/ChibiOS/os/kernel/src/chmsg.c" 1
 230 000e 83F31188 		msr     BASEPRI, r3
 231              	@ 0 "" 2
 232              		.thumb
 233 0012 08BD     		pop	{r3, pc}
 234              	.LBE24:
 235              		.cfi_endproc
 236              	.LFE9:
 237              		.size	chMsgRelease, .-chMsgRelease
 238              		.text
 239              	.Letext0:
 240              		.file 3 "/opt/gcc-arm-none-eabi-4_9-2015q3/arm-none-eabi/include/machine/_default_types.h"
 241              		.file 4 "/opt/gcc-arm-none-eabi-4_9-2015q3/arm-none-eabi/include/sys/_stdint.h"
 242              		.file 5 "/home/nicolas/Desktop/Embebidos/stamp_repo/files/code/ext/ChibiOS/os/ports/GCC/ARMCMx/cht
 243              		.file 6 "/home/nicolas/Desktop/Embebidos/stamp_repo/files/code/ext/ChibiOS/os/kernel/include/chlis
 244              		.file 7 "/home/nicolas/Desktop/Embebidos/stamp_repo/files/code/ext/ChibiOS/os/kernel/include/chthr
 245              		.file 8 "/home/nicolas/Desktop/Embebidos/stamp_repo/files/code/ext/ChibiOS/os/ports/GCC/ARMCMx/chc
 246              		.file 9 "/home/nicolas/Desktop/Embebidos/stamp_repo/files/code/ext/ChibiOS/os/kernel/include/chsch
 247              		.file 10 "/home/nicolas/Desktop/Embebidos/stamp_repo/files/code/ext/ChibiOS/os/kernel/include/chmt