ARM GAS  /tmp/ccm2uSCK.s 			page 1


   1              		.syntax unified
   2              		.cpu cortex-m3
   3              		.fpu softvfp
   4              		.eabi_attribute 20, 1
   5              		.eabi_attribute 21, 1
   6              		.eabi_attribute 23, 3
   7              		.eabi_attribute 24, 1
   8              		.eabi_attribute 25, 1
   9              		.eabi_attribute 26, 1
  10              		.eabi_attribute 30, 2
  11              		.eabi_attribute 34, 1
  12              		.eabi_attribute 18, 4
  13              		.thumb
  14              		.file	"chprintf.c"
  15              		.text
  16              	.Ltext0:
  17              		.cfi_sections	.debug_frame
  18              		.section	.text.ltoa,"ax",%progbits
  19              		.align	2
  20              		.p2align 4,,15
  21              		.thumb
  22              		.thumb_func
  23              		.type	ltoa, %function
  24              	ltoa:
  25              	.LFB7:
  26              		.file 1 "/home/diana/Documentos/Embebidos/stamp_repo/files/code/ext/ChibiOS/os/various/chprintf.c"
  27              		.loc 1 42 0
  28              		.cfi_startproc
  29              		@ args = 0, pretend = 0, frame = 0
  30              		@ frame_needed = 0, uses_anonymous_args = 0
  31              		@ link register save eliminated.
  32              	.LVL0:
  33 0000 70B4     		push	{r4, r5, r6}
  34              		.cfi_def_cfa_offset 12
  35              		.cfi_offset 4, -12
  36              		.cfi_offset 5, -8
  37              		.cfi_offset 6, -4
  38              		.loc 1 46 0
  39 0002 00F10B06 		add	r6, r0, #11
  40              	.LVL1:
  41 0006 3446     		mov	r4, r6
  42              	.LVL2:
  43              	.L3:
  44              		.loc 1 48 0
  45 0008 B1FBF2F5 		udiv	r5, r1, r2
  46 000c 02FB1511 		mls	r1, r2, r5, r1
  47              	.LVL3:
  48              		.loc 1 49 0
  49 0010 01F13003 		add	r3, r1, #48
  50              	.LVL4:
  51              		.loc 1 50 0
  52 0014 392B     		cmp	r3, #57
  53              		.loc 1 51 0
  54 0016 C8BF     		it	gt
  55 0018 01F13703 		addgt	r3, r1, #55
  56              	.LVL5:
  57              		.loc 1 52 0
ARM GAS  /tmp/ccm2uSCK.s 			page 2


  58 001c DBB2     		uxtb	r3, r3
  59              	.LVL6:
  60 001e 04F8013D 		strb	r3, [r4, #-1]!
  61              	.LVL7:
  62              		.loc 1 53 0
  63 0022 2946     		mov	r1, r5
  64              	.LVL8:
  65 0024 002D     		cmp	r5, #0
  66 0026 EFD1     		bne	.L3
  67              	.LVL9:
  68              		.loc 1 55 0
  69 0028 321B     		subs	r2, r6, r4
  70              	.LVL10:
  71 002a 0244     		add	r2, r2, r0
  72 002c 01E0     		b	.L5
  73              	.LVL11:
  74              	.L10:
  75 002e 14F8013F 		ldrb	r3, [r4, #1]!	@ zero_extendqisi2
  76              	.LVL12:
  77              	.L5:
  78              		.loc 1 57 0 discriminator 1
  79 0032 00F8013B 		strb	r3, [r0], #1
  80              	.LVL13:
  81              		.loc 1 58 0 discriminator 1
  82 0036 9042     		cmp	r0, r2
  83 0038 F9D1     		bne	.L10
  84              		.loc 1 61 0
  85 003a 70BC     		pop	{r4, r5, r6}
  86              		.cfi_restore 6
  87              		.cfi_restore 5
  88              		.cfi_restore 4
  89              		.cfi_def_cfa_offset 0
  90 003c 7047     		bx	lr
  91              		.cfi_endproc
  92              	.LFE7:
  93              		.size	ltoa, .-ltoa
  94 003e 00BF     		.section	.text.chprintf,"ax",%progbits
  95              		.align	2
  96              		.p2align 4,,15
  97              		.global	chprintf
  98              		.thumb
  99              		.thumb_func
 100              		.type	chprintf, %function
 101              	chprintf:
 102              	.LFB8:
 103              		.loc 1 86 0
 104              		.cfi_startproc
 105              		@ args = 4, pretend = 12, frame = 16
 106              		@ frame_needed = 0, uses_anonymous_args = 1
 107              	.LVL14:
 108 0000 0EB4     		push	{r1, r2, r3}
 109              		.cfi_def_cfa_offset 12
 110              		.cfi_offset 1, -12
 111              		.cfi_offset 2, -8
 112              		.cfi_offset 3, -4
 113 0002 2DE9F04F 		push	{r4, r5, r6, r7, r8, r9, r10, fp, lr}
 114              		.cfi_def_cfa_offset 48
ARM GAS  /tmp/ccm2uSCK.s 			page 3


 115              		.cfi_offset 4, -48
 116              		.cfi_offset 5, -44
 117              		.cfi_offset 6, -40
 118              		.cfi_offset 7, -36
 119              		.cfi_offset 8, -32
 120              		.cfi_offset 9, -28
 121              		.cfi_offset 10, -24
 122              		.cfi_offset 11, -20
 123              		.cfi_offset 14, -16
 124 0006 0646     		mov	r6, r0
 125 0008 84B0     		sub	sp, sp, #16
 126              		.cfi_def_cfa_offset 64
 127              		.loc 1 86 0
 128 000a 0DAB     		add	r3, sp, #52
 129 000c 53F8044B 		ldr	r4, [r3], #4
 130 0010 0DF10408 		add	r8, sp, #4
 131              		.loc 1 94 0
 132 0014 0093     		str	r3, [sp]
 133 0016 0DF10503 		add	r3, sp, #5
 134 001a C8EB0309 		rsb	r9, r8, r3
 135              	.LVL15:
 136              	.L12:
 137              		.loc 1 96 0
 138 001e 2178     		ldrb	r1, [r4]	@ zero_extendqisi2
 139 0020 631C     		adds	r3, r4, #1
 140              	.LVL16:
 141              		.loc 1 97 0
 142 0022 61B1     		cbz	r1, .L83
 143              	.L90:
 144              		.loc 1 101 0
 145 0024 2529     		cmp	r1, #37
 146 0026 0FD0     		beq	.L14
 147              		.loc 1 96 0
 148 0028 1C46     		mov	r4, r3
 149              		.loc 1 102 0
 150 002a 3268     		ldr	r2, [r6]
 151 002c 3046     		mov	r0, r6
 152 002e 1569     		ldr	r5, [r2, #16]
 153 0030 4FF0FF32 		mov	r2, #-1
 154 0034 A847     		blx	r5
 155              	.LVL17:
 156              		.loc 1 96 0
 157 0036 2178     		ldrb	r1, [r4]	@ zero_extendqisi2
 158 0038 631C     		adds	r3, r4, #1
 159              	.LVL18:
 160              		.loc 1 97 0
 161 003a 0029     		cmp	r1, #0
 162 003c F2D1     		bne	.L90
 163              	.L83:
 164              		.loc 1 222 0
 165 003e 04B0     		add	sp, sp, #16
 166              		.cfi_remember_state
 167              		.cfi_def_cfa_offset 48
 168              		@ sp needed
 169 0040 BDE8F04F 		pop	{r4, r5, r6, r7, r8, r9, r10, fp, lr}
 170              		.cfi_restore 14
 171              		.cfi_restore 11
ARM GAS  /tmp/ccm2uSCK.s 			page 4


 172              		.cfi_restore 10
 173              		.cfi_restore 9
 174              		.cfi_restore 8
 175              		.cfi_restore 7
 176              		.cfi_restore 6
 177              		.cfi_restore 5
 178              		.cfi_restore 4
 179              		.cfi_def_cfa_offset 12
 180              	.LVL19:
 181 0044 03B0     		add	sp, sp, #12
 182              		.cfi_restore 3
 183              		.cfi_restore 2
 184              		.cfi_restore 1
 185              		.cfi_def_cfa_offset 0
 186 0046 7047     		bx	lr
 187              	.LVL20:
 188              	.L14:
 189              		.cfi_restore_state
 190              		.loc 1 108 0
 191 0048 6278     		ldrb	r2, [r4, #1]	@ zero_extendqisi2
 192 004a 0098     		ldr	r0, [sp]
 193 004c 2D2A     		cmp	r2, #45
 194 004e 03BF     		ittte	eq
 195 0050 A278     		ldrbeq	r2, [r4, #2]	@ zero_extendqisi2
 196              		.loc 1 109 0
 197 0052 A31C     		addeq	r3, r4, #2
 198              	.LVL21:
 199              		.loc 1 110 0
 200 0054 4FF0010A 		moveq	r10, #1
 201              		.loc 1 107 0
 202 0058 4FF0000A 		movne	r10, #0
 203              	.LVL22:
 204              		.loc 1 113 0
 205 005c 2E2A     		cmp	r2, #46
 206 005e 03BF     		ittte	eq
 207 0060 5A78     		ldrbeq	r2, [r3, #1]	@ zero_extendqisi2
 208              		.loc 1 114 0
 209 0062 0133     		addeq	r3, r3, #1
 210              	.LVL23:
 211              		.loc 1 115 0
 212 0064 3027     		moveq	r7, #48
 213              		.loc 1 112 0
 214 0066 2027     		movne	r7, #32
 215              	.LVL24:
 216 0068 591C     		adds	r1, r3, #1
 217              	.LVL25:
 218              		.loc 1 117 0
 219 006a 0025     		movs	r5, #0
 220 006c 05E0     		b	.L20
 221              	.LVL26:
 222              	.L91:
 223              		.loc 1 123 0
 224 006e 0378     		ldrb	r3, [r0]	@ zero_extendqisi2
 225              	.LVL27:
 226 0070 0430     		adds	r0, r0, #4
 227              	.LVL28:
 228              	.L18:
ARM GAS  /tmp/ccm2uSCK.s 			page 5


 229 0072 2278     		ldrb	r2, [r4]	@ zero_extendqisi2
 230              		.loc 1 126 0
 231 0074 03EB4E05 		add	r5, r3, lr, lsl #1
 232              	.LVL29:
 233 0078 0131     		adds	r1, r1, #1
 234              	.LVL30:
 235              	.L20:
 236              		.loc 1 120 0
 237 007a A2F13003 		sub	r3, r2, #48
 238 007e DBB2     		uxtb	r3, r3
 239 0080 092B     		cmp	r3, #9
 240              		.loc 1 119 0
 241 0082 0C46     		mov	r4, r1
 242              	.LVL31:
 243              		.loc 1 126 0
 244 0084 05EB850E 		add	lr, r5, r5, lsl #2
 245              		.loc 1 120 0
 246 0088 F3D9     		bls	.L18
 247              		.loc 1 122 0
 248 008a 2A2A     		cmp	r2, #42
 249 008c EFD0     		beq	.L91
 250              		.loc 1 129 0
 251 008e 2E2A     		cmp	r2, #46
 252 0090 0090     		str	r0, [sp]
 253              	.LVL32:
 254 0092 4FF00001 		mov	r1, #0
 255              	.LVL33:
 256 0096 4BD0     		beq	.L24
 257              	.LVL34:
 258              		.loc 1 143 0
 259 0098 02F0DF03 		and	r3, r2, #223
 260 009c 4C2B     		cmp	r3, #76
 261 009e 57D0     		beq	.L92
 262              	.L84:
 263              		.loc 1 149 0
 264 00a0 A2F14103 		sub	r3, r2, #65
 265 00a4 DBB2     		uxtb	r3, r3
 266 00a6 192B     		cmp	r3, #25
 267 00a8 8CBF     		ite	hi
 268 00aa 0023     		movhi	r3, #0
 269 00ac 0123     		movls	r3, #1
 270              		.loc 1 152 0
 271 00ae A2F14400 		sub	r0, r2, #68
 272              		.loc 1 149 0
 273 00b2 9E46     		mov	lr, r3
 274              	.LVL35:
 275              		.loc 1 152 0
 276 00b4 3428     		cmp	r0, #52
 277 00b6 00F22381 		bhi	.L27
 278 00ba DFE810F0 		tbh	[pc, r0, lsl #1]
 279              	.L36:
 280 00be D100     		.2byte	(.L35-.L36)/2
 281 00c0 2101     		.2byte	(.L27-.L36)/2
 282 00c2 2101     		.2byte	(.L27-.L36)/2
 283 00c4 2101     		.2byte	(.L27-.L36)/2
 284 00c6 2101     		.2byte	(.L27-.L36)/2
 285 00c8 2101     		.2byte	(.L27-.L36)/2
ARM GAS  /tmp/ccm2uSCK.s 			page 6


 286 00ca 2101     		.2byte	(.L27-.L36)/2
 287 00cc 2101     		.2byte	(.L27-.L36)/2
 288 00ce 2101     		.2byte	(.L27-.L36)/2
 289 00d0 2101     		.2byte	(.L27-.L36)/2
 290 00d2 2101     		.2byte	(.L27-.L36)/2
 291 00d4 8C00     		.2byte	(.L30-.L36)/2
 292 00d6 2101     		.2byte	(.L27-.L36)/2
 293 00d8 2101     		.2byte	(.L27-.L36)/2
 294 00da 2101     		.2byte	(.L27-.L36)/2
 295 00dc 2101     		.2byte	(.L27-.L36)/2
 296 00de 2101     		.2byte	(.L27-.L36)/2
 297 00e0 1601     		.2byte	(.L31-.L36)/2
 298 00e2 2101     		.2byte	(.L27-.L36)/2
 299 00e4 2101     		.2byte	(.L27-.L36)/2
 300 00e6 2801     		.2byte	(.L69-.L36)/2
 301 00e8 2101     		.2byte	(.L27-.L36)/2
 302 00ea 2101     		.2byte	(.L27-.L36)/2
 303 00ec 2101     		.2byte	(.L27-.L36)/2
 304 00ee 2101     		.2byte	(.L27-.L36)/2
 305 00f0 2101     		.2byte	(.L27-.L36)/2
 306 00f2 2101     		.2byte	(.L27-.L36)/2
 307 00f4 2101     		.2byte	(.L27-.L36)/2
 308 00f6 2101     		.2byte	(.L27-.L36)/2
 309 00f8 2101     		.2byte	(.L27-.L36)/2
 310 00fa 2101     		.2byte	(.L27-.L36)/2
 311 00fc EB00     		.2byte	(.L33-.L36)/2
 312 00fe D100     		.2byte	(.L35-.L36)/2
 313 0100 2101     		.2byte	(.L27-.L36)/2
 314 0102 2101     		.2byte	(.L27-.L36)/2
 315 0104 2101     		.2byte	(.L27-.L36)/2
 316 0106 2101     		.2byte	(.L27-.L36)/2
 317 0108 2101     		.2byte	(.L27-.L36)/2
 318 010a 2101     		.2byte	(.L27-.L36)/2
 319 010c 2101     		.2byte	(.L27-.L36)/2
 320 010e 2101     		.2byte	(.L27-.L36)/2
 321 0110 2101     		.2byte	(.L27-.L36)/2
 322 0112 2101     		.2byte	(.L27-.L36)/2
 323 0114 8C00     		.2byte	(.L30-.L36)/2
 324 0116 2101     		.2byte	(.L27-.L36)/2
 325 0118 2101     		.2byte	(.L27-.L36)/2
 326 011a 2101     		.2byte	(.L27-.L36)/2
 327 011c F700     		.2byte	(.L34-.L36)/2
 328 011e 2101     		.2byte	(.L27-.L36)/2
 329 0120 1601     		.2byte	(.L31-.L36)/2
 330 0122 2101     		.2byte	(.L27-.L36)/2
 331 0124 2101     		.2byte	(.L27-.L36)/2
 332 0126 2801     		.2byte	(.L69-.L36)/2
 333              	.LVL36:
 334              		.p2align 1
 335              	.L23:
 336              		.loc 1 135 0
 337 0128 0378     		ldrb	r3, [r0]	@ zero_extendqisi2
 338              	.LVL37:
 339 012a 0430     		adds	r0, r0, #4
 340              	.LVL38:
 341              	.L22:
 342              		.loc 1 139 0
ARM GAS  /tmp/ccm2uSCK.s 			page 7


 343 012c 03EB4E01 		add	r1, r3, lr, lsl #1
 344              	.LVL39:
 345              	.L24:
 346              		.loc 1 131 0
 347 0130 14F8012B 		ldrb	r2, [r4], #1	@ zero_extendqisi2
 348              	.LVL40:
 349              		.loc 1 138 0
 350 0134 01EB810E 		add	lr, r1, r1, lsl #2
 351              		.loc 1 132 0
 352 0138 A2F13003 		sub	r3, r2, #48
 353 013c DBB2     		uxtb	r3, r3
 354 013e 092B     		cmp	r3, #9
 355 0140 F4D9     		bls	.L22
 356              		.loc 1 134 0
 357 0142 2A2A     		cmp	r2, #42
 358 0144 F0D0     		beq	.L23
 359              		.loc 1 143 0
 360 0146 02F0DF03 		and	r3, r2, #223
 361 014a 4C2B     		cmp	r3, #76
 362 014c 0090     		str	r0, [sp]
 363              	.LVL41:
 364 014e A7D1     		bne	.L84
 365              	.L92:
 366              	.LVL42:
 367              		.loc 1 145 0
 368 0150 2378     		ldrb	r3, [r4]	@ zero_extendqisi2
 369 0152 002B     		cmp	r3, #0
 370 0154 00F0D480 		beq	.L27
 371              		.loc 1 152 0
 372 0158 A3F14402 		sub	r2, r3, #68
 373              	.LVL43:
 374              		.loc 1 146 0
 375 015c 0134     		adds	r4, r4, #1
 376              	.LVL44:
 377              		.loc 1 152 0
 378 015e 342A     		cmp	r2, #52
 379 0160 00F2CD80 		bhi	.L66
 380 0164 DFE812F0 		tbh	[pc, r2, lsl #1]
 381              	.L29:
 382 0168 E000     		.2byte	(.L28-.L29)/2
 383 016a CB00     		.2byte	(.L66-.L29)/2
 384 016c CB00     		.2byte	(.L66-.L29)/2
 385 016e CB00     		.2byte	(.L66-.L29)/2
 386 0170 CB00     		.2byte	(.L66-.L29)/2
 387 0172 CB00     		.2byte	(.L66-.L29)/2
 388 0174 CB00     		.2byte	(.L66-.L29)/2
 389 0176 CB00     		.2byte	(.L66-.L29)/2
 390 0178 CB00     		.2byte	(.L66-.L29)/2
 391 017a CB00     		.2byte	(.L66-.L29)/2
 392 017c CB00     		.2byte	(.L66-.L29)/2
 393 017e 3500     		.2byte	(.L67-.L29)/2
 394 0180 CB00     		.2byte	(.L66-.L29)/2
 395 0182 CB00     		.2byte	(.L66-.L29)/2
 396 0184 CB00     		.2byte	(.L66-.L29)/2
 397 0186 CB00     		.2byte	(.L66-.L29)/2
 398 0188 CB00     		.2byte	(.L66-.L29)/2
 399 018a BF00     		.2byte	(.L68-.L29)/2
ARM GAS  /tmp/ccm2uSCK.s 			page 8


 400 018c CB00     		.2byte	(.L66-.L29)/2
 401 018e CB00     		.2byte	(.L66-.L29)/2
 402 0190 FB00     		.2byte	(.L32-.L29)/2
 403 0192 CB00     		.2byte	(.L66-.L29)/2
 404 0194 CB00     		.2byte	(.L66-.L29)/2
 405 0196 CB00     		.2byte	(.L66-.L29)/2
 406 0198 CB00     		.2byte	(.L66-.L29)/2
 407 019a CB00     		.2byte	(.L66-.L29)/2
 408 019c CB00     		.2byte	(.L66-.L29)/2
 409 019e CB00     		.2byte	(.L66-.L29)/2
 410 01a0 CB00     		.2byte	(.L66-.L29)/2
 411 01a2 CB00     		.2byte	(.L66-.L29)/2
 412 01a4 CB00     		.2byte	(.L66-.L29)/2
 413 01a6 9600     		.2byte	(.L33-.L29)/2
 414 01a8 E000     		.2byte	(.L28-.L29)/2
 415 01aa CB00     		.2byte	(.L66-.L29)/2
 416 01ac CB00     		.2byte	(.L66-.L29)/2
 417 01ae CB00     		.2byte	(.L66-.L29)/2
 418 01b0 CB00     		.2byte	(.L66-.L29)/2
 419 01b2 CB00     		.2byte	(.L66-.L29)/2
 420 01b4 CB00     		.2byte	(.L66-.L29)/2
 421 01b6 CB00     		.2byte	(.L66-.L29)/2
 422 01b8 CB00     		.2byte	(.L66-.L29)/2
 423 01ba CB00     		.2byte	(.L66-.L29)/2
 424 01bc CB00     		.2byte	(.L66-.L29)/2
 425 01be 3500     		.2byte	(.L67-.L29)/2
 426 01c0 CB00     		.2byte	(.L66-.L29)/2
 427 01c2 CB00     		.2byte	(.L66-.L29)/2
 428 01c4 CB00     		.2byte	(.L66-.L29)/2
 429 01c6 A200     		.2byte	(.L34-.L29)/2
 430 01c8 CB00     		.2byte	(.L66-.L29)/2
 431 01ca BF00     		.2byte	(.L68-.L29)/2
 432 01cc CB00     		.2byte	(.L66-.L29)/2
 433 01ce CB00     		.2byte	(.L66-.L29)/2
 434 01d0 FB00     		.2byte	(.L32-.L29)/2
 435              		.p2align 1
 436              	.L67:
 437 01d2 4FF0010E 		mov	lr, #1
 438              	.LVL45:
 439              	.L30:
 440 01d6 0822     		movs	r2, #8
 441              	.LVL46:
 442              	.L37:
 443              		.loc 1 190 0
 444 01d8 BEF1000F 		cmp	lr, #0
 445 01dc 40F08A80 		bne	.L61
 446              	.L47:
 447              		.loc 1 193 0
 448 01e0 009B     		ldr	r3, [sp]
 449 01e2 181D     		adds	r0, r3, #4
 450 01e4 1968     		ldr	r1, [r3]
 451              	.LVL47:
 452 01e6 0090     		str	r0, [sp]
 453              	.L48:
 454              		.loc 1 194 0
 455 01e8 4046     		mov	r0, r8
 456 01ea FFF7FEFF 		bl	ltoa
ARM GAS  /tmp/ccm2uSCK.s 			page 9


 457              	.LVL48:
 458              		.loc 1 106 0
 459 01ee C346     		mov	fp, r8
 460 01f0 C8EB0000 		rsb	r0, r8, r0
 461              	.LVL49:
 462 01f4 431E     		subs	r3, r0, #1
 463              	.LVL50:
 464              	.L38:
 465              		.loc 1 201 0
 466 01f6 2D1A     		subs	r5, r5, r0
 467              	.LVL51:
 468 01f8 25EAE575 		bic	r5, r5, r5, asr #31
 469              	.LVL52:
 470              		.loc 1 203 0
 471 01fc BAF1000F 		cmp	r10, #0
 472 0200 44D1     		bne	.L49
 473              	.L95:
 474 0202 9A46     		mov	r10, r3
 475              	.LVL53:
 476              	.L60:
 477              		.loc 1 204 0
 478 0204 6D42     		negs	r5, r5
 479              	.LVL54:
 480              		.loc 1 205 0
 481 0206 6DB1     		cbz	r5, .L50
 482              		.loc 1 206 0
 483 0208 9BF80010 		ldrb	r1, [fp]	@ zero_extendqisi2
 484 020c 2D29     		cmp	r1, #45
 485 020e 00F09880 		beq	.L93
 486              	.LVL55:
 487              	.L52:
 488              		.loc 1 211 0 discriminator 1
 489 0212 3268     		ldr	r2, [r6]
 490 0214 3046     		mov	r0, r6
 491 0216 1369     		ldr	r3, [r2, #16]
 492 0218 3946     		mov	r1, r7
 493 021a 4FF0FF32 		mov	r2, #-1
 494 021e 9847     		blx	r3
 495              	.LVL56:
 496              		.loc 1 212 0 discriminator 1
 497 0220 0135     		adds	r5, r5, #1
 498              	.LVL57:
 499 0222 F6D1     		bne	.L52
 500              	.L50:
 501              	.LVL58:
 502              		.loc 1 214 0
 503 0224 BAF1000F 		cmp	r10, #0
 504 0228 FFF6F9AE 		blt	.L12
 505              	.LVL59:
 506              	.L55:
 507              		.loc 1 215 0
 508 022c 3268     		ldr	r2, [r6]
 509              		.loc 1 214 0
 510 022e 0AF1FF3A 		add	r10, r10, #-1
 511              	.LVL60:
 512              		.loc 1 215 0
 513 0232 1369     		ldr	r3, [r2, #16]
ARM GAS  /tmp/ccm2uSCK.s 			page 10


 514 0234 3046     		mov	r0, r6
 515 0236 1BF8011B 		ldrb	r1, [fp], #1	@ zero_extendqisi2
 516              	.LVL61:
 517 023a 4FF0FF32 		mov	r2, #-1
 518 023e 9847     		blx	r3
 519              	.LVL62:
 520              		.loc 1 214 0
 521 0240 BAF1FF3F 		cmp	r10, #-1
 522 0244 F2D1     		bne	.L55
 523              	.LVL63:
 524              	.L54:
 525              		.loc 1 217 0
 526 0246 002D     		cmp	r5, #0
 527 0248 3FF4E9AE 		beq	.L12
 528              	.L56:
 529              		.loc 1 218 0
 530 024c 3368     		ldr	r3, [r6]
 531 024e 3046     		mov	r0, r6
 532 0250 1B69     		ldr	r3, [r3, #16]
 533 0252 3946     		mov	r1, r7
 534 0254 4FF0FF32 		mov	r2, #-1
 535 0258 9847     		blx	r3
 536              	.LVL64:
 537              		.loc 1 217 0
 538 025a 013D     		subs	r5, r5, #1
 539              	.LVL65:
 540 025c F6D1     		bne	.L56
 541 025e DEE6     		b	.L12
 542              	.LVL66:
 543              	.L35:
 544              		.loc 1 168 0
 545 0260 002B     		cmp	r3, #0
 546 0262 61D1     		bne	.L28
 547              		.loc 1 171 0
 548 0264 009B     		ldr	r3, [sp]
 549              	.LVL67:
 550 0266 1968     		ldr	r1, [r3]
 551              	.LVL68:
 552 0268 1A1D     		adds	r2, r3, #4
 553              	.LVL69:
 554              		.loc 1 172 0
 555 026a 0029     		cmp	r1, #0
 556              		.loc 1 171 0
 557 026c 0092     		str	r2, [sp]
 558              		.loc 1 172 0
 559 026e 61DB     		blt	.L94
 560              	.LVL70:
 561              	.L70:
 562              		.loc 1 105 0
 563 0270 4046     		mov	r0, r8
 564              	.LVL71:
 565              	.L46:
 566              		.loc 1 176 0
 567 0272 0A22     		movs	r2, #10
 568 0274 FFF7FEFF 		bl	ltoa
 569              	.LVL72:
 570 0278 C8EB0000 		rsb	r0, r8, r0
ARM GAS  /tmp/ccm2uSCK.s 			page 11


 571              	.LVL73:
 572              		.loc 1 201 0
 573 027c 2D1A     		subs	r5, r5, r0
 574              	.LVL74:
 575 027e 431E     		subs	r3, r0, #1
 576              		.loc 1 106 0
 577 0280 C346     		mov	fp, r8
 578              	.LVL75:
 579 0282 25EAE575 		bic	r5, r5, r5, asr #31
 580              	.LVL76:
 581              		.loc 1 203 0
 582 0286 BAF1000F 		cmp	r10, #0
 583 028a BAD0     		beq	.L95
 584              	.L49:
 585              	.LVL77:
 586              		.loc 1 214 0
 587 028c B3F1000A 		subs	r10, r3, #0
 588              	.LVL78:
 589 0290 CCDA     		bge	.L55
 590 0292 D8E7     		b	.L54
 591              	.LVL79:
 592              	.L33:
 593              		.loc 1 155 0
 594 0294 009B     		ldr	r3, [sp]
 595 0296 4846     		mov	r0, r9
 596 0298 1A68     		ldr	r2, [r3]
 597 029a 0433     		adds	r3, r3, #4
 598 029c 0093     		str	r3, [sp]
 599 029e 8DF80420 		strb	r2, [sp, #4]
 600 02a2 09F1FF33 		add	r3, r9, #-1
 601              		.loc 1 154 0
 602 02a6 2027     		movs	r7, #32
 603              		.loc 1 106 0
 604 02a8 C346     		mov	fp, r8
 605              		.loc 1 156 0
 606 02aa A4E7     		b	.L38
 607              	.LVL80:
 608              	.L34:
 609              		.loc 1 159 0
 610 02ac 009B     		ldr	r3, [sp]
 611              		.loc 1 160 0
 612 02ae 314A     		ldr	r2, .L97
 613              		.loc 1 159 0
 614 02b0 D3F800B0 		ldr	fp, [r3]
 615              	.LVL81:
 616 02b4 0433     		adds	r3, r3, #4
 617              		.loc 1 160 0
 618 02b6 BBF1000F 		cmp	fp, #0
 619 02ba 08BF     		it	eq
 620 02bc 9346     		moveq	fp, r2
 621              	.LVL82:
 622              		.loc 1 159 0
 623 02be 0093     		str	r3, [sp]
 624              		.loc 1 163 0
 625 02c0 9BF80030 		ldrb	r3, [fp]	@ zero_extendqisi2
 626              		.loc 1 161 0
 627 02c4 29B3     		cbz	r1, .L40
ARM GAS  /tmp/ccm2uSCK.s 			page 12


 628              	.LVL83:
 629              		.loc 1 163 0 discriminator 1
 630 02c6 43B3     		cbz	r3, .L41
 631              		.loc 1 163 0 is_stmt 0
 632 02c8 0139     		subs	r1, r1, #1
 633              	.LVL84:
 634              	.L58:
 635              		.loc 1 163 0 discriminator 4
 636 02ca 5846     		mov	r0, fp
 637 02cc 01E0     		b	.L43
 638              	.LVL85:
 639              	.L96:
 640              		.loc 1 163 0 discriminator 3
 641 02ce 4B1C     		adds	r3, r1, #1
 642 02d0 04D0     		beq	.L88
 643              	.LVL86:
 644              	.L43:
 645              		.loc 1 163 0 discriminator 4
 646 02d2 10F8013F 		ldrb	r3, [r0, #1]!	@ zero_extendqisi2
 647              	.LVL87:
 648 02d6 0139     		subs	r1, r1, #1
 649              	.LVL88:
 650 02d8 002B     		cmp	r3, #0
 651 02da F8D1     		bne	.L96
 652              	.L88:
 653 02dc CBEB0000 		rsb	r0, fp, r0
 654              	.LVL89:
 655 02e0 431E     		subs	r3, r0, #1
 656              		.loc 1 158 0 is_stmt 1
 657 02e2 2027     		movs	r7, #32
 658 02e4 87E7     		b	.L38
 659              	.LVL90:
 660              	.L68:
 661              		.loc 1 152 0
 662 02e6 4FF0010E 		mov	lr, #1
 663              	.LVL91:
 664              	.L31:
 665              		.loc 1 185 0
 666 02ea 0A22     		movs	r2, #10
 667              	.LVL92:
 668              		.loc 1 190 0
 669 02ec BEF1000F 		cmp	lr, #0
 670 02f0 3FF476AF 		beq	.L47
 671              	.L61:
 672              		.loc 1 191 0
 673 02f4 009B     		ldr	r3, [sp]
 674 02f6 191D     		adds	r1, r3, #4
 675              	.LVL93:
 676 02f8 0091     		str	r1, [sp]
 677 02fa 1968     		ldr	r1, [r3]
 678              	.LVL94:
 679 02fc 74E7     		b	.L48
 680              	.LVL95:
 681              	.L66:
 682              		.loc 1 152 0
 683 02fe 1A46     		mov	r2, r3
 684              	.LVL96:
ARM GAS  /tmp/ccm2uSCK.s 			page 13


 685              	.L27:
 686 0300 4846     		mov	r0, r9
 687              		.loc 1 106 0
 688 0302 C346     		mov	fp, r8
 689              		.loc 1 197 0
 690 0304 8DF80420 		strb	r2, [sp, #4]
 691 0308 09F1FF33 		add	r3, r9, #-1
 692              		.loc 1 198 0
 693 030c 73E7     		b	.L38
 694              	.LVL97:
 695              	.L69:
 696              		.loc 1 152 0
 697 030e 1022     		movs	r2, #16
 698              	.LVL98:
 699 0310 62E7     		b	.L37
 700              	.LVL99:
 701              	.L40:
 702              		.loc 1 163 0
 703 0312 47F6FE71 		movw	r1, #32766
 704 0316 002B     		cmp	r3, #0
 705 0318 D7D1     		bne	.L58
 706              	.LVL100:
 707              	.L41:
 708 031a 25EAE575 		bic	r5, r5, r5, asr #31
 709              	.LVL101:
 710              		.loc 1 203 0
 711 031e BAF1000F 		cmp	r10, #0
 712 0322 22D0     		beq	.L72
 713 0324 2027     		movs	r7, #32
 714 0326 8EE7     		b	.L54
 715              	.LVL102:
 716              	.L28:
 717              		.loc 1 169 0
 718 0328 009B     		ldr	r3, [sp]
 719 032a 1968     		ldr	r1, [r3]
 720              	.LVL103:
 721 032c 1A1D     		adds	r2, r3, #4
 722              		.loc 1 172 0
 723 032e 0029     		cmp	r1, #0
 724              		.loc 1 169 0
 725 0330 0092     		str	r2, [sp]
 726              		.loc 1 172 0
 727 0332 9DDA     		bge	.L70
 728              	.L94:
 729              	.LVL104:
 730              		.loc 1 173 0
 731 0334 2D23     		movs	r3, #45
 732              		.loc 1 174 0
 733 0336 4942     		negs	r1, r1
 734              	.LVL105:
 735              		.loc 1 173 0
 736 0338 8DF80430 		strb	r3, [sp, #4]
 737 033c 0DF10500 		add	r0, sp, #5
 738              	.LVL106:
 739 0340 97E7     		b	.L46
 740              	.LVL107:
 741              	.L93:
ARM GAS  /tmp/ccm2uSCK.s 			page 14


 742              		.loc 1 206 0 discriminator 1
 743 0342 302F     		cmp	r7, #48
 744 0344 7FF465AF 		bne	.L52
 745              		.loc 1 207 0
 746 0348 3268     		ldr	r2, [r6]
 747 034a 3046     		mov	r0, r6
 748 034c 1369     		ldr	r3, [r2, #16]
 749 034e 4FF0FF32 		mov	r2, #-1
 750 0352 9847     		blx	r3
 751              	.LVL108:
 752 0354 0BF1010B 		add	fp, fp, #1
 753              	.LVL109:
 754 0358 0AF1FF3A 		add	r10, r10, #-1
 755              	.LVL110:
 756 035c 59E7     		b	.L52
 757              	.LVL111:
 758              	.L32:
 759              		.loc 1 191 0
 760 035e 009B     		ldr	r3, [sp]
 761              	.LVL112:
 762              		.loc 1 152 0
 763 0360 1022     		movs	r2, #16
 764              	.LVL113:
 765              		.loc 1 191 0
 766 0362 191D     		adds	r1, r3, #4
 767              	.LVL114:
 768 0364 0091     		str	r1, [sp]
 769 0366 1968     		ldr	r1, [r3]
 770              	.LVL115:
 771 0368 3EE7     		b	.L48
 772              	.LVL116:
 773              	.L72:
 774              		.loc 1 203 0
 775 036a 4FF0FF3A 		mov	r10, #-1
 776              	.LVL117:
 777 036e 2027     		movs	r7, #32
 778 0370 48E7     		b	.L60
 779              	.L98:
 780 0372 00BF     		.align	2
 781              	.L97:
 782 0374 00000000 		.word	.LC0
 783              		.cfi_endproc
 784              	.LFE8:
 785              		.size	chprintf, .-chprintf
 786              		.section	.rodata.str1.4,"aMS",%progbits,1
 787              		.align	2
 788              	.LC0:
 789 0000 286E756C 		.ascii	"(null)\000"
 789      6C2900
 790              		.text
 791              	.Letext0:
 792              		.file 2 "/media/diana/ACER/Diana/Documents/College/VIII/Embebidos/gcc-arm-none-eabi-4_9-2015q3/lib
 793              		.file 3 "/media/diana/ACER/Diana/Documents/College/VIII/Embebidos/gcc-arm-none-eabi-4_9-2015q3/lib
 794              		.file 4 "/media/diana/ACER/Diana/Documents/College/VIII/Embebidos/gcc-arm-none-eabi-4_9-2015q3/arm
 795              		.file 5 "/media/diana/ACER/Diana/Documents/College/VIII/Embebidos/gcc-arm-none-eabi-4_9-2015q3/arm
 796              		.file 6 "/home/diana/Documentos/Embebidos/stamp_repo/files/code/ext/ChibiOS/os/ports/GCC/ARMCMx/ch
 797              		.file 7 "<built-in>"
ARM GAS  /tmp/ccm2uSCK.s 			page 15


 798              		.file 8 "/home/diana/Documentos/Embebidos/stamp_repo/files/code/ext/ChibiOS/os/kernel/include/chio