ARM GAS  /tmp/ccm2uSCK.s 			page 1


   1              		.syntax unified
   2              		.cpu cortex-m3
   3              		.fpu softvfp
   4              		.eabi_attribute 20, 1
   5              		.eabi_attribute 21, 1
   6              		.eabi_attribute 23, 3
   7              		.eabi_attribute 24, 1
   8              		.eabi_attribute 25, 1
   9              		.eabi_attribute 26, 1
  10              		.eabi_attribute 30, 2
  11              		.eabi_attribute 34, 1
  12              		.eabi_attribute 18, 4
  13              		.thumb
  14              		.file	"chprintf.c"
  15              		.text
  16              	.Ltext0:
  17              		.cfi_sections	.debug_frame
  18              		.section	.text.ltoa,"ax",%progbits
  19              		.align	2
  20              		.p2align 4,,15
  21              		.thumb
  22              		.thumb_func
  23              		.type	ltoa, %function
  24              	ltoa:
  25              	.LFB7:
  26              		.file 1 "/home/diana/Documentos/Embebidos/stamp_repo/files/code/ext/ChibiOS/os/various/chprintf.c"
  27              		.loc 1 42 0
  28              		.cfi_startproc
  29              		@ args = 0, pretend = 0, frame = 0
  30              		@ frame_needed = 0, uses_anonymous_args = 0
  31              		@ link register save eliminated.
  32              	.LVL0:
  33 0000 70B4     		push	{r4, r5, r6}
  34              		.cfi_def_cfa_offset 12
  35              		.cfi_offset 4, -12
  36              		.cfi_offset 5, -8
  37              		.cfi_offset 6, -4
  38              		.loc 1 46 0
  39 0002 00F10B06 		add	r6, r0, #11
  40              	.LVL1:
  41 0006 3446     		mov	r4, r6
  42              	.LVL2:
  43              	.L3:
  44              		.loc 1 48 0
  45 0008 B1FBF2F5 		udiv	r5, r1, r2
  46 000c 02FB1511 		mls	r1, r2, r5, r1
  47              	.LVL3:
  48              		.loc 1 49 0
  49 0010 01F13003 		add	r3, r1, #48
  50              	.LVL4:
  51              		.loc 1 50 0
  52 0014 392B     		cmp	r3, #57
  53              		.loc 1 51 0
  54 0016 C8BF     		it	gt
  55 0018 01F13703 		addgt	r3, r1, #55
  56              	.LVL5:
  57              		.loc 1 52 0
ARM GAS  /tmp/ccm2uSCK.s 			page 2


  58 001c DBB2     		uxtb	r3, r3
  59              	.LVL6:
  60 001e 04F8013D 		strb	r3, [r4, #-1]!
  61              	.LVL7:
  62              		.loc 1 53 0
  63 0022 2946     		mov	r1, r5
  64              	.LVL8:
  65 0024 002D     		cmp	r5, #0
  66 0026 EFD1     		bne	.L3
  67              	.LVL9:
  68              		.loc 1 55 0
  69 0028 321B     		subs	r2, r6, r4
  70              	.LVL10:
  71 002a 0244     		add	r2, r2, r0
  72 002c 01E0     		b	.L5
  73              	.LVL11:
  74              	.L10:
  75 002e 14F8013F 		ldrb	r3, [r4, #1]!	@ zero_extendqisi2
  76              	.LVL12:
  77              	.L5:
  78              		.loc 1 57 0 discriminator 1
  79 0032 00F8013B 		strb	r3, [r0], #1
  80              	.LVL13:
  81              		.loc 1 58 0 discriminator 1
  82 0036 9042     		cmp	r0, r2
  83 0038 F9D1     		bne	.L10
  84              		.loc 1 61 0
  85 003a 70BC     		pop	{r4, r5, r6}
  86              		.cfi_restore 6
  87              		.cfi_restore 5
  88              		.cfi_restore 4
  89              		.cfi_def_cfa_offset 0
  90 003c 7047     		bx	lr
  91              		.cfi_endproc
  92              	.LFE7:
  93              		.size	ltoa, .-ltoa
  94 003e 00BF     		.section	.text.chprintf,"ax",%progbits
  95              		.align	2
  96              		.p2align 4,,15
  97              		.global	chprintf
  98              		.thumb
  99              		.thumb_func
 100              		.type	chprintf, %function
 101              	chprintf:
 102              	.LFB8:
 103              		.loc 1 86 0
 104              		.cfi_startproc
 105              		@ args = 4, pretend = 12, frame = 16
 106              		@ frame_needed = 0, uses_anonymous_args = 1
 107              	.LVL14:
 108 0000 0EB4     		push	{r1, r2, r3}
 109              		.cfi_def_cfa_offset 12
 110              		.cfi_offset 1, -12
 111              		.cfi_offset 2, -8
 112              		.cfi_offset 3, -4
 113 0002 2DE9F04F 		push	{r4, r5, r6, r7, r8, r9, r10, fp, lr}
 114              		.cfi_def_cfa_offset 48
ARM GAS  /tmp/ccm2uSCK.s 			page 3


 115              		.cfi_offset 4, -48
 116              		.cfi_offset 5, -44
 117              		.cfi_offset 6, -40
 118              		.cfi_offset 7, -36
 119              		.cfi_offset 8, -32
 120              		.cfi_offset 9, -28
 121              		.cfi_offset 10, -24
 122              		.cfi_offset 11, -20
 123              		.cfi_offset 14, -16
 124 0006 0646     		mov	r6, r0
 125 0008 84B0     		sub	sp, sp, #16
 126              		.cfi_def_cfa_offset 64
 127              		.loc 1 86 0
 128 000a 0DAB     		add	r3, sp, #52
 129 000c 53F8044B 		ldr	r4, [r3], #4
 130 0010 0DF10408 		add	r8, sp, #4
 131              		.loc 1 94 0
 132 0014 0093     		str	r3, [sp]
 133 0016 0DF10503 		add	r3, sp, #5
 134 001a C8EB0309 		rsb	r9, r8, r3
 135              	.LVL15:
 136              	.L12:
 137              		.loc 1 96 0
 138 001e 2178     		ldrb	r1, [r4]	@ zero_extendqisi2
 139 0020 631C     		adds	r3, r4, #1
 140              	.LVL16:
 141              		.loc 1 97 0
 142 0022 61B1     		cbz	r1, .L83
 143              	.L90:
 144              		.loc 1 101 0
 145 0024 2529     		cmp	r1, #37
 146 0026 0FD0     		beq	.L14
 147              		.loc 1 96 0
 148 0028 1C46     		mov	r4, r3
 149              		.loc 1 102 0
 150 002a 3268     		ldr	r2, [r6]
 151 002c 3046     		mov	r0, r6
 152 002e 1569     		ldr	r5, [r2, #16]
 153 0030 4FF0FF32 		mov	r2, #-1
 154 0034 A847     		blx	r5
 155              	.LVL17:
 156              		.loc 1 96 0
 157 0036 2178     		ldrb	r1, [r4]	@ zero_extendqisi2
 158 0038 631C     		adds	r3, r4, #1
 159              	.LVL18:
 160              		.loc 1 97 0
 161 003a 0029     		cmp	r1, #0
 162 003c F2D1     		bne	.L90
 163              	.L83:
 164              		.loc 1 222 0
 165 003e 04B0     		add	sp, sp, #16
 166              		.cfi_remember_state
 167              		.cfi_def_cfa_offset 48
 168              		@ sp needed
 169 0040 BDE8F04F 		pop	{r4, r5, r6, r7, r8, r9, r10, fp, lr}
 170              		.cfi_restore 14
 171              		.cfi_restore 11
ARM GAS  /tmp/ccm2uSCK.s 			page 4


 172              		.cfi_restore 10
 173              		.cfi_restore 9
 174              		.cfi_restore 8
 175              		.cfi_restore 7
 176              		.cfi_restore 6
 177              		.cfi_restore 5
 178              		.cfi_restore 4
 179              		.cfi_def_cfa_offset 12
 180              	.LVL19:
 181 0044 03B0     		add	sp, sp, #12
 182              		.cfi_restore 3
 183              		.cfi_restore 2
 184              		.cfi_restore 1
 185              		.cfi_def_cfa_offset 0
 186 0046 7047     		bx	lr
 187              	.LVL20:
 188              	.L14:
 189              		.cfi_restore_state
 190              		.loc 1 108 0
 191 0048 6278     		ldrb	r2, [r4, #1]	@ zero_extendqisi2
 192 004a 0098     		ldr	r0, [sp]
 193 004c 2D2A     		cmp	r2, #45
 194 004e 03BF     		ittte	eq
 195 0050 A278     		ldrbeq	r2, [r4, #2]	@ zero_extendqisi2
 196              		.loc 1 109 0
 197 0052 A31C     		addeq	r3, r4, #2
 198              	.LVL21:
 199              		.loc 1 110 0
 200 0054 4FF0010A 		moveq	r10, #1
 201              		.loc 1 107 0
 202 0058 4FF0000A 		movne	r10, #0
 203              	.LVL22:
 204              		.loc 1 113 0
 205 005c 2E2A     		cmp	r2, #46
 206 005e 03BF     		ittte	eq
 207 0060 5A78     		ldrbeq	r2, [r3, #1]	@ zero_extendqisi2
 208              		.loc 1 114 0
 209 0062 0133     		addeq	r3, r3, #1
 210              	.LVL23:
 211              		.loc 1 115 0
 212 0064 3027     		moveq	r7, #48
 213              		.loc 1 112 0
 214 0066 2027     		movne	r7, #32
 215              	.LVL24:
 216 0068 591C     		adds	r1, r3, #1
 217              	.LVL25:
 218              		.loc 1 117 0
 219 006a 0025     		movs	r5, #0
 220 006c 05E0     		b	.L20
 221              	.LVL26:
 222              	.L91:
 223              		.loc 1 123 0
 224 006e 0378     		ldrb	r3, [r0]	@ zero_extendqisi2
 225              	.LVL27:
 226 0070 0430     		adds	r0, r0, #4
 227              	.LVL28:
 228              	.L18:
ARM GAS  /tmp/ccm2uSCK.s 			page 5


 229 0072 2278     		ldrb	r2, [r4]	@ zero_extendqisi2
 230              		.loc 1 126 0
 231 0074 03EB4E05 		add	r5, r3, lr, lsl #1
 232              	.LVL29:
 233 0078 0131     		adds	r1, r1, #1
 234              	.LVL30:
 235              	.L20:
 236              		.loc 1 120 0
 237 007a A2F13003 		sub	r3, r2, #48
 238 007e DBB2     		uxtb	r3, r3
 239 0080 092B     		cmp	r3, #9
 240              		.loc 1 119 0
 241 0082 0C46     		mov	r4, r1
 242              	.LVL31:
 243              		.loc 1 126 0
 244 0084 05EB850E 		add	lr, r5, r5, lsl #2
 245              		.loc 1 120 0
 246 0088 F3D9     		bls	.L18
 247              		.loc 1 122 0
 248 008a 2A2A     		cmp	r2, #42
 249 008c EFD0     		beq	.L91
 250              		.loc 1 129 0
 251 008e 2E2A     		cmp	r2, #46
 252 0090 0090     		str	r0, [sp]
 253              	.LVL32:
 254 0092 4FF00001 		mov	r1, #0
 255              	.LVL33:
 256 0096 4BD0     		beq	.L24
 257              	.LVL34:
 258              		.loc 1 143 0
 259 0098 02F0DF03 		and	r3, r2, #223
 260 009c 4C2B     		cmp	r3, #76
 261 009e 57D0     		beq	.L92
 262              	.L84:
 263              		.loc 1 149 0
 264 00a0 A2F14103 		sub	r3, r2, #65
 265 00a4 DBB2     		uxtb	r3, r3
 266 00a6 192B     		cmp	r3, #25
 267 00a8 8CBF     		ite	hi
 268 00aa 0023     		movhi	r3, #0
 269 00ac 0123     		movls	r3, #1
 270              		.loc 1 152 0
 271 00ae A2F14400 		sub	r0, r2, #68
 272              		.loc 1 149 0
 273 00b2 9E46     		mov	lr, r3
 274              	.LVL35:
 275              		.loc 1 152 0
 276 00b4 3428     		cmp	r0, #52
 277 00b6 00F22381 		bhi	.L27
 278 00ba DFE810F0 		tbh	[pc, r0, lsl #1]
 279              	.L36:
 280 00be D100     		.2byte	(.L35-.L36)/2
 281 00c0 2101     		.2byte	(.L27-.L36)/2
 282 00c2 2101     		.2byte	(.L27-.L36)/2
 283 00c4 2101     		.2byte	(.L27-.L36)/2
 284 00c6 2101     		.2byte	(.L27-.L36)/2
 285 00c8 2101     		.2byte	(.L27-.L36)/2
ARM GAS  /tmp/ccm2uSCK.s 			page 6


 286 00ca 2101     		.2byte	(.L27-.L36)/2
 287 00cc 2101     		.2byte	(.L27-.L36)/2
 288 00ce 2101     		.2byte	(.L27-.L36)/2
 289 00d0 2101     		.2byte	(.L27-.L36)/2
 290 00d2 2101     		.2byte	(.L27-.L36)/2
 291 00d4 8C00     		.2byte	(.L30-.L36)/2
 292 00d6 2101     		.2byte	(.L27-.L36)/2
 293 00d8 2101     		.2byte	(.L27-.L36)/2
 294 00da 2101     		.2byte	(.L27-.L36)/2
 295 00dc 2101     		.2byte	(.L27-.L36)/2
 296 00de 2101     		.2byte	(.L27-.L36)/2
 297 00e0 1601     		.2byte	(.L31-.L36)/2
 298 00e2 2101     		.2byte	(.L27-.L36)/2
 299 00e4 2101     		.2byte	(.L27-.L36)/2
 300 00e6 2801     		.2byte	(.L69-.L36)/2
 301 00e8 2101     		.2byte	(.L27-.L36)/2
 302 00ea 2101     		.2byte	(.L27-.L36)/2
 303 00ec 2101     		.2byte	(.L27-.L36)/2
 304 00ee 2101     		.2byte	(.L27-.L36)/2
 305 00f0 2101     		.2byte	(.L27-.L36)/2
 306 00f2 2101     		.2byte	(.L27-.L36)/2
 307 00f4 2101     		.2byte	(.L27-.L36)/2
 308 00f6 2101     		.2byte	(.L27-.L36)/2
 309 00f8 2101     		.2byte	(.L27-.L36)/2
 310 00fa 2101     		.2byte	(.L27-.L36)/2
 311 00fc EB00     		.2byte	(.L33-.L36)/2
 312 00fe D100     		.2byte	(.L35-.L36)/2
 313 0100 2101     		.2byte	(.L27-.L36)/2
 314 0102 2101     		.2byte	(.L27-.L36)/2
 315 0104 2101     		.2byte	(.L27-.L36)/2
 316 0106 2101     		.2byte	(.L27-.L36)/2
 317 0108 2101     		.2byte	(.L27-.L36)/2
 318 010a 2101     		.2byte	(.L27-.L36)/2
 319 010c 2101     		.2byte	(.L27-.L36)/2
 320 010e 2101     		.2byte	(.L27-.L36)/2
 321 0110 2101     		.2byte	(.L27-.L36)/2
 322 0112 2101     		.2byte	(.L27-.L36)/2
 323 0114 8C00     		.2byte	(.L30-.L36)/2
 324 0116 2101     		.2byte	(.L27-.L36)/2
 325 0118 2101     		.2byte	(.L27-.L36)/2
 326 011a 2101     		.2byte	(.L27-.L36)/2
 327 011c F700     		.2byte	(.L34-.L36)/2
 328 011e 2101     		.2byte	(.L27-.L36)/2
 329 0120 1601     		.2byte	(.L31-.L36)/2
 330 0122 2101     		.2byte	(.L27-.L36)/2
 331 0124 2101     		.2byte	(.L27-.L36)/2
 332 0126 2801     		.2byte	(.L69-.L36)/2
 333              	.LVL36:
 334              		.p2align 1
 335              	.L23:
 336              		.loc 1 135 0
 337 0128 0378     		ldrb	r3, [r0]	@ zero_extendqisi2
 338              	.LVL37:
 339 012a 0430     		adds	r0, r0, #4
 340              	.LVL38:
 341              	.L22:
 342              		.loc 1 139 0
ARM GAS  /tmp/ccm2uSCK.s 			page 7


 343 012c 03EB4E01 		add	r1, r3, lr, lsl #1
 344              	.LVL39:
 345              	.L24:
 346              		.loc 1 131 0
 347 0130 14F8012B 		ldrb	r2, [r4], #1	@ zero_extendqisi2
 348              	.LVL40:
 349              		.loc 1 138 0
 350 0134 01EB810E 		add	lr, r1, r1, lsl #2
 351              		.loc 1 132 0
 352 0138 A2F13003 		sub	r3, r2, #48
 353 013c DBB2     		uxtb	r3, r3
 354 013e 092B     		cmp	r3, #9
 355 0140 F4D9     		bls	.L22
 356              		.loc 1 134 0
 357 0142 2A2A     		cmp	r2, #42
 358 0144 F0D0     		beq	.L23
 359              		.loc 1 143 0
 360 0146 02F0DF03 		and	r3, r2, #223
 361 014a 4C2B     		cmp	r3, #76
 362 014c 0090     		str	r0, [sp]
 363              	.LVL41:
 364 014e A7D1     		bne	.L84
 365              	.L92:
 366              	.LVL42:
 367              		.loc 1 145 0
 368 0150 2378     		ldrb	r3, [r4]	@ zero_extendqisi2
 369 0152 002B     		cmp	r3, #0
 370 0154 00F0D480 		beq	.L27
 371              		.loc 1 152 0
 372 0158 A3F14402 		sub	r2, r3, #68
 373              	.LVL43:
 374              		.loc 1 146 0
 375 015c 0134     		adds	r4, r4, #1
 376              	.LVL44:
 377              		.loc 1 152 0
 378 015e 342A     		cmp	r2, #52
 379 0160 00F2CD80 		bhi	.L66
 380 0164 DFE812F0 		tbh	[pc, r2, lsl #1]
 381              	.L29:
 382 0168 E000     		.2byte	(.L28-.L29)/2
 383 016a CB00     		.2byte	(.L66-.L29)/2
 384 016c CB00     		.2byte	(.L66-.L29)/2
 385 016e CB00     		.2byte	(.L66-.L29)/2
 386 0170 CB00     		.2byte	(.L66-.L29)/2
 387 0172 CB00     		.2byte	(.L66-.L29)/2
 388 0174 CB00     		.2byte	(.L66-.L29)/2
 389 0176 CB00     		.2byte	(.L66-.L29)/2
 390 0178 CB00     		.2byte	(.L66-.L29)/2
 391 017a CB00     		.2byte	(.L66-.L29)/2
 392 017c CB00     		.2byte	(.L66-.L29)/2
 393 017e 3500     		.2byte	(.L67-.L29)/2
 394 0180 CB00     		.2byte	(.L66-.L29)/2
 395 0182 CB00     		.2byte	(.L66-.L29)/2
 396 0184 CB00     		.2byte	(.L66-.L29)/2
 397 0186 CB00     		.2byte	(.L66-.L29)/2
 398 0188 CB00     		.2byte	(.L66-.L29)/2
 399 018a BF00     		.2byte	(.L68-.L29)/2
ARM GAS  /tmp/ccm2uSCK.s 			page 8


 400 018c CB00     		.2byte	(.L66-.L29)/2
 401 018e CB00     		.2byte	(.L66-.L29)/2
 402 0190 FB00     		.2byte	(.L32-.L29)/2
 403 0192 CB00     		.2byte	(.L66-.L29)/2
 404 0194 CB00     		.2byte	(.L66-.L29)/2
 405 0196 CB00     		.2byte	(.L66-.L29)/2
 406 0198 CB00     		.2byte	(.L66-.L29)/2
 407 019a CB00     		.2byte	(.L66-.L29)/2
 408 019c CB00     		.2byte	(.L66-.L29)/2
 409 019e CB00     		.2byte	(.L66-.L29)/2
 410 01a0 CB00     		.2byte	(.L66-.L29)/2
 411 01a2 CB00     		.2byte	(.L66-.L29)/2
 412 01a4 CB00     		.2byte	(.L66-.L29)/2
 413 01a6 9600     		.2byte	(.L33-.L29)/2
 414 01a8 E000     		.2byte	(.L28-.L29)/2
 415 01aa CB00     		.2byte	(.L66-.L29)/2
 416 01ac CB00     		.2byte	(.L66-.L29)/2
 417 01ae CB00     		.2byte	(.L66-.L29)/2
 418 01b0 CB00     		.2byte	(.L66-.L29)/2
 419 01b2 CB00     		.2byte	(.L66-.L29)/2
 420 01b4 CB00     		.2byte	(.L66-.L29)/2
 421 01b6 CB00     		.2byte	(.L66-.L29)/2
 422 01b8 CB00     		.2byte	(.L66-.L29)/2
 423 01ba CB00     		.2byte	(.L66-.L29)/2
 424 01bc CB00     		.2byte	(.L66-.L29)/2
 425 01be 3500     		.2byte	(.L67-.L29)/2
 426 01c0 CB00     		.2byte	(.L66-.L29)/2
 427 01c2 CB00     		.2byte	(.L66-.L29)/2
 428 01c4 CB00     		.2byte	(.L66-.L29)/2
 429 01c6 A200     		.2byte	(.L34-.L29)/2
 430 01c8 CB00     		.2byte	(.L66-.L29)/2
 431 01ca BF00     		.2byte	(.L68-.L29)/2
 432 01cc CB00     		.2byte	(.L66-.L29)/2
 433 01ce CB00     		.2byte	(.L66-.L29)/2
 434 01d0 FB00     		.2byte	(.L32-.L29)/2
 435              		.p2align 1
 436              	.L67:
 437 01d2 4FF0010E 		mov	lr, #1
 438              	.LVL45:
 439              	.L30:
 440 01d6 0822     		movs	r2, #8
 441              	.LVL46:
 442              	.L37:
 443              		.loc 1 190 0
 444 01d8 BEF1000F 		cmp	lr, #0
 445 01dc 40F08A80 		bne	.L61
 446              	.L47:
 447              		.loc 1 193 0
 448 01e0 009B     		ldr	r3, [sp]
 449 01e2 181D     		adds	r0, r3, #4
 450 01e4 1968     		ldr	r1, [r3]
 451              	.LVL47:
 452 01e6 0090     		str	r0, [sp]
 453              	.L48:
 454              		.loc 1 194 0
 455 01e8 4046     		mov	r0, r8
 456 01ea FFF7FEFF 		bl	ltoa
ARM GAS  /tmp/ccm2uSCK.s 			page 9


 457              	.LVL48:
 458              		.loc 1 106 0
 459 01ee C346     		mov	fp, r8
 460 01f0 C8EB0000 		rsb	r0, r8, r0
 461              	.LVL49:
 462 01f4 431E     		subs	r3, r0, #1
 463              	.LVL50:
 464              	.L38:
 465              		.loc 1 201 0
 466 01f6 2D1A     		subs	r5, r5, r0
 467              	.LVL51:
 468 01f8 25EAE575 		bic	r5, r5, r5, asr #31
 469              	.LVL52:
 470              		.loc 1 203 0
 471 01fc BAF1000F 		cmp	r10, #0
 472 0200 44D1     		bne	.L49
 473              	.L95:
 474 0202 9A46     		mov	r10, r3
 475              	.LVL53:
 476              	.L60:
 477              		.loc 1 204 0
 478 0204 6D42     		negs	r5, r5
 479              	.LVL54:
 480              		.loc 1 205 0
 481 0206 6DB1     		cbz	r5, .L50
 482              		.loc 1 206 0
 483 0208 9BF80010 		ldrb	r1, [fp]	@ zero_extendqisi2
 484 020c 2D29     		cmp	r1, #45
 485 020e 00F09880 		beq	.L93
 486              	.LVL55:
 487              	.L52:
 488              		.loc 1 211 0 discriminator 1
 489 0212 3268     		ldr	r2, [r6]
 490 0214 3046     		mov	r0, r6
 491 0216 1369     		ldr	r3, [r2, #16]
 492 0218 3946     		mov	r1, r7
 493 021a 4FF0FF32 		mov	r2, #-1
 494 021e 9847     		blx	r3
 495              	.LVL56:
 496              		.loc 1 212 0 discriminator 1
 497 0220 0135     		adds	r5, r5, #1
 498              	.LVL57:
 499 0222 F6D1     		bne	.L52
 500              	.L50:
 501              	.LVL58:
 502              		.loc 1 214 0
 503 0224 BAF1000F 		cmp	r10, #0
 504 0228 FFF6F9AE 		blt	.L12
 505              	.LVL59:
 506              	.L55:
 507              		.loc 1 215 0
 508 022c 3268     		ldr	r2, [r6]
 509              		.loc 1 214 0
 510 022e 0AF1FF3A 		add	r10, r10, #-1
 511              	.LVL60:
 512              		.loc 1 215 0
 513 0232 1369     		ldr	r3, [r2, #16]
ARM GAS  /tmp/ccm2uSCK.s 			page 10


 514 0234 3046     		mov	r0, r6
 515 0236 1BF8011B 		ldrb	r1, [fp], #1	@ zero_extendqisi2
 516              	.LVL61:
 517 023a 4FF0FF32 		mov	r2, #-1
 518 023e 9847     		blx	r3
 519              	.LVL62:
 520              		.loc 1 214 0
 521 0240 BAF1FF3F 		cmp	r10, #-1
 522 0244 F2D1     		bne	.L55
 523              	.LVL63:
 524              	.L54:
 525              		.loc 1 217 0
 526 0246 002D     		cmp	r5, #0
 527 0248 3FF4E9AE 		beq	.L12
 528              	.L56:
 529              		.loc 1 218 0
 530 024c 3368     		ldr	r3, [r6]
 531 024e 3046     		mov	r0, r6
 532 0250 1B69     		ldr	r3, [r3, #16]
 533 0252 3946     		mov	r1, r7
 534 0254 4FF0FF32 		mov	r2, #-1
 535 0258 9847     		blx	r3
 536              	.LVL64:
 537              		.loc 1 217 0
 538 025a 013D     		subs	r5, r5, #1
 539              	.LVL65:
 540 025c F6D1     		bne	.L56
 541 025e DEE6     		b	.L12
 542              	.LVL66:
 543              	.L35:
 544              		.loc 1 168 0
 545 0260 002B     		cmp	r3, #0
 546 0262 61D1     		bne	.L28
 547              		.loc 1 171 0
 548 0264 009B     		ldr	r3, [sp]
 549              	.LVL67:
 550 0266 1968     		ldr	r1, [r3]
 551              	.LVL68:
 552 0268 1A1D     		adds	r2, r3, #4
 553              	.LVL69:
 554              		.loc 1 172 0
 555 026a 0029     		cmp	r1, #0
 556              		.loc 1 171 0
 557 026c 0092     		str	r2, [sp]
 558              		.loc 1 172 0
 559 026e 61DB     		blt	.L94
 560              	.LVL70:
 561              	.L70:
 562              		.loc 1 105 0
 563 0270 4046     		mov	r0, r8
 564              	.LVL71:
 565              	.L46:
 566              		.loc 1 176 0
 567 0272 0A22     		movs	r2, #10
 568 0274 FFF7FEFF 		bl	ltoa
 569              	.LVL72:
 570 0278 C8EB0000 		rsb	r0, r8, r0
ARM GAS  /tmp/ccm2uSCK.s 			page 11


 571              	.LVL73:
 572              		.loc 1 201 0
 573 027c 2D1A     		subs	r5, r5, r0
 574              	.LVL74:
 575 027e 431E     		subs	r3, r0, #1
 576              		.loc 1 106 0
 577 0280 C346     		mov	fp, r8
 578              	.LVL75:
 579 0282 25EAE575 		bic	r5, r5, r5, asr #31
 580              	.LVL76:
 581              		.loc 1 203 0
 582 0286 BAF1000F 		cmp	r10, #0
 583 028a BAD0     		beq	.L95
 584              	.L49:
 585              	.LVL77:
 586              		.loc 1 214 0
 587 028c B3F1000A 		subs	r10, r3, #0
 588              	.LVL78:
 589 0290 CCDA     		bge	.L55
 590 0292 D8E7     		b	.L54
 591              	.LVL79:
 592              	.L33:
 593              		.loc 1 155 0
 594 0294 009B     		ldr	r3, [sp]
 595 0296 4846     		mov	r0, r9
 596 0298 1A68     		ldr	r2, [r3]
 597 029a 0433     		adds	r3, r3, #4
 598 029c 0093     		str	r3, [sp]
 599 029e 8DF80420 		strb	r2, [sp, #4]
 600 02a2 09F1FF33 		add	r3, r9, #-1
 601              		.loc 1 154 0
 602 02a6 2027     		movs	r7, #32
 603              		.loc 1 106 0
 604 02a8 C346     		mov	fp, r8
 605              		.loc 1 156 0
 606 02aa A4E7     		b	.L38
 607              	.LVL80:
 608              	.L34:
 609              		.loc 1 159 0
 610 02ac 009B     		ldr	r3, [sp]
 611              		.loc 1 160 0
 612 02ae 314A     		ldr	r2, .L97
 613              		.loc 1 159 0
 614 02b0 D3F800B0 		ldr	fp, [r3]
 615              	.LVL81:
 616 02b4 0433     		adds	r3, r3, #4
 617              		.loc 1 160 0
 618 02b6 BBF1000F 		cmp	fp, #0
 619 02ba 08BF     		it	eq
 620 02bc 9346     		moveq	fp, r2
 621              	.LVL82:
 622              		.loc 1 159 0
 623 02be 0093     		str	r3, [sp]
 624              		.loc 1 163 0
 625 02c0 9BF80030 		ldrb	r3, [fp]	@ zero_extendqisi2
 626              		.loc 1 161 0
 627 02c4 29B3     		cbz	r1, .L40
ARM GAS  /tmp/ccm2uSCK.s 			page 12


 628              	.LVL83:
 629              		.loc 1 163 0 discriminator 1
 630 02c6 43B3     		cbz	r3, .L41
 631              		.loc 1 163 0 is_stmt 0
 632 02c8 0139     		subs	r1, r1, #1
 633              	.LVL84:
 634              	.L58:
 635              		.loc 1 163 0 discriminator 4
 636 02ca 5846     		mov	r0, fp
 637 02cc 01E0     		b	.L43
 638              	.LVL85:
 639              	.L96:
 640              		.loc 1 163 0 discriminator 3
 641 02ce 4B1C     		adds	r3, r1, #1
 642 02d0 04D0     		beq	.L88
 643              	.LVL86:
 644              	.L43:
 645              		.loc 1 163 0 discriminator 4
 646 02d2 10F8013F 		ldrb	r3, [r0, #1]!	@ zero_extendqisi2
 647              	.LVL87:
 648 02d6 0139     		subs	r1, r1, #1
 649              	.LVL88:
 650 02d8 002B     		cmp	r3, #0
 651 02da F8D1     		bne	.L96
 652              	.L88:
 653 02dc CBEB0000 		rsb	r0, fp, r0
 654              	.LVL89:
 655 02e0 431E     		subs	r3, r0, #1
 656              		.loc 1 158 0 is_stmt 1
 657 02e2 2027     		movs	r7, #32
 658 02e4 87E7     		b	.L38
 659              	.LVL90:
 660              	.L68:
 661              		.loc 1 152 0
 662 02e6 4FF0010E 		mov	lr, #1
 663              	.LVL91:
 664              	.L31:
 665              		.loc 1 185 0
 666 02ea 0A22     		movs	r2, #10
 667              	.LVL92:
 668              		.loc 1 190 0
 669 02ec BEF1000F 		cmp	lr, #0
 670 02f0 3FF476AF 		beq	.L47
 671              	.L61:
 672              		.loc 1 191 0
 673 02f4 009B     		ldr	r3, [sp]
 674 02f6 191D     		adds	r1, r3, #4
 675              	.LVL93:
 676 02f8 0091     		str	r1, [sp]
 677 02fa 1968     		ldr	r1, [r3]
 678              	.LVL94:
 679 02fc 74E7     		b	.L48
 680              	.LVL95:
 681              	.L66:
 682              		.loc 1 152 0
 683 02fe 1A46     		mov	r2, r3
 684              	.LVL96:
ARM GAS  /tmp/ccm2uSCK.s 			page 13


 685              	.L27:
 686 0300 4846     		mov	r0, r9
 687              		.loc 1 106 0
 688 0302 C346     		mov	fp, r8
 689              		.loc 1 197 0
 690 0304 8DF80420 		strb	r2, [sp, #4]
 691 0308 09F1FF33 		add	r3, r9, #-1
 692              		.loc 1 198 0
 693 030c 73E7     		b	.L38
 694              	.LVL97:
 695              	.L69:
 696              		.loc 1 152 0
 697 030e 1022     		movs	r2, #16
 698              	.LVL98:
 699 0310 62E7     		b	.L37
 700              	.LVL99:
 701              	.L40:
 702              		.loc 1 163 0
 703 0312 47F6FE71 		movw	r1, #32766
 704 0316 002B     		cmp	r3, #0
 705 0318 D7D1     		bne	.L58
 706              	.LVL100:
 707              	.L41:
 708 031a 25EAE575 		bic	r5, r5, r5, asr #31
 709              	.LVL101:
 710              		.loc 1 203 0
 711 031e BAF1000F 		cmp	r10, #0
 712 0322 22D0     		beq	.L72
 713 0324 2027     		movs	r7, #32
 714 0326 8EE7     		b	.L54
 715              	.LVL102:
 716              	.L28:
 717              		.loc 1 169 0
 718 0328 009B     		ldr	r3, [sp]
 719 032a 1968     		ldr	r1, [r3]
 720              	.LVL103:
 721 032c 1A1D     		adds	r2, r3, #4
 722              		.loc 1 172 0
 723 032e 0029     		cmp	r1, #0
 724              		.loc 1 169 0
 725 0330 0092     		str	r2, [sp]
 726              		.loc 1 172 0
 727 0332 9DDA     		bge	.L70
 728              	.L94:
 729              	.LVL104:
 730              		.loc 1 173 0
 731 0334 2D23     		movs	r3, #45
 732              		.loc 1 174 0
 733 0336 4942     		negs	r1, r1
 734              	.LVL105:
 735              		.loc 1 173 0
 736 0338 8DF80430 		strb	r3, [sp, #4]
 737 033c 0DF10500 		add	r0, sp, #5
 738              	.LVL106:
 739 0340 97E7     		b	.L46
 740              	.LVL107:
 741              	.L93:
ARM GAS  /tmp/ccm2uSCK.s 			page 14


 742              		.loc 1 206 0 discriminator 1
 743 0342 302F     		cmp	r7, #48
 744 0344 7FF465AF 		bne	.L52
 745              		.loc 1 207 0
 746 0348 3268     		ldr	r2, [r6]
 747 034a 3046     		mov	r0, r6
 748 034c 1369     		ldr	r3, [r2, #16]
 749 034e 4FF0FF32 		mov	r2, #-1
 750 0352 9847     		blx	r3
 751              	.LVL108:
 752 0354 0BF1010B 		add	fp, fp, #1
 753              	.LVL109:
 754 0358 0AF1FF3A 		add	r10, r10, #-1
 755              	.LVL110:
 756 035c 59E7     		b	.L52
 757              	.LVL111:
 758              	.L32:
 759              		.loc 1 191 0
 760 035e 009B     		ldr	r3, [sp]
 761              	.LVL112:
 762              		.loc 1 152 0
 763 0360 1022     		movs	r2, #16
 764              	.LVL113:
 765              		.loc 1 191 0
 766 0362 191D     		adds	r1, r3, #4
 767              	.LVL114:
 768 0364 0091     		str	r1, [sp]
 769 0366 1968     		ldr	r1, [r3]
 770              	.LVL115:
 771 0368 3EE7     		b	.L48
 772              	.LVL116:
 773              	.L72:
 774              		.loc 1 203 0
 775 036a 4FF0FF3A 		mov	r10, #-1
 776              	.LVL117:
 777 036e 2027     		movs	r7, #32
 778 0370 48E7     		b	.L60
 779              	.L98:
 780 0372 00BF     		.align	2
 781              	.L97:
 782 0374 00000000 		.word	.LC0
 783              		.cfi_endproc
 784              	.LFE8:
 785              		.size	chprintf, .-chprintf
 786              		.section	.rodata.str1.4,"aMS",%progbits,1
 787              		.align	2
 788              	.LC0:
 789 0000 286E756C 		.ascii	"(null)\000"
 789      6C2900
 790              		.text
 791              	.Letext0:
 792              		.file 2 "/media/diana/ACER/Diana/Documents/College/VIII/Embebidos/gcc-arm-none-eabi-4_9-2015q3/lib
 793              		.file 3 "/media/diana/ACER/Diana/Documents/College/VIII/Embebidos/gcc-arm-none-eabi-4_9-2015q3/lib
 794              		.file 4 "/media/diana/ACER/Diana/Documents/College/VIII/Embebidos/gcc-arm-none-eabi-4_9-2015q3/arm
 795              		.file 5 "/media/diana/ACER/Diana/Documents/College/VIII/Embebidos/gcc-arm-none-eabi-4_9-2015q3/arm
 796              		.file 6 "/home/diana/Documentos/Embebidos/stamp_repo/files/code/ext/ChibiOS/os/ports/GCC/ARMCMx/ch
 797              		.file 7 "<built-in>"
ARM GAS  /tmp/ccm2uSCK.s 			page 15


 798              		.file 8 "/home/diana/Documentos/Embebidos/stamp_repo/files/code/ext/ChibiOS/os/kernel/include/chio
 799              		.section	.debug_info,"",%progbits
 800              	.Ldebug_info0:
 801 0000 99040000 		.4byte	0x499
 802 0004 0400     		.2byte	0x4
 803 0006 00000000 		.4byte	.Ldebug_abbrev0
 804 000a 04       		.byte	0x4
 805 000b 01       		.uleb128 0x1
 806 000c 31010000 		.4byte	.LASF39
 807 0010 01       		.byte	0x1
 808 0011 00000000 		.4byte	.LASF40
 809 0015 32020000 		.4byte	.LASF41
 810 0019 00000000 		.4byte	.Ldebug_ranges0+0
 811 001d 00000000 		.4byte	0
 812 0021 00000000 		.4byte	.Ldebug_line0
 813 0025 02       		.uleb128 0x2
 814 0026 16010000 		.4byte	.LASF0
 815 002a 02       		.byte	0x2
 816 002b 28       		.byte	0x28
 817 002c 30000000 		.4byte	0x30
 818 0030 03       		.uleb128 0x3
 819 0031 A4020000 		.4byte	.LASF23
 820 0035 04       		.byte	0x4
 821 0036 07       		.byte	0x7
 822 0037 00       		.byte	0
 823 0038 47000000 		.4byte	0x47
 824 003c 04       		.uleb128 0x4
 825 003d 2D020000 		.4byte	.LASF42
 826 0041 47000000 		.4byte	0x47
 827 0045 00       		.byte	0
 828 0046 00       		.byte	0
 829 0047 05       		.uleb128 0x5
 830 0048 04       		.byte	0x4
 831 0049 02       		.uleb128 0x2
 832 004a A7000000 		.4byte	.LASF1
 833 004e 02       		.byte	0x2
 834 004f 62       		.byte	0x62
 835 0050 25000000 		.4byte	0x25
 836 0054 06       		.uleb128 0x6
 837 0055 04       		.byte	0x4
 838 0056 05       		.byte	0x5
 839 0057 696E7400 		.ascii	"int\000"
 840 005b 02       		.uleb128 0x2
 841 005c 63000000 		.4byte	.LASF2
 842 0060 03       		.byte	0x3
 843 0061 D4       		.byte	0xd4
 844 0062 66000000 		.4byte	0x66
 845 0066 07       		.uleb128 0x7
 846 0067 04       		.byte	0x4
 847 0068 07       		.byte	0x7
 848 0069 8C000000 		.4byte	.LASF3
 849 006d 07       		.uleb128 0x7
 850 006e 01       		.byte	0x1
 851 006f 06       		.byte	0x6
 852 0070 0A030000 		.4byte	.LASF4
 853 0074 02       		.uleb128 0x2
 854 0075 59000000 		.4byte	.LASF5
ARM GAS  /tmp/ccm2uSCK.s 			page 16


 855 0079 04       		.byte	0x4
 856 007a 1D       		.byte	0x1d
 857 007b 7F000000 		.4byte	0x7f
 858 007f 07       		.uleb128 0x7
 859 0080 01       		.byte	0x1
 860 0081 08       		.byte	0x8
 861 0082 AF000000 		.4byte	.LASF6
 862 0086 07       		.uleb128 0x7
 863 0087 02       		.byte	0x2
 864 0088 05       		.byte	0x5
 865 0089 D6020000 		.4byte	.LASF7
 866 008d 07       		.uleb128 0x7
 867 008e 02       		.byte	0x2
 868 008f 07       		.byte	0x7
 869 0090 D5000000 		.4byte	.LASF8
 870 0094 02       		.uleb128 0x2
 871 0095 7A000000 		.4byte	.LASF9
 872 0099 04       		.byte	0x4
 873 009a 3F       		.byte	0x3f
 874 009b 9F000000 		.4byte	0x9f
 875 009f 07       		.uleb128 0x7
 876 00a0 04       		.byte	0x4
 877 00a1 05       		.byte	0x5
 878 00a2 01030000 		.4byte	.LASF10
 879 00a6 02       		.uleb128 0x2
 880 00a7 0B010000 		.4byte	.LASF11
 881 00ab 04       		.byte	0x4
 882 00ac 41       		.byte	0x41
 883 00ad B1000000 		.4byte	0xb1
 884 00b1 07       		.uleb128 0x7
 885 00b2 04       		.byte	0x4
 886 00b3 07       		.byte	0x7
 887 00b4 C3000000 		.4byte	.LASF12
 888 00b8 07       		.uleb128 0x7
 889 00b9 08       		.byte	0x8
 890 00ba 05       		.byte	0x5
 891 00bb AE020000 		.4byte	.LASF13
 892 00bf 07       		.uleb128 0x7
 893 00c0 08       		.byte	0x8
 894 00c1 07       		.byte	0x7
 895 00c2 16020000 		.4byte	.LASF14
 896 00c6 02       		.uleb128 0x2
 897 00c7 E0020000 		.4byte	.LASF15
 898 00cb 05       		.byte	0x5
 899 00cc 14       		.byte	0x14
 900 00cd 74000000 		.4byte	0x74
 901 00d1 02       		.uleb128 0x2
 902 00d2 8C020000 		.4byte	.LASF16
 903 00d6 05       		.byte	0x5
 904 00d7 1F       		.byte	0x1f
 905 00d8 94000000 		.4byte	0x94
 906 00dc 02       		.uleb128 0x2
 907 00dd F8020000 		.4byte	.LASF17
 908 00e1 05       		.byte	0x5
 909 00e2 20       		.byte	0x20
 910 00e3 A6000000 		.4byte	0xa6
 911 00e7 02       		.uleb128 0x2
ARM GAS  /tmp/ccm2uSCK.s 			page 17


 912 00e8 99000000 		.4byte	.LASF18
 913 00ec 06       		.byte	0x6
 914 00ed 2E       		.byte	0x2e
 915 00ee D1000000 		.4byte	0xd1
 916 00f2 02       		.uleb128 0x2
 917 00f3 77020000 		.4byte	.LASF19
 918 00f7 06       		.byte	0x6
 919 00f8 33       		.byte	0x33
 920 00f9 D1000000 		.4byte	0xd1
 921 00fd 02       		.uleb128 0x2
 922 00fe 70000000 		.4byte	.LASF20
 923 0102 06       		.byte	0x6
 924 0103 36       		.byte	0x36
 925 0104 DC000000 		.4byte	0xdc
 926 0108 07       		.uleb128 0x7
 927 0109 04       		.byte	0x4
 928 010a 07       		.byte	0x7
 929 010b 94020000 		.4byte	.LASF21
 930 010f 08       		.uleb128 0x8
 931 0110 04       		.byte	0x4
 932 0111 15010000 		.4byte	0x115
 933 0115 09       		.uleb128 0x9
 934 0116 1A010000 		.4byte	0x11a
 935 011a 07       		.uleb128 0x7
 936 011b 01       		.byte	0x1
 937 011c 08       		.byte	0x8
 938 011d C6020000 		.4byte	.LASF22
 939 0121 08       		.uleb128 0x8
 940 0122 04       		.byte	0x4
 941 0123 C6000000 		.4byte	0xc6
 942 0127 0A       		.uleb128 0xa
 943 0128 5B000000 		.4byte	0x5b
 944 012c 40010000 		.4byte	0x140
 945 0130 0B       		.uleb128 0xb
 946 0131 47000000 		.4byte	0x47
 947 0135 0B       		.uleb128 0xb
 948 0136 40010000 		.4byte	0x140
 949 013a 0B       		.uleb128 0xb
 950 013b 5B000000 		.4byte	0x5b
 951 013f 00       		.byte	0
 952 0140 08       		.uleb128 0x8
 953 0141 04       		.byte	0x4
 954 0142 46010000 		.4byte	0x146
 955 0146 09       		.uleb128 0x9
 956 0147 C6000000 		.4byte	0xc6
 957 014b 08       		.uleb128 0x8
 958 014c 04       		.byte	0x4
 959 014d 27010000 		.4byte	0x127
 960 0151 0A       		.uleb128 0xa
 961 0152 5B000000 		.4byte	0x5b
 962 0156 6A010000 		.4byte	0x16a
 963 015a 0B       		.uleb128 0xb
 964 015b 47000000 		.4byte	0x47
 965 015f 0B       		.uleb128 0xb
 966 0160 21010000 		.4byte	0x121
 967 0164 0B       		.uleb128 0xb
 968 0165 5B000000 		.4byte	0x5b
ARM GAS  /tmp/ccm2uSCK.s 			page 18


 969 0169 00       		.byte	0
 970 016a 08       		.uleb128 0x8
 971 016b 04       		.byte	0x4
 972 016c 51010000 		.4byte	0x151
 973 0170 03       		.uleb128 0x3
 974 0171 7D020000 		.4byte	.LASF24
 975 0175 20       		.byte	0x20
 976 0176 08       		.byte	0x8
 977 0177 51       		.byte	0x51
 978 0178 DD010000 		.4byte	0x1dd
 979 017c 0C       		.uleb128 0xc
 980 017d E8000000 		.4byte	.LASF25
 981 0181 08       		.byte	0x8
 982 0182 52       		.byte	0x52
 983 0183 4B010000 		.4byte	0x14b
 984 0187 00       		.byte	0
 985 0188 0C       		.uleb128 0xc
 986 0189 25010000 		.4byte	.LASF26
 987 018d 08       		.byte	0x8
 988 018e 52       		.byte	0x52
 989 018f 6A010000 		.4byte	0x16a
 990 0193 04       		.byte	0x4
 991 0194 0C       		.uleb128 0xc
 992 0195 FD000000 		.4byte	.LASF27
 993 0199 08       		.byte	0x8
 994 019a 52       		.byte	0x52
 995 019b EC010000 		.4byte	0x1ec
 996 019f 08       		.byte	0x8
 997 01a0 0C       		.uleb128 0xc
 998 01a1 69020000 		.4byte	.LASF28
 999 01a5 08       		.byte	0x8
 1000 01a6 52       		.byte	0x52
 1001 01a7 EC010000 		.4byte	0x1ec
 1002 01ab 0C       		.byte	0xc
 1003 01ac 0D       		.uleb128 0xd
 1004 01ad 70757400 		.ascii	"put\000"
 1005 01b1 08       		.byte	0x8
 1006 01b2 52       		.byte	0x52
 1007 01b3 0B020000 		.4byte	0x20b
 1008 01b7 10       		.byte	0x10
 1009 01b8 0D       		.uleb128 0xd
 1010 01b9 67657400 		.ascii	"get\000"
 1011 01bd 08       		.byte	0x8
 1012 01be 52       		.byte	0x52
 1013 01bf 25020000 		.4byte	0x225
 1014 01c3 14       		.byte	0x14
 1015 01c4 0C       		.uleb128 0xc
 1016 01c5 A0000000 		.4byte	.LASF29
 1017 01c9 08       		.byte	0x8
 1018 01ca 52       		.byte	0x52
 1019 01cb 49020000 		.4byte	0x249
 1020 01cf 18       		.byte	0x18
 1021 01d0 0C       		.uleb128 0xc
 1022 01d1 BD000000 		.4byte	.LASF30
 1023 01d5 08       		.byte	0x8
 1024 01d6 52       		.byte	0x52
 1025 01d7 6D020000 		.4byte	0x26d
ARM GAS  /tmp/ccm2uSCK.s 			page 19


 1026 01db 1C       		.byte	0x1c
 1027 01dc 00       		.byte	0
 1028 01dd 0A       		.uleb128 0xa
 1029 01de E7000000 		.4byte	0xe7
 1030 01e2 EC010000 		.4byte	0x1ec
 1031 01e6 0B       		.uleb128 0xb
 1032 01e7 47000000 		.4byte	0x47
 1033 01eb 00       		.byte	0
 1034 01ec 08       		.uleb128 0x8
 1035 01ed 04       		.byte	0x4
 1036 01ee DD010000 		.4byte	0x1dd
 1037 01f2 0A       		.uleb128 0xa
 1038 01f3 F2000000 		.4byte	0xf2
 1039 01f7 0B020000 		.4byte	0x20b
 1040 01fb 0B       		.uleb128 0xb
 1041 01fc 47000000 		.4byte	0x47
 1042 0200 0B       		.uleb128 0xb
 1043 0201 C6000000 		.4byte	0xc6
 1044 0205 0B       		.uleb128 0xb
 1045 0206 FD000000 		.4byte	0xfd
 1046 020a 00       		.byte	0
 1047 020b 08       		.uleb128 0x8
 1048 020c 04       		.byte	0x4
 1049 020d F2010000 		.4byte	0x1f2
 1050 0211 0A       		.uleb128 0xa
 1051 0212 F2000000 		.4byte	0xf2
 1052 0216 25020000 		.4byte	0x225
 1053 021a 0B       		.uleb128 0xb
 1054 021b 47000000 		.4byte	0x47
 1055 021f 0B       		.uleb128 0xb
 1056 0220 FD000000 		.4byte	0xfd
 1057 0224 00       		.byte	0
 1058 0225 08       		.uleb128 0x8
 1059 0226 04       		.byte	0x4
 1060 0227 11020000 		.4byte	0x211
 1061 022b 0A       		.uleb128 0xa
 1062 022c 5B000000 		.4byte	0x5b
 1063 0230 49020000 		.4byte	0x249
 1064 0234 0B       		.uleb128 0xb
 1065 0235 47000000 		.4byte	0x47
 1066 0239 0B       		.uleb128 0xb
 1067 023a 40010000 		.4byte	0x140
 1068 023e 0B       		.uleb128 0xb
 1069 023f 5B000000 		.4byte	0x5b
 1070 0243 0B       		.uleb128 0xb
 1071 0244 FD000000 		.4byte	0xfd
 1072 0248 00       		.byte	0
 1073 0249 08       		.uleb128 0x8
 1074 024a 04       		.byte	0x4
 1075 024b 2B020000 		.4byte	0x22b
 1076 024f 0A       		.uleb128 0xa
 1077 0250 5B000000 		.4byte	0x5b
 1078 0254 6D020000 		.4byte	0x26d
 1079 0258 0B       		.uleb128 0xb
 1080 0259 47000000 		.4byte	0x47
 1081 025d 0B       		.uleb128 0xb
 1082 025e 21010000 		.4byte	0x121
ARM GAS  /tmp/ccm2uSCK.s 			page 20


 1083 0262 0B       		.uleb128 0xb
 1084 0263 5B000000 		.4byte	0x5b
 1085 0267 0B       		.uleb128 0xb
 1086 0268 FD000000 		.4byte	0xfd
 1087 026c 00       		.byte	0
 1088 026d 08       		.uleb128 0x8
 1089 026e 04       		.byte	0x4
 1090 026f 4F020000 		.4byte	0x24f
 1091 0273 0E       		.uleb128 0xe
 1092 0274 04       		.byte	0x4
 1093 0275 08       		.byte	0x8
 1094 0276 5C       		.byte	0x5c
 1095 0277 88020000 		.4byte	0x288
 1096 027b 0D       		.uleb128 0xd
 1097 027c 766D7400 		.ascii	"vmt\000"
 1098 0280 08       		.byte	0x8
 1099 0281 5E       		.byte	0x5e
 1100 0282 88020000 		.4byte	0x288
 1101 0286 00       		.byte	0
 1102 0287 00       		.byte	0
 1103 0288 08       		.uleb128 0x8
 1104 0289 04       		.byte	0x4
 1105 028a 8E020000 		.4byte	0x28e
 1106 028e 09       		.uleb128 0x9
 1107 028f 70010000 		.4byte	0x170
 1108 0293 02       		.uleb128 0x2
 1109 0294 1B030000 		.4byte	.LASF31
 1110 0298 08       		.byte	0x8
 1111 0299 60       		.byte	0x60
 1112 029a 73020000 		.4byte	0x273
 1113 029e 0F       		.uleb128 0xf
 1114 029f 16030000 		.4byte	.LASF43
 1115 02a3 01       		.byte	0x1
 1116 02a4 2A       		.byte	0x2a
 1117 02a5 FD020000 		.4byte	0x2fd
 1118 02a9 00000000 		.4byte	.LFB7
 1119 02ad 3E000000 		.4byte	.LFE7-.LFB7
 1120 02b1 01       		.uleb128 0x1
 1121 02b2 9C       		.byte	0x9c
 1122 02b3 FD020000 		.4byte	0x2fd
 1123 02b7 10       		.uleb128 0x10
 1124 02b8 7000     		.ascii	"p\000"
 1125 02ba 01       		.byte	0x1
 1126 02bb 2A       		.byte	0x2a
 1127 02bc FD020000 		.4byte	0x2fd
 1128 02c0 00000000 		.4byte	.LLST0
 1129 02c4 10       		.uleb128 0x10
 1130 02c5 6E756D00 		.ascii	"num\000"
 1131 02c9 01       		.byte	0x1
 1132 02ca 2A       		.byte	0x2a
 1133 02cb 9F000000 		.4byte	0x9f
 1134 02cf 38000000 		.4byte	.LLST1
 1135 02d3 11       		.uleb128 0x11
 1136 02d4 6A000000 		.4byte	.LASF32
 1137 02d8 01       		.byte	0x1
 1138 02d9 2A       		.byte	0x2a
 1139 02da 66000000 		.4byte	0x66
ARM GAS  /tmp/ccm2uSCK.s 			page 21


 1140 02de 56000000 		.4byte	.LLST2
 1141 02e2 12       		.uleb128 0x12
 1142 02e3 6900     		.ascii	"i\000"
 1143 02e5 01       		.byte	0x1
 1144 02e6 2B       		.byte	0x2b
 1145 02e7 54000000 		.4byte	0x54
 1146 02eb 77000000 		.4byte	.LLST3
 1147 02ef 12       		.uleb128 0x12
 1148 02f0 7100     		.ascii	"q\000"
 1149 02f2 01       		.byte	0x1
 1150 02f3 2C       		.byte	0x2c
 1151 02f4 FD020000 		.4byte	0x2fd
 1152 02f8 A5000000 		.4byte	.LLST4
 1153 02fc 00       		.byte	0
 1154 02fd 08       		.uleb128 0x8
 1155 02fe 04       		.byte	0x4
 1156 02ff 1A010000 		.4byte	0x11a
 1157 0303 13       		.uleb128 0x13
 1158 0304 F4000000 		.4byte	.LASF44
 1159 0308 01       		.byte	0x1
 1160 0309 56       		.byte	0x56
 1161 030a 00000000 		.4byte	.LFB8
 1162 030e 78030000 		.4byte	.LFE8-.LFB8
 1163 0312 01       		.uleb128 0x1
 1164 0313 9C       		.byte	0x9c
 1165 0314 8A040000 		.4byte	0x48a
 1166 0318 10       		.uleb128 0x10
 1167 0319 63687000 		.ascii	"chp\000"
 1168 031d 01       		.byte	0x1
 1169 031e 56       		.byte	0x56
 1170 031f 8A040000 		.4byte	0x48a
 1171 0323 DB000000 		.4byte	.LLST5
 1172 0327 10       		.uleb128 0x10
 1173 0328 666D7400 		.ascii	"fmt\000"
 1174 032c 01       		.byte	0x1
 1175 032d 56       		.byte	0x56
 1176 032e 0F010000 		.4byte	0x10f
 1177 0332 12010000 		.4byte	.LLST6
 1178 0336 14       		.uleb128 0x14
 1179 0337 15       		.uleb128 0x15
 1180 0338 617000   		.ascii	"ap\000"
 1181 033b 01       		.byte	0x1
 1182 033c 57       		.byte	0x57
 1183 033d 49000000 		.4byte	0x49
 1184 0341 02       		.uleb128 0x2
 1185 0342 91       		.byte	0x91
 1186 0343 40       		.sleb128 -64
 1187 0344 16       		.uleb128 0x16
 1188 0345 9D020000 		.4byte	.LASF33
 1189 0349 01       		.byte	0x1
 1190 034a 58       		.byte	0x58
 1191 034b 90040000 		.4byte	0x490
 1192 034f 02       		.uleb128 0x2
 1193 0350 91       		.byte	0x91
 1194 0351 44       		.sleb128 -60
 1195 0352 12       		.uleb128 0x12
 1196 0353 7000     		.ascii	"p\000"
ARM GAS  /tmp/ccm2uSCK.s 			page 22


 1197 0355 01       		.byte	0x1
 1198 0356 59       		.byte	0x59
 1199 0357 FD020000 		.4byte	0x2fd
 1200 035b C8010000 		.4byte	.LLST7
 1201 035f 12       		.uleb128 0x12
 1202 0360 7300     		.ascii	"s\000"
 1203 0362 01       		.byte	0x1
 1204 0363 59       		.byte	0x59
 1205 0364 FD020000 		.4byte	0x2fd
 1206 0368 AE020000 		.4byte	.LLST8
 1207 036c 12       		.uleb128 0x12
 1208 036d 6300     		.ascii	"c\000"
 1209 036f 01       		.byte	0x1
 1210 0370 59       		.byte	0x59
 1211 0371 1A010000 		.4byte	0x11a
 1212 0375 5D030000 		.4byte	.LLST9
 1213 0379 17       		.uleb128 0x17
 1214 037a 2A010000 		.4byte	.LASF34
 1215 037e 01       		.byte	0x1
 1216 037f 59       		.byte	0x59
 1217 0380 1A010000 		.4byte	0x11a
 1218 0384 36040000 		.4byte	.LLST10
 1219 0388 12       		.uleb128 0x12
 1220 0389 6900     		.ascii	"i\000"
 1221 038b 01       		.byte	0x1
 1222 038c 5A       		.byte	0x5a
 1223 038d 54000000 		.4byte	0x54
 1224 0391 A9040000 		.4byte	.LLST11
 1225 0395 17       		.uleb128 0x17
 1226 0396 BC020000 		.4byte	.LASF35
 1227 039a 01       		.byte	0x1
 1228 039b 5A       		.byte	0x5a
 1229 039c 54000000 		.4byte	0x54
 1230 03a0 25050000 		.4byte	.LLST12
 1231 03a4 17       		.uleb128 0x17
 1232 03a5 EE000000 		.4byte	.LASF36
 1233 03a9 01       		.byte	0x1
 1234 03aa 5A       		.byte	0x5a
 1235 03ab 54000000 		.4byte	0x54
 1236 03af A3050000 		.4byte	.LLST13
 1237 03b3 17       		.uleb128 0x17
 1238 03b4 84000000 		.4byte	.LASF37
 1239 03b8 01       		.byte	0x1
 1240 03b9 5B       		.byte	0x5b
 1241 03ba E7000000 		.4byte	0xe7
 1242 03be 08060000 		.4byte	.LLST14
 1243 03c2 17       		.uleb128 0x17
 1244 03c3 CB020000 		.4byte	.LASF38
 1245 03c7 01       		.byte	0x1
 1246 03c8 5B       		.byte	0x5b
 1247 03c9 E7000000 		.4byte	0xe7
 1248 03cd 6C060000 		.4byte	.LLST15
 1249 03d1 12       		.uleb128 0x12
 1250 03d2 6C00     		.ascii	"l\000"
 1251 03d4 01       		.byte	0x1
 1252 03d5 5C       		.byte	0x5c
 1253 03d6 9F000000 		.4byte	0x9f
ARM GAS  /tmp/ccm2uSCK.s 			page 23


 1254 03da B8060000 		.4byte	.LLST16
 1255 03de 18       		.uleb128 0x18
 1256 03df E8020000 		.4byte	.LASF45
 1257 03e3 01       		.byte	0x1
 1258 03e4 BD       		.byte	0xbd
 1259 03e5 D8010000 		.4byte	.L37
 1260 03e9 19       		.uleb128 0x19
 1261 03ea 36000000 		.4byte	.LVL17
 1262 03ee 02       		.uleb128 0x2
 1263 03ef 75       		.byte	0x75
 1264 03f0 00       		.sleb128 0
 1265 03f1 02040000 		.4byte	0x402
 1266 03f5 1A       		.uleb128 0x1a
 1267 03f6 01       		.uleb128 0x1
 1268 03f7 52       		.byte	0x52
 1269 03f8 02       		.uleb128 0x2
 1270 03f9 09       		.byte	0x9
 1271 03fa FF       		.byte	0xff
 1272 03fb 1A       		.uleb128 0x1a
 1273 03fc 01       		.uleb128 0x1
 1274 03fd 50       		.byte	0x50
 1275 03fe 02       		.uleb128 0x2
 1276 03ff 76       		.byte	0x76
 1277 0400 00       		.sleb128 0
 1278 0401 00       		.byte	0
 1279 0402 1B       		.uleb128 0x1b
 1280 0403 EE010000 		.4byte	.LVL48
 1281 0407 9E020000 		.4byte	0x29e
 1282 040b 16040000 		.4byte	0x416
 1283 040f 1A       		.uleb128 0x1a
 1284 0410 01       		.uleb128 0x1
 1285 0411 50       		.byte	0x50
 1286 0412 02       		.uleb128 0x2
 1287 0413 78       		.byte	0x78
 1288 0414 00       		.sleb128 0
 1289 0415 00       		.byte	0
 1290 0416 1C       		.uleb128 0x1c
 1291 0417 20020000 		.4byte	.LVL56
 1292 041b 32040000 		.4byte	0x432
 1293 041f 1A       		.uleb128 0x1a
 1294 0420 01       		.uleb128 0x1
 1295 0421 52       		.byte	0x52
 1296 0422 02       		.uleb128 0x2
 1297 0423 09       		.byte	0x9
 1298 0424 FF       		.byte	0xff
 1299 0425 1A       		.uleb128 0x1a
 1300 0426 01       		.uleb128 0x1
 1301 0427 51       		.byte	0x51
 1302 0428 02       		.uleb128 0x2
 1303 0429 77       		.byte	0x77
 1304 042a 00       		.sleb128 0
 1305 042b 1A       		.uleb128 0x1a
 1306 042c 01       		.uleb128 0x1
 1307 042d 50       		.byte	0x50
 1308 042e 02       		.uleb128 0x2
 1309 042f 76       		.byte	0x76
 1310 0430 00       		.sleb128 0
ARM GAS  /tmp/ccm2uSCK.s 			page 24


 1311 0431 00       		.byte	0
 1312 0432 1C       		.uleb128 0x1c
 1313 0433 40020000 		.4byte	.LVL62
 1314 0437 48040000 		.4byte	0x448
 1315 043b 1A       		.uleb128 0x1a
 1316 043c 01       		.uleb128 0x1
 1317 043d 52       		.byte	0x52
 1318 043e 02       		.uleb128 0x2
 1319 043f 09       		.byte	0x9
 1320 0440 FF       		.byte	0xff
 1321 0441 1A       		.uleb128 0x1a
 1322 0442 01       		.uleb128 0x1
 1323 0443 50       		.byte	0x50
 1324 0444 02       		.uleb128 0x2
 1325 0445 76       		.byte	0x76
 1326 0446 00       		.sleb128 0
 1327 0447 00       		.byte	0
 1328 0448 1C       		.uleb128 0x1c
 1329 0449 5A020000 		.4byte	.LVL64
 1330 044d 64040000 		.4byte	0x464
 1331 0451 1A       		.uleb128 0x1a
 1332 0452 01       		.uleb128 0x1
 1333 0453 52       		.byte	0x52
 1334 0454 02       		.uleb128 0x2
 1335 0455 09       		.byte	0x9
 1336 0456 FF       		.byte	0xff
 1337 0457 1A       		.uleb128 0x1a
 1338 0458 01       		.uleb128 0x1
 1339 0459 51       		.byte	0x51
 1340 045a 02       		.uleb128 0x2
 1341 045b 77       		.byte	0x77
 1342 045c 00       		.sleb128 0
 1343 045d 1A       		.uleb128 0x1a
 1344 045e 01       		.uleb128 0x1
 1345 045f 50       		.byte	0x50
 1346 0460 02       		.uleb128 0x2
 1347 0461 76       		.byte	0x76
 1348 0462 00       		.sleb128 0
 1349 0463 00       		.byte	0
 1350 0464 1B       		.uleb128 0x1b
 1351 0465 78020000 		.4byte	.LVL72
 1352 0469 9E020000 		.4byte	0x29e
 1353 046d 77040000 		.4byte	0x477
 1354 0471 1A       		.uleb128 0x1a
 1355 0472 01       		.uleb128 0x1
 1356 0473 52       		.byte	0x52
 1357 0474 01       		.uleb128 0x1
 1358 0475 3A       		.byte	0x3a
 1359 0476 00       		.byte	0
 1360 0477 1D       		.uleb128 0x1d
 1361 0478 54030000 		.4byte	.LVL108
 1362 047c 1A       		.uleb128 0x1a
 1363 047d 01       		.uleb128 0x1
 1364 047e 52       		.byte	0x52
 1365 047f 02       		.uleb128 0x2
 1366 0480 09       		.byte	0x9
 1367 0481 FF       		.byte	0xff
ARM GAS  /tmp/ccm2uSCK.s 			page 25


 1368 0482 1A       		.uleb128 0x1a
 1369 0483 01       		.uleb128 0x1
 1370 0484 50       		.byte	0x50
 1371 0485 02       		.uleb128 0x2
 1372 0486 76       		.byte	0x76
 1373 0487 00       		.sleb128 0
 1374 0488 00       		.byte	0
 1375 0489 00       		.byte	0
 1376 048a 08       		.uleb128 0x8
 1377 048b 04       		.byte	0x4
 1378 048c 93020000 		.4byte	0x293
 1379 0490 1E       		.uleb128 0x1e
 1380 0491 1A010000 		.4byte	0x11a
 1381 0495 1F       		.uleb128 0x1f
 1382 0496 08010000 		.4byte	0x108
 1383 049a 0B       		.byte	0xb
 1384 049b 00       		.byte	0
 1385 049c 00       		.byte	0
 1386              		.section	.debug_abbrev,"",%progbits
 1387              	.Ldebug_abbrev0:
 1388 0000 01       		.uleb128 0x1
 1389 0001 11       		.uleb128 0x11
 1390 0002 01       		.byte	0x1
 1391 0003 25       		.uleb128 0x25
 1392 0004 0E       		.uleb128 0xe
 1393 0005 13       		.uleb128 0x13
 1394 0006 0B       		.uleb128 0xb
 1395 0007 03       		.uleb128 0x3
 1396 0008 0E       		.uleb128 0xe
 1397 0009 1B       		.uleb128 0x1b
 1398 000a 0E       		.uleb128 0xe
 1399 000b 55       		.uleb128 0x55
 1400 000c 17       		.uleb128 0x17
 1401 000d 11       		.uleb128 0x11
 1402 000e 01       		.uleb128 0x1
 1403 000f 10       		.uleb128 0x10
 1404 0010 17       		.uleb128 0x17
 1405 0011 00       		.byte	0
 1406 0012 00       		.byte	0
 1407 0013 02       		.uleb128 0x2
 1408 0014 16       		.uleb128 0x16
 1409 0015 00       		.byte	0
 1410 0016 03       		.uleb128 0x3
 1411 0017 0E       		.uleb128 0xe
 1412 0018 3A       		.uleb128 0x3a
 1413 0019 0B       		.uleb128 0xb
 1414 001a 3B       		.uleb128 0x3b
 1415 001b 0B       		.uleb128 0xb
 1416 001c 49       		.uleb128 0x49
 1417 001d 13       		.uleb128 0x13
 1418 001e 00       		.byte	0
 1419 001f 00       		.byte	0
 1420 0020 03       		.uleb128 0x3
 1421 0021 13       		.uleb128 0x13
 1422 0022 01       		.byte	0x1
 1423 0023 03       		.uleb128 0x3
 1424 0024 0E       		.uleb128 0xe
ARM GAS  /tmp/ccm2uSCK.s 			page 26


 1425 0025 0B       		.uleb128 0xb
 1426 0026 0B       		.uleb128 0xb
 1427 0027 3A       		.uleb128 0x3a
 1428 0028 0B       		.uleb128 0xb
 1429 0029 3B       		.uleb128 0x3b
 1430 002a 0B       		.uleb128 0xb
 1431 002b 01       		.uleb128 0x1
 1432 002c 13       		.uleb128 0x13
 1433 002d 00       		.byte	0
 1434 002e 00       		.byte	0
 1435 002f 04       		.uleb128 0x4
 1436 0030 0D       		.uleb128 0xd
 1437 0031 00       		.byte	0
 1438 0032 03       		.uleb128 0x3
 1439 0033 0E       		.uleb128 0xe
 1440 0034 49       		.uleb128 0x49
 1441 0035 13       		.uleb128 0x13
 1442 0036 38       		.uleb128 0x38
 1443 0037 0B       		.uleb128 0xb
 1444 0038 34       		.uleb128 0x34
 1445 0039 19       		.uleb128 0x19
 1446 003a 00       		.byte	0
 1447 003b 00       		.byte	0
 1448 003c 05       		.uleb128 0x5
 1449 003d 0F       		.uleb128 0xf
 1450 003e 00       		.byte	0
 1451 003f 0B       		.uleb128 0xb
 1452 0040 0B       		.uleb128 0xb
 1453 0041 00       		.byte	0
 1454 0042 00       		.byte	0
 1455 0043 06       		.uleb128 0x6
 1456 0044 24       		.uleb128 0x24
 1457 0045 00       		.byte	0
 1458 0046 0B       		.uleb128 0xb
 1459 0047 0B       		.uleb128 0xb
 1460 0048 3E       		.uleb128 0x3e
 1461 0049 0B       		.uleb128 0xb
 1462 004a 03       		.uleb128 0x3
 1463 004b 08       		.uleb128 0x8
 1464 004c 00       		.byte	0
 1465 004d 00       		.byte	0
 1466 004e 07       		.uleb128 0x7
 1467 004f 24       		.uleb128 0x24
 1468 0050 00       		.byte	0
 1469 0051 0B       		.uleb128 0xb
 1470 0052 0B       		.uleb128 0xb
 1471 0053 3E       		.uleb128 0x3e
 1472 0054 0B       		.uleb128 0xb
 1473 0055 03       		.uleb128 0x3
 1474 0056 0E       		.uleb128 0xe
 1475 0057 00       		.byte	0
 1476 0058 00       		.byte	0
 1477 0059 08       		.uleb128 0x8
 1478 005a 0F       		.uleb128 0xf
 1479 005b 00       		.byte	0
 1480 005c 0B       		.uleb128 0xb
 1481 005d 0B       		.uleb128 0xb
ARM GAS  /tmp/ccm2uSCK.s 			page 27


 1482 005e 49       		.uleb128 0x49
 1483 005f 13       		.uleb128 0x13
 1484 0060 00       		.byte	0
 1485 0061 00       		.byte	0
 1486 0062 09       		.uleb128 0x9
 1487 0063 26       		.uleb128 0x26
 1488 0064 00       		.byte	0
 1489 0065 49       		.uleb128 0x49
 1490 0066 13       		.uleb128 0x13
 1491 0067 00       		.byte	0
 1492 0068 00       		.byte	0
 1493 0069 0A       		.uleb128 0xa
 1494 006a 15       		.uleb128 0x15
 1495 006b 01       		.byte	0x1
 1496 006c 27       		.uleb128 0x27
 1497 006d 19       		.uleb128 0x19
 1498 006e 49       		.uleb128 0x49
 1499 006f 13       		.uleb128 0x13
 1500 0070 01       		.uleb128 0x1
 1501 0071 13       		.uleb128 0x13
 1502 0072 00       		.byte	0
 1503 0073 00       		.byte	0
 1504 0074 0B       		.uleb128 0xb
 1505 0075 05       		.uleb128 0x5
 1506 0076 00       		.byte	0
 1507 0077 49       		.uleb128 0x49
 1508 0078 13       		.uleb128 0x13
 1509 0079 00       		.byte	0
 1510 007a 00       		.byte	0
 1511 007b 0C       		.uleb128 0xc
 1512 007c 0D       		.uleb128 0xd
 1513 007d 00       		.byte	0
 1514 007e 03       		.uleb128 0x3
 1515 007f 0E       		.uleb128 0xe
 1516 0080 3A       		.uleb128 0x3a
 1517 0081 0B       		.uleb128 0xb
 1518 0082 3B       		.uleb128 0x3b
 1519 0083 0B       		.uleb128 0xb
 1520 0084 49       		.uleb128 0x49
 1521 0085 13       		.uleb128 0x13
 1522 0086 38       		.uleb128 0x38
 1523 0087 0B       		.uleb128 0xb
 1524 0088 00       		.byte	0
 1525 0089 00       		.byte	0
 1526 008a 0D       		.uleb128 0xd
 1527 008b 0D       		.uleb128 0xd
 1528 008c 00       		.byte	0
 1529 008d 03       		.uleb128 0x3
 1530 008e 08       		.uleb128 0x8
 1531 008f 3A       		.uleb128 0x3a
 1532 0090 0B       		.uleb128 0xb
 1533 0091 3B       		.uleb128 0x3b
 1534 0092 0B       		.uleb128 0xb
 1535 0093 49       		.uleb128 0x49
 1536 0094 13       		.uleb128 0x13
 1537 0095 38       		.uleb128 0x38
 1538 0096 0B       		.uleb128 0xb
ARM GAS  /tmp/ccm2uSCK.s 			page 28


 1539 0097 00       		.byte	0
 1540 0098 00       		.byte	0
 1541 0099 0E       		.uleb128 0xe
 1542 009a 13       		.uleb128 0x13
 1543 009b 01       		.byte	0x1
 1544 009c 0B       		.uleb128 0xb
 1545 009d 0B       		.uleb128 0xb
 1546 009e 3A       		.uleb128 0x3a
 1547 009f 0B       		.uleb128 0xb
 1548 00a0 3B       		.uleb128 0x3b
 1549 00a1 0B       		.uleb128 0xb
 1550 00a2 01       		.uleb128 0x1
 1551 00a3 13       		.uleb128 0x13
 1552 00a4 00       		.byte	0
 1553 00a5 00       		.byte	0
 1554 00a6 0F       		.uleb128 0xf
 1555 00a7 2E       		.uleb128 0x2e
 1556 00a8 01       		.byte	0x1
 1557 00a9 03       		.uleb128 0x3
 1558 00aa 0E       		.uleb128 0xe
 1559 00ab 3A       		.uleb128 0x3a
 1560 00ac 0B       		.uleb128 0xb
 1561 00ad 3B       		.uleb128 0x3b
 1562 00ae 0B       		.uleb128 0xb
 1563 00af 27       		.uleb128 0x27
 1564 00b0 19       		.uleb128 0x19
 1565 00b1 49       		.uleb128 0x49
 1566 00b2 13       		.uleb128 0x13
 1567 00b3 11       		.uleb128 0x11
 1568 00b4 01       		.uleb128 0x1
 1569 00b5 12       		.uleb128 0x12
 1570 00b6 06       		.uleb128 0x6
 1571 00b7 40       		.uleb128 0x40
 1572 00b8 18       		.uleb128 0x18
 1573 00b9 9742     		.uleb128 0x2117
 1574 00bb 19       		.uleb128 0x19
 1575 00bc 01       		.uleb128 0x1
 1576 00bd 13       		.uleb128 0x13
 1577 00be 00       		.byte	0
 1578 00bf 00       		.byte	0
 1579 00c0 10       		.uleb128 0x10
 1580 00c1 05       		.uleb128 0x5
 1581 00c2 00       		.byte	0
 1582 00c3 03       		.uleb128 0x3
 1583 00c4 08       		.uleb128 0x8
 1584 00c5 3A       		.uleb128 0x3a
 1585 00c6 0B       		.uleb128 0xb
 1586 00c7 3B       		.uleb128 0x3b
 1587 00c8 0B       		.uleb128 0xb
 1588 00c9 49       		.uleb128 0x49
 1589 00ca 13       		.uleb128 0x13
 1590 00cb 02       		.uleb128 0x2
 1591 00cc 17       		.uleb128 0x17
 1592 00cd 00       		.byte	0
 1593 00ce 00       		.byte	0
 1594 00cf 11       		.uleb128 0x11
 1595 00d0 05       		.uleb128 0x5
ARM GAS  /tmp/ccm2uSCK.s 			page 29


 1596 00d1 00       		.byte	0
 1597 00d2 03       		.uleb128 0x3
 1598 00d3 0E       		.uleb128 0xe
 1599 00d4 3A       		.uleb128 0x3a
 1600 00d5 0B       		.uleb128 0xb
 1601 00d6 3B       		.uleb128 0x3b
 1602 00d7 0B       		.uleb128 0xb
 1603 00d8 49       		.uleb128 0x49
 1604 00d9 13       		.uleb128 0x13
 1605 00da 02       		.uleb128 0x2
 1606 00db 17       		.uleb128 0x17
 1607 00dc 00       		.byte	0
 1608 00dd 00       		.byte	0
 1609 00de 12       		.uleb128 0x12
 1610 00df 34       		.uleb128 0x34
 1611 00e0 00       		.byte	0
 1612 00e1 03       		.uleb128 0x3
 1613 00e2 08       		.uleb128 0x8
 1614 00e3 3A       		.uleb128 0x3a
 1615 00e4 0B       		.uleb128 0xb
 1616 00e5 3B       		.uleb128 0x3b
 1617 00e6 0B       		.uleb128 0xb
 1618 00e7 49       		.uleb128 0x49
 1619 00e8 13       		.uleb128 0x13
 1620 00e9 02       		.uleb128 0x2
 1621 00ea 17       		.uleb128 0x17
 1622 00eb 00       		.byte	0
 1623 00ec 00       		.byte	0
 1624 00ed 13       		.uleb128 0x13
 1625 00ee 2E       		.uleb128 0x2e
 1626 00ef 01       		.byte	0x1
 1627 00f0 3F       		.uleb128 0x3f
 1628 00f1 19       		.uleb128 0x19
 1629 00f2 03       		.uleb128 0x3
 1630 00f3 0E       		.uleb128 0xe
 1631 00f4 3A       		.uleb128 0x3a
 1632 00f5 0B       		.uleb128 0xb
 1633 00f6 3B       		.uleb128 0x3b
 1634 00f7 0B       		.uleb128 0xb
 1635 00f8 27       		.uleb128 0x27
 1636 00f9 19       		.uleb128 0x19
 1637 00fa 11       		.uleb128 0x11
 1638 00fb 01       		.uleb128 0x1
 1639 00fc 12       		.uleb128 0x12
 1640 00fd 06       		.uleb128 0x6
 1641 00fe 40       		.uleb128 0x40
 1642 00ff 18       		.uleb128 0x18
 1643 0100 9742     		.uleb128 0x2117
 1644 0102 19       		.uleb128 0x19
 1645 0103 01       		.uleb128 0x1
 1646 0104 13       		.uleb128 0x13
 1647 0105 00       		.byte	0
 1648 0106 00       		.byte	0
 1649 0107 14       		.uleb128 0x14
 1650 0108 18       		.uleb128 0x18
 1651 0109 00       		.byte	0
 1652 010a 00       		.byte	0
ARM GAS  /tmp/ccm2uSCK.s 			page 30


 1653 010b 00       		.byte	0
 1654 010c 15       		.uleb128 0x15
 1655 010d 34       		.uleb128 0x34
 1656 010e 00       		.byte	0
 1657 010f 03       		.uleb128 0x3
 1658 0110 08       		.uleb128 0x8
 1659 0111 3A       		.uleb128 0x3a
 1660 0112 0B       		.uleb128 0xb
 1661 0113 3B       		.uleb128 0x3b
 1662 0114 0B       		.uleb128 0xb
 1663 0115 49       		.uleb128 0x49
 1664 0116 13       		.uleb128 0x13
 1665 0117 02       		.uleb128 0x2
 1666 0118 18       		.uleb128 0x18
 1667 0119 00       		.byte	0
 1668 011a 00       		.byte	0
 1669 011b 16       		.uleb128 0x16
 1670 011c 34       		.uleb128 0x34
 1671 011d 00       		.byte	0
 1672 011e 03       		.uleb128 0x3
 1673 011f 0E       		.uleb128 0xe
 1674 0120 3A       		.uleb128 0x3a
 1675 0121 0B       		.uleb128 0xb
 1676 0122 3B       		.uleb128 0x3b
 1677 0123 0B       		.uleb128 0xb
 1678 0124 49       		.uleb128 0x49
 1679 0125 13       		.uleb128 0x13
 1680 0126 02       		.uleb128 0x2
 1681 0127 18       		.uleb128 0x18
 1682 0128 00       		.byte	0
 1683 0129 00       		.byte	0
 1684 012a 17       		.uleb128 0x17
 1685 012b 34       		.uleb128 0x34
 1686 012c 00       		.byte	0
 1687 012d 03       		.uleb128 0x3
 1688 012e 0E       		.uleb128 0xe
 1689 012f 3A       		.uleb128 0x3a
 1690 0130 0B       		.uleb128 0xb
 1691 0131 3B       		.uleb128 0x3b
 1692 0132 0B       		.uleb128 0xb
 1693 0133 49       		.uleb128 0x49
 1694 0134 13       		.uleb128 0x13
 1695 0135 02       		.uleb128 0x2
 1696 0136 17       		.uleb128 0x17
 1697 0137 00       		.byte	0
 1698 0138 00       		.byte	0
 1699 0139 18       		.uleb128 0x18
 1700 013a 0A       		.uleb128 0xa
 1701 013b 00       		.byte	0
 1702 013c 03       		.uleb128 0x3
 1703 013d 0E       		.uleb128 0xe
 1704 013e 3A       		.uleb128 0x3a
 1705 013f 0B       		.uleb128 0xb
 1706 0140 3B       		.uleb128 0x3b
 1707 0141 0B       		.uleb128 0xb
 1708 0142 11       		.uleb128 0x11
 1709 0143 01       		.uleb128 0x1
ARM GAS  /tmp/ccm2uSCK.s 			page 31


 1710 0144 00       		.byte	0
 1711 0145 00       		.byte	0
 1712 0146 19       		.uleb128 0x19
 1713 0147 898201   		.uleb128 0x4109
 1714 014a 01       		.byte	0x1
 1715 014b 11       		.uleb128 0x11
 1716 014c 01       		.uleb128 0x1
 1717 014d 9342     		.uleb128 0x2113
 1718 014f 18       		.uleb128 0x18
 1719 0150 01       		.uleb128 0x1
 1720 0151 13       		.uleb128 0x13
 1721 0152 00       		.byte	0
 1722 0153 00       		.byte	0
 1723 0154 1A       		.uleb128 0x1a
 1724 0155 8A8201   		.uleb128 0x410a
 1725 0158 00       		.byte	0
 1726 0159 02       		.uleb128 0x2
 1727 015a 18       		.uleb128 0x18
 1728 015b 9142     		.uleb128 0x2111
 1729 015d 18       		.uleb128 0x18
 1730 015e 00       		.byte	0
 1731 015f 00       		.byte	0
 1732 0160 1B       		.uleb128 0x1b
 1733 0161 898201   		.uleb128 0x4109
 1734 0164 01       		.byte	0x1
 1735 0165 11       		.uleb128 0x11
 1736 0166 01       		.uleb128 0x1
 1737 0167 31       		.uleb128 0x31
 1738 0168 13       		.uleb128 0x13
 1739 0169 01       		.uleb128 0x1
 1740 016a 13       		.uleb128 0x13
 1741 016b 00       		.byte	0
 1742 016c 00       		.byte	0
 1743 016d 1C       		.uleb128 0x1c
 1744 016e 898201   		.uleb128 0x4109
 1745 0171 01       		.byte	0x1
 1746 0172 11       		.uleb128 0x11
 1747 0173 01       		.uleb128 0x1
 1748 0174 01       		.uleb128 0x1
 1749 0175 13       		.uleb128 0x13
 1750 0176 00       		.byte	0
 1751 0177 00       		.byte	0
 1752 0178 1D       		.uleb128 0x1d
 1753 0179 898201   		.uleb128 0x4109
 1754 017c 01       		.byte	0x1
 1755 017d 11       		.uleb128 0x11
 1756 017e 01       		.uleb128 0x1
 1757 017f 00       		.byte	0
 1758 0180 00       		.byte	0
 1759 0181 1E       		.uleb128 0x1e
 1760 0182 01       		.uleb128 0x1
 1761 0183 01       		.byte	0x1
 1762 0184 49       		.uleb128 0x49
 1763 0185 13       		.uleb128 0x13
 1764 0186 00       		.byte	0
 1765 0187 00       		.byte	0
 1766 0188 1F       		.uleb128 0x1f
ARM GAS  /tmp/ccm2uSCK.s 			page 32


 1767 0189 21       		.uleb128 0x21
 1768 018a 00       		.byte	0
 1769 018b 49       		.uleb128 0x49
 1770 018c 13       		.uleb128 0x13
 1771 018d 2F       		.uleb128 0x2f
 1772 018e 0B       		.uleb128 0xb
 1773 018f 00       		.byte	0
 1774 0190 00       		.byte	0
 1775 0191 00       		.byte	0
 1776              		.section	.debug_loc,"",%progbits
 1777              	.Ldebug_loc0:
 1778              	.LLST0:
 1779 0000 00000000 		.4byte	.LVL0
 1780 0004 2E000000 		.4byte	.LVL11
 1781 0008 0100     		.2byte	0x1
 1782 000a 50       		.byte	0x50
 1783 000b 2E000000 		.4byte	.LVL11
 1784 000f 32000000 		.4byte	.LVL12
 1785 0013 0300     		.2byte	0x3
 1786 0015 70       		.byte	0x70
 1787 0016 7F       		.sleb128 -1
 1788 0017 9F       		.byte	0x9f
 1789 0018 32000000 		.4byte	.LVL12
 1790 001c 36000000 		.4byte	.LVL13
 1791 0020 0100     		.2byte	0x1
 1792 0022 50       		.byte	0x50
 1793 0023 36000000 		.4byte	.LVL13
 1794 0027 3E000000 		.4byte	.LFE7
 1795 002b 0300     		.2byte	0x3
 1796 002d 70       		.byte	0x70
 1797 002e 7F       		.sleb128 -1
 1798 002f 9F       		.byte	0x9f
 1799 0030 00000000 		.4byte	0
 1800 0034 00000000 		.4byte	0
 1801              	.LLST1:
 1802 0038 00000000 		.4byte	.LVL0
 1803 003c 10000000 		.4byte	.LVL3
 1804 0040 0100     		.2byte	0x1
 1805 0042 51       		.byte	0x51
 1806 0043 24000000 		.4byte	.LVL8
 1807 0047 3E000000 		.4byte	.LFE7
 1808 004b 0100     		.2byte	0x1
 1809 004d 51       		.byte	0x51
 1810 004e 00000000 		.4byte	0
 1811 0052 00000000 		.4byte	0
 1812              	.LLST2:
 1813 0056 00000000 		.4byte	.LVL0
 1814 005a 2A000000 		.4byte	.LVL10
 1815 005e 0100     		.2byte	0x1
 1816 0060 52       		.byte	0x52
 1817 0061 2A000000 		.4byte	.LVL10
 1818 0065 3E000000 		.4byte	.LFE7
 1819 0069 0400     		.2byte	0x4
 1820 006b F3       		.byte	0xf3
 1821 006c 01       		.uleb128 0x1
 1822 006d 52       		.byte	0x52
 1823 006e 9F       		.byte	0x9f
ARM GAS  /tmp/ccm2uSCK.s 			page 33


 1824 006f 00000000 		.4byte	0
 1825 0073 00000000 		.4byte	0
 1826              	.LLST3:
 1827 0077 10000000 		.4byte	.LVL3
 1828 007b 14000000 		.4byte	.LVL4
 1829 007f 0100     		.2byte	0x1
 1830 0081 51       		.byte	0x51
 1831 0082 14000000 		.4byte	.LVL4
 1832 0086 1E000000 		.4byte	.LVL6
 1833 008a 0100     		.2byte	0x1
 1834 008c 53       		.byte	0x53
 1835 008d 28000000 		.4byte	.LVL9
 1836 0091 2E000000 		.4byte	.LVL11
 1837 0095 0600     		.2byte	0x6
 1838 0097 76       		.byte	0x76
 1839 0098 00       		.sleb128 0
 1840 0099 74       		.byte	0x74
 1841 009a 00       		.sleb128 0
 1842 009b 1C       		.byte	0x1c
 1843 009c 9F       		.byte	0x9f
 1844 009d 00000000 		.4byte	0
 1845 00a1 00000000 		.4byte	0
 1846              	.LLST4:
 1847 00a5 06000000 		.4byte	.LVL1
 1848 00a9 08000000 		.4byte	.LVL2
 1849 00ad 0100     		.2byte	0x1
 1850 00af 56       		.byte	0x56
 1851 00b0 08000000 		.4byte	.LVL2
 1852 00b4 1C000000 		.4byte	.LVL5
 1853 00b8 0100     		.2byte	0x1
 1854 00ba 54       		.byte	0x54
 1855 00bb 1C000000 		.4byte	.LVL5
 1856 00bf 22000000 		.4byte	.LVL7
 1857 00c3 0300     		.2byte	0x3
 1858 00c5 74       		.byte	0x74
 1859 00c6 7F       		.sleb128 -1
 1860 00c7 9F       		.byte	0x9f
 1861 00c8 22000000 		.4byte	.LVL7
 1862 00cc 2E000000 		.4byte	.LVL11
 1863 00d0 0100     		.2byte	0x1
 1864 00d2 54       		.byte	0x54
 1865 00d3 00000000 		.4byte	0
 1866 00d7 00000000 		.4byte	0
 1867              	.LLST5:
 1868 00db 00000000 		.4byte	.LVL14
 1869 00df 1E000000 		.4byte	.LVL15
 1870 00e3 0100     		.2byte	0x1
 1871 00e5 50       		.byte	0x50
 1872 00e6 1E000000 		.4byte	.LVL15
 1873 00ea 44000000 		.4byte	.LVL19
 1874 00ee 0100     		.2byte	0x1
 1875 00f0 56       		.byte	0x56
 1876 00f1 44000000 		.4byte	.LVL19
 1877 00f5 48000000 		.4byte	.LVL20
 1878 00f9 0400     		.2byte	0x4
 1879 00fb F3       		.byte	0xf3
 1880 00fc 01       		.uleb128 0x1
ARM GAS  /tmp/ccm2uSCK.s 			page 34


 1881 00fd 50       		.byte	0x50
 1882 00fe 9F       		.byte	0x9f
 1883 00ff 48000000 		.4byte	.LVL20
 1884 0103 78030000 		.4byte	.LFE8
 1885 0107 0100     		.2byte	0x1
 1886 0109 56       		.byte	0x56
 1887 010a 00000000 		.4byte	0
 1888 010e 00000000 		.4byte	0
 1889              	.LLST6:
 1890 0112 00000000 		.4byte	.LVL14
 1891 0116 1E000000 		.4byte	.LVL15
 1892 011a 0200     		.2byte	0x2
 1893 011c 91       		.byte	0x91
 1894 011d 74       		.sleb128 -12
 1895 011e 1E000000 		.4byte	.LVL15
 1896 0122 22000000 		.4byte	.LVL16
 1897 0126 0100     		.2byte	0x1
 1898 0128 54       		.byte	0x54
 1899 0129 22000000 		.4byte	.LVL16
 1900 012d 35000000 		.4byte	.LVL17-1
 1901 0131 0100     		.2byte	0x1
 1902 0133 53       		.byte	0x53
 1903 0134 35000000 		.4byte	.LVL17-1
 1904 0138 3A000000 		.4byte	.LVL18
 1905 013c 0100     		.2byte	0x1
 1906 013e 54       		.byte	0x54
 1907 013f 3A000000 		.4byte	.LVL18
 1908 0143 5C000000 		.4byte	.LVL22
 1909 0147 0100     		.2byte	0x1
 1910 0149 53       		.byte	0x53
 1911 014a 5C000000 		.4byte	.LVL22
 1912 014e 64000000 		.4byte	.LVL23
 1913 0152 0300     		.2byte	0x3
 1914 0154 73       		.byte	0x73
 1915 0155 01       		.sleb128 1
 1916 0156 9F       		.byte	0x9f
 1917 0157 68000000 		.4byte	.LVL24
 1918 015b 6E000000 		.4byte	.LVL26
 1919 015f 0100     		.2byte	0x1
 1920 0161 53       		.byte	0x53
 1921 0162 6E000000 		.4byte	.LVL26
 1922 0166 7A000000 		.4byte	.LVL30
 1923 016a 0100     		.2byte	0x1
 1924 016c 51       		.byte	0x51
 1925 016d 7A000000 		.4byte	.LVL30
 1926 0171 84000000 		.4byte	.LVL31
 1927 0175 0300     		.2byte	0x3
 1928 0177 71       		.byte	0x71
 1929 0178 7F       		.sleb128 -1
 1930 0179 9F       		.byte	0x9f
 1931 017a 84000000 		.4byte	.LVL31
 1932 017e 96000000 		.4byte	.LVL33
 1933 0182 0100     		.2byte	0x1
 1934 0184 51       		.byte	0x51
 1935 0185 96000000 		.4byte	.LVL33
 1936 0189 28010000 		.4byte	.LVL36
 1937 018d 0100     		.2byte	0x1
ARM GAS  /tmp/ccm2uSCK.s 			page 35


 1938 018f 54       		.byte	0x54
 1939 0190 28010000 		.4byte	.LVL36
 1940 0194 30010000 		.4byte	.LVL39
 1941 0198 0300     		.2byte	0x3
 1942 019a 74       		.byte	0x74
 1943 019b 7F       		.sleb128 -1
 1944 019c 9F       		.byte	0x9f
 1945 019d 30010000 		.4byte	.LVL39
 1946 01a1 34010000 		.4byte	.LVL40
 1947 01a5 0100     		.2byte	0x1
 1948 01a7 54       		.byte	0x54
 1949 01a8 34010000 		.4byte	.LVL40
 1950 01ac 4E010000 		.4byte	.LVL41
 1951 01b0 0300     		.2byte	0x3
 1952 01b2 74       		.byte	0x74
 1953 01b3 7F       		.sleb128 -1
 1954 01b4 9F       		.byte	0x9f
 1955 01b5 4E010000 		.4byte	.LVL41
 1956 01b9 78030000 		.4byte	.LFE8
 1957 01bd 0100     		.2byte	0x1
 1958 01bf 54       		.byte	0x54
 1959 01c0 00000000 		.4byte	0
 1960 01c4 00000000 		.4byte	0
 1961              	.LLST7:
 1962 01c8 48000000 		.4byte	.LVL20
 1963 01cc EE010000 		.4byte	.LVL48
 1964 01d0 0100     		.2byte	0x1
 1965 01d2 58       		.byte	0x58
 1966 01d3 EE010000 		.4byte	.LVL48
 1967 01d7 F4010000 		.4byte	.LVL49
 1968 01db 0100     		.2byte	0x1
 1969 01dd 50       		.byte	0x50
 1970 01de 60020000 		.4byte	.LVL66
 1971 01e2 72020000 		.4byte	.LVL71
 1972 01e6 0100     		.2byte	0x1
 1973 01e8 58       		.byte	0x58
 1974 01e9 72020000 		.4byte	.LVL71
 1975 01ed 77020000 		.4byte	.LVL72-1
 1976 01f1 0100     		.2byte	0x1
 1977 01f3 50       		.byte	0x50
 1978 01f4 78020000 		.4byte	.LVL72
 1979 01f8 7C020000 		.4byte	.LVL73
 1980 01fc 0100     		.2byte	0x1
 1981 01fe 50       		.byte	0x50
 1982 01ff 94020000 		.4byte	.LVL79
 1983 0203 AC020000 		.4byte	.LVL80
 1984 0207 0400     		.2byte	0x4
 1985 0209 91       		.byte	0x91
 1986 020a AD7F     		.sleb128 -83
 1987 020c 9F       		.byte	0x9f
 1988 020d AC020000 		.4byte	.LVL80
 1989 0211 C6020000 		.4byte	.LVL83
 1990 0215 0100     		.2byte	0x1
 1991 0217 58       		.byte	0x58
 1992 0218 C6020000 		.4byte	.LVL83
 1993 021c CE020000 		.4byte	.LVL85
 1994 0220 0100     		.2byte	0x1
ARM GAS  /tmp/ccm2uSCK.s 			page 36


 1995 0222 5B       		.byte	0x5b
 1996 0223 CE020000 		.4byte	.LVL85
 1997 0227 D2020000 		.4byte	.LVL86
 1998 022b 0300     		.2byte	0x3
 1999 022d 70       		.byte	0x70
 2000 022e 7F       		.sleb128 -1
 2001 022f 9F       		.byte	0x9f
 2002 0230 D2020000 		.4byte	.LVL86
 2003 0234 D6020000 		.4byte	.LVL87
 2004 0238 0100     		.2byte	0x1
 2005 023a 50       		.byte	0x50
 2006 023b D6020000 		.4byte	.LVL87
 2007 023f E0020000 		.4byte	.LVL89
 2008 0243 0300     		.2byte	0x3
 2009 0245 70       		.byte	0x70
 2010 0246 7F       		.sleb128 -1
 2011 0247 9F       		.byte	0x9f
 2012 0248 E6020000 		.4byte	.LVL90
 2013 024c 00030000 		.4byte	.LVL96
 2014 0250 0100     		.2byte	0x1
 2015 0252 58       		.byte	0x58
 2016 0253 00030000 		.4byte	.LVL96
 2017 0257 0E030000 		.4byte	.LVL97
 2018 025b 0400     		.2byte	0x4
 2019 025d 91       		.byte	0x91
 2020 025e AD7F     		.sleb128 -83
 2021 0260 9F       		.byte	0x9f
 2022 0261 0E030000 		.4byte	.LVL97
 2023 0265 12030000 		.4byte	.LVL99
 2024 0269 0100     		.2byte	0x1
 2025 026b 58       		.byte	0x58
 2026 026c 12030000 		.4byte	.LVL99
 2027 0270 1A030000 		.4byte	.LVL100
 2028 0274 0100     		.2byte	0x1
 2029 0276 5B       		.byte	0x5b
 2030 0277 28030000 		.4byte	.LVL102
 2031 027b 34030000 		.4byte	.LVL104
 2032 027f 0100     		.2byte	0x1
 2033 0281 58       		.byte	0x58
 2034 0282 34030000 		.4byte	.LVL104
 2035 0286 40030000 		.4byte	.LVL106
 2036 028a 0400     		.2byte	0x4
 2037 028c 91       		.byte	0x91
 2038 028d AD7F     		.sleb128 -83
 2039 028f 9F       		.byte	0x9f
 2040 0290 40030000 		.4byte	.LVL106
 2041 0294 42030000 		.4byte	.LVL107
 2042 0298 0100     		.2byte	0x1
 2043 029a 50       		.byte	0x50
 2044 029b 5E030000 		.4byte	.LVL111
 2045 029f 6A030000 		.4byte	.LVL116
 2046 02a3 0100     		.2byte	0x1
 2047 02a5 58       		.byte	0x58
 2048 02a6 00000000 		.4byte	0
 2049 02aa 00000000 		.4byte	0
 2050              	.LLST8:
 2051 02ae 48000000 		.4byte	.LVL20
ARM GAS  /tmp/ccm2uSCK.s 			page 37


 2052 02b2 F6010000 		.4byte	.LVL50
 2053 02b6 0100     		.2byte	0x1
 2054 02b8 58       		.byte	0x58
 2055 02b9 F6010000 		.4byte	.LVL50
 2056 02bd 12020000 		.4byte	.LVL55
 2057 02c1 0100     		.2byte	0x1
 2058 02c3 5B       		.byte	0x5b
 2059 02c4 24020000 		.4byte	.LVL58
 2060 02c8 3A020000 		.4byte	.LVL61
 2061 02cc 0100     		.2byte	0x1
 2062 02ce 5B       		.byte	0x5b
 2063 02cf 3A020000 		.4byte	.LVL61
 2064 02d3 40020000 		.4byte	.LVL62
 2065 02d7 0300     		.2byte	0x3
 2066 02d9 7B       		.byte	0x7b
 2067 02da 7F       		.sleb128 -1
 2068 02db 9F       		.byte	0x9f
 2069 02dc 40020000 		.4byte	.LVL62
 2070 02e0 60020000 		.4byte	.LVL66
 2071 02e4 0100     		.2byte	0x1
 2072 02e6 5B       		.byte	0x5b
 2073 02e7 60020000 		.4byte	.LVL66
 2074 02eb 82020000 		.4byte	.LVL75
 2075 02ef 0100     		.2byte	0x1
 2076 02f1 58       		.byte	0x58
 2077 02f2 82020000 		.4byte	.LVL75
 2078 02f6 94020000 		.4byte	.LVL79
 2079 02fa 0100     		.2byte	0x1
 2080 02fc 5B       		.byte	0x5b
 2081 02fd 94020000 		.4byte	.LVL79
 2082 0301 B4020000 		.4byte	.LVL81
 2083 0305 0100     		.2byte	0x1
 2084 0307 58       		.byte	0x58
 2085 0308 B4020000 		.4byte	.LVL81
 2086 030c E6020000 		.4byte	.LVL90
 2087 0310 0100     		.2byte	0x1
 2088 0312 5B       		.byte	0x5b
 2089 0313 E6020000 		.4byte	.LVL90
 2090 0317 12030000 		.4byte	.LVL99
 2091 031b 0100     		.2byte	0x1
 2092 031d 58       		.byte	0x58
 2093 031e 12030000 		.4byte	.LVL99
 2094 0322 28030000 		.4byte	.LVL102
 2095 0326 0100     		.2byte	0x1
 2096 0328 5B       		.byte	0x5b
 2097 0329 28030000 		.4byte	.LVL102
 2098 032d 42030000 		.4byte	.LVL107
 2099 0331 0100     		.2byte	0x1
 2100 0333 58       		.byte	0x58
 2101 0334 42030000 		.4byte	.LVL107
 2102 0338 5E030000 		.4byte	.LVL111
 2103 033c 0100     		.2byte	0x1
 2104 033e 5B       		.byte	0x5b
 2105 033f 5E030000 		.4byte	.LVL111
 2106 0343 6A030000 		.4byte	.LVL116
 2107 0347 0100     		.2byte	0x1
 2108 0349 58       		.byte	0x58
ARM GAS  /tmp/ccm2uSCK.s 			page 38


 2109 034a 6A030000 		.4byte	.LVL116
 2110 034e 78030000 		.4byte	.LFE8
 2111 0352 0100     		.2byte	0x1
 2112 0354 5B       		.byte	0x5b
 2113 0355 00000000 		.4byte	0
 2114 0359 00000000 		.4byte	0
 2115              	.LLST9:
 2116 035d 22000000 		.4byte	.LVL16
 2117 0361 35000000 		.4byte	.LVL17-1
 2118 0365 0100     		.2byte	0x1
 2119 0367 51       		.byte	0x51
 2120 0368 3A000000 		.4byte	.LVL18
 2121 036c 6A000000 		.4byte	.LVL25
 2122 0370 0100     		.2byte	0x1
 2123 0372 51       		.byte	0x51
 2124 0373 6E000000 		.4byte	.LVL26
 2125 0377 70000000 		.4byte	.LVL27
 2126 037b 0100     		.2byte	0x1
 2127 037d 52       		.byte	0x52
 2128 037e 70000000 		.4byte	.LVL27
 2129 0382 7A000000 		.4byte	.LVL30
 2130 0386 0100     		.2byte	0x1
 2131 0388 53       		.byte	0x53
 2132 0389 84000000 		.4byte	.LVL31
 2133 038d 2A010000 		.4byte	.LVL37
 2134 0391 0100     		.2byte	0x1
 2135 0393 52       		.byte	0x52
 2136 0394 2A010000 		.4byte	.LVL37
 2137 0398 30010000 		.4byte	.LVL39
 2138 039c 0100     		.2byte	0x1
 2139 039e 53       		.byte	0x53
 2140 039f 34010000 		.4byte	.LVL40
 2141 03a3 5C010000 		.4byte	.LVL43
 2142 03a7 0100     		.2byte	0x1
 2143 03a9 52       		.byte	0x52
 2144 03aa 5E010000 		.4byte	.LVL44
 2145 03ae D6010000 		.4byte	.LVL45
 2146 03b2 0100     		.2byte	0x1
 2147 03b4 53       		.byte	0x53
 2148 03b5 D6010000 		.4byte	.LVL45
 2149 03b9 D8010000 		.4byte	.LVL46
 2150 03bd 0200     		.2byte	0x2
 2151 03bf 38       		.byte	0x38
 2152 03c0 9F       		.byte	0x9f
 2153 03c1 60020000 		.4byte	.LVL66
 2154 03c5 6A020000 		.4byte	.LVL69
 2155 03c9 0100     		.2byte	0x1
 2156 03cb 52       		.byte	0x52
 2157 03cc 6A020000 		.4byte	.LVL69
 2158 03d0 70020000 		.4byte	.LVL70
 2159 03d4 0400     		.2byte	0x4
 2160 03d6 70       		.byte	0x70
 2161 03d7 C400     		.sleb128 68
 2162 03d9 9F       		.byte	0x9f
 2163 03da E6020000 		.4byte	.LVL90
 2164 03de EA020000 		.4byte	.LVL91
 2165 03e2 0100     		.2byte	0x1
ARM GAS  /tmp/ccm2uSCK.s 			page 39


 2166 03e4 53       		.byte	0x53
 2167 03e5 EA020000 		.4byte	.LVL91
 2168 03e9 EC020000 		.4byte	.LVL92
 2169 03ed 0200     		.2byte	0x2
 2170 03ef 3A       		.byte	0x3a
 2171 03f0 9F       		.byte	0x9f
 2172 03f1 FE020000 		.4byte	.LVL95
 2173 03f5 00030000 		.4byte	.LVL96
 2174 03f9 0100     		.2byte	0x1
 2175 03fb 53       		.byte	0x53
 2176 03fc 0E030000 		.4byte	.LVL97
 2177 0400 10030000 		.4byte	.LVL98
 2178 0404 0100     		.2byte	0x1
 2179 0406 52       		.byte	0x52
 2180 0407 10030000 		.4byte	.LVL98
 2181 040b 12030000 		.4byte	.LVL99
 2182 040f 0400     		.2byte	0x4
 2183 0411 70       		.byte	0x70
 2184 0412 C400     		.sleb128 68
 2185 0414 9F       		.byte	0x9f
 2186 0415 5E030000 		.4byte	.LVL111
 2187 0419 60030000 		.4byte	.LVL112
 2188 041d 0100     		.2byte	0x1
 2189 041f 53       		.byte	0x53
 2190 0420 60030000 		.4byte	.LVL112
 2191 0424 62030000 		.4byte	.LVL113
 2192 0428 0400     		.2byte	0x4
 2193 042a 72       		.byte	0x72
 2194 042b C400     		.sleb128 68
 2195 042d 9F       		.byte	0x9f
 2196 042e 00000000 		.4byte	0
 2197 0432 00000000 		.4byte	0
 2198              	.LLST10:
 2199 0436 5C000000 		.4byte	.LVL22
 2200 043a 68000000 		.4byte	.LVL24
 2201 043e 0300     		.2byte	0x3
 2202 0440 08       		.byte	0x8
 2203 0441 30       		.byte	0x30
 2204 0442 9F       		.byte	0x9f
 2205 0443 68000000 		.4byte	.LVL24
 2206 0447 04020000 		.4byte	.LVL53
 2207 044b 0100     		.2byte	0x1
 2208 044d 57       		.byte	0x57
 2209 044e 60020000 		.4byte	.LVL66
 2210 0452 94020000 		.4byte	.LVL79
 2211 0456 0100     		.2byte	0x1
 2212 0458 57       		.byte	0x57
 2213 0459 94020000 		.4byte	.LVL79
 2214 045d E6020000 		.4byte	.LVL90
 2215 0461 0300     		.2byte	0x3
 2216 0463 08       		.byte	0x8
 2217 0464 20       		.byte	0x20
 2218 0465 9F       		.byte	0x9f
 2219 0466 E6020000 		.4byte	.LVL90
 2220 046a 12030000 		.4byte	.LVL99
 2221 046e 0100     		.2byte	0x1
 2222 0470 57       		.byte	0x57
ARM GAS  /tmp/ccm2uSCK.s 			page 40


 2223 0471 12030000 		.4byte	.LVL99
 2224 0475 28030000 		.4byte	.LVL102
 2225 0479 0300     		.2byte	0x3
 2226 047b 08       		.byte	0x8
 2227 047c 20       		.byte	0x20
 2228 047d 9F       		.byte	0x9f
 2229 047e 28030000 		.4byte	.LVL102
 2230 0482 42030000 		.4byte	.LVL107
 2231 0486 0100     		.2byte	0x1
 2232 0488 57       		.byte	0x57
 2233 0489 5E030000 		.4byte	.LVL111
 2234 048d 6A030000 		.4byte	.LVL116
 2235 0491 0100     		.2byte	0x1
 2236 0493 57       		.byte	0x57
 2237 0494 6A030000 		.4byte	.LVL116
 2238 0498 78030000 		.4byte	.LFE8
 2239 049c 0300     		.2byte	0x3
 2240 049e 08       		.byte	0x8
 2241 049f 20       		.byte	0x20
 2242 04a0 9F       		.byte	0x9f
 2243 04a1 00000000 		.4byte	0
 2244 04a5 00000000 		.4byte	0
 2245              	.LLST11:
 2246 04a9 F6010000 		.4byte	.LVL50
 2247 04ad 04020000 		.4byte	.LVL53
 2248 04b1 0100     		.2byte	0x1
 2249 04b3 50       		.byte	0x50
 2250 04b4 24020000 		.4byte	.LVL58
 2251 04b8 32020000 		.4byte	.LVL60
 2252 04bc 0100     		.2byte	0x1
 2253 04be 5A       		.byte	0x5a
 2254 04bf 32020000 		.4byte	.LVL60
 2255 04c3 40020000 		.4byte	.LVL62
 2256 04c7 0300     		.2byte	0x3
 2257 04c9 7A       		.byte	0x7a
 2258 04ca 01       		.sleb128 1
 2259 04cb 9F       		.byte	0x9f
 2260 04cc 40020000 		.4byte	.LVL62
 2261 04d0 46020000 		.4byte	.LVL63
 2262 04d4 0100     		.2byte	0x1
 2263 04d6 5A       		.byte	0x5a
 2264 04d7 82020000 		.4byte	.LVL75
 2265 04db 8C020000 		.4byte	.LVL77
 2266 04df 0100     		.2byte	0x1
 2267 04e1 50       		.byte	0x50
 2268 04e2 8C020000 		.4byte	.LVL77
 2269 04e6 94020000 		.4byte	.LVL79
 2270 04ea 0100     		.2byte	0x1
 2271 04ec 53       		.byte	0x53
 2272 04ed 1A030000 		.4byte	.LVL100
 2273 04f1 28030000 		.4byte	.LVL102
 2274 04f5 0200     		.2byte	0x2
 2275 04f7 30       		.byte	0x30
 2276 04f8 9F       		.byte	0x9f
 2277 04f9 58030000 		.4byte	.LVL109
 2278 04fd 5C030000 		.4byte	.LVL110
 2279 0501 0100     		.2byte	0x1
ARM GAS  /tmp/ccm2uSCK.s 			page 41


 2280 0503 5A       		.byte	0x5a
 2281 0504 5C030000 		.4byte	.LVL110
 2282 0508 5E030000 		.4byte	.LVL111
 2283 050c 0300     		.2byte	0x3
 2284 050e 7A       		.byte	0x7a
 2285 050f 01       		.sleb128 1
 2286 0510 9F       		.byte	0x9f
 2287 0511 6A030000 		.4byte	.LVL116
 2288 0515 78030000 		.4byte	.LFE8
 2289 0519 0200     		.2byte	0x2
 2290 051b 30       		.byte	0x30
 2291 051c 9F       		.byte	0x9f
 2292 051d 00000000 		.4byte	0
 2293 0521 00000000 		.4byte	0
 2294              	.LLST12:
 2295 0525 92000000 		.4byte	.LVL32
 2296 0529 98000000 		.4byte	.LVL34
 2297 052d 0200     		.2byte	0x2
 2298 052f 30       		.byte	0x30
 2299 0530 9F       		.byte	0x9f
 2300 0531 98000000 		.4byte	.LVL34
 2301 0535 2C010000 		.4byte	.LVL38
 2302 0539 0100     		.2byte	0x1
 2303 053b 51       		.byte	0x51
 2304 053c 2C010000 		.4byte	.LVL38
 2305 0540 30010000 		.4byte	.LVL39
 2306 0544 0500     		.2byte	0x5
 2307 0546 7E       		.byte	0x7e
 2308 0547 00       		.sleb128 0
 2309 0548 31       		.byte	0x31
 2310 0549 24       		.byte	0x24
 2311 054a 9F       		.byte	0x9f
 2312 054b 30010000 		.4byte	.LVL39
 2313 054f E6010000 		.4byte	.LVL47
 2314 0553 0100     		.2byte	0x1
 2315 0555 51       		.byte	0x51
 2316 0556 60020000 		.4byte	.LVL66
 2317 055a 68020000 		.4byte	.LVL68
 2318 055e 0100     		.2byte	0x1
 2319 0560 51       		.byte	0x51
 2320 0561 94020000 		.4byte	.LVL79
 2321 0565 F8020000 		.4byte	.LVL93
 2322 0569 0100     		.2byte	0x1
 2323 056b 51       		.byte	0x51
 2324 056c FE020000 		.4byte	.LVL95
 2325 0570 12030000 		.4byte	.LVL99
 2326 0574 0100     		.2byte	0x1
 2327 0576 51       		.byte	0x51
 2328 0577 12030000 		.4byte	.LVL99
 2329 057b 1A030000 		.4byte	.LVL100
 2330 057f 0400     		.2byte	0x4
 2331 0581 0A       		.byte	0xa
 2332 0582 FF7F     		.2byte	0x7fff
 2333 0584 9F       		.byte	0x9f
 2334 0585 28030000 		.4byte	.LVL102
 2335 0589 2C030000 		.4byte	.LVL103
 2336 058d 0100     		.2byte	0x1
ARM GAS  /tmp/ccm2uSCK.s 			page 42


 2337 058f 51       		.byte	0x51
 2338 0590 5E030000 		.4byte	.LVL111
 2339 0594 64030000 		.4byte	.LVL114
 2340 0598 0100     		.2byte	0x1
 2341 059a 51       		.byte	0x51
 2342 059b 00000000 		.4byte	0
 2343 059f 00000000 		.4byte	0
 2344              	.LLST13:
 2345 05a3 68000000 		.4byte	.LVL24
 2346 05a7 6E000000 		.4byte	.LVL26
 2347 05ab 0200     		.2byte	0x2
 2348 05ad 30       		.byte	0x30
 2349 05ae 9F       		.byte	0x9f
 2350 05af 6E000000 		.4byte	.LVL26
 2351 05b3 20020000 		.4byte	.LVL56
 2352 05b7 0100     		.2byte	0x1
 2353 05b9 55       		.byte	0x55
 2354 05ba 20020000 		.4byte	.LVL56
 2355 05be 22020000 		.4byte	.LVL57
 2356 05c2 0300     		.2byte	0x3
 2357 05c4 75       		.byte	0x75
 2358 05c5 01       		.sleb128 1
 2359 05c6 9F       		.byte	0x9f
 2360 05c7 22020000 		.4byte	.LVL57
 2361 05cb 2C020000 		.4byte	.LVL59
 2362 05cf 0100     		.2byte	0x1
 2363 05d1 55       		.byte	0x55
 2364 05d2 46020000 		.4byte	.LVL63
 2365 05d6 5A020000 		.4byte	.LVL64
 2366 05da 0100     		.2byte	0x1
 2367 05dc 55       		.byte	0x55
 2368 05dd 5A020000 		.4byte	.LVL64
 2369 05e1 5C020000 		.4byte	.LVL65
 2370 05e5 0300     		.2byte	0x3
 2371 05e7 75       		.byte	0x75
 2372 05e8 7F       		.sleb128 -1
 2373 05e9 9F       		.byte	0x9f
 2374 05ea 5C020000 		.4byte	.LVL65
 2375 05ee 7E020000 		.4byte	.LVL74
 2376 05f2 0100     		.2byte	0x1
 2377 05f4 55       		.byte	0x55
 2378 05f5 82020000 		.4byte	.LVL75
 2379 05f9 78030000 		.4byte	.LFE8
 2380 05fd 0100     		.2byte	0x1
 2381 05ff 55       		.byte	0x55
 2382 0600 00000000 		.4byte	0
 2383 0604 00000000 		.4byte	0
 2384              	.LLST14:
 2385 0608 B4000000 		.4byte	.LVL35
 2386 060c 28010000 		.4byte	.LVL36
 2387 0610 0100     		.2byte	0x1
 2388 0612 53       		.byte	0x53
 2389 0613 50010000 		.4byte	.LVL42
 2390 0617 D6010000 		.4byte	.LVL45
 2391 061b 0200     		.2byte	0x2
 2392 061d 31       		.byte	0x31
 2393 061e 9F       		.byte	0x9f
ARM GAS  /tmp/ccm2uSCK.s 			page 43


 2394 061f 60020000 		.4byte	.LVL66
 2395 0623 66020000 		.4byte	.LVL67
 2396 0627 0100     		.2byte	0x1
 2397 0629 53       		.byte	0x53
 2398 062a 66020000 		.4byte	.LVL67
 2399 062e 70020000 		.4byte	.LVL70
 2400 0632 0100     		.2byte	0x1
 2401 0634 5E       		.byte	0x5e
 2402 0635 E6020000 		.4byte	.LVL90
 2403 0639 EA020000 		.4byte	.LVL91
 2404 063d 0200     		.2byte	0x2
 2405 063f 31       		.byte	0x31
 2406 0640 9F       		.byte	0x9f
 2407 0641 FE020000 		.4byte	.LVL95
 2408 0645 00030000 		.4byte	.LVL96
 2409 0649 0200     		.2byte	0x2
 2410 064b 31       		.byte	0x31
 2411 064c 9F       		.byte	0x9f
 2412 064d 0E030000 		.4byte	.LVL97
 2413 0651 12030000 		.4byte	.LVL99
 2414 0655 0100     		.2byte	0x1
 2415 0657 53       		.byte	0x53
 2416 0658 5E030000 		.4byte	.LVL111
 2417 065c 6A030000 		.4byte	.LVL116
 2418 0660 0200     		.2byte	0x2
 2419 0662 31       		.byte	0x31
 2420 0663 9F       		.byte	0x9f
 2421 0664 00000000 		.4byte	0
 2422 0668 00000000 		.4byte	0
 2423              	.LLST15:
 2424 066c 48000000 		.4byte	.LVL20
 2425 0670 54000000 		.4byte	.LVL21
 2426 0674 0200     		.2byte	0x2
 2427 0676 30       		.byte	0x30
 2428 0677 9F       		.byte	0x9f
 2429 0678 54000000 		.4byte	.LVL21
 2430 067c 5C000000 		.4byte	.LVL22
 2431 0680 0200     		.2byte	0x2
 2432 0682 31       		.byte	0x31
 2433 0683 9F       		.byte	0x9f
 2434 0684 5C000000 		.4byte	.LVL22
 2435 0688 04020000 		.4byte	.LVL53
 2436 068c 0100     		.2byte	0x1
 2437 068e 5A       		.byte	0x5a
 2438 068f 60020000 		.4byte	.LVL66
 2439 0693 90020000 		.4byte	.LVL78
 2440 0697 0100     		.2byte	0x1
 2441 0699 5A       		.byte	0x5a
 2442 069a 94020000 		.4byte	.LVL79
 2443 069e 42030000 		.4byte	.LVL107
 2444 06a2 0100     		.2byte	0x1
 2445 06a4 5A       		.byte	0x5a
 2446 06a5 5E030000 		.4byte	.LVL111
 2447 06a9 6E030000 		.4byte	.LVL117
 2448 06ad 0100     		.2byte	0x1
 2449 06af 5A       		.byte	0x5a
 2450 06b0 00000000 		.4byte	0
ARM GAS  /tmp/ccm2uSCK.s 			page 44


 2451 06b4 00000000 		.4byte	0
 2452              	.LLST16:
 2453 06b8 E6010000 		.4byte	.LVL47
 2454 06bc ED010000 		.4byte	.LVL48-1
 2455 06c0 0100     		.2byte	0x1
 2456 06c2 51       		.byte	0x51
 2457 06c3 68020000 		.4byte	.LVL68
 2458 06c7 77020000 		.4byte	.LVL72-1
 2459 06cb 0100     		.2byte	0x1
 2460 06cd 51       		.byte	0x51
 2461 06ce FC020000 		.4byte	.LVL94
 2462 06d2 FE020000 		.4byte	.LVL95
 2463 06d6 0100     		.2byte	0x1
 2464 06d8 51       		.byte	0x51
 2465 06d9 2C030000 		.4byte	.LVL103
 2466 06dd 42030000 		.4byte	.LVL107
 2467 06e1 0100     		.2byte	0x1
 2468 06e3 51       		.byte	0x51
 2469 06e4 68030000 		.4byte	.LVL115
 2470 06e8 6A030000 		.4byte	.LVL116
 2471 06ec 0100     		.2byte	0x1
 2472 06ee 51       		.byte	0x51
 2473 06ef 00000000 		.4byte	0
 2474 06f3 00000000 		.4byte	0
 2475              		.section	.debug_aranges,"",%progbits
 2476 0000 24000000 		.4byte	0x24
 2477 0004 0200     		.2byte	0x2
 2478 0006 00000000 		.4byte	.Ldebug_info0
 2479 000a 04       		.byte	0x4
 2480 000b 00       		.byte	0
 2481 000c 0000     		.2byte	0
 2482 000e 0000     		.2byte	0
 2483 0010 00000000 		.4byte	.LFB7
 2484 0014 3E000000 		.4byte	.LFE7-.LFB7
 2485 0018 00000000 		.4byte	.LFB8
 2486 001c 78030000 		.4byte	.LFE8-.LFB8
 2487 0020 00000000 		.4byte	0
 2488 0024 00000000 		.4byte	0
 2489              		.section	.debug_ranges,"",%progbits
 2490              	.Ldebug_ranges0:
 2491 0000 00000000 		.4byte	.LFB7
 2492 0004 3E000000 		.4byte	.LFE7
 2493 0008 00000000 		.4byte	.LFB8
 2494 000c 78030000 		.4byte	.LFE8
 2495 0010 00000000 		.4byte	0
 2496 0014 00000000 		.4byte	0
 2497              		.section	.debug_line,"",%progbits
 2498              	.Ldebug_line0:
 2499 0000 FA030000 		.section	.debug_str,"MS",%progbits,1
 2499      0200D902 
 2499      00000201 
 2499      FB0E0D00 
 2499      01010101 
 2500              	.LASF40:
 2501 0000 2F686F6D 		.ascii	"/home/diana/Documentos/Embebidos/stamp_repo/files/c"
 2501      652F6469 
 2501      616E612F 
ARM GAS  /tmp/ccm2uSCK.s 			page 45


 2501      446F6375 
 2501      6D656E74 
 2502 0033 6F64652F 		.ascii	"ode/ext/ChibiOS/os/various/chprintf.c\000"
 2502      6578742F 
 2502      43686962 
 2502      694F532F 
 2502      6F732F76 
 2503              	.LASF5:
 2504 0059 5F5F7569 		.ascii	"__uint8_t\000"
 2504      6E74385F 
 2504      7400
 2505              	.LASF2:
 2506 0063 73697A65 		.ascii	"size_t\000"
 2506      5F7400
 2507              	.LASF32:
 2508 006a 72616469 		.ascii	"radix\000"
 2508      7800
 2509              	.LASF20:
 2510 0070 73797374 		.ascii	"systime_t\000"
 2510      696D655F 
 2510      7400
 2511              	.LASF9:
 2512 007a 5F5F696E 		.ascii	"__int32_t\000"
 2512      7433325F 
 2512      7400
 2513              	.LASF37:
 2514 0084 69735F6C 		.ascii	"is_long\000"
 2514      6F6E6700 
 2515              	.LASF3:
 2516 008c 756E7369 		.ascii	"unsigned int\000"
 2516      676E6564 
 2516      20696E74 
 2516      00
 2517              	.LASF18:
 2518 0099 626F6F6C 		.ascii	"bool_t\000"
 2518      5F7400
 2519              	.LASF29:
 2520 00a0 77726974 		.ascii	"writet\000"
 2520      657400
 2521              	.LASF1:
 2522 00a7 76615F6C 		.ascii	"va_list\000"
 2522      69737400 
 2523              	.LASF6:
 2524 00af 756E7369 		.ascii	"unsigned char\000"
 2524      676E6564 
 2524      20636861 
 2524      7200
 2525              	.LASF30:
 2526 00bd 72656164 		.ascii	"readt\000"
 2526      7400
 2527              	.LASF12:
 2528 00c3 6C6F6E67 		.ascii	"long unsigned int\000"
 2528      20756E73 
 2528      69676E65 
 2528      6420696E 
 2528      7400
 2529              	.LASF8:
ARM GAS  /tmp/ccm2uSCK.s 			page 46


 2530 00d5 73686F72 		.ascii	"short unsigned int\000"
 2530      7420756E 
 2530      7369676E 
 2530      65642069 
 2530      6E7400
 2531              	.LASF25:
 2532 00e8 77726974 		.ascii	"write\000"
 2532      6500
 2533              	.LASF36:
 2534 00ee 77696474 		.ascii	"width\000"
 2534      6800
 2535              	.LASF44:
 2536 00f4 63687072 		.ascii	"chprintf\000"
 2536      696E7466 
 2536      00
 2537              	.LASF27:
 2538 00fd 70757477 		.ascii	"putwouldblock\000"
 2538      6F756C64 
 2538      626C6F63 
 2538      6B00
 2539              	.LASF11:
 2540 010b 5F5F7569 		.ascii	"__uint32_t\000"
 2540      6E743332 
 2540      5F7400
 2541              	.LASF0:
 2542 0116 5F5F676E 		.ascii	"__gnuc_va_list\000"
 2542      75635F76 
 2542      615F6C69 
 2542      737400
 2543              	.LASF26:
 2544 0125 72656164 		.ascii	"read\000"
 2544      00
 2545              	.LASF34:
 2546 012a 66696C6C 		.ascii	"filler\000"
 2546      657200
 2547              	.LASF39:
 2548 0131 474E5520 		.ascii	"GNU C 4.9.3 20150529 (release) [ARM/embedded-4_9-br"
 2548      4320342E 
 2548      392E3320 
 2548      32303135 
 2548      30353239 
 2549 0164 616E6368 		.ascii	"anch revision 227977] -mcpu=cortex-m3 -mno-thumb-in"
 2549      20726576 
 2549      6973696F 
 2549      6E203232 
 2549      37393737 
 2550 0197 74657277 		.ascii	"terwork -mthumb -ggdb -O2 -std=gnu99 -fomit-frame-p"
 2550      6F726B20 
 2550      2D6D7468 
 2550      756D6220 
 2550      2D676764 
 2551 01ca 6F696E74 		.ascii	"ointer -falign-functions=16 -ffunction-sections -fd"
 2551      6572202D 
 2551      66616C69 
 2551      676E2D66 
 2551      756E6374 
 2552 01fd 6174612D 		.ascii	"ata-sections -fno-common\000"
ARM GAS  /tmp/ccm2uSCK.s 			page 47


 2552      73656374 
 2552      696F6E73 
 2552      202D666E 
 2552      6F2D636F 
 2553              	.LASF14:
 2554 0216 6C6F6E67 		.ascii	"long long unsigned int\000"
 2554      206C6F6E 
 2554      6720756E 
 2554      7369676E 
 2554      65642069 
 2555              	.LASF42:
 2556 022d 5F5F6170 		.ascii	"__ap\000"
 2556      00
 2557              	.LASF41:
 2558 0232 2F686F6D 		.ascii	"/home/diana/Documentos/Embebidos/Health-herz/SAM3S/"
 2558      652F6469 
 2558      616E612F 
 2558      446F6375 
 2558      6D656E74 
 2559 0265 41444300 		.ascii	"ADC\000"
 2560              	.LASF28:
 2561 0269 67657477 		.ascii	"getwouldblock\000"
 2561      6F756C64 
 2561      626C6F63 
 2561      6B00
 2562              	.LASF19:
 2563 0277 6D73675F 		.ascii	"msg_t\000"
 2563      7400
 2564              	.LASF24:
 2565 027d 42617365 		.ascii	"BaseChannelVMT\000"
 2565      4368616E 
 2565      6E656C56 
 2565      4D5400
 2566              	.LASF16:
 2567 028c 696E7433 		.ascii	"int32_t\000"
 2567      325F7400 
 2568              	.LASF21:
 2569 0294 73697A65 		.ascii	"sizetype\000"
 2569      74797065 
 2569      00
 2570              	.LASF33:
 2571 029d 746D7062 		.ascii	"tmpbuf\000"
 2571      756600
 2572              	.LASF23:
 2573 02a4 5F5F7661 		.ascii	"__va_list\000"
 2573      5F6C6973 
 2573      7400
 2574              	.LASF13:
 2575 02ae 6C6F6E67 		.ascii	"long long int\000"
 2575      206C6F6E 
 2575      6720696E 
 2575      7400
 2576              	.LASF35:
 2577 02bc 70726563 		.ascii	"precision\000"
 2577      6973696F 
 2577      6E00
 2578              	.LASF22:
ARM GAS  /tmp/ccm2uSCK.s 			page 48


 2579 02c6 63686172 		.ascii	"char\000"
 2579      00
 2580              	.LASF38:
 2581 02cb 6C656674 		.ascii	"left_align\000"
 2581      5F616C69 
 2581      676E00
 2582              	.LASF7:
 2583 02d6 73686F72 		.ascii	"short int\000"
 2583      7420696E 
 2583      7400
 2584              	.LASF15:
 2585 02e0 75696E74 		.ascii	"uint8_t\000"
 2585      385F7400 
 2586              	.LASF45:
 2587 02e8 756E7369 		.ascii	"unsigned_common\000"
 2587      676E6564 
 2587      5F636F6D 
 2587      6D6F6E00 
 2588              	.LASF17:
 2589 02f8 75696E74 		.ascii	"uint32_t\000"
 2589      33325F74 
 2589      00
 2590              	.LASF10:
 2591 0301 6C6F6E67 		.ascii	"long int\000"
 2591      20696E74 
 2591      00
 2592              	.LASF4:
 2593 030a 7369676E 		.ascii	"signed char\000"
 2593      65642063 
 2593      68617200 
 2594              	.LASF43:
 2595 0316 6C746F61 		.ascii	"ltoa\000"
 2595      00
 2596              	.LASF31:
 2597 031b 42617365 		.ascii	"BaseChannel\000"
 2597      4368616E 
 2597      6E656C00 
 2598              		.ident	"GCC: (GNU Tools for ARM Embedded Processors) 4.9.3 20150529 (release) [ARM/embedded-4_9-br
ARM GAS  /tmp/ccm2uSCK.s 			page 49


DEFINED SYMBOLS
                            *ABS*:00000000 chprintf.c
     /tmp/ccm2uSCK.s:19     .text.ltoa:00000000 $t
     /tmp/ccm2uSCK.s:24     .text.ltoa:00000000 ltoa
     /tmp/ccm2uSCK.s:95     .text.chprintf:00000000 $t
     /tmp/ccm2uSCK.s:101    .text.chprintf:00000000 chprintf
     /tmp/ccm2uSCK.s:280    .text.chprintf:000000be $d
     /tmp/ccm2uSCK.s:334    .text.chprintf:00000128 $t
     /tmp/ccm2uSCK.s:382    .text.chprintf:00000168 $d
     /tmp/ccm2uSCK.s:435    .text.chprintf:000001d2 $t
     /tmp/ccm2uSCK.s:782    .text.chprintf:00000374 $d
     /tmp/ccm2uSCK.s:787    .rodata.str1.4:00000000 $d
                     .debug_frame:00000010 $d

NO UNDEFINED SYMBOLS
