ARM GAS  /tmp/cciHEhe7.s 			page 1


   1              		.syntax unified
   2              		.cpu cortex-m3
   3              		.fpu softvfp
   4              		.eabi_attribute 20, 1
   5              		.eabi_attribute 21, 1
   6              		.eabi_attribute 23, 3
   7              		.eabi_attribute 24, 1
   8              		.eabi_attribute 25, 1
   9              		.eabi_attribute 26, 1
  10              		.eabi_attribute 30, 2
  11              		.eabi_attribute 34, 1
  12              		.eabi_attribute 18, 4
  13              		.thumb
  14              		.file	"crt0.c"
  15              		.text
  16              	.Ltext0:
  17              		.cfi_sections	.debug_frame
  18              		.section	.text.__early_init,"ax",%progbits
  19              		.align	2
  20              		.p2align 4,,15
  21              		.weak	__early_init
  22              		.thumb
  23              		.thumb_func
  24              		.type	__early_init, %function
  25              	__early_init:
  26              	.LFB7:
  27              		.file 1 "/home/nicolas/Desktop/Embebidos/stamp_repo/files/code/ext/ChibiOS/os/ports/GCC/ARMCMx/crt
  28              		.loc 1 209 0
  29              		.cfi_startproc
  30              		@ args = 0, pretend = 0, frame = 0
  31              		@ frame_needed = 0, uses_anonymous_args = 0
  32              		@ link register save eliminated.
  33 0000 7047     		bx	lr
  34              		.cfi_endproc
  35              	.LFE7:
  36              		.size	__early_init, .-__early_init
  37 0002 00BF     		.section	.text.__late_init,"ax",%progbits
  38              		.align	2
  39              		.p2align 4,,15
  40              		.weak	__late_init
  41              		.thumb
  42              		.thumb_func
  43              		.type	__late_init, %function
  44              	__late_init:
  45              	.LFB8:
  46              		.loc 1 221 0
  47              		.cfi_startproc
  48              		@ args = 0, pretend = 0, frame = 0
  49              		@ frame_needed = 0, uses_anonymous_args = 0
  50              		@ link register save eliminated.
  51 0000 7047     		bx	lr
  52              		.cfi_endproc
  53              	.LFE8:
  54              		.size	__late_init, .-__late_init
  55 0002 00BF     		.section	.text._default_exit,"ax",%progbits
  56              		.align	2
  57              		.p2align 4,,15
ARM GAS  /tmp/cciHEhe7.s 			page 2


  58              		.weak	_default_exit
  59              		.thumb
  60              		.thumb_func
  61              		.type	_default_exit, %function
  62              	_default_exit:
  63              	.LFB9:
  64              		.loc 1 232 0
  65              		.cfi_startproc
  66              		@ Naked Function: prologue and epilogue provided by programmer.
  67              		@ args = 0, pretend = 0, frame = 0
  68              		@ frame_needed = 0, uses_anonymous_args = 0
  69              	.L4:
  70              		.loc 1 234 0 discriminator 1
  71 0000 FEE7     		b	.L4
  72              		.cfi_endproc
  73              	.LFE9:
  74              		.size	_default_exit, .-_default_exit
  75 0002 00BF     		.section	.text.ResetHandler,"ax",%progbits
  76              		.align	2
  77              		.p2align 4,,15
  78              		.global	ResetHandler
  79              		.thumb
  80              		.thumb_func
  81              		.type	ResetHandler, %function
  82              	ResetHandler:
  83              	.LFB11:
  84              		.loc 1 256 0
  85              		.cfi_startproc
  86              		@ Naked Function: prologue and epilogue provided by programmer.
  87              		@ args = 0, pretend = 0, frame = 0
  88              		@ frame_needed = 0, uses_anonymous_args = 0
  89              		.loc 1 262 0
  90              	@ 262 "/home/nicolas/Desktop/Embebidos/stamp_repo/files/code/ext/ChibiOS/os/ports/GCC/ARMCMx/crt0.c
  91 0000 72B6     		cpsid   i
  92              	@ 0 "" 2
  93              		.loc 1 263 0
  94              		.thumb
  95 0002 334C     		ldr	r4, .L32
  96              	.LVL0:
  97              		.loc 1 264 0
  98              	@ 264 "/home/nicolas/Desktop/Embebidos/stamp_repo/files/code/ext/ChibiOS/os/ports/GCC/ARMCMx/crt0.c
  99 0004 84F30988 		msr     PSP, r4
 100              	@ 0 "" 2
 101              	.LVL1:
 102              		.loc 1 284 0
 103              		.thumb
 104 0008 0223     		movs	r3, #2
 105              	@ 284 "/home/nicolas/Desktop/Embebidos/stamp_repo/files/code/ext/ChibiOS/os/ports/GCC/ARMCMx/crt0.c
 106 000a 83F31488 		msr     CONTROL, r3
 107              	@ 0 "" 2
 108              		.loc 1 285 0
 109              	@ 285 "/home/nicolas/Desktop/Embebidos/stamp_repo/files/code/ext/ChibiOS/os/ports/GCC/ARMCMx/crt0.c
 110 000e BFF36F8F 		isb
 111              	@ 0 "" 2
 112              		.loc 1 288 0
 113              		.thumb
 114 0012 FFF7FEFF 		bl	__early_init
ARM GAS  /tmp/cciHEhe7.s 			page 3


 115              	.LVL2:
 116              	.LBB11:
 117              	.LBB12:
 118              		.loc 1 246 0
 119 0016 2F49     		ldr	r1, .L32+4
 120 0018 2F4A     		ldr	r2, .L32+8
 121 001a 9142     		cmp	r1, r2
 122 001c 0CD2     		bcs	.L10
 123 001e C843     		mvns	r0, r1
 124 0020 0244     		add	r2, r2, r0
 125 0022 22F00302 		bic	r2, r2, #3
 126 0026 0432     		adds	r2, r2, #4
 127 0028 0B46     		mov	r3, r1
 128 002a 0A44     		add	r2, r2, r1
 129              		.loc 1 247 0
 130 002c 4FF05531 		mov	r1, #1431655765
 131              	.LVL3:
 132              	.L9:
 133 0030 43F8041B 		str	r1, [r3], #4
 134              	.LVL4:
 135              		.loc 1 246 0
 136 0034 9342     		cmp	r3, r2
 137 0036 FBD1     		bne	.L9
 138              	.LVL5:
 139              	.L10:
 140              	.LBE12:
 141              	.LBE11:
 142              	.LBB13:
 143              	.LBB14:
 144 0038 2849     		ldr	r1, .L32+12
 145 003a A142     		cmp	r1, r4
 146 003c 0DD2     		bcs	.L8
 147 003e 284A     		ldr	r2, .L32+16
 148 0040 081D     		adds	r0, r1, #4
 149 0042 121A     		subs	r2, r2, r0
 150 0044 22F00302 		bic	r2, r2, #3
 151 0048 0432     		adds	r2, r2, #4
 152 004a 0B46     		mov	r3, r1
 153 004c 0A44     		add	r2, r2, r1
 154              		.loc 1 247 0
 155 004e 4FF05531 		mov	r1, #1431655765
 156              	.LVL6:
 157              	.L13:
 158 0052 43F8041B 		str	r1, [r3], #4
 159              	.LVL7:
 160              		.loc 1 246 0
 161 0056 9342     		cmp	r3, r2
 162 0058 FBD1     		bne	.L13
 163              	.LVL8:
 164              	.L8:
 165              	.LBE14:
 166              	.LBE13:
 167              	.LBB15:
 168              		.loc 1 307 0
 169 005a 224A     		ldr	r2, .L32+20
 170 005c 224B     		ldr	r3, .L32+24
 171 005e 9A42     		cmp	r2, r3
ARM GAS  /tmp/cciHEhe7.s 			page 4


 172 0060 0DD2     		bcs	.L12
 173 0062 D043     		mvns	r0, r2
 174 0064 2149     		ldr	r1, .L32+28
 175 0066 1844     		add	r0, r0, r3
 176 0068 0B46     		mov	r3, r1
 177 006a 20F00300 		bic	r0, r0, #3
 178 006e 0430     		adds	r0, r0, #4
 179 0070 0844     		add	r0, r0, r1
 180              	.LVL9:
 181              	.L16:
 182              		.loc 1 308 0
 183 0072 53F8041B 		ldr	r1, [r3], #4
 184              	.LVL10:
 185              		.loc 1 307 0
 186 0076 8342     		cmp	r3, r0
 187              		.loc 1 308 0
 188 0078 42F8041B 		str	r1, [r2], #4
 189              	.LVL11:
 190              		.loc 1 307 0
 191 007c F9D1     		bne	.L16
 192              	.LVL12:
 193              	.L12:
 194              	.LBE15:
 195              	.LBB16:
 196              	.LBB17:
 197              		.loc 1 246 0
 198 007e 1C49     		ldr	r1, .L32+32
 199 0080 1C4A     		ldr	r2, .L32+36
 200 0082 9142     		cmp	r1, r2
 201 0084 0BD2     		bcs	.L15
 202 0086 C843     		mvns	r0, r1
 203 0088 0244     		add	r2, r2, r0
 204 008a 22F00302 		bic	r2, r2, #3
 205 008e 0432     		adds	r2, r2, #4
 206 0090 0B46     		mov	r3, r1
 207 0092 0A44     		add	r2, r2, r1
 208              		.loc 1 247 0
 209 0094 0021     		movs	r1, #0
 210              	.LVL13:
 211              	.L19:
 212 0096 43F8041B 		str	r1, [r3], #4
 213              	.LVL14:
 214              		.loc 1 246 0
 215 009a 9342     		cmp	r3, r2
 216 009c FBD1     		bne	.L19
 217              	.LVL15:
 218              	.L15:
 219              	.LBE17:
 220              	.LBE16:
 221              	.LBB18:
 222              		.loc 1 324 0
 223 009e 164D     		ldr	r5, .L32+40
 224 00a0 164C     		ldr	r4, .L32+44
 225              	.LBE18:
 226              		.loc 1 318 0
 227 00a2 FFF7FEFF 		bl	__late_init
 228              	.LVL16:
ARM GAS  /tmp/cciHEhe7.s 			page 5


 229              	.LBB19:
 230              		.loc 1 324 0
 231 00a6 AC42     		cmp	r4, r5
 232 00a8 04D2     		bcs	.L18
 233              	.LVL17:
 234              	.L17:
 235              		.loc 1 325 0
 236 00aa 54F8043B 		ldr	r3, [r4], #4
 237              	.LVL18:
 238 00ae 9847     		blx	r3
 239              	.LVL19:
 240              		.loc 1 324 0
 241 00b0 AC42     		cmp	r4, r5
 242 00b2 FAD3     		bcc	.L17
 243              	.LVL20:
 244              	.L18:
 245              	.LBE19:
 246              	.LBB20:
 247              		.loc 1 338 0
 248 00b4 124D     		ldr	r5, .L32+48
 249 00b6 134C     		ldr	r4, .L32+52
 250              	.LBE20:
 251              		.loc 1 332 0
 252 00b8 FFF7FEFF 		bl	main
 253              	.LVL21:
 254              	.LBB21:
 255              		.loc 1 338 0
 256 00bc AC42     		cmp	r4, r5
 257 00be 04D2     		bcs	.L21
 258              	.LVL22:
 259              	.L20:
 260              		.loc 1 339 0
 261 00c0 54F8043B 		ldr	r3, [r4], #4
 262              	.LVL23:
 263 00c4 9847     		blx	r3
 264              	.LVL24:
 265              		.loc 1 338 0
 266 00c6 AC42     		cmp	r4, r5
 267 00c8 FAD3     		bcc	.L20
 268              	.LVL25:
 269              	.L21:
 270              	.LBE21:
 271              		.loc 1 346 0
 272 00ca FFF7FEFF 		bl	_default_exit
 273              	.LVL26:
 274              		.loc 1 347 0
 275              	.L33:
 276 00ce 00BF     		.align	2
 277              	.L32:
 278 00d0 00000000 		.word	__process_stack_end__
 279 00d4 00000000 		.word	__main_stack_base__
 280 00d8 00000000 		.word	__main_stack_end__
 281 00dc 00000000 		.word	__process_stack_base__
 282 00e0 03000000 		.word	__process_stack_end__+3
 283 00e4 00000000 		.word	_data
 284 00e8 00000000 		.word	_edata
 285 00ec 00000000 		.word	_textdata
ARM GAS  /tmp/cciHEhe7.s 			page 6


 286 00f0 00000000 		.word	_bss_start
 287 00f4 00000000 		.word	_bss_end
 288 00f8 00000000 		.word	__init_array_end
 289 00fc 00000000 		.word	__init_array_start
 290 0100 00000000 		.word	__fini_array_end
 291 0104 00000000 		.word	__fini_array_start
 292              		.cfi_endproc
 293              	.LFE11:
 294              		.size	ResetHandler, .-ResetHandler
 295              		.text
 296              	.Letext0:
 297              		.file 2 "/opt/gcc-arm-none-eabi-4_9-2015q3/arm-none-eabi/include/machine/_default_types.h"
 298              		.file 3 "/opt/gcc-arm-none-eabi-4_9-2015q3/arm-none-eabi/include/sys/_stdint.h"