ARM GAS  /tmp/ccx6mtVa.s 			page 1


   1              		.syntax unified
   2              		.cpu cortex-m3
   3              		.fpu softvfp
   4              		.eabi_attribute 20, 1
   5              		.eabi_attribute 21, 1
   6              		.eabi_attribute 23, 3
   7              		.eabi_attribute 24, 1
   8              		.eabi_attribute 25, 1
   9              		.eabi_attribute 26, 1
  10              		.eabi_attribute 30, 2
  11              		.eabi_attribute 34, 1
  12              		.eabi_attribute 18, 4
  13              		.thumb
  14              		.file	"evtimer.c"
  15              		.text
  16              	.Ltext0:
  17              		.cfi_sections	.debug_frame
  18              		.section	.text.tmrcb,"ax",%progbits
  19              		.align	2
  20              		.p2align 4,,15
  21              		.thumb
  22              		.thumb_func
  23              		.type	tmrcb, %function
  24              	tmrcb:
  25              	.LFB7:
  26              		.file 1 "/home/nicolas/Desktop/Embebidos/stamp_repo/files/code/ext/ChibiOS/os/various/evtimer.c"
  27              		.loc 1 39 0
  28              		.cfi_startproc
  29              		@ args = 0, pretend = 0, frame = 0
  30              		@ frame_needed = 0, uses_anonymous_args = 0
  31              	.LVL0:
  32 0000 10B5     		push	{r4, lr}
  33              		.cfi_def_cfa_offset 8
  34              		.cfi_offset 4, -8
  35              		.cfi_offset 14, -4
  36              		.loc 1 39 0
  37 0002 0446     		mov	r4, r0
  38              	.LVL1:
  39              		.loc 1 42 0
  40 0004 0021     		movs	r1, #0
  41 0006 1430     		adds	r0, r0, #20
  42              	.LVL2:
  43 0008 FFF7FEFF 		bl	chEvtBroadcastFlagsI
  44              	.LVL3:
  45              		.loc 1 43 0
  46 000c 2046     		mov	r0, r4
  47 000e A169     		ldr	r1, [r4, #24]
  48 0010 2346     		mov	r3, r4
  49              		.loc 1 44 0
  50 0012 BDE81040 		pop	{r4, lr}
  51              		.cfi_restore 14
  52              		.cfi_restore 4
  53              		.cfi_def_cfa_offset 0
  54              	.LVL4:
  55              		.loc 1 43 0
  56 0016 014A     		ldr	r2, .L3
  57 0018 FFF7FEBF 		b	chVTSetI
ARM GAS  /tmp/ccx6mtVa.s 			page 2


  58              	.LVL5:
  59              	.L4:
  60              		.align	2
  61              	.L3:
  62 001c 00000000 		.word	tmrcb
  63              		.cfi_endproc
  64              	.LFE7:
  65              		.size	tmrcb, .-tmrcb
  66              		.section	.text.evtStart,"ax",%progbits
  67              		.align	2
  68              		.p2align 4,,15
  69              		.global	evtStart
  70              		.thumb
  71              		.thumb_func
  72              		.type	evtStart, %function
  73              	evtStart:
  74              	.LFB8:
  75              		.loc 1 52 0
  76              		.cfi_startproc
  77              		@ args = 0, pretend = 0, frame = 0
  78              		@ frame_needed = 0, uses_anonymous_args = 0
  79              	.LVL6:
  80 0000 08B5     		push	{r3, lr}
  81              		.cfi_def_cfa_offset 8
  82              		.cfi_offset 3, -8
  83              		.cfi_offset 14, -4
  84              	.LBB2:
  85              		.loc 1 54 0
  86 0002 2023     		movs	r3, #32
  87              	@ 54 "/home/nicolas/Desktop/Embebidos/stamp_repo/files/code/ext/ChibiOS/os/various/evtimer.c" 1
  88 0004 83F31188 		msr     BASEPRI, r3
  89              	@ 0 "" 2
  90              		.thumb
  91              	.LBE2:
  92              		.loc 1 56 0
  93 0008 C368     		ldr	r3, [r0, #12]
  94 000a 1BB1     		cbz	r3, .L9
  95              	.LBB3:
  96              		.loc 1 59 0
  97 000c 0023     		movs	r3, #0
  98              	@ 59 "/home/nicolas/Desktop/Embebidos/stamp_repo/files/code/ext/ChibiOS/os/various/evtimer.c" 1
  99 000e 83F31188 		msr     BASEPRI, r3
 100              	@ 0 "" 2
 101              		.thumb
 102 0012 08BD     		pop	{r3, pc}
 103              	.L9:
 104 0014 0346     		mov	r3, r0
 105              	.LBE3:
 106              		.loc 1 57 0
 107 0016 8169     		ldr	r1, [r0, #24]
 108 0018 034A     		ldr	r2, .L10
 109 001a FFF7FEFF 		bl	chVTSetI
 110              	.LVL7:
 111              	.LBB4:
 112              		.loc 1 59 0
 113 001e 0023     		movs	r3, #0
 114              	@ 59 "/home/nicolas/Desktop/Embebidos/stamp_repo/files/code/ext/ChibiOS/os/various/evtimer.c" 1
ARM GAS  /tmp/ccx6mtVa.s 			page 3


 115 0020 83F31188 		msr     BASEPRI, r3
 116              	@ 0 "" 2
 117              		.thumb
 118 0024 08BD     		pop	{r3, pc}
 119              	.L11:
 120 0026 00BF     		.align	2
 121              	.L10:
 122 0028 00000000 		.word	tmrcb
 123              	.LBE4:
 124              		.cfi_endproc
 125              	.LFE8:
 126              		.size	evtStart, .-evtStart
 127              		.section	.text.evtStop,"ax",%progbits
 128              		.align	2
 129              		.p2align 4,,15
 130              		.global	evtStop
 131              		.thumb
 132              		.thumb_func
 133              		.type	evtStop, %function
 134              	evtStop:
 135              	.LFB9:
 136              		.loc 1 68 0
 137              		.cfi_startproc
 138              		@ args = 0, pretend = 0, frame = 0
 139              		@ frame_needed = 0, uses_anonymous_args = 0
 140              	.LVL8:
 141 0000 08B5     		push	{r3, lr}
 142              		.cfi_def_cfa_offset 8
 143              		.cfi_offset 3, -8
 144              		.cfi_offset 14, -4
 145              	.LBB5:
 146              		.loc 1 70 0
 147 0002 2023     		movs	r3, #32
 148              	@ 70 "/home/nicolas/Desktop/Embebidos/stamp_repo/files/code/ext/ChibiOS/os/various/evtimer.c" 1
 149 0004 83F31188 		msr     BASEPRI, r3
 150              	@ 0 "" 2
 151              		.thumb
 152              	.LBE5:
 153              		.loc 1 72 0
 154 0008 C368     		ldr	r3, [r0, #12]
 155 000a 0BB1     		cbz	r3, .L13
 156              		.loc 1 73 0
 157 000c FFF7FEFF 		bl	chVTResetI
 158              	.LVL9:
 159              	.L13:
 160              	.LBB6:
 161              		.loc 1 75 0
 162 0010 0023     		movs	r3, #0
 163              	@ 75 "/home/nicolas/Desktop/Embebidos/stamp_repo/files/code/ext/ChibiOS/os/various/evtimer.c" 1
 164 0012 83F31188 		msr     BASEPRI, r3
 165              	@ 0 "" 2
 166              		.thumb
 167 0016 08BD     		pop	{r3, pc}
 168              	.LBE6:
 169              		.cfi_endproc
 170              	.LFE9:
 171              		.size	evtStop, .-evtStop
ARM GAS  /tmp/ccx6mtVa.s 			page 4


 172              		.text
 173              	.Letext0:
 174              		.file 2 "/opt/gcc-arm-none-eabi-4_9-2015q3/arm-none-eabi/include/machine/_default_types.h"
 175              		.file 3 "/opt/gcc-arm-none-eabi-4_9-2015q3/arm-none-eabi/include/sys/_stdint.h"
 176              		.file 4 "/home/nicolas/Desktop/Embebidos/stamp_repo/files/code/ext/ChibiOS/os/ports/GCC/ARMCMx/cht
 177              		.file 5 "/home/nicolas/Desktop/Embebidos/stamp_repo/files/code/ext/ChibiOS/os/kernel/include/chlis
 178              		.file 6 "/home/nicolas/Desktop/Embebidos/stamp_repo/files/code/ext/ChibiOS/os/kernel/include/chthr
 179              		.file 7 "/home/nicolas/Desktop/Embebidos/stamp_repo/files/code/ext/ChibiOS/os/ports/GCC/ARMCMx/chc
 180              		.file 8 "/home/nicolas/Desktop/Embebidos/stamp_repo/files/code/ext/ChibiOS/os/kernel/include/chvt.
 181              		.file 9 "/home/nicolas/Desktop/Embebidos/stamp_repo/files/code/ext/ChibiOS/os/kernel/include/chmtx
 182              		.file 10 "/home/nicolas/Desktop/Embebidos/stamp_repo/files/code/ext/ChibiOS/os/kernel/include/chev
 183              		.file 11 "/home/nicolas/Desktop/Embebidos/stamp_repo/files/code/ext/ChibiOS/os/various/evtimer.h"