ARM GAS  /tmp/ccp5l5Du.s 			page 1


   1              		.syntax unified
   2              		.cpu cortex-m3
   3              		.fpu softvfp
   4              		.eabi_attribute 20, 1
   5              		.eabi_attribute 21, 1
   6              		.eabi_attribute 23, 3
   7              		.eabi_attribute 24, 1
   8              		.eabi_attribute 25, 1
   9              		.eabi_attribute 26, 1
  10              		.eabi_attribute 30, 2
  11              		.eabi_attribute 34, 1
  12              		.eabi_attribute 18, 4
  13              		.thumb
  14              		.file	"main.c"
  15              		.text
  16              	.Ltext0:
  17              		.cfi_sections	.debug_frame
  18              		.section	.text.Thread1,"ax",%progbits
  19              		.align	2
  20              		.p2align 4,,15
  21              		.thumb
  22              		.thumb_func
  23              		.type	Thread1, %function
  24              	Thread1:
  25              	.LFB36:
  26              		.file 1 "main.c"
  27              		.loc 1 18 0
  28              		.cfi_startproc
  29              		@ Volatile: function does not return.
  30              		@ args = 0, pretend = 0, frame = 0
  31              		@ frame_needed = 0, uses_anonymous_args = 0
  32              	.LVL0:
  33              		.loc 1 21 0
  34 0000 4FF40035 		mov	r5, #131072
  35 0004 2E46     		mov	r6, r5
  36              		.loc 1 18 0
  37 0006 08B5     		push	{r3, lr}
  38              		.cfi_def_cfa_offset 8
  39              		.cfi_offset 3, -8
  40              		.cfi_offset 14, -4
  41              		.loc 1 21 0
  42 0008 044C     		ldr	r4, .L5
  43              	.LVL1:
  44              	.L2:
  45              		.loc 1 21 0 is_stmt 0 discriminator 1
  46 000a 6663     		str	r6, [r4, #52]
  47              		.loc 1 22 0 is_stmt 1 discriminator 1
  48 000c 3220     		movs	r0, #50
  49 000e FFF7FEFF 		bl	chThdSleep
  50              	.LVL2:
  51              		.loc 1 23 0 discriminator 1
  52 0012 2563     		str	r5, [r4, #48]
  53              		.loc 1 24 0 discriminator 1
  54 0014 3220     		movs	r0, #50
  55 0016 FFF7FEFF 		bl	chThdSleep
  56              	.LVL3:
  57              		.loc 1 25 0 discriminator 1
ARM GAS  /tmp/ccp5l5Du.s 			page 2


  58 001a F6E7     		b	.L2
  59              	.L6:
  60              		.align	2
  61              	.L5:
  62 001c 00120E40 		.word	1074663936
  63              		.cfi_endproc
  64              	.LFE36:
  65              		.size	Thread1, .-Thread1
  66              		.section	.text.startup.main,"ax",%progbits
  67              		.align	2
  68              		.p2align 4,,15
  69              		.global	main
  70              		.thumb
  71              		.thumb_func
  72              		.type	main, %function
  73              	main:
  74              	.LFB37:
  75              		.loc 1 35 0
  76              		.cfi_startproc
  77              		@ args = 0, pretend = 0, frame = 0
  78              		@ frame_needed = 0, uses_anonymous_args = 0
  79              	.LVL4:
  80 0000 30B5     		push	{r4, r5, lr}
  81              		.cfi_def_cfa_offset 12
  82              		.cfi_offset 4, -12
  83              		.cfi_offset 5, -8
  84              		.cfi_offset 14, -4
  85 0002 83B0     		sub	sp, sp, #12
  86              		.cfi_def_cfa_offset 24
  87              		.loc 1 41 0
  88 0004 FFF7FEFF 		bl	halInit
  89              	.LVL5:
  90              		.loc 1 42 0
  91 0008 FFF7FEFF 		bl	chSysInit
  92              	.LVL6:
  93              		.loc 1 43 0
  94 000c 2B48     		ldr	r0, .L15
  95 000e 0021     		movs	r1, #0
  96 0010 FFF7FEFF 		bl	sdStart
  97              	.LVL7:
  98              		.loc 1 48 0
  99 0014 0121     		movs	r1, #1
 100 0016 2A48     		ldr	r0, .L15+4
 101 0018 FFF7FEFF 		bl	PIO_Configure
 102              	.LVL8:
 103              		.loc 1 49 0
 104 001c 0322     		movs	r2, #3
 105 001e 0020     		movs	r0, #0
 106 0020 1F21     		movs	r1, #31
 107 0022 FFF7FEFF 		bl	PmcConfigurePllClock
 108              	.LVL9:
 109              		.loc 1 51 0
 110 0026 0120     		movs	r0, #1
 111 0028 1021     		movs	r1, #16
 112              		.loc 1 57 0
 113 002a 264D     		ldr	r5, .L15+8
 114              		.loc 1 51 0
ARM GAS  /tmp/ccp5l5Du.s 			page 3


 115 002c FFF7FEFF 		bl	PmcMasterClockSelection
 116              	.LVL10:
 117              		.loc 1 53 0
 118 0030 0220     		movs	r0, #2
 119 0032 1021     		movs	r1, #16
 120 0034 FFF7FEFF 		bl	PmcMasterClockSelection
 121              	.LVL11:
 122              		.loc 1 54 0
 123 0038 1021     		movs	r1, #16
 124 003a 0220     		movs	r0, #2
 125 003c FFF7FEFF 		bl	ConfigurePck
 126              	.LVL12:
 127              		.loc 1 57 0
 128 0040 2846     		mov	r0, r5
 129 0042 FFF7FEFF 		bl	ADC_Initialize
 130              	.LVL13:
 131              		.loc 1 63 0
 132 0046 204A     		ldr	r2, .L15+12
 133 0048 2846     		mov	r0, r5
 134 004a 0F21     		movs	r1, #15
 135 004c FFF7FEFF 		bl	ADC_cfgFrequency
 136              	.LVL14:
 137              		.loc 1 67 0
 138 0050 2846     		mov	r0, r5
 139 0052 1E49     		ldr	r1, .L15+16
 140 0054 FFF7FEFF 		bl	ADC_check
 141              	.LVL15:
 142              		.loc 1 69 0
 143 0058 3323     		movs	r3, #51
 144 005a 2B61     		str	r3, [r5, #16]
 145              		.loc 1 70 0
 146 005c 6B68     		ldr	r3, [r5, #4]
 147              		.loc 1 71 0
 148 005e 0221     		movs	r1, #2
 149              		.loc 1 70 0
 150 0060 43F08003 		orr	r3, r3, #128
 151              		.loc 1 74 0
 152 0064 0022     		movs	r2, #0
 153              		.loc 1 70 0
 154 0066 6B60     		str	r3, [r5, #4]
 155              		.loc 1 74 0
 156 0068 1948     		ldr	r0, .L15+20
 157              		.loc 1 71 0
 158 006a 2960     		str	r1, [r5]
 159              		.loc 1 74 0
 160 006c 194B     		ldr	r3, .L15+24
 161 006e 0092     		str	r2, [sp]
 162 0070 4FF49871 		mov	r1, #304
 163 0074 4022     		movs	r2, #64
 164 0076 FFF7FEFF 		bl	chThdCreateStatic
 165              	.LVL16:
 166              		.loc 1 77 0
 167 007a 2B6B     		ldr	r3, [r5, #48]
 168 007c DB07     		lsls	r3, r3, #31
 169 007e 1AD4     		bmi	.L12
 170 0080 0A24     		movs	r4, #10
 171              	.LVL17:
ARM GAS  /tmp/ccp5l5Du.s 			page 4


 172              	.L8:
 173              		.loc 1 78 0
 174 0082 4FF4FA70 		mov	r0, #500
 175 0086 FFF7FEFF 		bl	chThdSleep
 176              	.LVL18:
 177              		.loc 1 81 0
 178 008a 40F6E443 		movw	r3, #3300
 179              		.loc 1 80 0
 180 008e 2A6D     		ldr	r2, [r5, #80]
 181              		.loc 1 81 0
 182 0090 0A48     		ldr	r0, .L15
 183 0092 03FB02F2 		mul	r2, r3, r2
 184 0096 002A     		cmp	r2, #0
 185 0098 B8BF     		it	lt
 186 009a 02F6FF72 		addwlt	r2, r2, #4095
 187 009e 0E49     		ldr	r1, .L15+28
 188 00a0 1213     		asrs	r2, r2, #12
 189 00a2 FFF7FEFF 		bl	chprintf
 190              	.LVL19:
 191              		.loc 1 77 0
 192 00a6 2B6B     		ldr	r3, [r5, #48]
 193 00a8 013C     		subs	r4, r4, #1
 194              	.LVL20:
 195 00aa 13F0010F 		tst	r3, #1
 196 00ae A4B2     		uxth	r4, r4
 197 00b0 01D1     		bne	.L12
 198              		.loc 1 77 0 is_stmt 0 discriminator 1
 199 00b2 002C     		cmp	r4, #0
 200 00b4 E5D1     		bne	.L8
 201              	.L12:
 202              		.loc 1 86 0 is_stmt 1
 203 00b6 0020     		movs	r0, #0
 204 00b8 03B0     		add	sp, sp, #12
 205              		.cfi_def_cfa_offset 12
 206              		@ sp needed
 207 00ba 30BD     		pop	{r4, r5, pc}
 208              	.L16:
 209              		.align	2
 210              	.L15:
 211 00bc 00000000 		.word	SD2
 212 00c0 00000000 		.word	.LANCHOR0
 213 00c4 00800340 		.word	1073971200
 214 00c8 FF760100 		.word	95999
 215 00cc 006CDC02 		.word	48000000
 216 00d0 00000000 		.word	.LANCHOR1
 217 00d4 00000000 		.word	Thread1
 218 00d8 00000000 		.word	.LC0
 219              		.cfi_endproc
 220              	.LFE37:
 221              		.size	main, .-main
 222              		.global	pinPCK
 223              		.section	.bss.waThread1,"aw",%nobits
 224              		.align	3
 225              		.set	.LANCHOR1,. + 0
 226              		.type	waThread1, %object
 227              		.size	waThread1, 304
 228              	waThread1:
ARM GAS  /tmp/ccp5l5Du.s 			page 5


 229 0000 00000000 		.space	304
 229      00000000 
 229      00000000 
 229      00000000 
 229      00000000 
 230              		.section	.rodata.pinPCK,"a",%progbits
 231              		.align	2
 232              		.set	.LANCHOR0,. + 0
 233              		.type	pinPCK, %object
 234              		.size	pinPCK, 12
 235              	pinPCK:
 236 0000 00000080 		.word	-2147483648
 237 0004 000E0E40 		.word	1074662912
 238 0008 0B       		.byte	11
 239 0009 01       		.byte	1
 240 000a 00       		.byte	0
 241 000b 00       		.space	1
 242              		.section	.rodata.str1.4,"aMS",%progbits,1
 243              		.align	2
 244              	.LC0:
 245 0000 2564200D 		.ascii	"%d \015\012\000"
 245      0A00
 246              		.text
 247              	.Letext0:
 248              		.file 2 "/opt/gcc-arm-none-eabi-4_9-2015q3/lib/gcc/arm-none-eabi/4.9.3/include/stddef.h"
 249              		.file 3 "/opt/gcc-arm-none-eabi-4_9-2015q3/arm-none-eabi/include/machine/_default_types.h"
 250              		.file 4 "/opt/gcc-arm-none-eabi-4_9-2015q3/arm-none-eabi/include/sys/_stdint.h"
 251              		.file 5 "/opt/gcc-arm-none-eabi-4_9-2015q3/arm-none-eabi/include/stdint.h"
 252              		.file 6 "/home/nicolas/Desktop/Embebidos/stamp_repo/files/code/ext/ChibiOS/os/ports/GCC/ARMCMx/cht
 253              		.file 7 "/home/nicolas/Desktop/Embebidos/stamp_repo/files/code/ext/ChibiOS/os/kernel/include/chlis
 254              		.file 8 "/home/nicolas/Desktop/Embebidos/stamp_repo/files/code/ext/ChibiOS/os/kernel/include/chthr
 255              		.file 9 "/home/nicolas/Desktop/Embebidos/stamp_repo/files/code/ext/ChibiOS/os/ports/GCC/ARMCMx/chc
 256              		.file 10 "/home/nicolas/Desktop/Embebidos/stamp_repo/files/code/ext/ChibiOS/os/kernel/include/chmt
 257              		.file 11 "/home/nicolas/Desktop/Embebidos/stamp_repo/files/code/ext/ChibiOS/os/kernel/include/chev
 258              		.file 12 "/home/nicolas/Desktop/Embebidos/stamp_repo/files/code/ext/ChibiOS/os/kernel/include/chqu
 259              		.file 13 "/home/nicolas/Desktop/Embebidos/stamp_repo/files/code/ext/ChibiOS/os/kernel/include/chio
 260              		.file 14 "/home/nicolas/Desktop/Embebidos/stamp_repo/files/code/ext/ChibiOS/os/hal/platforms/AT91S
 261              		.file 15 "/home/nicolas/Desktop/Embebidos/stamp_repo/files/code/ext/ChibiOS/os/hal/platforms/AT91S
 262              		.file 16 "/home/nicolas/Desktop/Embebidos/stamp_repo/files/code/ext/ChibiOS/os/hal/include/serial.
 263              		.file 17 "/home/nicolas/Desktop/Embebidos/stamp_repo/files/code/ext/ChibiOS/os/hal/platforms/AT91S
 264              		.file 18 "/home/nicolas/Desktop/Embebidos/stamp_repo/files/code/ext/ChibiOS/os/hal/platforms/AT91S
 265              		.file 19 "/home/nicolas/Desktop/Embebidos/stamp_repo/files/code/ext/ChibiOS/os/hal/platforms/AT91S
 266              		.file 20 "/home/nicolas/Desktop/Embebidos/stamp_repo/files/code/ext/ChibiOS/os/hal/include/hal.h"
 267              		.file 21 "/home/nicolas/Desktop/Embebidos/stamp_repo/files/code/ext/ChibiOS/os/kernel/include/chsy
 268              		.file 22 "/home/nicolas/Desktop/Embebidos/stamp_repo/files/code/ext/ChibiOS/os/hal/platforms/AT91S
 269              		.file 23 "/home/nicolas/Desktop/Embebidos/stamp_repo/files/code/ext/ChibiOS/os/hal/platforms/AT91S
 270              		.file 24 "/home/nicolas/Desktop/Embebidos/stamp_repo/files/code/ext/ChibiOS/os/various/chprintf.h"