ARM GAS  /tmp/ccp5l5Du.s 			page 1


   1              		.syntax unified
   2              		.cpu cortex-m3
   3              		.fpu softvfp
   4              		.eabi_attribute 20, 1
   5              		.eabi_attribute 21, 1
   6              		.eabi_attribute 23, 3
   7              		.eabi_attribute 24, 1
   8              		.eabi_attribute 25, 1
   9              		.eabi_attribute 26, 1
  10              		.eabi_attribute 30, 2
  11              		.eabi_attribute 34, 1
  12              		.eabi_attribute 18, 4
  13              		.thumb
  14              		.file	"main.c"
  15              		.text
  16              	.Ltext0:
  17              		.cfi_sections	.debug_frame
  18              		.section	.text.Thread1,"ax",%progbits
  19              		.align	2
  20              		.p2align 4,,15
  21              		.thumb
  22              		.thumb_func
  23              		.type	Thread1, %function
  24              	Thread1:
  25              	.LFB36:
  26              		.file 1 "main.c"
  27              		.loc 1 18 0
  28              		.cfi_startproc
  29              		@ Volatile: function does not return.
  30              		@ args = 0, pretend = 0, frame = 0
  31              		@ frame_needed = 0, uses_anonymous_args = 0
  32              	.LVL0:
  33              		.loc 1 21 0
  34 0000 4FF40035 		mov	r5, #131072
  35 0004 2E46     		mov	r6, r5
  36              		.loc 1 18 0
  37 0006 08B5     		push	{r3, lr}
  38              		.cfi_def_cfa_offset 8
  39              		.cfi_offset 3, -8
  40              		.cfi_offset 14, -4
  41              		.loc 1 21 0
  42 0008 044C     		ldr	r4, .L5
  43              	.LVL1:
  44              	.L2:
  45              		.loc 1 21 0 is_stmt 0 discriminator 1
  46 000a 6663     		str	r6, [r4, #52]
  47              		.loc 1 22 0 is_stmt 1 discriminator 1
  48 000c 3220     		movs	r0, #50
  49 000e FFF7FEFF 		bl	chThdSleep
  50              	.LVL2:
  51              		.loc 1 23 0 discriminator 1
  52 0012 2563     		str	r5, [r4, #48]
  53              		.loc 1 24 0 discriminator 1
  54 0014 3220     		movs	r0, #50
  55 0016 FFF7FEFF 		bl	chThdSleep
  56              	.LVL3:
  57              		.loc 1 25 0 discriminator 1
ARM GAS  /tmp/ccp5l5Du.s 			page 2


  58 001a F6E7     		b	.L2
  59              	.L6:
  60              		.align	2
  61              	.L5:
  62 001c 00120E40 		.word	1074663936
  63              		.cfi_endproc
  64              	.LFE36:
  65              		.size	Thread1, .-Thread1
  66              		.section	.text.startup.main,"ax",%progbits
  67              		.align	2
  68              		.p2align 4,,15
  69              		.global	main
  70              		.thumb
  71              		.thumb_func
  72              		.type	main, %function
  73              	main:
  74              	.LFB37:
  75              		.loc 1 35 0
  76              		.cfi_startproc
  77              		@ args = 0, pretend = 0, frame = 0
  78              		@ frame_needed = 0, uses_anonymous_args = 0
  79              	.LVL4:
  80 0000 30B5     		push	{r4, r5, lr}
  81              		.cfi_def_cfa_offset 12
  82              		.cfi_offset 4, -12
  83              		.cfi_offset 5, -8
  84              		.cfi_offset 14, -4
  85 0002 83B0     		sub	sp, sp, #12
  86              		.cfi_def_cfa_offset 24
  87              		.loc 1 41 0
  88 0004 FFF7FEFF 		bl	halInit
  89              	.LVL5:
  90              		.loc 1 42 0
  91 0008 FFF7FEFF 		bl	chSysInit
  92              	.LVL6:
  93              		.loc 1 43 0
  94 000c 2B48     		ldr	r0, .L15
  95 000e 0021     		movs	r1, #0
  96 0010 FFF7FEFF 		bl	sdStart
  97              	.LVL7:
  98              		.loc 1 48 0
  99 0014 0121     		movs	r1, #1
 100 0016 2A48     		ldr	r0, .L15+4
 101 0018 FFF7FEFF 		bl	PIO_Configure
 102              	.LVL8:
 103              		.loc 1 49 0
 104 001c 0322     		movs	r2, #3
 105 001e 0020     		movs	r0, #0
 106 0020 1F21     		movs	r1, #31
 107 0022 FFF7FEFF 		bl	PmcConfigurePllClock
 108              	.LVL9:
 109              		.loc 1 51 0
 110 0026 0120     		movs	r0, #1
 111 0028 1021     		movs	r1, #16
 112              		.loc 1 57 0
 113 002a 264D     		ldr	r5, .L15+8
 114              		.loc 1 51 0
ARM GAS  /tmp/ccp5l5Du.s 			page 3


 115 002c FFF7FEFF 		bl	PmcMasterClockSelection
 116              	.LVL10:
 117              		.loc 1 53 0
 118 0030 0220     		movs	r0, #2
 119 0032 1021     		movs	r1, #16
 120 0034 FFF7FEFF 		bl	PmcMasterClockSelection
 121              	.LVL11:
 122              		.loc 1 54 0
 123 0038 1021     		movs	r1, #16
 124 003a 0220     		movs	r0, #2
 125 003c FFF7FEFF 		bl	ConfigurePck
 126              	.LVL12:
 127              		.loc 1 57 0
 128 0040 2846     		mov	r0, r5
 129 0042 FFF7FEFF 		bl	ADC_Initialize
 130              	.LVL13:
 131              		.loc 1 63 0
 132 0046 204A     		ldr	r2, .L15+12
 133 0048 2846     		mov	r0, r5
 134 004a 0F21     		movs	r1, #15
 135 004c FFF7FEFF 		bl	ADC_cfgFrequency
 136              	.LVL14:
 137              		.loc 1 67 0
 138 0050 2846     		mov	r0, r5
 139 0052 1E49     		ldr	r1, .L15+16
 140 0054 FFF7FEFF 		bl	ADC_check
 141              	.LVL15:
 142              		.loc 1 69 0
 143 0058 3323     		movs	r3, #51
 144 005a 2B61     		str	r3, [r5, #16]
 145              		.loc 1 70 0
 146 005c 6B68     		ldr	r3, [r5, #4]
 147              		.loc 1 71 0
 148 005e 0221     		movs	r1, #2
 149              		.loc 1 70 0
 150 0060 43F08003 		orr	r3, r3, #128
 151              		.loc 1 74 0
 152 0064 0022     		movs	r2, #0
 153              		.loc 1 70 0
 154 0066 6B60     		str	r3, [r5, #4]
 155              		.loc 1 74 0
 156 0068 1948     		ldr	r0, .L15+20
 157              		.loc 1 71 0
 158 006a 2960     		str	r1, [r5]
 159              		.loc 1 74 0
 160 006c 194B     		ldr	r3, .L15+24
 161 006e 0092     		str	r2, [sp]
 162 0070 4FF49871 		mov	r1, #304
 163 0074 4022     		movs	r2, #64
 164 0076 FFF7FEFF 		bl	chThdCreateStatic
 165              	.LVL16:
 166              		.loc 1 77 0
 167 007a 2B6B     		ldr	r3, [r5, #48]
 168 007c DB07     		lsls	r3, r3, #31
 169 007e 1AD4     		bmi	.L12
 170 0080 0A24     		movs	r4, #10
 171              	.LVL17:
ARM GAS  /tmp/ccp5l5Du.s 			page 4


 172              	.L8:
 173              		.loc 1 78 0
 174 0082 4FF4FA70 		mov	r0, #500
 175 0086 FFF7FEFF 		bl	chThdSleep
 176              	.LVL18:
 177              		.loc 1 81 0
 178 008a 40F6E443 		movw	r3, #3300
 179              		.loc 1 80 0
 180 008e 2A6D     		ldr	r2, [r5, #80]
 181              		.loc 1 81 0
 182 0090 0A48     		ldr	r0, .L15
 183 0092 03FB02F2 		mul	r2, r3, r2
 184 0096 002A     		cmp	r2, #0
 185 0098 B8BF     		it	lt
 186 009a 02F6FF72 		addwlt	r2, r2, #4095
 187 009e 0E49     		ldr	r1, .L15+28
 188 00a0 1213     		asrs	r2, r2, #12
 189 00a2 FFF7FEFF 		bl	chprintf
 190              	.LVL19:
 191              		.loc 1 77 0
 192 00a6 2B6B     		ldr	r3, [r5, #48]
 193 00a8 013C     		subs	r4, r4, #1
 194              	.LVL20:
 195 00aa 13F0010F 		tst	r3, #1
 196 00ae A4B2     		uxth	r4, r4
 197 00b0 01D1     		bne	.L12
 198              		.loc 1 77 0 is_stmt 0 discriminator 1
 199 00b2 002C     		cmp	r4, #0
 200 00b4 E5D1     		bne	.L8
 201              	.L12:
 202              		.loc 1 86 0 is_stmt 1
 203 00b6 0020     		movs	r0, #0
 204 00b8 03B0     		add	sp, sp, #12
 205              		.cfi_def_cfa_offset 12
 206              		@ sp needed
 207 00ba 30BD     		pop	{r4, r5, pc}
 208              	.L16:
 209              		.align	2
 210              	.L15:
 211 00bc 00000000 		.word	SD2
 212 00c0 00000000 		.word	.LANCHOR0
 213 00c4 00800340 		.word	1073971200
 214 00c8 FF760100 		.word	95999
 215 00cc 006CDC02 		.word	48000000
 216 00d0 00000000 		.word	.LANCHOR1
 217 00d4 00000000 		.word	Thread1
 218 00d8 00000000 		.word	.LC0
 219              		.cfi_endproc
 220              	.LFE37:
 221              		.size	main, .-main
 222              		.global	pinPCK
 223              		.section	.bss.waThread1,"aw",%nobits
 224              		.align	3
 225              		.set	.LANCHOR1,. + 0
 226              		.type	waThread1, %object
 227              		.size	waThread1, 304
 228              	waThread1:
ARM GAS  /tmp/ccp5l5Du.s 			page 5


 229 0000 00000000 		.space	304
 229      00000000 
 229      00000000 
 229      00000000 
 229      00000000 
 230              		.section	.rodata.pinPCK,"a",%progbits
 231              		.align	2
 232              		.set	.LANCHOR0,. + 0
 233              		.type	pinPCK, %object
 234              		.size	pinPCK, 12
 235              	pinPCK:
 236 0000 00000080 		.word	-2147483648
 237 0004 000E0E40 		.word	1074662912
 238 0008 0B       		.byte	11
 239 0009 01       		.byte	1
 240 000a 00       		.byte	0
 241 000b 00       		.space	1
 242              		.section	.rodata.str1.4,"aMS",%progbits,1
 243              		.align	2
 244              	.LC0:
 245 0000 2564200D 		.ascii	"%d \015\012\000"
 245      0A00
 246              		.text
 247              	.Letext0:
 248              		.file 2 "/opt/gcc-arm-none-eabi-4_9-2015q3/lib/gcc/arm-none-eabi/4.9.3/include/stddef.h"
 249              		.file 3 "/opt/gcc-arm-none-eabi-4_9-2015q3/arm-none-eabi/include/machine/_default_types.h"
 250              		.file 4 "/opt/gcc-arm-none-eabi-4_9-2015q3/arm-none-eabi/include/sys/_stdint.h"
 251              		.file 5 "/opt/gcc-arm-none-eabi-4_9-2015q3/arm-none-eabi/include/stdint.h"
 252              		.file 6 "/home/nicolas/Desktop/Embebidos/stamp_repo/files/code/ext/ChibiOS/os/ports/GCC/ARMCMx/cht
 253              		.file 7 "/home/nicolas/Desktop/Embebidos/stamp_repo/files/code/ext/ChibiOS/os/kernel/include/chlis
 254              		.file 8 "/home/nicolas/Desktop/Embebidos/stamp_repo/files/code/ext/ChibiOS/os/kernel/include/chthr
 255              		.file 9 "/home/nicolas/Desktop/Embebidos/stamp_repo/files/code/ext/ChibiOS/os/ports/GCC/ARMCMx/chc
 256              		.file 10 "/home/nicolas/Desktop/Embebidos/stamp_repo/files/code/ext/ChibiOS/os/kernel/include/chmt
 257              		.file 11 "/home/nicolas/Desktop/Embebidos/stamp_repo/files/code/ext/ChibiOS/os/kernel/include/chev
 258              		.file 12 "/home/nicolas/Desktop/Embebidos/stamp_repo/files/code/ext/ChibiOS/os/kernel/include/chqu
 259              		.file 13 "/home/nicolas/Desktop/Embebidos/stamp_repo/files/code/ext/ChibiOS/os/kernel/include/chio
 260              		.file 14 "/home/nicolas/Desktop/Embebidos/stamp_repo/files/code/ext/ChibiOS/os/hal/platforms/AT91S
 261              		.file 15 "/home/nicolas/Desktop/Embebidos/stamp_repo/files/code/ext/ChibiOS/os/hal/platforms/AT91S
 262              		.file 16 "/home/nicolas/Desktop/Embebidos/stamp_repo/files/code/ext/ChibiOS/os/hal/include/serial.
 263              		.file 17 "/home/nicolas/Desktop/Embebidos/stamp_repo/files/code/ext/ChibiOS/os/hal/platforms/AT91S
 264              		.file 18 "/home/nicolas/Desktop/Embebidos/stamp_repo/files/code/ext/ChibiOS/os/hal/platforms/AT91S
 265              		.file 19 "/home/nicolas/Desktop/Embebidos/stamp_repo/files/code/ext/ChibiOS/os/hal/platforms/AT91S
 266              		.file 20 "/home/nicolas/Desktop/Embebidos/stamp_repo/files/code/ext/ChibiOS/os/hal/include/hal.h"
 267              		.file 21 "/home/nicolas/Desktop/Embebidos/stamp_repo/files/code/ext/ChibiOS/os/kernel/include/chsy
 268              		.file 22 "/home/nicolas/Desktop/Embebidos/stamp_repo/files/code/ext/ChibiOS/os/hal/platforms/AT91S
 269              		.file 23 "/home/nicolas/Desktop/Embebidos/stamp_repo/files/code/ext/ChibiOS/os/hal/platforms/AT91S
 270              		.file 24 "/home/nicolas/Desktop/Embebidos/stamp_repo/files/code/ext/ChibiOS/os/various/chprintf.h"
 271              		.section	.debug_info,"",%progbits
 272              	.Ldebug_info0:
 273 0000 F0130000 		.4byte	0x13f0
 274 0004 0400     		.2byte	0x4
 275 0006 00000000 		.4byte	.Ldebug_abbrev0
 276 000a 04       		.byte	0x4
 277 000b 01       		.uleb128 0x1
 278 000c F1030000 		.4byte	.LASF256
 279 0010 01       		.byte	0x1
 280 0011 DF050000 		.4byte	.LASF257
ARM GAS  /tmp/ccp5l5Du.s 			page 6


 281 0015 F4020000 		.4byte	.LASF258
 282 0019 00000000 		.4byte	.Ldebug_ranges0+0
 283 001d 00000000 		.4byte	0
 284 0021 00000000 		.4byte	.Ldebug_line0
 285 0025 02       		.uleb128 0x2
 286 0026 04       		.byte	0x4
 287 0027 05       		.byte	0x5
 288 0028 696E7400 		.ascii	"int\000"
 289 002c 03       		.uleb128 0x3
 290 002d 0B000000 		.4byte	.LASF2
 291 0031 02       		.byte	0x2
 292 0032 D4       		.byte	0xd4
 293 0033 37000000 		.4byte	0x37
 294 0037 04       		.uleb128 0x4
 295 0038 04       		.byte	0x4
 296 0039 07       		.byte	0x7
 297 003a 5E060000 		.4byte	.LASF0
 298 003e 04       		.uleb128 0x4
 299 003f 01       		.byte	0x1
 300 0040 06       		.byte	0x6
 301 0041 FE010000 		.4byte	.LASF1
 302 0045 03       		.uleb128 0x3
 303 0046 13010000 		.4byte	.LASF3
 304 004a 03       		.byte	0x3
 305 004b 1D       		.byte	0x1d
 306 004c 50000000 		.4byte	0x50
 307 0050 04       		.uleb128 0x4
 308 0051 01       		.byte	0x1
 309 0052 08       		.byte	0x8
 310 0053 41020000 		.4byte	.LASF4
 311 0057 04       		.uleb128 0x4
 312 0058 02       		.byte	0x2
 313 0059 05       		.byte	0x5
 314 005a B1080000 		.4byte	.LASF5
 315 005e 04       		.uleb128 0x4
 316 005f 02       		.byte	0x2
 317 0060 07       		.byte	0x7
 318 0061 9E090000 		.4byte	.LASF6
 319 0065 03       		.uleb128 0x3
 320 0066 EE090000 		.4byte	.LASF7
 321 006a 03       		.byte	0x3
 322 006b 3F       		.byte	0x3f
 323 006c 70000000 		.4byte	0x70
 324 0070 04       		.uleb128 0x4
 325 0071 04       		.byte	0x4
 326 0072 05       		.byte	0x5
 327 0073 7C010000 		.4byte	.LASF8
 328 0077 03       		.uleb128 0x3
 329 0078 82050000 		.4byte	.LASF9
 330 007c 03       		.byte	0x3
 331 007d 41       		.byte	0x41
 332 007e 82000000 		.4byte	0x82
 333 0082 04       		.uleb128 0x4
 334 0083 04       		.byte	0x4
 335 0084 07       		.byte	0x7
 336 0085 26050000 		.4byte	.LASF10
 337 0089 04       		.uleb128 0x4
ARM GAS  /tmp/ccp5l5Du.s 			page 7


 338 008a 08       		.byte	0x8
 339 008b 05       		.byte	0x5
 340 008c A3050000 		.4byte	.LASF11
 341 0090 03       		.uleb128 0x3
 342 0091 12050000 		.4byte	.LASF12
 343 0095 03       		.byte	0x3
 344 0096 5B       		.byte	0x5b
 345 0097 9B000000 		.4byte	0x9b
 346 009b 04       		.uleb128 0x4
 347 009c 08       		.byte	0x8
 348 009d 07       		.byte	0x7
 349 009e 5D070000 		.4byte	.LASF13
 350 00a2 03       		.uleb128 0x3
 351 00a3 11020000 		.4byte	.LASF14
 352 00a7 04       		.byte	0x4
 353 00a8 14       		.byte	0x14
 354 00a9 45000000 		.4byte	0x45
 355 00ad 03       		.uleb128 0x3
 356 00ae 4C000000 		.4byte	.LASF15
 357 00b2 04       		.byte	0x4
 358 00b3 1F       		.byte	0x1f
 359 00b4 65000000 		.4byte	0x65
 360 00b8 03       		.uleb128 0x3
 361 00b9 57090000 		.4byte	.LASF16
 362 00bd 04       		.byte	0x4
 363 00be 20       		.byte	0x20
 364 00bf 77000000 		.4byte	0x77
 365 00c3 03       		.uleb128 0x3
 366 00c4 BB080000 		.4byte	.LASF17
 367 00c8 04       		.byte	0x4
 368 00c9 26       		.byte	0x26
 369 00ca 90000000 		.4byte	0x90
 370 00ce 03       		.uleb128 0x3
 371 00cf 75090000 		.4byte	.LASF18
 372 00d3 05       		.byte	0x5
 373 00d4 3E       		.byte	0x3e
 374 00d5 37000000 		.4byte	0x37
 375 00d9 03       		.uleb128 0x3
 376 00da E7080000 		.4byte	.LASF19
 377 00de 06       		.byte	0x6
 378 00df 2E       		.byte	0x2e
 379 00e0 AD000000 		.4byte	0xad
 380 00e4 03       		.uleb128 0x3
 381 00e5 4A080000 		.4byte	.LASF20
 382 00e9 06       		.byte	0x6
 383 00ea 2F       		.byte	0x2f
 384 00eb A2000000 		.4byte	0xa2
 385 00ef 03       		.uleb128 0x3
 386 00f0 B5010000 		.4byte	.LASF21
 387 00f4 06       		.byte	0x6
 388 00f5 30       		.byte	0x30
 389 00f6 A2000000 		.4byte	0xa2
 390 00fa 03       		.uleb128 0x3
 391 00fb 2E090000 		.4byte	.LASF22
 392 00ff 06       		.byte	0x6
 393 0100 31       		.byte	0x31
 394 0101 A2000000 		.4byte	0xa2
ARM GAS  /tmp/ccp5l5Du.s 			page 8


 395 0105 03       		.uleb128 0x3
 396 0106 39000000 		.4byte	.LASF23
 397 010a 06       		.byte	0x6
 398 010b 32       		.byte	0x32
 399 010c B8000000 		.4byte	0xb8
 400 0110 03       		.uleb128 0x3
 401 0111 96070000 		.4byte	.LASF24
 402 0115 06       		.byte	0x6
 403 0116 33       		.byte	0x33
 404 0117 AD000000 		.4byte	0xad
 405 011b 03       		.uleb128 0x3
 406 011c 19020000 		.4byte	.LASF25
 407 0120 06       		.byte	0x6
 408 0121 35       		.byte	0x35
 409 0122 B8000000 		.4byte	0xb8
 410 0126 03       		.uleb128 0x3
 411 0127 29000000 		.4byte	.LASF26
 412 012b 06       		.byte	0x6
 413 012c 36       		.byte	0x36
 414 012d B8000000 		.4byte	0xb8
 415 0131 03       		.uleb128 0x3
 416 0132 FD080000 		.4byte	.LASF27
 417 0136 07       		.byte	0x7
 418 0137 2A       		.byte	0x2a
 419 0138 3C010000 		.4byte	0x13c
 420 013c 05       		.uleb128 0x5
 421 013d FD080000 		.4byte	.LASF27
 422 0141 48       		.byte	0x48
 423 0142 08       		.byte	0x8
 424 0143 5E       		.byte	0x5e
 425 0144 2D020000 		.4byte	0x22d
 426 0148 06       		.uleb128 0x6
 427 0149 85010000 		.4byte	.LASF28
 428 014d 08       		.byte	0x8
 429 014e 5F       		.byte	0x5f
 430 014f 4E020000 		.4byte	0x24e
 431 0153 00       		.byte	0
 432 0154 06       		.uleb128 0x6
 433 0155 94010000 		.4byte	.LASF29
 434 0159 08       		.byte	0x8
 435 015a 61       		.byte	0x61
 436 015b 4E020000 		.4byte	0x24e
 437 015f 04       		.byte	0x4
 438 0160 06       		.uleb128 0x6
 439 0161 D0020000 		.4byte	.LASF30
 440 0165 08       		.byte	0x8
 441 0166 63       		.byte	0x63
 442 0167 05010000 		.4byte	0x105
 443 016b 08       		.byte	0x8
 444 016c 06       		.uleb128 0x6
 445 016d 33000000 		.4byte	.LASF31
 446 0171 08       		.byte	0x8
 447 0172 64       		.byte	0x64
 448 0173 12030000 		.4byte	0x312
 449 0177 0C       		.byte	0xc
 450 0178 06       		.uleb128 0x6
 451 0179 74010000 		.4byte	.LASF32
ARM GAS  /tmp/ccp5l5Du.s 			page 9


 452 017d 08       		.byte	0x8
 453 017e 66       		.byte	0x66
 454 017f 4E020000 		.4byte	0x24e
 455 0183 10       		.byte	0x10
 456 0184 06       		.uleb128 0x6
 457 0185 74070000 		.4byte	.LASF33
 458 0189 08       		.byte	0x8
 459 018a 67       		.byte	0x67
 460 018b 4E020000 		.4byte	0x24e
 461 018f 14       		.byte	0x14
 462 0190 06       		.uleb128 0x6
 463 0191 2E0A0000 		.4byte	.LASF34
 464 0195 08       		.byte	0x8
 465 0196 6E       		.byte	0x6e
 466 0197 21040000 		.4byte	0x421
 467 019b 18       		.byte	0x18
 468 019c 06       		.uleb128 0x6
 469 019d 9A0A0000 		.4byte	.LASF35
 470 01a1 08       		.byte	0x8
 471 01a2 79       		.byte	0x79
 472 01a3 EF000000 		.4byte	0xef
 473 01a7 1C       		.byte	0x1c
 474 01a8 06       		.uleb128 0x6
 475 01a9 49060000 		.4byte	.LASF36
 476 01ad 08       		.byte	0x8
 477 01ae 7D       		.byte	0x7d
 478 01af E4000000 		.4byte	0xe4
 479 01b3 1D       		.byte	0x1d
 480 01b4 06       		.uleb128 0x6
 481 01b5 73060000 		.4byte	.LASF37
 482 01b9 08       		.byte	0x8
 483 01ba 82       		.byte	0x82
 484 01bb FA000000 		.4byte	0xfa
 485 01bf 1E       		.byte	0x1e
 486 01c0 06       		.uleb128 0x6
 487 01c1 C4060000 		.4byte	.LASF38
 488 01c5 08       		.byte	0x8
 489 01c6 89       		.byte	0x89
 490 01c7 3F030000 		.4byte	0x33f
 491 01cb 20       		.byte	0x20
 492 01cc 07       		.uleb128 0x7
 493 01cd 705F7500 		.ascii	"p_u\000"
 494 01d1 08       		.byte	0x8
 495 01d2 AE       		.byte	0xae
 496 01d3 EC030000 		.4byte	0x3ec
 497 01d7 24       		.byte	0x24
 498 01d8 06       		.uleb128 0x6
 499 01d9 39060000 		.4byte	.LASF39
 500 01dd 08       		.byte	0x8
 501 01de B3       		.byte	0xb3
 502 01df 74020000 		.4byte	0x274
 503 01e3 28       		.byte	0x28
 504 01e4 06       		.uleb128 0x6
 505 01e5 41000000 		.4byte	.LASF40
 506 01e9 08       		.byte	0x8
 507 01ea B9       		.byte	0xb9
 508 01eb 54020000 		.4byte	0x254
ARM GAS  /tmp/ccp5l5Du.s 			page 10


 509 01ef 2C       		.byte	0x2c
 510 01f0 06       		.uleb128 0x6
 511 01f1 750A0000 		.4byte	.LASF41
 512 01f5 08       		.byte	0x8
 513 01f6 BD       		.byte	0xbd
 514 01f7 10010000 		.4byte	0x110
 515 01fb 34       		.byte	0x34
 516 01fc 06       		.uleb128 0x6
 517 01fd E6030000 		.4byte	.LASF42
 518 0201 08       		.byte	0x8
 519 0202 C3       		.byte	0xc3
 520 0203 1B010000 		.4byte	0x11b
 521 0207 38       		.byte	0x38
 522 0208 06       		.uleb128 0x6
 523 0209 C3010000 		.4byte	.LASF43
 524 020d 08       		.byte	0x8
 525 020e CA       		.byte	0xca
 526 020f 33040000 		.4byte	0x433
 527 0213 3C       		.byte	0x3c
 528 0214 06       		.uleb128 0x6
 529 0215 E8060000 		.4byte	.LASF44
 530 0219 08       		.byte	0x8
 531 021a CE       		.byte	0xce
 532 021b 05010000 		.4byte	0x105
 533 021f 40       		.byte	0x40
 534 0220 06       		.uleb128 0x6
 535 0221 6B060000 		.4byte	.LASF45
 536 0225 08       		.byte	0x8
 537 0226 D4       		.byte	0xd4
 538 0227 8A020000 		.4byte	0x28a
 539 022b 44       		.byte	0x44
 540 022c 00       		.byte	0
 541 022d 08       		.uleb128 0x8
 542 022e 08       		.byte	0x8
 543 022f 07       		.byte	0x7
 544 0230 61       		.byte	0x61
 545 0231 4E020000 		.4byte	0x24e
 546 0235 06       		.uleb128 0x6
 547 0236 85010000 		.4byte	.LASF28
 548 023a 07       		.byte	0x7
 549 023b 62       		.byte	0x62
 550 023c 4E020000 		.4byte	0x24e
 551 0240 00       		.byte	0
 552 0241 06       		.uleb128 0x6
 553 0242 94010000 		.4byte	.LASF29
 554 0246 07       		.byte	0x7
 555 0247 64       		.byte	0x64
 556 0248 4E020000 		.4byte	0x24e
 557 024c 04       		.byte	0x4
 558 024d 00       		.byte	0
 559 024e 09       		.uleb128 0x9
 560 024f 04       		.byte	0x4
 561 0250 31010000 		.4byte	0x131
 562 0254 03       		.uleb128 0x3
 563 0255 68090000 		.4byte	.LASF46
 564 0259 07       		.byte	0x7
 565 025a 66       		.byte	0x66
ARM GAS  /tmp/ccp5l5Du.s 			page 11


 566 025b 2D020000 		.4byte	0x22d
 567 025f 08       		.uleb128 0x8
 568 0260 04       		.byte	0x4
 569 0261 07       		.byte	0x7
 570 0262 6B       		.byte	0x6b
 571 0263 74020000 		.4byte	0x274
 572 0267 06       		.uleb128 0x6
 573 0268 85010000 		.4byte	.LASF28
 574 026c 07       		.byte	0x7
 575 026d 6D       		.byte	0x6d
 576 026e 4E020000 		.4byte	0x24e
 577 0272 00       		.byte	0
 578 0273 00       		.byte	0
 579 0274 03       		.uleb128 0x3
 580 0275 A7060000 		.4byte	.LASF47
 581 0279 07       		.byte	0x7
 582 027a 70       		.byte	0x70
 583 027b 5F020000 		.4byte	0x25f
 584 027f 03       		.uleb128 0x3
 585 0280 D4010000 		.4byte	.LASF48
 586 0284 09       		.byte	0x9
 587 0285 D7       		.byte	0xd7
 588 0286 8A020000 		.4byte	0x28a
 589 028a 0A       		.uleb128 0xa
 590 028b 04       		.byte	0x4
 591 028c 03       		.uleb128 0x3
 592 028d 4F030000 		.4byte	.LASF49
 593 0291 09       		.byte	0x9
 594 0292 DD       		.byte	0xdd
 595 0293 C3000000 		.4byte	0xc3
 596 0297 05       		.uleb128 0x5
 597 0298 DF030000 		.4byte	.LASF50
 598 029c 24       		.byte	0x24
 599 029d 09       		.byte	0x9
 600 029e FE       		.byte	0xfe
 601 029f 12030000 		.4byte	0x312
 602 02a3 0B       		.uleb128 0xb
 603 02a4 723400   		.ascii	"r4\000"
 604 02a7 09       		.byte	0x9
 605 02a8 1101     		.2byte	0x111
 606 02aa 7F020000 		.4byte	0x27f
 607 02ae 00       		.byte	0
 608 02af 0B       		.uleb128 0xb
 609 02b0 723500   		.ascii	"r5\000"
 610 02b3 09       		.byte	0x9
 611 02b4 1201     		.2byte	0x112
 612 02b6 7F020000 		.4byte	0x27f
 613 02ba 04       		.byte	0x4
 614 02bb 0B       		.uleb128 0xb
 615 02bc 723600   		.ascii	"r6\000"
 616 02bf 09       		.byte	0x9
 617 02c0 1301     		.2byte	0x113
 618 02c2 7F020000 		.4byte	0x27f
 619 02c6 08       		.byte	0x8
 620 02c7 0B       		.uleb128 0xb
 621 02c8 723700   		.ascii	"r7\000"
 622 02cb 09       		.byte	0x9
ARM GAS  /tmp/ccp5l5Du.s 			page 12


 623 02cc 1401     		.2byte	0x114
 624 02ce 7F020000 		.4byte	0x27f
 625 02d2 0C       		.byte	0xc
 626 02d3 0B       		.uleb128 0xb
 627 02d4 723800   		.ascii	"r8\000"
 628 02d7 09       		.byte	0x9
 629 02d8 1501     		.2byte	0x115
 630 02da 7F020000 		.4byte	0x27f
 631 02de 10       		.byte	0x10
 632 02df 0B       		.uleb128 0xb
 633 02e0 723900   		.ascii	"r9\000"
 634 02e3 09       		.byte	0x9
 635 02e4 1601     		.2byte	0x116
 636 02e6 7F020000 		.4byte	0x27f
 637 02ea 14       		.byte	0x14
 638 02eb 0B       		.uleb128 0xb
 639 02ec 72313000 		.ascii	"r10\000"
 640 02f0 09       		.byte	0x9
 641 02f1 1701     		.2byte	0x117
 642 02f3 7F020000 		.4byte	0x27f
 643 02f7 18       		.byte	0x18
 644 02f8 0B       		.uleb128 0xb
 645 02f9 72313100 		.ascii	"r11\000"
 646 02fd 09       		.byte	0x9
 647 02fe 1801     		.2byte	0x118
 648 0300 7F020000 		.4byte	0x27f
 649 0304 1C       		.byte	0x1c
 650 0305 0B       		.uleb128 0xb
 651 0306 6C7200   		.ascii	"lr\000"
 652 0309 09       		.byte	0x9
 653 030a 1901     		.2byte	0x119
 654 030c 7F020000 		.4byte	0x27f
 655 0310 20       		.byte	0x20
 656 0311 00       		.byte	0
 657 0312 0C       		.uleb128 0xc
 658 0313 25020000 		.4byte	.LASF51
 659 0317 04       		.byte	0x4
 660 0318 09       		.byte	0x9
 661 0319 2301     		.2byte	0x123
 662 031b 2D030000 		.4byte	0x32d
 663 031f 0B       		.uleb128 0xb
 664 0320 72313300 		.ascii	"r13\000"
 665 0324 09       		.byte	0x9
 666 0325 2401     		.2byte	0x124
 667 0327 2D030000 		.4byte	0x32d
 668 032b 00       		.byte	0
 669 032c 00       		.byte	0
 670 032d 09       		.uleb128 0x9
 671 032e 04       		.byte	0x4
 672 032f 97020000 		.4byte	0x297
 673 0333 0D       		.uleb128 0xd
 674 0334 B8000000 		.4byte	0xb8
 675 0338 04       		.uleb128 0x4
 676 0339 04       		.byte	0x4
 677 033a 07       		.byte	0x7
 678 033b 20000000 		.4byte	.LASF52
 679 033f 0D       		.uleb128 0xd
ARM GAS  /tmp/ccp5l5Du.s 			page 13


 680 0340 26010000 		.4byte	0x126
 681 0344 05       		.uleb128 0x5
 682 0345 95050000 		.4byte	.LASF53
 683 0349 10       		.byte	0x10
 684 034a 0A       		.byte	0xa
 685 034b 2C       		.byte	0x2c
 686 034c 75030000 		.4byte	0x375
 687 0350 06       		.uleb128 0x6
 688 0351 B1050000 		.4byte	.LASF54
 689 0355 0A       		.byte	0xa
 690 0356 2D       		.byte	0x2d
 691 0357 54020000 		.4byte	0x254
 692 035b 00       		.byte	0
 693 035c 06       		.uleb128 0x6
 694 035d 02010000 		.4byte	.LASF55
 695 0361 0A       		.byte	0xa
 696 0362 2F       		.byte	0x2f
 697 0363 4E020000 		.4byte	0x24e
 698 0367 08       		.byte	0x8
 699 0368 06       		.uleb128 0x6
 700 0369 350A0000 		.4byte	.LASF56
 701 036d 0A       		.byte	0xa
 702 036e 31       		.byte	0x31
 703 036f 75030000 		.4byte	0x375
 704 0373 0C       		.byte	0xc
 705 0374 00       		.byte	0
 706 0375 09       		.uleb128 0x9
 707 0376 04       		.byte	0x4
 708 0377 44030000 		.4byte	0x344
 709 037b 03       		.uleb128 0x3
 710 037c 95050000 		.4byte	.LASF53
 711 0380 0A       		.byte	0xa
 712 0381 33       		.byte	0x33
 713 0382 44030000 		.4byte	0x344
 714 0386 03       		.uleb128 0x3
 715 0387 36090000 		.4byte	.LASF57
 716 038b 0B       		.byte	0xb
 717 038c 29       		.byte	0x29
 718 038d 91030000 		.4byte	0x391
 719 0391 05       		.uleb128 0x5
 720 0392 36090000 		.4byte	.LASF57
 721 0396 0C       		.byte	0xc
 722 0397 0B       		.byte	0xb
 723 0398 2E       		.byte	0x2e
 724 0399 C2030000 		.4byte	0x3c2
 725 039d 06       		.uleb128 0x6
 726 039e 38050000 		.4byte	.LASF58
 727 03a2 0B       		.byte	0xb
 728 03a3 2F       		.byte	0x2f
 729 03a4 C2030000 		.4byte	0x3c2
 730 03a8 00       		.byte	0
 731 03a9 06       		.uleb128 0x6
 732 03aa 7B0A0000 		.4byte	.LASF59
 733 03ae 0B       		.byte	0xb
 734 03af 32       		.byte	0x32
 735 03b0 4E020000 		.4byte	0x24e
 736 03b4 04       		.byte	0x4
ARM GAS  /tmp/ccp5l5Du.s 			page 14


 737 03b5 06       		.uleb128 0x6
 738 03b6 0F0A0000 		.4byte	.LASF60
 739 03ba 0B       		.byte	0xb
 740 03bb 34       		.byte	0x34
 741 03bc 1B010000 		.4byte	0x11b
 742 03c0 08       		.byte	0x8
 743 03c1 00       		.byte	0
 744 03c2 09       		.uleb128 0x9
 745 03c3 04       		.byte	0x4
 746 03c4 86030000 		.4byte	0x386
 747 03c8 05       		.uleb128 0x5
 748 03c9 06050000 		.4byte	.LASF61
 749 03cd 04       		.byte	0x4
 750 03ce 0B       		.byte	0xb
 751 03cf 3C       		.byte	0x3c
 752 03d0 E1030000 		.4byte	0x3e1
 753 03d4 06       		.uleb128 0x6
 754 03d5 E7040000 		.4byte	.LASF62
 755 03d9 0B       		.byte	0xb
 756 03da 3D       		.byte	0x3d
 757 03db C2030000 		.4byte	0x3c2
 758 03df 00       		.byte	0
 759 03e0 00       		.byte	0
 760 03e1 03       		.uleb128 0x3
 761 03e2 06050000 		.4byte	.LASF61
 762 03e6 0B       		.byte	0xb
 763 03e7 40       		.byte	0x40
 764 03e8 C8030000 		.4byte	0x3c8
 765 03ec 0E       		.uleb128 0xe
 766 03ed 04       		.byte	0x4
 767 03ee 08       		.byte	0x8
 768 03ef 90       		.byte	0x90
 769 03f0 21040000 		.4byte	0x421
 770 03f4 0F       		.uleb128 0xf
 771 03f5 97090000 		.4byte	.LASF63
 772 03f9 08       		.byte	0x8
 773 03fa 97       		.byte	0x97
 774 03fb 10010000 		.4byte	0x110
 775 03ff 0F       		.uleb128 0xf
 776 0400 0A010000 		.4byte	.LASF64
 777 0404 08       		.byte	0x8
 778 0405 9E       		.byte	0x9e
 779 0406 10010000 		.4byte	0x110
 780 040a 0F       		.uleb128 0xf
 781 040b ED020000 		.4byte	.LASF65
 782 040f 08       		.byte	0x8
 783 0410 A5       		.byte	0xa5
 784 0411 8A020000 		.4byte	0x28a
 785 0415 0F       		.uleb128 0xf
 786 0416 0A020000 		.4byte	.LASF66
 787 041a 08       		.byte	0x8
 788 041b AC       		.byte	0xac
 789 041c 1B010000 		.4byte	0x11b
 790 0420 00       		.byte	0
 791 0421 09       		.uleb128 0x9
 792 0422 04       		.byte	0x4
 793 0423 27040000 		.4byte	0x427
ARM GAS  /tmp/ccp5l5Du.s 			page 15


 794 0427 10       		.uleb128 0x10
 795 0428 2C040000 		.4byte	0x42c
 796 042c 04       		.uleb128 0x4
 797 042d 01       		.byte	0x1
 798 042e 08       		.byte	0x8
 799 042f 97020000 		.4byte	.LASF67
 800 0433 09       		.uleb128 0x9
 801 0434 04       		.byte	0x4
 802 0435 7B030000 		.4byte	0x37b
 803 0439 03       		.uleb128 0x3
 804 043a 13060000 		.4byte	.LASF68
 805 043e 08       		.byte	0x8
 806 043f DF       		.byte	0xdf
 807 0440 44040000 		.4byte	0x444
 808 0444 09       		.uleb128 0x9
 809 0445 04       		.byte	0x4
 810 0446 4A040000 		.4byte	0x44a
 811 044a 11       		.uleb128 0x11
 812 044b 10010000 		.4byte	0x110
 813 044f 59040000 		.4byte	0x459
 814 0453 12       		.uleb128 0x12
 815 0454 8A020000 		.4byte	0x28a
 816 0458 00       		.byte	0
 817 0459 03       		.uleb128 0x3
 818 045a D7020000 		.4byte	.LASF69
 819 045e 0C       		.byte	0xc
 820 045f 37       		.byte	0x37
 821 0460 64040000 		.4byte	0x464
 822 0464 05       		.uleb128 0x5
 823 0465 D7020000 		.4byte	.LASF69
 824 0469 20       		.byte	0x20
 825 046a 0C       		.byte	0xc
 826 046b 45       		.byte	0x45
 827 046c C5040000 		.4byte	0x4c5
 828 0470 06       		.uleb128 0x6
 829 0471 FA070000 		.4byte	.LASF70
 830 0475 0C       		.byte	0xc
 831 0476 46       		.byte	0x46
 832 0477 54020000 		.4byte	0x254
 833 047b 00       		.byte	0
 834 047c 06       		.uleb128 0x6
 835 047d EF040000 		.4byte	.LASF71
 836 0481 0C       		.byte	0xc
 837 0482 47       		.byte	0x47
 838 0483 2C000000 		.4byte	0x2c
 839 0487 08       		.byte	0x8
 840 0488 06       		.uleb128 0x6
 841 0489 50010000 		.4byte	.LASF72
 842 048d 0C       		.byte	0xc
 843 048e 48       		.byte	0x48
 844 048f E7040000 		.4byte	0x4e7
 845 0493 0C       		.byte	0xc
 846 0494 06       		.uleb128 0x6
 847 0495 1D010000 		.4byte	.LASF73
 848 0499 0C       		.byte	0xc
 849 049a 49       		.byte	0x49
 850 049b E7040000 		.4byte	0x4e7
ARM GAS  /tmp/ccp5l5Du.s 			page 16


 851 049f 10       		.byte	0x10
 852 04a0 06       		.uleb128 0x6
 853 04a1 48050000 		.4byte	.LASF74
 854 04a5 0C       		.byte	0xc
 855 04a6 4B       		.byte	0x4b
 856 04a7 E7040000 		.4byte	0x4e7
 857 04ab 14       		.byte	0x14
 858 04ac 06       		.uleb128 0x6
 859 04ad 8C010000 		.4byte	.LASF75
 860 04b1 0C       		.byte	0xc
 861 04b2 4C       		.byte	0x4c
 862 04b3 E7040000 		.4byte	0x4e7
 863 04b7 18       		.byte	0x18
 864 04b8 06       		.uleb128 0x6
 865 04b9 61010000 		.4byte	.LASF76
 866 04bd 0C       		.byte	0xc
 867 04be 4D       		.byte	0x4d
 868 04bf C5040000 		.4byte	0x4c5
 869 04c3 1C       		.byte	0x1c
 870 04c4 00       		.byte	0
 871 04c5 03       		.uleb128 0x3
 872 04c6 2F060000 		.4byte	.LASF77
 873 04ca 0C       		.byte	0xc
 874 04cb 3A       		.byte	0x3a
 875 04cc D0040000 		.4byte	0x4d0
 876 04d0 09       		.uleb128 0x9
 877 04d1 04       		.byte	0x4
 878 04d2 D6040000 		.4byte	0x4d6
 879 04d6 13       		.uleb128 0x13
 880 04d7 E1040000 		.4byte	0x4e1
 881 04db 12       		.uleb128 0x12
 882 04dc E1040000 		.4byte	0x4e1
 883 04e0 00       		.byte	0
 884 04e1 09       		.uleb128 0x9
 885 04e2 04       		.byte	0x4
 886 04e3 59040000 		.4byte	0x459
 887 04e7 09       		.uleb128 0x9
 888 04e8 04       		.byte	0x4
 889 04e9 A2000000 		.4byte	0xa2
 890 04ed 03       		.uleb128 0x3
 891 04ee CB090000 		.4byte	.LASF78
 892 04f2 0C       		.byte	0xc
 893 04f3 76       		.byte	0x76
 894 04f4 59040000 		.4byte	0x459
 895 04f8 03       		.uleb128 0x3
 896 04f9 5A030000 		.4byte	.LASF79
 897 04fd 0C       		.byte	0xc
 898 04fe E6       		.byte	0xe6
 899 04ff 59040000 		.4byte	0x459
 900 0503 11       		.uleb128 0x11
 901 0504 2C000000 		.4byte	0x2c
 902 0508 1C050000 		.4byte	0x51c
 903 050c 12       		.uleb128 0x12
 904 050d 8A020000 		.4byte	0x28a
 905 0511 12       		.uleb128 0x12
 906 0512 1C050000 		.4byte	0x51c
 907 0516 12       		.uleb128 0x12
ARM GAS  /tmp/ccp5l5Du.s 			page 17


 908 0517 2C000000 		.4byte	0x2c
 909 051b 00       		.byte	0
 910 051c 09       		.uleb128 0x9
 911 051d 04       		.byte	0x4
 912 051e 22050000 		.4byte	0x522
 913 0522 10       		.uleb128 0x10
 914 0523 A2000000 		.4byte	0xa2
 915 0527 09       		.uleb128 0x9
 916 0528 04       		.byte	0x4
 917 0529 03050000 		.4byte	0x503
 918 052d 11       		.uleb128 0x11
 919 052e 2C000000 		.4byte	0x2c
 920 0532 46050000 		.4byte	0x546
 921 0536 12       		.uleb128 0x12
 922 0537 8A020000 		.4byte	0x28a
 923 053b 12       		.uleb128 0x12
 924 053c E7040000 		.4byte	0x4e7
 925 0540 12       		.uleb128 0x12
 926 0541 2C000000 		.4byte	0x2c
 927 0545 00       		.byte	0
 928 0546 09       		.uleb128 0x9
 929 0547 04       		.byte	0x4
 930 0548 2D050000 		.4byte	0x52d
 931 054c 05       		.uleb128 0x5
 932 054d 000A0000 		.4byte	.LASF80
 933 0551 20       		.byte	0x20
 934 0552 0D       		.byte	0xd
 935 0553 51       		.byte	0x51
 936 0554 B9050000 		.4byte	0x5b9
 937 0558 06       		.uleb128 0x6
 938 0559 91000000 		.4byte	.LASF81
 939 055d 0D       		.byte	0xd
 940 055e 52       		.byte	0x52
 941 055f 27050000 		.4byte	0x527
 942 0563 00       		.byte	0
 943 0564 06       		.uleb128 0x6
 944 0565 51060000 		.4byte	.LASF82
 945 0569 0D       		.byte	0xd
 946 056a 52       		.byte	0x52
 947 056b 46050000 		.4byte	0x546
 948 056f 04       		.byte	0x4
 949 0570 06       		.uleb128 0x6
 950 0571 82030000 		.4byte	.LASF83
 951 0575 0D       		.byte	0xd
 952 0576 52       		.byte	0x52
 953 0577 C8050000 		.4byte	0x5c8
 954 057b 08       		.byte	0x8
 955 057c 06       		.uleb128 0x6
 956 057d F3060000 		.4byte	.LASF84
 957 0581 0D       		.byte	0xd
 958 0582 52       		.byte	0x52
 959 0583 C8050000 		.4byte	0x5c8
 960 0587 0C       		.byte	0xc
 961 0588 07       		.uleb128 0x7
 962 0589 70757400 		.ascii	"put\000"
 963 058d 0D       		.byte	0xd
 964 058e 52       		.byte	0x52
ARM GAS  /tmp/ccp5l5Du.s 			page 18


 965 058f E7050000 		.4byte	0x5e7
 966 0593 10       		.byte	0x10
 967 0594 07       		.uleb128 0x7
 968 0595 67657400 		.ascii	"get\000"
 969 0599 0D       		.byte	0xd
 970 059a 52       		.byte	0x52
 971 059b 01060000 		.4byte	0x601
 972 059f 14       		.byte	0x14
 973 05a0 06       		.uleb128 0x6
 974 05a1 61000000 		.4byte	.LASF85
 975 05a5 0D       		.byte	0xd
 976 05a6 52       		.byte	0x52
 977 05a7 25060000 		.4byte	0x625
 978 05ab 18       		.byte	0x18
 979 05ac 06       		.uleb128 0x6
 980 05ad 4A010000 		.4byte	.LASF86
 981 05b1 0D       		.byte	0xd
 982 05b2 52       		.byte	0x52
 983 05b3 49060000 		.4byte	0x649
 984 05b7 1C       		.byte	0x1c
 985 05b8 00       		.byte	0
 986 05b9 11       		.uleb128 0x11
 987 05ba D9000000 		.4byte	0xd9
 988 05be C8050000 		.4byte	0x5c8
 989 05c2 12       		.uleb128 0x12
 990 05c3 8A020000 		.4byte	0x28a
 991 05c7 00       		.byte	0
 992 05c8 09       		.uleb128 0x9
 993 05c9 04       		.byte	0x4
 994 05ca B9050000 		.4byte	0x5b9
 995 05ce 11       		.uleb128 0x11
 996 05cf 10010000 		.4byte	0x110
 997 05d3 E7050000 		.4byte	0x5e7
 998 05d7 12       		.uleb128 0x12
 999 05d8 8A020000 		.4byte	0x28a
 1000 05dc 12       		.uleb128 0x12
 1001 05dd A2000000 		.4byte	0xa2
 1002 05e1 12       		.uleb128 0x12
 1003 05e2 26010000 		.4byte	0x126
 1004 05e6 00       		.byte	0
 1005 05e7 09       		.uleb128 0x9
 1006 05e8 04       		.byte	0x4
 1007 05e9 CE050000 		.4byte	0x5ce
 1008 05ed 11       		.uleb128 0x11
 1009 05ee 10010000 		.4byte	0x110
 1010 05f2 01060000 		.4byte	0x601
 1011 05f6 12       		.uleb128 0x12
 1012 05f7 8A020000 		.4byte	0x28a
 1013 05fb 12       		.uleb128 0x12
 1014 05fc 26010000 		.4byte	0x126
 1015 0600 00       		.byte	0
 1016 0601 09       		.uleb128 0x9
 1017 0602 04       		.byte	0x4
 1018 0603 ED050000 		.4byte	0x5ed
 1019 0607 11       		.uleb128 0x11
 1020 0608 2C000000 		.4byte	0x2c
 1021 060c 25060000 		.4byte	0x625
ARM GAS  /tmp/ccp5l5Du.s 			page 19


 1022 0610 12       		.uleb128 0x12
 1023 0611 8A020000 		.4byte	0x28a
 1024 0615 12       		.uleb128 0x12
 1025 0616 1C050000 		.4byte	0x51c
 1026 061a 12       		.uleb128 0x12
 1027 061b 2C000000 		.4byte	0x2c
 1028 061f 12       		.uleb128 0x12
 1029 0620 26010000 		.4byte	0x126
 1030 0624 00       		.byte	0
 1031 0625 09       		.uleb128 0x9
 1032 0626 04       		.byte	0x4
 1033 0627 07060000 		.4byte	0x607
 1034 062b 11       		.uleb128 0x11
 1035 062c 2C000000 		.4byte	0x2c
 1036 0630 49060000 		.4byte	0x649
 1037 0634 12       		.uleb128 0x12
 1038 0635 8A020000 		.4byte	0x28a
 1039 0639 12       		.uleb128 0x12
 1040 063a E7040000 		.4byte	0x4e7
 1041 063e 12       		.uleb128 0x12
 1042 063f 2C000000 		.4byte	0x2c
 1043 0643 12       		.uleb128 0x12
 1044 0644 26010000 		.4byte	0x126
 1045 0648 00       		.byte	0
 1046 0649 09       		.uleb128 0x9
 1047 064a 04       		.byte	0x4
 1048 064b 2B060000 		.4byte	0x62b
 1049 064f 08       		.uleb128 0x8
 1050 0650 04       		.byte	0x4
 1051 0651 0D       		.byte	0xd
 1052 0652 5C       		.byte	0x5c
 1053 0653 64060000 		.4byte	0x664
 1054 0657 07       		.uleb128 0x7
 1055 0658 766D7400 		.ascii	"vmt\000"
 1056 065c 0D       		.byte	0xd
 1057 065d 5E       		.byte	0x5e
 1058 065e 64060000 		.4byte	0x664
 1059 0662 00       		.byte	0
 1060 0663 00       		.byte	0
 1061 0664 09       		.uleb128 0x9
 1062 0665 04       		.byte	0x4
 1063 0666 6A060000 		.4byte	0x66a
 1064 066a 10       		.uleb128 0x10
 1065 066b 4C050000 		.4byte	0x54c
 1066 066f 03       		.uleb128 0x3
 1067 0670 3C0A0000 		.4byte	.LASF87
 1068 0674 0D       		.byte	0xd
 1069 0675 60       		.byte	0x60
 1070 0676 4F060000 		.4byte	0x64f
 1071 067a 14       		.uleb128 0x14
 1072 067b B3060000 		.4byte	.LASF88
 1073 067f 0D       		.byte	0xd
 1074 0680 0B01     		.2byte	0x10b
 1075 0682 CE000000 		.4byte	0xce
 1076 0686 11       		.uleb128 0x11
 1077 0687 7A060000 		.4byte	0x67a
 1078 068b 95060000 		.4byte	0x695
ARM GAS  /tmp/ccp5l5Du.s 			page 20


 1079 068f 12       		.uleb128 0x12
 1080 0690 8A020000 		.4byte	0x28a
 1081 0694 00       		.byte	0
 1082 0695 09       		.uleb128 0x9
 1083 0696 04       		.byte	0x4
 1084 0697 86060000 		.4byte	0x686
 1085 069b 03       		.uleb128 0x3
 1086 069c C4080000 		.4byte	.LASF89
 1087 06a0 0E       		.byte	0xe
 1088 06a1 35       		.byte	0x35
 1089 06a2 A6060000 		.4byte	0x6a6
 1090 06a6 10       		.uleb128 0x10
 1091 06a7 33030000 		.4byte	0x333
 1092 06ab 03       		.uleb128 0x3
 1093 06ac 82000000 		.4byte	.LASF90
 1094 06b0 0E       		.byte	0xe
 1095 06b1 39       		.byte	0x39
 1096 06b2 33030000 		.4byte	0x333
 1097 06b6 03       		.uleb128 0x3
 1098 06b7 04090000 		.4byte	.LASF91
 1099 06bb 0E       		.byte	0xe
 1100 06bc 3A       		.byte	0x3a
 1101 06bd 33030000 		.4byte	0x333
 1102 06c1 15       		.uleb128 0x15
 1103 06c2 B6060000 		.4byte	0x6b6
 1104 06c6 D1060000 		.4byte	0x6d1
 1105 06ca 16       		.uleb128 0x16
 1106 06cb 38030000 		.4byte	0x338
 1107 06cf 12       		.byte	0x12
 1108 06d0 00       		.byte	0
 1109 06d1 17       		.uleb128 0x17
 1110 06d2 2801     		.2byte	0x128
 1111 06d4 0E       		.byte	0xe
 1112 06d5 E9       		.byte	0xe9
 1113 06d6 A3080000 		.4byte	0x8a3
 1114 06da 06       		.uleb128 0x6
 1115 06db F6080000 		.4byte	.LASF92
 1116 06df 0E       		.byte	0xe
 1117 06e0 EA       		.byte	0xea
 1118 06e1 AB060000 		.4byte	0x6ab
 1119 06e5 00       		.byte	0
 1120 06e6 06       		.uleb128 0x6
 1121 06e7 EF010000 		.4byte	.LASF93
 1122 06eb 0E       		.byte	0xe
 1123 06ec EB       		.byte	0xeb
 1124 06ed B6060000 		.4byte	0x6b6
 1125 06f1 04       		.byte	0x4
 1126 06f2 06       		.uleb128 0x6
 1127 06f3 E6070000 		.4byte	.LASF94
 1128 06f7 0E       		.byte	0xe
 1129 06f8 EC       		.byte	0xec
 1130 06f9 B6060000 		.4byte	0x6b6
 1131 06fd 08       		.byte	0x8
 1132 06fe 06       		.uleb128 0x6
 1133 06ff F0070000 		.4byte	.LASF95
 1134 0703 0E       		.byte	0xe
 1135 0704 ED       		.byte	0xed
ARM GAS  /tmp/ccp5l5Du.s 			page 21


 1136 0705 B6060000 		.4byte	0x6b6
 1137 0709 0C       		.byte	0xc
 1138 070a 06       		.uleb128 0x6
 1139 070b BA090000 		.4byte	.LASF96
 1140 070f 0E       		.byte	0xe
 1141 0710 EE       		.byte	0xee
 1142 0711 AB060000 		.4byte	0x6ab
 1143 0715 10       		.byte	0x10
 1144 0716 06       		.uleb128 0x6
 1145 0717 83090000 		.4byte	.LASF97
 1146 071b 0E       		.byte	0xe
 1147 071c EF       		.byte	0xef
 1148 071d AB060000 		.4byte	0x6ab
 1149 0721 14       		.byte	0x14
 1150 0722 06       		.uleb128 0x6
 1151 0723 1D050000 		.4byte	.LASF98
 1152 0727 0E       		.byte	0xe
 1153 0728 F0       		.byte	0xf0
 1154 0729 9B060000 		.4byte	0x69b
 1155 072d 18       		.byte	0x18
 1156 072e 06       		.uleb128 0x6
 1157 072f 04080000 		.4byte	.LASF99
 1158 0733 0E       		.byte	0xe
 1159 0734 F1       		.byte	0xf1
 1160 0735 B3080000 		.4byte	0x8b3
 1161 0739 1C       		.byte	0x1c
 1162 073a 06       		.uleb128 0x6
 1163 073b 71050000 		.4byte	.LASF100
 1164 073f 0E       		.byte	0xe
 1165 0740 F2       		.byte	0xf2
 1166 0741 9B060000 		.4byte	0x69b
 1167 0745 20       		.byte	0x20
 1168 0746 06       		.uleb128 0x6
 1169 0747 8E060000 		.4byte	.LASF101
 1170 074b 0E       		.byte	0xe
 1171 074c F3       		.byte	0xf3
 1172 074d AB060000 		.4byte	0x6ab
 1173 0751 24       		.byte	0x24
 1174 0752 06       		.uleb128 0x6
 1175 0753 56060000 		.4byte	.LASF102
 1176 0757 0E       		.byte	0xe
 1177 0758 F4       		.byte	0xf4
 1178 0759 AB060000 		.4byte	0x6ab
 1179 075d 28       		.byte	0x28
 1180 075e 06       		.uleb128 0x6
 1181 075f EE080000 		.4byte	.LASF103
 1182 0763 0E       		.byte	0xe
 1183 0764 F5       		.byte	0xf5
 1184 0765 9B060000 		.4byte	0x69b
 1185 0769 2C       		.byte	0x2c
 1186 076a 06       		.uleb128 0x6
 1187 076b 7A000000 		.4byte	.LASF104
 1188 076f 0E       		.byte	0xe
 1189 0770 F6       		.byte	0xf6
 1190 0771 9B060000 		.4byte	0x69b
 1191 0775 30       		.byte	0x30
 1192 0776 06       		.uleb128 0x6
ARM GAS  /tmp/ccp5l5Du.s 			page 22


 1193 0777 0E080000 		.4byte	.LASF105
 1194 077b 0E       		.byte	0xe
 1195 077c F7       		.byte	0xf7
 1196 077d C8080000 		.4byte	0x8c8
 1197 0781 34       		.byte	0x34
 1198 0782 06       		.uleb128 0x6
 1199 0783 DE080000 		.4byte	.LASF106
 1200 0787 0E       		.byte	0xe
 1201 0788 F8       		.byte	0xf8
 1202 0789 9B060000 		.4byte	0x69b
 1203 078d 3C       		.byte	0x3c
 1204 078e 06       		.uleb128 0x6
 1205 078f 72000000 		.4byte	.LASF107
 1206 0793 0E       		.byte	0xe
 1207 0794 F9       		.byte	0xf9
 1208 0795 B6060000 		.4byte	0x6b6
 1209 0799 40       		.byte	0x40
 1210 079a 06       		.uleb128 0x6
 1211 079b 170A0000 		.4byte	.LASF108
 1212 079f 0E       		.byte	0xe
 1213 07a0 FA       		.byte	0xfa
 1214 07a1 B6060000 		.4byte	0x6b6
 1215 07a5 44       		.byte	0x44
 1216 07a6 06       		.uleb128 0x6
 1217 07a7 40050000 		.4byte	.LASF109
 1218 07ab 0E       		.byte	0xe
 1219 07ac FB       		.byte	0xfb
 1220 07ad B6060000 		.4byte	0x6b6
 1221 07b1 48       		.byte	0x48
 1222 07b2 06       		.uleb128 0x6
 1223 07b3 A5070000 		.4byte	.LASF110
 1224 07b7 0E       		.byte	0xe
 1225 07b8 FC       		.byte	0xfc
 1226 07b9 B6060000 		.4byte	0x6b6
 1227 07bd 4C       		.byte	0x4c
 1228 07be 06       		.uleb128 0x6
 1229 07bf B0030000 		.4byte	.LASF111
 1230 07c3 0E       		.byte	0xe
 1231 07c4 FD       		.byte	0xfd
 1232 07c5 DD080000 		.4byte	0x8dd
 1233 07c9 50       		.byte	0x50
 1234 07ca 06       		.uleb128 0x6
 1235 07cb 18080000 		.4byte	.LASF112
 1236 07cf 0E       		.byte	0xe
 1237 07d0 FE       		.byte	0xfe
 1238 07d1 E7080000 		.4byte	0x8e7
 1239 07d5 90       		.byte	0x90
 1240 07d6 06       		.uleb128 0x6
 1241 07d7 60090000 		.4byte	.LASF113
 1242 07db 0E       		.byte	0xe
 1243 07dc FF       		.byte	0xff
 1244 07dd B6060000 		.4byte	0x6b6
 1245 07e1 94       		.byte	0x94
 1246 07e2 18       		.uleb128 0x18
 1247 07e3 22080000 		.4byte	.LASF114
 1248 07e7 0E       		.byte	0xe
 1249 07e8 0001     		.2byte	0x100
ARM GAS  /tmp/ccp5l5Du.s 			page 23


 1250 07ea EC080000 		.4byte	0x8ec
 1251 07ee 98       		.byte	0x98
 1252 07ef 18       		.uleb128 0x18
 1253 07f0 B1090000 		.4byte	.LASF115
 1254 07f4 0E       		.byte	0xe
 1255 07f5 0101     		.2byte	0x101
 1256 07f7 B6060000 		.4byte	0x6b6
 1257 07fb E4       		.byte	0xe4
 1258 07fc 18       		.uleb128 0x18
 1259 07fd 38010000 		.4byte	.LASF116
 1260 0801 0E       		.byte	0xe
 1261 0802 0201     		.2byte	0x102
 1262 0804 9B060000 		.4byte	0x69b
 1263 0808 E8       		.byte	0xe8
 1264 0809 18       		.uleb128 0x18
 1265 080a 2C080000 		.4byte	.LASF117
 1266 080e 0E       		.byte	0xe
 1267 080f 0301     		.2byte	0x103
 1268 0811 01090000 		.4byte	0x901
 1269 0815 EC       		.byte	0xec
 1270 0816 19       		.uleb128 0x19
 1271 0817 DE070000 		.4byte	.LASF118
 1272 081b 0E       		.byte	0xe
 1273 081c 0401     		.2byte	0x104
 1274 081e B6060000 		.4byte	0x6b6
 1275 0822 0001     		.2byte	0x100
 1276 0824 19       		.uleb128 0x19
 1277 0825 90030000 		.4byte	.LASF119
 1278 0829 0E       		.byte	0xe
 1279 082a 0501     		.2byte	0x105
 1280 082c B6060000 		.4byte	0x6b6
 1281 0830 0401     		.2byte	0x104
 1282 0832 19       		.uleb128 0x19
 1283 0833 AD010000 		.4byte	.LASF120
 1284 0837 0E       		.byte	0xe
 1285 0838 0601     		.2byte	0x106
 1286 083a B6060000 		.4byte	0x6b6
 1287 083e 0801     		.2byte	0x108
 1288 0840 19       		.uleb128 0x19
 1289 0841 BF070000 		.4byte	.LASF121
 1290 0845 0E       		.byte	0xe
 1291 0846 0701     		.2byte	0x107
 1292 0848 B6060000 		.4byte	0x6b6
 1293 084c 0C01     		.2byte	0x10c
 1294 084e 19       		.uleb128 0x19
 1295 084f DE000000 		.4byte	.LASF122
 1296 0853 0E       		.byte	0xe
 1297 0854 0801     		.2byte	0x108
 1298 0856 B6060000 		.4byte	0x6b6
 1299 085a 1001     		.2byte	0x110
 1300 085c 19       		.uleb128 0x19
 1301 085d 29070000 		.4byte	.LASF123
 1302 0861 0E       		.byte	0xe
 1303 0862 0901     		.2byte	0x109
 1304 0864 B6060000 		.4byte	0x6b6
 1305 0868 1401     		.2byte	0x114
 1306 086a 19       		.uleb128 0x19
ARM GAS  /tmp/ccp5l5Du.s 			page 24


 1307 086b F9000000 		.4byte	.LASF124
 1308 086f 0E       		.byte	0xe
 1309 0870 0A01     		.2byte	0x10a
 1310 0872 B6060000 		.4byte	0x6b6
 1311 0876 1801     		.2byte	0x118
 1312 0878 19       		.uleb128 0x19
 1313 0879 4B070000 		.4byte	.LASF125
 1314 087d 0E       		.byte	0xe
 1315 087e 0B01     		.2byte	0x10b
 1316 0880 B6060000 		.4byte	0x6b6
 1317 0884 1C01     		.2byte	0x11c
 1318 0886 19       		.uleb128 0x19
 1319 0887 13090000 		.4byte	.LASF126
 1320 088b 0E       		.byte	0xe
 1321 088c 0C01     		.2byte	0x10c
 1322 088e AB060000 		.4byte	0x6ab
 1323 0892 2001     		.2byte	0x120
 1324 0894 19       		.uleb128 0x19
 1325 0895 B6070000 		.4byte	.LASF127
 1326 0899 0E       		.byte	0xe
 1327 089a 0D01     		.2byte	0x10d
 1328 089c 9B060000 		.4byte	0x69b
 1329 08a0 2401     		.2byte	0x124
 1330 08a2 00       		.byte	0
 1331 08a3 15       		.uleb128 0x15
 1332 08a4 B6060000 		.4byte	0x6b6
 1333 08a8 B3080000 		.4byte	0x8b3
 1334 08ac 16       		.uleb128 0x16
 1335 08ad 38030000 		.4byte	0x338
 1336 08b1 00       		.byte	0
 1337 08b2 00       		.byte	0
 1338 08b3 0D       		.uleb128 0xd
 1339 08b4 A3080000 		.4byte	0x8a3
 1340 08b8 15       		.uleb128 0x15
 1341 08b9 B6060000 		.4byte	0x6b6
 1342 08bd C8080000 		.4byte	0x8c8
 1343 08c1 16       		.uleb128 0x16
 1344 08c2 38030000 		.4byte	0x338
 1345 08c6 01       		.byte	0x1
 1346 08c7 00       		.byte	0
 1347 08c8 0D       		.uleb128 0xd
 1348 08c9 B8080000 		.4byte	0x8b8
 1349 08cd 15       		.uleb128 0x15
 1350 08ce 9B060000 		.4byte	0x69b
 1351 08d2 DD080000 		.4byte	0x8dd
 1352 08d6 16       		.uleb128 0x16
 1353 08d7 38030000 		.4byte	0x338
 1354 08db 0F       		.byte	0xf
 1355 08dc 00       		.byte	0
 1356 08dd 10       		.uleb128 0x10
 1357 08de E2080000 		.4byte	0x8e2
 1358 08e2 0D       		.uleb128 0xd
 1359 08e3 CD080000 		.4byte	0x8cd
 1360 08e7 0D       		.uleb128 0xd
 1361 08e8 A3080000 		.4byte	0x8a3
 1362 08ec 0D       		.uleb128 0xd
 1363 08ed C1060000 		.4byte	0x6c1
ARM GAS  /tmp/ccp5l5Du.s 			page 25


 1364 08f1 15       		.uleb128 0x15
 1365 08f2 B6060000 		.4byte	0x6b6
 1366 08f6 01090000 		.4byte	0x901
 1367 08fa 16       		.uleb128 0x16
 1368 08fb 38030000 		.4byte	0x338
 1369 08ff 04       		.byte	0x4
 1370 0900 00       		.byte	0
 1371 0901 0D       		.uleb128 0xd
 1372 0902 F1080000 		.4byte	0x8f1
 1373 0906 1A       		.uleb128 0x1a
 1374 0907 41646300 		.ascii	"Adc\000"
 1375 090b 0E       		.byte	0xe
 1376 090c 0E01     		.2byte	0x10e
 1377 090e D1060000 		.4byte	0x6d1
 1378 0912 1B       		.uleb128 0x1b
 1379 0913 9001     		.2byte	0x190
 1380 0915 0E       		.byte	0xe
 1381 0916 DA06     		.2byte	0x6da
 1382 0918 0B0D0000 		.4byte	0xd0b
 1383 091c 18       		.uleb128 0x18
 1384 091d C3090000 		.4byte	.LASF128
 1385 0921 0E       		.byte	0xe
 1386 0922 DB06     		.2byte	0x6db
 1387 0924 AB060000 		.4byte	0x6ab
 1388 0928 00       		.byte	0
 1389 0929 18       		.uleb128 0x18
 1390 092a 7A030000 		.4byte	.LASF129
 1391 092e 0E       		.byte	0xe
 1392 092f DC06     		.2byte	0x6dc
 1393 0931 AB060000 		.4byte	0x6ab
 1394 0935 04       		.byte	0x4
 1395 0936 18       		.uleb128 0x18
 1396 0937 D6040000 		.4byte	.LASF130
 1397 093b 0E       		.byte	0xe
 1398 093c DD06     		.2byte	0x6dd
 1399 093e 9B060000 		.4byte	0x69b
 1400 0942 08       		.byte	0x8
 1401 0943 18       		.uleb128 0x18
 1402 0944 04080000 		.4byte	.LASF99
 1403 0948 0E       		.byte	0xe
 1404 0949 DE06     		.2byte	0x6de
 1405 094b 0B0D0000 		.4byte	0xd0b
 1406 094f 0C       		.byte	0xc
 1407 0950 18       		.uleb128 0x18
 1408 0951 500A0000 		.4byte	.LASF131
 1409 0955 0E       		.byte	0xe
 1410 0956 DF06     		.2byte	0x6df
 1411 0958 AB060000 		.4byte	0x6ab
 1412 095c 10       		.byte	0x10
 1413 095d 18       		.uleb128 0x18
 1414 095e 8E070000 		.4byte	.LASF132
 1415 0962 0E       		.byte	0xe
 1416 0963 E006     		.2byte	0x6e0
 1417 0965 AB060000 		.4byte	0x6ab
 1418 0969 14       		.byte	0x14
 1419 096a 18       		.uleb128 0x18
 1420 096b F6010000 		.4byte	.LASF133
ARM GAS  /tmp/ccp5l5Du.s 			page 26


 1421 096f 0E       		.byte	0xe
 1422 0970 E106     		.2byte	0x6e1
 1423 0972 9B060000 		.4byte	0x69b
 1424 0976 18       		.byte	0x18
 1425 0977 18       		.uleb128 0x18
 1426 0978 0E080000 		.4byte	.LASF105
 1427 097c 0E       		.byte	0xe
 1428 097d E206     		.2byte	0x6e2
 1429 097f 100D0000 		.4byte	0xd10
 1430 0983 1C       		.byte	0x1c
 1431 0984 18       		.uleb128 0x18
 1432 0985 9C070000 		.4byte	.LASF134
 1433 0989 0E       		.byte	0xe
 1434 098a E306     		.2byte	0x6e3
 1435 098c AB060000 		.4byte	0x6ab
 1436 0990 20       		.byte	0x20
 1437 0991 18       		.uleb128 0x18
 1438 0992 0F070000 		.4byte	.LASF135
 1439 0996 0E       		.byte	0xe
 1440 0997 E406     		.2byte	0x6e4
 1441 0999 AB060000 		.4byte	0x6ab
 1442 099d 24       		.byte	0x24
 1443 099e 18       		.uleb128 0x18
 1444 099f A4010000 		.4byte	.LASF136
 1445 09a3 0E       		.byte	0xe
 1446 09a4 E506     		.2byte	0x6e5
 1447 09a6 9B060000 		.4byte	0x69b
 1448 09aa 28       		.byte	0x28
 1449 09ab 18       		.uleb128 0x18
 1450 09ac 18080000 		.4byte	.LASF112
 1451 09b0 0E       		.byte	0xe
 1452 09b1 E606     		.2byte	0x6e6
 1453 09b3 150D0000 		.4byte	0xd15
 1454 09b7 2C       		.byte	0x2c
 1455 09b8 18       		.uleb128 0x18
 1456 09b9 1B060000 		.4byte	.LASF137
 1457 09bd 0E       		.byte	0xe
 1458 09be E706     		.2byte	0x6e7
 1459 09c0 AB060000 		.4byte	0x6ab
 1460 09c4 30       		.byte	0x30
 1461 09c5 18       		.uleb128 0x18
 1462 09c6 68050000 		.4byte	.LASF138
 1463 09ca 0E       		.byte	0xe
 1464 09cb E806     		.2byte	0x6e8
 1465 09cd AB060000 		.4byte	0x6ab
 1466 09d1 34       		.byte	0x34
 1467 09d2 18       		.uleb128 0x18
 1468 09d3 8A080000 		.4byte	.LASF139
 1469 09d7 0E       		.byte	0xe
 1470 09d8 E906     		.2byte	0x6e9
 1471 09da B6060000 		.4byte	0x6b6
 1472 09de 38       		.byte	0x38
 1473 09df 18       		.uleb128 0x18
 1474 09e0 2A030000 		.4byte	.LASF140
 1475 09e4 0E       		.byte	0xe
 1476 09e5 EA06     		.2byte	0x6ea
 1477 09e7 9B060000 		.4byte	0x69b
ARM GAS  /tmp/ccp5l5Du.s 			page 27


 1478 09eb 3C       		.byte	0x3c
 1479 09ec 18       		.uleb128 0x18
 1480 09ed EF050000 		.4byte	.LASF141
 1481 09f1 0E       		.byte	0xe
 1482 09f2 EB06     		.2byte	0x6eb
 1483 09f4 AB060000 		.4byte	0x6ab
 1484 09f8 40       		.byte	0x40
 1485 09f9 18       		.uleb128 0x18
 1486 09fa 8D050000 		.4byte	.LASF142
 1487 09fe 0E       		.byte	0xe
 1488 09ff EC06     		.2byte	0x6ec
 1489 0a01 AB060000 		.4byte	0x6ab
 1490 0a05 44       		.byte	0x44
 1491 0a06 18       		.uleb128 0x18
 1492 0a07 79080000 		.4byte	.LASF143
 1493 0a0b 0E       		.byte	0xe
 1494 0a0c ED06     		.2byte	0x6ed
 1495 0a0e 9B060000 		.4byte	0x69b
 1496 0a12 48       		.byte	0x48
 1497 0a13 18       		.uleb128 0x18
 1498 0a14 480A0000 		.4byte	.LASF144
 1499 0a18 0E       		.byte	0xe
 1500 0a19 EE06     		.2byte	0x6ee
 1501 0a1b 9B060000 		.4byte	0x69b
 1502 0a1f 4C       		.byte	0x4c
 1503 0a20 18       		.uleb128 0x18
 1504 0a21 71030000 		.4byte	.LASF145
 1505 0a25 0E       		.byte	0xe
 1506 0a26 EF06     		.2byte	0x6ef
 1507 0a28 AB060000 		.4byte	0x6ab
 1508 0a2c 50       		.byte	0x50
 1509 0a2d 18       		.uleb128 0x18
 1510 0a2e E4020000 		.4byte	.LASF146
 1511 0a32 0E       		.byte	0xe
 1512 0a33 F006     		.2byte	0x6f0
 1513 0a35 AB060000 		.4byte	0x6ab
 1514 0a39 54       		.byte	0x54
 1515 0a3a 18       		.uleb128 0x18
 1516 0a3b 70080000 		.4byte	.LASF147
 1517 0a3f 0E       		.byte	0xe
 1518 0a40 F106     		.2byte	0x6f1
 1519 0a42 9B060000 		.4byte	0x69b
 1520 0a46 58       		.byte	0x58
 1521 0a47 18       		.uleb128 0x18
 1522 0a48 22080000 		.4byte	.LASF114
 1523 0a4c 0E       		.byte	0xe
 1524 0a4d F206     		.2byte	0x6f2
 1525 0a4f 1A0D0000 		.4byte	0xd1a
 1526 0a53 5C       		.byte	0x5c
 1527 0a54 18       		.uleb128 0x18
 1528 0a55 4F020000 		.4byte	.LASF148
 1529 0a59 0E       		.byte	0xe
 1530 0a5a F306     		.2byte	0x6f3
 1531 0a5c AB060000 		.4byte	0x6ab
 1532 0a60 60       		.byte	0x60
 1533 0a61 18       		.uleb128 0x18
 1534 0a62 8E020000 		.4byte	.LASF149
ARM GAS  /tmp/ccp5l5Du.s 			page 28


 1535 0a66 0E       		.byte	0xe
 1536 0a67 F406     		.2byte	0x6f4
 1537 0a69 AB060000 		.4byte	0x6ab
 1538 0a6d 64       		.byte	0x64
 1539 0a6e 18       		.uleb128 0x18
 1540 0a6f AD070000 		.4byte	.LASF150
 1541 0a73 0E       		.byte	0xe
 1542 0a74 F506     		.2byte	0x6f5
 1543 0a76 9B060000 		.4byte	0x69b
 1544 0a7a 68       		.byte	0x68
 1545 0a7b 18       		.uleb128 0x18
 1546 0a7c 2C080000 		.4byte	.LASF117
 1547 0a80 0E       		.byte	0xe
 1548 0a81 F606     		.2byte	0x6f6
 1549 0a83 1F0D0000 		.4byte	0xd1f
 1550 0a87 6C       		.byte	0x6c
 1551 0a88 18       		.uleb128 0x18
 1552 0a89 2D020000 		.4byte	.LASF151
 1553 0a8d 0E       		.byte	0xe
 1554 0a8e F706     		.2byte	0x6f7
 1555 0a90 240D0000 		.4byte	0xd24
 1556 0a94 70       		.byte	0x70
 1557 0a95 18       		.uleb128 0x18
 1558 0a96 36080000 		.4byte	.LASF152
 1559 0a9a 0E       		.byte	0xe
 1560 0a9b F806     		.2byte	0x6f8
 1561 0a9d 290D0000 		.4byte	0xd29
 1562 0aa1 78       		.byte	0x78
 1563 0aa2 18       		.uleb128 0x18
 1564 0aa3 D4050000 		.4byte	.LASF153
 1565 0aa7 0E       		.byte	0xe
 1566 0aa8 F906     		.2byte	0x6f9
 1567 0aaa AB060000 		.4byte	0x6ab
 1568 0aae 80       		.byte	0x80
 1569 0aaf 18       		.uleb128 0x18
 1570 0ab0 24060000 		.4byte	.LASF154
 1571 0ab4 0E       		.byte	0xe
 1572 0ab5 FA06     		.2byte	0x6fa
 1573 0ab7 AB060000 		.4byte	0x6ab
 1574 0abb 84       		.byte	0x84
 1575 0abc 18       		.uleb128 0x18
 1576 0abd 00000000 		.4byte	.LASF155
 1577 0ac1 0E       		.byte	0xe
 1578 0ac2 FB06     		.2byte	0x6fb
 1579 0ac4 9B060000 		.4byte	0x69b
 1580 0ac8 88       		.byte	0x88
 1581 0ac9 18       		.uleb128 0x18
 1582 0aca B9050000 		.4byte	.LASF156
 1583 0ace 0E       		.byte	0xe
 1584 0acf FC06     		.2byte	0x6fc
 1585 0ad1 B6060000 		.4byte	0x6b6
 1586 0ad5 8C       		.byte	0x8c
 1587 0ad6 18       		.uleb128 0x18
 1588 0ad7 6A010000 		.4byte	.LASF157
 1589 0adb 0E       		.byte	0xe
 1590 0adc FD06     		.2byte	0x6fd
 1591 0ade AB060000 		.4byte	0x6ab
ARM GAS  /tmp/ccp5l5Du.s 			page 29


 1592 0ae2 90       		.byte	0x90
 1593 0ae3 18       		.uleb128 0x18
 1594 0ae4 DD010000 		.4byte	.LASF158
 1595 0ae8 0E       		.byte	0xe
 1596 0ae9 FE06     		.2byte	0x6fe
 1597 0aeb AB060000 		.4byte	0x6ab
 1598 0aef 94       		.byte	0x94
 1599 0af0 18       		.uleb128 0x18
 1600 0af1 DE060000 		.4byte	.LASF159
 1601 0af5 0E       		.byte	0xe
 1602 0af6 FF06     		.2byte	0x6ff
 1603 0af8 9B060000 		.4byte	0x69b
 1604 0afc 98       		.byte	0x98
 1605 0afd 18       		.uleb128 0x18
 1606 0afe 40080000 		.4byte	.LASF160
 1607 0b02 0E       		.byte	0xe
 1608 0b03 0007     		.2byte	0x700
 1609 0b05 2E0D0000 		.4byte	0xd2e
 1610 0b09 9C       		.byte	0x9c
 1611 0b0a 18       		.uleb128 0x18
 1612 0b0b 9B010000 		.4byte	.LASF161
 1613 0b0f 0E       		.byte	0xe
 1614 0b10 0107     		.2byte	0x701
 1615 0b12 AB060000 		.4byte	0x6ab
 1616 0b16 A0       		.byte	0xa0
 1617 0b17 18       		.uleb128 0x18
 1618 0b18 41010000 		.4byte	.LASF162
 1619 0b1c 0E       		.byte	0xe
 1620 0b1d 0207     		.2byte	0x702
 1621 0b1f AB060000 		.4byte	0x6ab
 1622 0b23 A4       		.byte	0xa4
 1623 0b24 18       		.uleb128 0x18
 1624 0b25 CB060000 		.4byte	.LASF163
 1625 0b29 0E       		.byte	0xe
 1626 0b2a 0307     		.2byte	0x703
 1627 0b2c 9B060000 		.4byte	0x69b
 1628 0b30 A8       		.byte	0xa8
 1629 0b31 18       		.uleb128 0x18
 1630 0b32 CF000000 		.4byte	.LASF164
 1631 0b36 0E       		.byte	0xe
 1632 0b37 0407     		.2byte	0x704
 1633 0b39 330D0000 		.4byte	0xd33
 1634 0b3d AC       		.byte	0xac
 1635 0b3e 18       		.uleb128 0x18
 1636 0b3f 5C080000 		.4byte	.LASF165
 1637 0b43 0E       		.byte	0xe
 1638 0b44 0507     		.2byte	0x705
 1639 0b46 AB060000 		.4byte	0x6ab
 1640 0b4a B0       		.byte	0xb0
 1641 0b4b 18       		.uleb128 0x18
 1642 0b4c C7070000 		.4byte	.LASF166
 1643 0b50 0E       		.byte	0xe
 1644 0b51 0607     		.2byte	0x706
 1645 0b53 AB060000 		.4byte	0x6ab
 1646 0b57 B4       		.byte	0xb4
 1647 0b58 18       		.uleb128 0x18
 1648 0b59 68000000 		.4byte	.LASF167
ARM GAS  /tmp/ccp5l5Du.s 			page 30


 1649 0b5d 0E       		.byte	0xe
 1650 0b5e 0707     		.2byte	0x707
 1651 0b60 9B060000 		.4byte	0x69b
 1652 0b64 B8       		.byte	0xb8
 1653 0b65 18       		.uleb128 0x18
 1654 0b66 52080000 		.4byte	.LASF168
 1655 0b6a 0E       		.byte	0xe
 1656 0b6b 0807     		.2byte	0x708
 1657 0b6d 380D0000 		.4byte	0xd38
 1658 0b71 BC       		.byte	0xbc
 1659 0b72 18       		.uleb128 0x18
 1660 0b73 E7010000 		.4byte	.LASF169
 1661 0b77 0E       		.byte	0xe
 1662 0b78 0907     		.2byte	0x709
 1663 0b7a AB060000 		.4byte	0x6ab
 1664 0b7e C0       		.byte	0xc0
 1665 0b7f 18       		.uleb128 0x18
 1666 0b80 96060000 		.4byte	.LASF170
 1667 0b84 0E       		.byte	0xe
 1668 0b85 0A07     		.2byte	0x70a
 1669 0b87 AB060000 		.4byte	0x6ab
 1670 0b8b C4       		.byte	0xc4
 1671 0b8c 18       		.uleb128 0x18
 1672 0b8d D6030000 		.4byte	.LASF171
 1673 0b91 0E       		.byte	0xe
 1674 0b92 0B07     		.2byte	0x70b
 1675 0b94 9B060000 		.4byte	0x69b
 1676 0b98 C8       		.byte	0xc8
 1677 0b99 18       		.uleb128 0x18
 1678 0b9a A4020000 		.4byte	.LASF172
 1679 0b9e 0E       		.byte	0xe
 1680 0b9f 0C07     		.2byte	0x70c
 1681 0ba1 3D0D0000 		.4byte	0xd3d
 1682 0ba5 CC       		.byte	0xcc
 1683 0ba6 18       		.uleb128 0x18
 1684 0ba7 66030000 		.4byte	.LASF173
 1685 0bab 0E       		.byte	0xe
 1686 0bac 0D07     		.2byte	0x70d
 1687 0bae AB060000 		.4byte	0x6ab
 1688 0bb2 D0       		.byte	0xd0
 1689 0bb3 18       		.uleb128 0x18
 1690 0bb4 8C090000 		.4byte	.LASF174
 1691 0bb8 0E       		.byte	0xe
 1692 0bb9 0E07     		.2byte	0x70e
 1693 0bbb AB060000 		.4byte	0x6ab
 1694 0bbf D4       		.byte	0xd4
 1695 0bc0 18       		.uleb128 0x18
 1696 0bc1 33030000 		.4byte	.LASF175
 1697 0bc5 0E       		.byte	0xe
 1698 0bc6 0F07     		.2byte	0x70f
 1699 0bc8 9B060000 		.4byte	0x69b
 1700 0bcc D8       		.byte	0xd8
 1701 0bcd 18       		.uleb128 0x18
 1702 0bce AF020000 		.4byte	.LASF176
 1703 0bd2 0E       		.byte	0xe
 1704 0bd3 1007     		.2byte	0x710
 1705 0bd5 420D0000 		.4byte	0xd42
ARM GAS  /tmp/ccp5l5Du.s 			page 31


 1706 0bd9 DC       		.byte	0xdc
 1707 0bda 18       		.uleb128 0x18
 1708 0bdb 44030000 		.4byte	.LASF177
 1709 0bdf 0E       		.byte	0xe
 1710 0be0 1107     		.2byte	0x711
 1711 0be2 9B060000 		.4byte	0x69b
 1712 0be6 E0       		.byte	0xe0
 1713 0be7 18       		.uleb128 0x18
 1714 0be8 88000000 		.4byte	.LASF178
 1715 0bec 0E       		.byte	0xe
 1716 0bed 1207     		.2byte	0x712
 1717 0bef B6060000 		.4byte	0x6b6
 1718 0bf3 E4       		.byte	0xe4
 1719 0bf4 18       		.uleb128 0x18
 1720 0bf5 74020000 		.4byte	.LASF179
 1721 0bf9 0E       		.byte	0xe
 1722 0bfa 1307     		.2byte	0x713
 1723 0bfc 9B060000 		.4byte	0x69b
 1724 0c00 E8       		.byte	0xe8
 1725 0c01 18       		.uleb128 0x18
 1726 0c02 BA020000 		.4byte	.LASF180
 1727 0c06 0E       		.byte	0xe
 1728 0c07 1407     		.2byte	0x714
 1729 0c09 470D0000 		.4byte	0xd47
 1730 0c0d EC       		.byte	0xec
 1731 0c0e 19       		.uleb128 0x19
 1732 0c0f A5080000 		.4byte	.LASF181
 1733 0c13 0E       		.byte	0xe
 1734 0c14 1507     		.2byte	0x715
 1735 0c16 B6060000 		.4byte	0x6b6
 1736 0c1a 0001     		.2byte	0x100
 1737 0c1c 19       		.uleb128 0x19
 1738 0c1d C5020000 		.4byte	.LASF182
 1739 0c21 0E       		.byte	0xe
 1740 0c22 1607     		.2byte	0x716
 1741 0c24 4C0D0000 		.4byte	0xd4c
 1742 0c28 0401     		.2byte	0x104
 1743 0c2a 19       		.uleb128 0x19
 1744 0c2b 44090000 		.4byte	.LASF183
 1745 0c2f 0E       		.byte	0xe
 1746 0c30 1707     		.2byte	0x717
 1747 0c32 B6060000 		.4byte	0x6b6
 1748 0c36 5001     		.2byte	0x150
 1749 0c38 19       		.uleb128 0x19
 1750 0c39 900A0000 		.4byte	.LASF184
 1751 0c3d 0E       		.byte	0xe
 1752 0c3e 1807     		.2byte	0x718
 1753 0c40 AB060000 		.4byte	0x6ab
 1754 0c44 5401     		.2byte	0x154
 1755 0c46 19       		.uleb128 0x19
 1756 0c47 84060000 		.4byte	.LASF185
 1757 0c4b 0E       		.byte	0xe
 1758 0c4c 1907     		.2byte	0x719
 1759 0c4e AB060000 		.4byte	0x6ab
 1760 0c52 5801     		.2byte	0x158
 1761 0c54 19       		.uleb128 0x19
 1762 0c55 24090000 		.4byte	.LASF186
ARM GAS  /tmp/ccp5l5Du.s 			page 32


 1763 0c59 0E       		.byte	0xe
 1764 0c5a 1A07     		.2byte	0x71a
 1765 0c5c 9B060000 		.4byte	0x69b
 1766 0c60 5C01     		.2byte	0x15c
 1767 0c62 19       		.uleb128 0x19
 1768 0c63 B2000000 		.4byte	.LASF187
 1769 0c67 0E       		.byte	0xe
 1770 0c68 1B07     		.2byte	0x71b
 1771 0c6a 9B060000 		.4byte	0x69b
 1772 0c6e 6001     		.2byte	0x160
 1773 0c70 19       		.uleb128 0x19
 1774 0c71 FC050000 		.4byte	.LASF188
 1775 0c75 0E       		.byte	0xe
 1776 0c76 1C07     		.2byte	0x71c
 1777 0c78 9B060000 		.4byte	0x69b
 1778 0c7c 6401     		.2byte	0x164
 1779 0c7e 19       		.uleb128 0x19
 1780 0c7f 86070000 		.4byte	.LASF189
 1781 0c83 0E       		.byte	0xe
 1782 0c84 1D07     		.2byte	0x71d
 1783 0c86 B6060000 		.4byte	0x6b6
 1784 0c8a 6801     		.2byte	0x168
 1785 0c8c 19       		.uleb128 0x19
 1786 0c8d 9C020000 		.4byte	.LASF190
 1787 0c91 0E       		.byte	0xe
 1788 0c92 1E07     		.2byte	0x71e
 1789 0c94 B6060000 		.4byte	0x6b6
 1790 0c98 6C01     		.2byte	0x16c
 1791 0c9a 19       		.uleb128 0x19
 1792 0c9b E7000000 		.4byte	.LASF191
 1793 0c9f 0E       		.byte	0xe
 1794 0ca0 1F07     		.2byte	0x71f
 1795 0ca2 B6060000 		.4byte	0x6b6
 1796 0ca6 7001     		.2byte	0x170
 1797 0ca8 19       		.uleb128 0x19
 1798 0ca9 39070000 		.4byte	.LASF192
 1799 0cad 0E       		.byte	0xe
 1800 0cae 2007     		.2byte	0x720
 1801 0cb0 B6060000 		.4byte	0x6b6
 1802 0cb4 7401     		.2byte	0x174
 1803 0cb6 19       		.uleb128 0x19
 1804 0cb7 38020000 		.4byte	.LASF193
 1805 0cbb 0E       		.byte	0xe
 1806 0cbc 2107     		.2byte	0x721
 1807 0cbe B6060000 		.4byte	0x6b6
 1808 0cc2 7801     		.2byte	0x178
 1809 0cc4 19       		.uleb128 0x19
 1810 0cc5 93080000 		.4byte	.LASF194
 1811 0cc9 0E       		.byte	0xe
 1812 0cca 2207     		.2byte	0x722
 1813 0ccc B6060000 		.4byte	0x6b6
 1814 0cd0 7C01     		.2byte	0x17c
 1815 0cd2 19       		.uleb128 0x19
 1816 0cd3 61020000 		.4byte	.LASF195
 1817 0cd7 0E       		.byte	0xe
 1818 0cd8 2307     		.2byte	0x723
 1819 0cda B6060000 		.4byte	0x6b6
ARM GAS  /tmp/ccp5l5Du.s 			page 33


 1820 0cde 8001     		.2byte	0x180
 1821 0ce0 19       		.uleb128 0x19
 1822 0ce1 9C080000 		.4byte	.LASF196
 1823 0ce5 0E       		.byte	0xe
 1824 0ce6 2407     		.2byte	0x724
 1825 0ce8 B6060000 		.4byte	0x6b6
 1826 0cec 8401     		.2byte	0x184
 1827 0cee 19       		.uleb128 0x19
 1828 0cef 870A0000 		.4byte	.LASF197
 1829 0cf3 0E       		.byte	0xe
 1830 0cf4 2507     		.2byte	0x725
 1831 0cf6 AB060000 		.4byte	0x6ab
 1832 0cfa 8801     		.2byte	0x188
 1833 0cfc 19       		.uleb128 0x19
 1834 0cfd E6050000 		.4byte	.LASF198
 1835 0d01 0E       		.byte	0xe
 1836 0d02 2607     		.2byte	0x726
 1837 0d04 9B060000 		.4byte	0x69b
 1838 0d08 8C01     		.2byte	0x18c
 1839 0d0a 00       		.byte	0
 1840 0d0b 0D       		.uleb128 0xd
 1841 0d0c A3080000 		.4byte	0x8a3
 1842 0d10 0D       		.uleb128 0xd
 1843 0d11 A3080000 		.4byte	0x8a3
 1844 0d15 0D       		.uleb128 0xd
 1845 0d16 A3080000 		.4byte	0x8a3
 1846 0d1a 0D       		.uleb128 0xd
 1847 0d1b A3080000 		.4byte	0x8a3
 1848 0d1f 0D       		.uleb128 0xd
 1849 0d20 A3080000 		.4byte	0x8a3
 1850 0d24 0D       		.uleb128 0xd
 1851 0d25 B8080000 		.4byte	0x8b8
 1852 0d29 0D       		.uleb128 0xd
 1853 0d2a B8080000 		.4byte	0x8b8
 1854 0d2e 0D       		.uleb128 0xd
 1855 0d2f A3080000 		.4byte	0x8a3
 1856 0d33 0D       		.uleb128 0xd
 1857 0d34 A3080000 		.4byte	0x8a3
 1858 0d38 0D       		.uleb128 0xd
 1859 0d39 A3080000 		.4byte	0x8a3
 1860 0d3d 0D       		.uleb128 0xd
 1861 0d3e A3080000 		.4byte	0x8a3
 1862 0d42 0D       		.uleb128 0xd
 1863 0d43 A3080000 		.4byte	0x8a3
 1864 0d47 0D       		.uleb128 0xd
 1865 0d48 F1080000 		.4byte	0x8f1
 1866 0d4c 0D       		.uleb128 0xd
 1867 0d4d C1060000 		.4byte	0x6c1
 1868 0d51 1A       		.uleb128 0x1a
 1869 0d52 50696F00 		.ascii	"Pio\000"
 1870 0d56 0E       		.byte	0xe
 1871 0d57 2707     		.2byte	0x727
 1872 0d59 12090000 		.4byte	0x912
 1873 0d5d 1B       		.uleb128 0x1b
 1874 0d5e 2801     		.2byte	0x128
 1875 0d60 0E       		.byte	0xe
 1876 0d61 0817     		.2byte	0x1708
ARM GAS  /tmp/ccp5l5Du.s 			page 34


 1877 0d63 760E0000 		.4byte	0xe76
 1878 0d67 18       		.uleb128 0x18
 1879 0d68 86020000 		.4byte	.LASF199
 1880 0d6c 0E       		.byte	0xe
 1881 0d6d 0917     		.2byte	0x1709
 1882 0d6f AB060000 		.4byte	0x6ab
 1883 0d73 00       		.byte	0
 1884 0d74 18       		.uleb128 0x18
 1885 0d75 1C090000 		.4byte	.LASF200
 1886 0d79 0E       		.byte	0xe
 1887 0d7a 0A17     		.2byte	0x170a
 1888 0d7c B6060000 		.4byte	0x6b6
 1889 0d80 04       		.byte	0x4
 1890 0d81 18       		.uleb128 0x18
 1891 0d82 BC000000 		.4byte	.LASF201
 1892 0d86 0E       		.byte	0xe
 1893 0d87 0B17     		.2byte	0x170b
 1894 0d89 AB060000 		.4byte	0x6ab
 1895 0d8d 08       		.byte	0x8
 1896 0d8e 18       		.uleb128 0x18
 1897 0d8f 54070000 		.4byte	.LASF202
 1898 0d93 0E       		.byte	0xe
 1899 0d94 0C17     		.2byte	0x170c
 1900 0d96 AB060000 		.4byte	0x6ab
 1901 0d9a 0C       		.byte	0xc
 1902 0d9b 18       		.uleb128 0x18
 1903 0d9c A2030000 		.4byte	.LASF203
 1904 0da0 0E       		.byte	0xe
 1905 0da1 0D17     		.2byte	0x170d
 1906 0da3 9B060000 		.4byte	0x69b
 1907 0da7 10       		.byte	0x10
 1908 0da8 18       		.uleb128 0x18
 1909 0da9 AA000000 		.4byte	.LASF204
 1910 0dad 0E       		.byte	0xe
 1911 0dae 0E17     		.2byte	0x170e
 1912 0db0 9B060000 		.4byte	0x69b
 1913 0db4 14       		.byte	0x14
 1914 0db5 18       		.uleb128 0x18
 1915 0db6 620A0000 		.4byte	.LASF205
 1916 0dba 0E       		.byte	0xe
 1917 0dbb 0F17     		.2byte	0x170f
 1918 0dbd 9B060000 		.4byte	0x69b
 1919 0dc1 18       		.byte	0x18
 1920 0dc2 18       		.uleb128 0x18
 1921 0dc3 DE040000 		.4byte	.LASF206
 1922 0dc7 0E       		.byte	0xe
 1923 0dc8 1017     		.2byte	0x1710
 1924 0dca AB060000 		.4byte	0x6ab
 1925 0dce 1C       		.byte	0x1c
 1926 0dcf 18       		.uleb128 0x18
 1927 0dd0 C5000000 		.4byte	.LASF207
 1928 0dd4 0E       		.byte	0xe
 1929 0dd5 1117     		.2byte	0x1711
 1930 0dd7 B6060000 		.4byte	0x6b6
 1931 0ddb 20       		.byte	0x20
 1932 0ddc 18       		.uleb128 0x18
 1933 0ddd 04080000 		.4byte	.LASF99
ARM GAS  /tmp/ccp5l5Du.s 			page 35


 1934 0de1 0E       		.byte	0xe
 1935 0de2 1217     		.2byte	0x1712
 1936 0de4 860E0000 		.4byte	0xe86
 1937 0de8 24       		.byte	0x24
 1938 0de9 19       		.uleb128 0x19
 1939 0dea 7D020000 		.4byte	.LASF208
 1940 0dee 0E       		.byte	0xe
 1941 0def 1317     		.2byte	0x1713
 1942 0df1 B6060000 		.4byte	0x6b6
 1943 0df5 0001     		.2byte	0x100
 1944 0df7 19       		.uleb128 0x19
 1945 0df8 CA080000 		.4byte	.LASF209
 1946 0dfc 0E       		.byte	0xe
 1947 0dfd 1417     		.2byte	0x1714
 1948 0dff B6060000 		.4byte	0x6b6
 1949 0e03 0401     		.2byte	0x104
 1950 0e05 19       		.uleb128 0x19
 1951 0e06 01070000 		.4byte	.LASF210
 1952 0e0a 0E       		.byte	0xe
 1953 0e0b 1517     		.2byte	0x1715
 1954 0e0d B6060000 		.4byte	0x6b6
 1955 0e11 0801     		.2byte	0x108
 1956 0e13 19       		.uleb128 0x19
 1957 0e14 58020000 		.4byte	.LASF211
 1958 0e18 0E       		.byte	0xe
 1959 0e19 1617     		.2byte	0x1716
 1960 0e1b B6060000 		.4byte	0x6b6
 1961 0e1f 0C01     		.2byte	0x10c
 1962 0e21 19       		.uleb128 0x19
 1963 0e22 98030000 		.4byte	.LASF212
 1964 0e26 0E       		.byte	0xe
 1965 0e27 1717     		.2byte	0x1717
 1966 0e29 B6060000 		.4byte	0x6b6
 1967 0e2d 1001     		.2byte	0x110
 1968 0e2f 19       		.uleb128 0x19
 1969 0e30 41070000 		.4byte	.LASF213
 1970 0e34 0E       		.byte	0xe
 1971 0e35 1817     		.2byte	0x1718
 1972 0e37 B6060000 		.4byte	0x6b6
 1973 0e3b 1401     		.2byte	0x114
 1974 0e3d 19       		.uleb128 0x19
 1975 0e3e B8030000 		.4byte	.LASF214
 1976 0e42 0E       		.byte	0xe
 1977 0e43 1917     		.2byte	0x1719
 1978 0e45 B6060000 		.4byte	0x6b6
 1979 0e49 1801     		.2byte	0x118
 1980 0e4b 19       		.uleb128 0x19
 1981 0e4c 580A0000 		.4byte	.LASF215
 1982 0e50 0E       		.byte	0xe
 1983 0e51 1A17     		.2byte	0x171a
 1984 0e53 B6060000 		.4byte	0x6b6
 1985 0e57 1C01     		.2byte	0x11c
 1986 0e59 19       		.uleb128 0x19
 1987 0e5a EF000000 		.4byte	.LASF216
 1988 0e5e 0E       		.byte	0xe
 1989 0e5f 1B17     		.2byte	0x171b
 1990 0e61 AB060000 		.4byte	0x6ab
ARM GAS  /tmp/ccp5l5Du.s 			page 36


 1991 0e65 2001     		.2byte	0x120
 1992 0e67 19       		.uleb128 0x19
 1993 0e68 D4060000 		.4byte	.LASF217
 1994 0e6c 0E       		.byte	0xe
 1995 0e6d 1C17     		.2byte	0x171c
 1996 0e6f 9B060000 		.4byte	0x69b
 1997 0e73 2401     		.2byte	0x124
 1998 0e75 00       		.byte	0
 1999 0e76 15       		.uleb128 0x15
 2000 0e77 B6060000 		.4byte	0x6b6
 2001 0e7b 860E0000 		.4byte	0xe86
 2002 0e7f 16       		.uleb128 0x16
 2003 0e80 38030000 		.4byte	0x338
 2004 0e84 36       		.byte	0x36
 2005 0e85 00       		.byte	0
 2006 0e86 0D       		.uleb128 0xd
 2007 0e87 760E0000 		.4byte	0xe76
 2008 0e8b 14       		.uleb128 0x14
 2009 0e8c AB030000 		.4byte	.LASF218
 2010 0e90 0E       		.byte	0xe
 2011 0e91 1D17     		.2byte	0x171d
 2012 0e93 5D0D0000 		.4byte	0xd5d
 2013 0e97 03       		.uleb128 0x3
 2014 0e98 9D000000 		.4byte	.LASF219
 2015 0e9c 0F       		.byte	0xf
 2016 0e9d 5D       		.byte	0x5d
 2017 0e9e B8000000 		.4byte	0xb8
 2018 0ea2 09       		.uleb128 0x9
 2019 0ea3 04       		.byte	0x4
 2020 0ea4 510D0000 		.4byte	0xd51
 2021 0ea8 1C       		.uleb128 0x1c
 2022 0ea9 01       		.byte	0x1
 2023 0eaa 10       		.byte	0x10
 2024 0eab 64       		.byte	0x64
 2025 0eac C30E0000 		.4byte	0xec3
 2026 0eb0 1D       		.uleb128 0x1d
 2027 0eb1 6A020000 		.4byte	.LASF220
 2028 0eb5 00       		.sleb128 0
 2029 0eb6 1D       		.uleb128 0x1d
 2030 0eb7 F8090000 		.4byte	.LASF221
 2031 0ebb 01       		.sleb128 1
 2032 0ebc 1D       		.uleb128 0x1d
 2033 0ebd 81080000 		.4byte	.LASF222
 2034 0ec1 02       		.sleb128 2
 2035 0ec2 00       		.byte	0
 2036 0ec3 03       		.uleb128 0x3
 2037 0ec4 66080000 		.4byte	.LASF223
 2038 0ec8 10       		.byte	0x10
 2039 0ec9 68       		.byte	0x68
 2040 0eca A80E0000 		.4byte	0xea8
 2041 0ece 03       		.uleb128 0x3
 2042 0ecf D1070000 		.4byte	.LASF224
 2043 0ed3 10       		.byte	0x10
 2044 0ed4 6D       		.byte	0x6d
 2045 0ed5 D90E0000 		.4byte	0xed9
 2046 0ed9 05       		.uleb128 0x5
 2047 0eda D1070000 		.4byte	.LASF224
ARM GAS  /tmp/ccp5l5Du.s 			page 37


 2048 0ede 74       		.byte	0x74
 2049 0edf 10       		.byte	0x10
 2050 0ee0 87       		.byte	0x87
 2051 0ee1 500F0000 		.4byte	0xf50
 2052 0ee5 07       		.uleb128 0x7
 2053 0ee6 766D7400 		.ascii	"vmt\000"
 2054 0eea 10       		.byte	0x10
 2055 0eeb 89       		.byte	0x89
 2056 0eec F50F0000 		.4byte	0xff5
 2057 0ef0 00       		.byte	0
 2058 0ef1 06       		.uleb128 0x6
 2059 0ef2 43060000 		.4byte	.LASF225
 2060 0ef6 10       		.byte	0x10
 2061 0ef7 8A       		.byte	0x8a
 2062 0ef8 E1030000 		.4byte	0x3e1
 2063 0efc 04       		.byte	0x4
 2064 0efd 06       		.uleb128 0x6
 2065 0efe 3E030000 		.4byte	.LASF226
 2066 0f02 10       		.byte	0x10
 2067 0f03 8A       		.byte	0x8a
 2068 0f04 7A060000 		.4byte	0x67a
 2069 0f08 08       		.byte	0x8
 2070 0f09 06       		.uleb128 0x6
 2071 0f0a D8080000 		.4byte	.LASF227
 2072 0f0e 10       		.byte	0x10
 2073 0f0f 8A       		.byte	0x8a
 2074 0f10 C30E0000 		.4byte	0xec3
 2075 0f14 0C       		.byte	0xc
 2076 0f15 06       		.uleb128 0x6
 2077 0f16 32070000 		.4byte	.LASF228
 2078 0f1a 10       		.byte	0x10
 2079 0f1b 8A       		.byte	0x8a
 2080 0f1c ED040000 		.4byte	0x4ed
 2081 0f20 10       		.byte	0x10
 2082 0f21 06       		.uleb128 0x6
 2083 0f22 CD010000 		.4byte	.LASF229
 2084 0f26 10       		.byte	0x10
 2085 0f27 8A       		.byte	0x8a
 2086 0f28 F8040000 		.4byte	0x4f8
 2087 0f2c 30       		.byte	0x30
 2088 0f2d 07       		.uleb128 0x7
 2089 0f2e 696200   		.ascii	"ib\000"
 2090 0f31 10       		.byte	0x10
 2091 0f32 8A       		.byte	0x8a
 2092 0f33 00100000 		.4byte	0x1000
 2093 0f37 50       		.byte	0x50
 2094 0f38 07       		.uleb128 0x7
 2095 0f39 6F6200   		.ascii	"ob\000"
 2096 0f3c 10       		.byte	0x10
 2097 0f3d 8A       		.byte	0x8a
 2098 0f3e 00100000 		.4byte	0x1000
 2099 0f42 60       		.byte	0x60
 2100 0f43 06       		.uleb128 0x6
 2101 0f44 D3080000 		.4byte	.LASF230
 2102 0f48 10       		.byte	0x10
 2103 0f49 8A       		.byte	0x8a
 2104 0f4a 10100000 		.4byte	0x1010
ARM GAS  /tmp/ccp5l5Du.s 			page 38


 2105 0f4e 70       		.byte	0x70
 2106 0f4f 00       		.byte	0
 2107 0f50 08       		.uleb128 0x8
 2108 0f51 08       		.byte	0x8
 2109 0f52 11       		.byte	0x11
 2110 0f53 58       		.byte	0x58
 2111 0f54 710F0000 		.4byte	0xf71
 2112 0f58 06       		.uleb128 0x6
 2113 0f59 9E060000 		.4byte	.LASF231
 2114 0f5d 11       		.byte	0x11
 2115 0f5e 5D       		.byte	0x5d
 2116 0f5f B8000000 		.4byte	0xb8
 2117 0f63 00       		.byte	0
 2118 0f64 06       		.uleb128 0x6
 2119 0f65 97000000 		.4byte	.LASF232
 2120 0f69 11       		.byte	0x11
 2121 0f6a 62       		.byte	0x62
 2122 0f6b B8000000 		.4byte	0xb8
 2123 0f6f 04       		.byte	0x4
 2124 0f70 00       		.byte	0
 2125 0f71 03       		.uleb128 0x3
 2126 0f72 54000000 		.4byte	.LASF233
 2127 0f76 11       		.byte	0x11
 2128 0f77 63       		.byte	0x63
 2129 0f78 500F0000 		.4byte	0xf50
 2130 0f7c 05       		.uleb128 0x5
 2131 0f7d 50050000 		.4byte	.LASF234
 2132 0f81 24       		.byte	0x24
 2133 0f82 10       		.byte	0x10
 2134 0f83 7C       		.byte	0x7c
 2135 0f84 F50F0000 		.4byte	0xff5
 2136 0f88 06       		.uleb128 0x6
 2137 0f89 91000000 		.4byte	.LASF81
 2138 0f8d 10       		.byte	0x10
 2139 0f8e 7D       		.byte	0x7d
 2140 0f8f 27050000 		.4byte	0x527
 2141 0f93 00       		.byte	0
 2142 0f94 06       		.uleb128 0x6
 2143 0f95 51060000 		.4byte	.LASF82
 2144 0f99 10       		.byte	0x10
 2145 0f9a 7D       		.byte	0x7d
 2146 0f9b 46050000 		.4byte	0x546
 2147 0f9f 04       		.byte	0x4
 2148 0fa0 06       		.uleb128 0x6
 2149 0fa1 82030000 		.4byte	.LASF83
 2150 0fa5 10       		.byte	0x10
 2151 0fa6 7D       		.byte	0x7d
 2152 0fa7 C8050000 		.4byte	0x5c8
 2153 0fab 08       		.byte	0x8
 2154 0fac 06       		.uleb128 0x6
 2155 0fad F3060000 		.4byte	.LASF84
 2156 0fb1 10       		.byte	0x10
 2157 0fb2 7D       		.byte	0x7d
 2158 0fb3 C8050000 		.4byte	0x5c8
 2159 0fb7 0C       		.byte	0xc
 2160 0fb8 07       		.uleb128 0x7
 2161 0fb9 70757400 		.ascii	"put\000"
ARM GAS  /tmp/ccp5l5Du.s 			page 39


 2162 0fbd 10       		.byte	0x10
 2163 0fbe 7D       		.byte	0x7d
 2164 0fbf E7050000 		.4byte	0x5e7
 2165 0fc3 10       		.byte	0x10
 2166 0fc4 07       		.uleb128 0x7
 2167 0fc5 67657400 		.ascii	"get\000"
 2168 0fc9 10       		.byte	0x10
 2169 0fca 7D       		.byte	0x7d
 2170 0fcb 01060000 		.4byte	0x601
 2171 0fcf 14       		.byte	0x14
 2172 0fd0 06       		.uleb128 0x6
 2173 0fd1 61000000 		.4byte	.LASF85
 2174 0fd5 10       		.byte	0x10
 2175 0fd6 7D       		.byte	0x7d
 2176 0fd7 25060000 		.4byte	0x625
 2177 0fdb 18       		.byte	0x18
 2178 0fdc 06       		.uleb128 0x6
 2179 0fdd 4A010000 		.4byte	.LASF86
 2180 0fe1 10       		.byte	0x10
 2181 0fe2 7D       		.byte	0x7d
 2182 0fe3 49060000 		.4byte	0x649
 2183 0fe7 1C       		.byte	0x1c
 2184 0fe8 06       		.uleb128 0x6
 2185 0fe9 0A090000 		.4byte	.LASF235
 2186 0fed 10       		.byte	0x10
 2187 0fee 7D       		.byte	0x7d
 2188 0fef 95060000 		.4byte	0x695
 2189 0ff3 20       		.byte	0x20
 2190 0ff4 00       		.byte	0
 2191 0ff5 09       		.uleb128 0x9
 2192 0ff6 04       		.byte	0x4
 2193 0ff7 FB0F0000 		.4byte	0xffb
 2194 0ffb 10       		.uleb128 0x10
 2195 0ffc 7C0F0000 		.4byte	0xf7c
 2196 1000 15       		.uleb128 0x15
 2197 1001 A2000000 		.4byte	0xa2
 2198 1005 10100000 		.4byte	0x1010
 2199 1009 16       		.uleb128 0x16
 2200 100a 38030000 		.4byte	0x338
 2201 100e 0F       		.byte	0xf
 2202 100f 00       		.byte	0
 2203 1010 09       		.uleb128 0x9
 2204 1011 04       		.byte	0x4
 2205 1012 8B0E0000 		.4byte	0xe8b
 2206 1016 15       		.uleb128 0x15
 2207 1017 8C020000 		.4byte	0x28c
 2208 101b 26100000 		.4byte	0x1026
 2209 101f 16       		.uleb128 0x16
 2210 1020 38030000 		.4byte	0x338
 2211 1024 25       		.byte	0x25
 2212 1025 00       		.byte	0
 2213 1026 05       		.uleb128 0x5
 2214 1027 0A070000 		.4byte	.LASF236
 2215 102b 0C       		.byte	0xc
 2216 102c 12       		.byte	0x12
 2217 102d C8       		.byte	0xc8
 2218 102e 6E100000 		.4byte	0x106e
ARM GAS  /tmp/ccp5l5Du.s 			page 40


 2219 1032 06       		.uleb128 0x6
 2220 1033 F7050000 		.4byte	.LASF237
 2221 1037 12       		.byte	0x12
 2222 1038 CB       		.byte	0xcb
 2223 1039 B8000000 		.4byte	0xb8
 2224 103d 00       		.byte	0
 2225 103e 07       		.uleb128 0x7
 2226 103f 70696F00 		.ascii	"pio\000"
 2227 1043 12       		.byte	0x12
 2228 1044 CD       		.byte	0xcd
 2229 1045 A20E0000 		.4byte	0xea2
 2230 1049 04       		.byte	0x4
 2231 104a 07       		.uleb128 0x7
 2232 104b 696400   		.ascii	"id\000"
 2233 104e 12       		.byte	0x12
 2234 104f CF       		.byte	0xcf
 2235 1050 A2000000 		.4byte	0xa2
 2236 1054 08       		.byte	0x8
 2237 1055 06       		.uleb128 0x6
 2238 1056 D9000000 		.4byte	.LASF238
 2239 105a 12       		.byte	0x12
 2240 105b D1       		.byte	0xd1
 2241 105c A2000000 		.4byte	0xa2
 2242 1060 09       		.byte	0x9
 2243 1061 06       		.uleb128 0x6
 2244 1062 7C070000 		.4byte	.LASF239
 2245 1066 12       		.byte	0x12
 2246 1067 D3       		.byte	0xd3
 2247 1068 A2000000 		.4byte	0xa2
 2248 106c 0A       		.byte	0xa
 2249 106d 00       		.byte	0
 2250 106e 1E       		.uleb128 0x1e
 2251 106f 50696E00 		.ascii	"Pin\000"
 2252 1073 12       		.byte	0x12
 2253 1074 D4       		.byte	0xd4
 2254 1075 26100000 		.4byte	0x1026
 2255 1079 1F       		.uleb128 0x1f
 2256 107a 9B050000 		.4byte	.LASF259
 2257 107e 01       		.byte	0x1
 2258 107f 12       		.byte	0x12
 2259 1080 10010000 		.4byte	0x110
 2260 1084 00000000 		.4byte	.LFB36
 2261 1088 20000000 		.4byte	.LFE36-.LFB36
 2262 108c 01       		.uleb128 0x1
 2263 108d 9C       		.byte	0x9c
 2264 108e C6100000 		.4byte	0x10c6
 2265 1092 20       		.uleb128 0x20
 2266 1093 61726700 		.ascii	"arg\000"
 2267 1097 01       		.byte	0x1
 2268 1098 12       		.byte	0x12
 2269 1099 8A020000 		.4byte	0x28a
 2270 109d 00000000 		.4byte	.LLST0
 2271 10a1 21       		.uleb128 0x21
 2272 10a2 12000000 		.4byte	.LVL2
 2273 10a6 B0120000 		.4byte	0x12b0
 2274 10aa B5100000 		.4byte	0x10b5
 2275 10ae 22       		.uleb128 0x22
ARM GAS  /tmp/ccp5l5Du.s 			page 41


 2276 10af 01       		.uleb128 0x1
 2277 10b0 50       		.byte	0x50
 2278 10b1 02       		.uleb128 0x2
 2279 10b2 08       		.byte	0x8
 2280 10b3 32       		.byte	0x32
 2281 10b4 00       		.byte	0
 2282 10b5 23       		.uleb128 0x23
 2283 10b6 1A000000 		.4byte	.LVL3
 2284 10ba B0120000 		.4byte	0x12b0
 2285 10be 22       		.uleb128 0x22
 2286 10bf 01       		.uleb128 0x1
 2287 10c0 50       		.byte	0x50
 2288 10c1 02       		.uleb128 0x2
 2289 10c2 08       		.byte	0x8
 2290 10c3 32       		.byte	0x32
 2291 10c4 00       		.byte	0
 2292 10c5 00       		.byte	0
 2293 10c6 24       		.uleb128 0x24
 2294 10c7 BE010000 		.4byte	.LASF260
 2295 10cb 01       		.byte	0x1
 2296 10cc 23       		.byte	0x23
 2297 10cd 25000000 		.4byte	0x25
 2298 10d1 00000000 		.4byte	.LFB37
 2299 10d5 DC000000 		.4byte	.LFE37-.LFB37
 2300 10d9 01       		.uleb128 0x1
 2301 10da 9C       		.byte	0x9c
 2302 10db 4C120000 		.4byte	0x124c
 2303 10df 25       		.uleb128 0x25
 2304 10e0 59010000 		.4byte	.LASF261
 2305 10e4 01       		.byte	0x1
 2306 10e5 25       		.byte	0x25
 2307 10e6 4C120000 		.4byte	0x124c
 2308 10ea 26       		.uleb128 0x26
 2309 10eb 6900     		.ascii	"i\000"
 2310 10ed 01       		.byte	0x1
 2311 10ee 26       		.byte	0x26
 2312 10ef 57000000 		.4byte	0x57
 2313 10f3 21000000 		.4byte	.LLST1
 2314 10f7 27       		.uleb128 0x27
 2315 10f8 08000000 		.4byte	.LVL5
 2316 10fc C2120000 		.4byte	0x12c2
 2317 1100 27       		.uleb128 0x27
 2318 1101 0C000000 		.4byte	.LVL6
 2319 1105 C9120000 		.4byte	0x12c9
 2320 1109 21       		.uleb128 0x21
 2321 110a 14000000 		.4byte	.LVL7
 2322 110e D0120000 		.4byte	0x12d0
 2323 1112 1C110000 		.4byte	0x111c
 2324 1116 22       		.uleb128 0x22
 2325 1117 01       		.uleb128 0x1
 2326 1118 51       		.byte	0x51
 2327 1119 01       		.uleb128 0x1
 2328 111a 30       		.byte	0x30
 2329 111b 00       		.byte	0
 2330 111c 21       		.uleb128 0x21
 2331 111d 1C000000 		.4byte	.LVL8
 2332 1121 F8120000 		.4byte	0x12f8
ARM GAS  /tmp/ccp5l5Du.s 			page 42


 2333 1125 38110000 		.4byte	0x1138
 2334 1129 22       		.uleb128 0x22
 2335 112a 01       		.uleb128 0x1
 2336 112b 51       		.byte	0x51
 2337 112c 01       		.uleb128 0x1
 2338 112d 31       		.byte	0x31
 2339 112e 22       		.uleb128 0x22
 2340 112f 01       		.uleb128 0x1
 2341 1130 50       		.byte	0x50
 2342 1131 05       		.uleb128 0x5
 2343 1132 03       		.byte	0x3
 2344 1133 00000000 		.4byte	.LANCHOR0
 2345 1137 00       		.byte	0
 2346 1138 21       		.uleb128 0x21
 2347 1139 26000000 		.4byte	.LVL9
 2348 113d 1D130000 		.4byte	0x131d
 2349 1141 55110000 		.4byte	0x1155
 2350 1145 22       		.uleb128 0x22
 2351 1146 01       		.uleb128 0x1
 2352 1147 52       		.byte	0x52
 2353 1148 01       		.uleb128 0x1
 2354 1149 33       		.byte	0x33
 2355 114a 22       		.uleb128 0x22
 2356 114b 01       		.uleb128 0x1
 2357 114c 51       		.byte	0x51
 2358 114d 01       		.uleb128 0x1
 2359 114e 4F       		.byte	0x4f
 2360 114f 22       		.uleb128 0x22
 2361 1150 01       		.uleb128 0x1
 2362 1151 50       		.byte	0x50
 2363 1152 01       		.uleb128 0x1
 2364 1153 30       		.byte	0x30
 2365 1154 00       		.byte	0
 2366 1155 21       		.uleb128 0x21
 2367 1156 30000000 		.4byte	.LVL10
 2368 115a 38130000 		.4byte	0x1338
 2369 115e 6D110000 		.4byte	0x116d
 2370 1162 22       		.uleb128 0x22
 2371 1163 01       		.uleb128 0x1
 2372 1164 51       		.byte	0x51
 2373 1165 01       		.uleb128 0x1
 2374 1166 40       		.byte	0x40
 2375 1167 22       		.uleb128 0x22
 2376 1168 01       		.uleb128 0x1
 2377 1169 50       		.byte	0x50
 2378 116a 01       		.uleb128 0x1
 2379 116b 31       		.byte	0x31
 2380 116c 00       		.byte	0
 2381 116d 21       		.uleb128 0x21
 2382 116e 38000000 		.4byte	.LVL11
 2383 1172 38130000 		.4byte	0x1338
 2384 1176 85110000 		.4byte	0x1185
 2385 117a 22       		.uleb128 0x22
 2386 117b 01       		.uleb128 0x1
 2387 117c 51       		.byte	0x51
 2388 117d 01       		.uleb128 0x1
 2389 117e 40       		.byte	0x40
ARM GAS  /tmp/ccp5l5Du.s 			page 43


 2390 117f 22       		.uleb128 0x22
 2391 1180 01       		.uleb128 0x1
 2392 1181 50       		.byte	0x50
 2393 1182 01       		.uleb128 0x1
 2394 1183 32       		.byte	0x32
 2395 1184 00       		.byte	0
 2396 1185 21       		.uleb128 0x21
 2397 1186 40000000 		.4byte	.LVL12
 2398 118a 4E130000 		.4byte	0x134e
 2399 118e 9D110000 		.4byte	0x119d
 2400 1192 22       		.uleb128 0x22
 2401 1193 01       		.uleb128 0x1
 2402 1194 51       		.byte	0x51
 2403 1195 01       		.uleb128 0x1
 2404 1196 40       		.byte	0x40
 2405 1197 22       		.uleb128 0x22
 2406 1198 01       		.uleb128 0x1
 2407 1199 50       		.byte	0x50
 2408 119a 01       		.uleb128 0x1
 2409 119b 32       		.byte	0x32
 2410 119c 00       		.byte	0
 2411 119d 21       		.uleb128 0x21
 2412 119e 46000000 		.4byte	.LVL13
 2413 11a2 64130000 		.4byte	0x1364
 2414 11a6 B1110000 		.4byte	0x11b1
 2415 11aa 22       		.uleb128 0x22
 2416 11ab 01       		.uleb128 0x1
 2417 11ac 50       		.byte	0x50
 2418 11ad 02       		.uleb128 0x2
 2419 11ae 75       		.byte	0x75
 2420 11af 00       		.sleb128 0
 2421 11b0 00       		.byte	0
 2422 11b1 21       		.uleb128 0x21
 2423 11b2 50000000 		.4byte	.LVL14
 2424 11b6 7B130000 		.4byte	0x137b
 2425 11ba D3110000 		.4byte	0x11d3
 2426 11be 22       		.uleb128 0x22
 2427 11bf 01       		.uleb128 0x1
 2428 11c0 52       		.byte	0x52
 2429 11c1 05       		.uleb128 0x5
 2430 11c2 0C       		.byte	0xc
 2431 11c3 FF760100 		.4byte	0x176ff
 2432 11c7 22       		.uleb128 0x22
 2433 11c8 01       		.uleb128 0x1
 2434 11c9 51       		.byte	0x51
 2435 11ca 01       		.uleb128 0x1
 2436 11cb 3F       		.byte	0x3f
 2437 11cc 22       		.uleb128 0x22
 2438 11cd 01       		.uleb128 0x1
 2439 11ce 50       		.byte	0x50
 2440 11cf 02       		.uleb128 0x2
 2441 11d0 75       		.byte	0x75
 2442 11d1 00       		.sleb128 0
 2443 11d2 00       		.byte	0
 2444 11d3 21       		.uleb128 0x21
 2445 11d4 58000000 		.4byte	.LVL15
 2446 11d8 96130000 		.4byte	0x1396
ARM GAS  /tmp/ccp5l5Du.s 			page 44


 2447 11dc F0110000 		.4byte	0x11f0
 2448 11e0 22       		.uleb128 0x22
 2449 11e1 01       		.uleb128 0x1
 2450 11e2 51       		.byte	0x51
 2451 11e3 05       		.uleb128 0x5
 2452 11e4 0C       		.byte	0xc
 2453 11e5 006CDC02 		.4byte	0x2dc6c00
 2454 11e9 22       		.uleb128 0x22
 2455 11ea 01       		.uleb128 0x1
 2456 11eb 50       		.byte	0x50
 2457 11ec 02       		.uleb128 0x2
 2458 11ed 75       		.byte	0x75
 2459 11ee 00       		.sleb128 0
 2460 11ef 00       		.byte	0
 2461 11f0 21       		.uleb128 0x21
 2462 11f1 7A000000 		.4byte	.LVL16
 2463 11f5 AC130000 		.4byte	0x13ac
 2464 11f9 23120000 		.4byte	0x1223
 2465 11fd 22       		.uleb128 0x22
 2466 11fe 01       		.uleb128 0x1
 2467 11ff 53       		.byte	0x53
 2468 1200 05       		.uleb128 0x5
 2469 1201 03       		.byte	0x3
 2470 1202 00000000 		.4byte	Thread1
 2471 1206 22       		.uleb128 0x22
 2472 1207 01       		.uleb128 0x1
 2473 1208 52       		.byte	0x52
 2474 1209 02       		.uleb128 0x2
 2475 120a 08       		.byte	0x8
 2476 120b 40       		.byte	0x40
 2477 120c 22       		.uleb128 0x22
 2478 120d 01       		.uleb128 0x1
 2479 120e 51       		.byte	0x51
 2480 120f 03       		.uleb128 0x3
 2481 1210 0A       		.byte	0xa
 2482 1211 3001     		.2byte	0x130
 2483 1213 22       		.uleb128 0x22
 2484 1214 01       		.uleb128 0x1
 2485 1215 50       		.byte	0x50
 2486 1216 05       		.uleb128 0x5
 2487 1217 03       		.byte	0x3
 2488 1218 00000000 		.4byte	.LANCHOR1
 2489 121c 22       		.uleb128 0x22
 2490 121d 02       		.uleb128 0x2
 2491 121e 7D       		.byte	0x7d
 2492 121f 00       		.sleb128 0
 2493 1220 01       		.uleb128 0x1
 2494 1221 30       		.byte	0x30
 2495 1222 00       		.byte	0
 2496 1223 21       		.uleb128 0x21
 2497 1224 8A000000 		.4byte	.LVL18
 2498 1228 B0120000 		.4byte	0x12b0
 2499 122c 38120000 		.4byte	0x1238
 2500 1230 22       		.uleb128 0x22
 2501 1231 01       		.uleb128 0x1
 2502 1232 50       		.byte	0x50
 2503 1233 03       		.uleb128 0x3
ARM GAS  /tmp/ccp5l5Du.s 			page 45


 2504 1234 0A       		.byte	0xa
 2505 1235 F401     		.2byte	0x1f4
 2506 1237 00       		.byte	0
 2507 1238 23       		.uleb128 0x23
 2508 1239 A6000000 		.4byte	.LVL19
 2509 123d D6130000 		.4byte	0x13d6
 2510 1241 22       		.uleb128 0x22
 2511 1242 01       		.uleb128 0x1
 2512 1243 51       		.byte	0x51
 2513 1244 05       		.uleb128 0x5
 2514 1245 03       		.byte	0x3
 2515 1246 00000000 		.4byte	.LC0
 2516 124a 00       		.byte	0
 2517 124b 00       		.byte	0
 2518 124c 15       		.uleb128 0x15
 2519 124d 25000000 		.4byte	0x25
 2520 1251 5D120000 		.4byte	0x125d
 2521 1255 28       		.uleb128 0x28
 2522 1256 38030000 		.4byte	0x338
 2523 125a E803     		.2byte	0x3e8
 2524 125c 00       		.byte	0
 2525 125d 29       		.uleb128 0x29
 2526 125e 6B0A0000 		.4byte	.LASF240
 2527 1262 01       		.byte	0x1
 2528 1263 11       		.byte	0x11
 2529 1264 16100000 		.4byte	0x1016
 2530 1268 05       		.uleb128 0x5
 2531 1269 03       		.byte	0x3
 2532 126a 00000000 		.4byte	waThread1
 2533 126e 2A       		.uleb128 0x2a
 2534 126f 06060000 		.4byte	.LASF241
 2535 1273 13       		.byte	0x13
 2536 1274 CE06     		.2byte	0x6ce
 2537 1276 7A120000 		.4byte	0x127a
 2538 127a 0D       		.uleb128 0xd
 2539 127b 25000000 		.4byte	0x25
 2540 127f 2B       		.uleb128 0x2b
 2541 1280 53443200 		.ascii	"SD2\000"
 2542 1284 11       		.byte	0x11
 2543 1285 85       		.byte	0x85
 2544 1286 CE0E0000 		.4byte	0xece
 2545 128a 15       		.uleb128 0x15
 2546 128b 6E100000 		.4byte	0x106e
 2547 128f 9A120000 		.4byte	0x129a
 2548 1293 16       		.uleb128 0x16
 2549 1294 38030000 		.4byte	0x338
 2550 1298 00       		.byte	0
 2551 1299 00       		.byte	0
 2552 129a 2C       		.uleb128 0x2c
 2553 129b BD060000 		.4byte	.LASF242
 2554 129f 01       		.byte	0x1
 2555 12a0 0F       		.byte	0xf
 2556 12a1 AB120000 		.4byte	0x12ab
 2557 12a5 05       		.uleb128 0x5
 2558 12a6 03       		.byte	0x3
 2559 12a7 00000000 		.4byte	pinPCK
 2560 12ab 10       		.uleb128 0x10
ARM GAS  /tmp/ccp5l5Du.s 			page 46


 2561 12ac 8A120000 		.4byte	0x128a
 2562 12b0 2D       		.uleb128 0x2d
 2563 12b1 CB030000 		.4byte	.LASF245
 2564 12b5 08       		.byte	0x8
 2565 12b6 6901     		.2byte	0x169
 2566 12b8 C2120000 		.4byte	0x12c2
 2567 12bc 12       		.uleb128 0x12
 2568 12bd 26010000 		.4byte	0x126
 2569 12c1 00       		.byte	0
 2570 12c2 2E       		.uleb128 0x2e
 2571 12c3 7A050000 		.4byte	.LASF243
 2572 12c7 14       		.byte	0x14
 2573 12c8 A4       		.byte	0xa4
 2574 12c9 2E       		.uleb128 0x2e
 2575 12ca 4D090000 		.4byte	.LASF244
 2576 12ce 15       		.byte	0x15
 2577 12cf F6       		.byte	0xf6
 2578 12d0 2D       		.uleb128 0x2d
 2579 12d1 60050000 		.4byte	.LASF246
 2580 12d5 10       		.byte	0x10
 2581 12d6 3901     		.2byte	0x139
 2582 12d8 E7120000 		.4byte	0x12e7
 2583 12dc 12       		.uleb128 0x12
 2584 12dd E7120000 		.4byte	0x12e7
 2585 12e1 12       		.uleb128 0x12
 2586 12e2 ED120000 		.4byte	0x12ed
 2587 12e6 00       		.byte	0
 2588 12e7 09       		.uleb128 0x9
 2589 12e8 04       		.byte	0x4
 2590 12e9 CE0E0000 		.4byte	0xece
 2591 12ed 09       		.uleb128 0x9
 2592 12ee 04       		.byte	0x4
 2593 12ef F3120000 		.4byte	0x12f3
 2594 12f3 10       		.uleb128 0x10
 2595 12f4 710F0000 		.4byte	0xf71
 2596 12f8 2F       		.uleb128 0x2f
 2597 12f9 12000000 		.4byte	.LASF253
 2598 12fd 12       		.byte	0x12
 2599 12fe DE       		.byte	0xde
 2600 12ff A2000000 		.4byte	0xa2
 2601 1303 12130000 		.4byte	0x1312
 2602 1307 12       		.uleb128 0x12
 2603 1308 12130000 		.4byte	0x1312
 2604 130c 12       		.uleb128 0x12
 2605 130d B8000000 		.4byte	0xb8
 2606 1311 00       		.byte	0
 2607 1312 09       		.uleb128 0x9
 2608 1313 04       		.byte	0x4
 2609 1314 18130000 		.4byte	0x1318
 2610 1318 10       		.uleb128 0x10
 2611 1319 6E100000 		.4byte	0x106e
 2612 131d 30       		.uleb128 0x30
 2613 131e 23010000 		.4byte	.LASF247
 2614 1322 16       		.byte	0x16
 2615 1323 39       		.byte	0x39
 2616 1324 38130000 		.4byte	0x1338
 2617 1328 12       		.uleb128 0x12
ARM GAS  /tmp/ccp5l5Du.s 			page 47


 2618 1329 A2000000 		.4byte	0xa2
 2619 132d 12       		.uleb128 0x12
 2620 132e B8000000 		.4byte	0xb8
 2621 1332 12       		.uleb128 0x12
 2622 1333 B8000000 		.4byte	0xb8
 2623 1337 00       		.byte	0
 2624 1338 30       		.uleb128 0x30
 2625 1339 D6090000 		.4byte	.LASF248
 2626 133d 16       		.byte	0x16
 2627 133e 36       		.byte	0x36
 2628 133f 4E130000 		.4byte	0x134e
 2629 1343 12       		.uleb128 0x12
 2630 1344 B8000000 		.4byte	0xb8
 2631 1348 12       		.uleb128 0x12
 2632 1349 B8000000 		.4byte	0xb8
 2633 134d 00       		.byte	0
 2634 134e 30       		.uleb128 0x30
 2635 134f F9040000 		.4byte	.LASF249
 2636 1353 16       		.byte	0x16
 2637 1354 37       		.byte	0x37
 2638 1355 64130000 		.4byte	0x1364
 2639 1359 12       		.uleb128 0x12
 2640 135a B8000000 		.4byte	0xb8
 2641 135e 12       		.uleb128 0x12
 2642 135f B8000000 		.4byte	0xb8
 2643 1363 00       		.byte	0
 2644 1364 30       		.uleb128 0x30
 2645 1365 1F0A0000 		.4byte	.LASF250
 2646 1369 17       		.byte	0x17
 2647 136a 87       		.byte	0x87
 2648 136b 75130000 		.4byte	0x1375
 2649 136f 12       		.uleb128 0x12
 2650 1370 75130000 		.4byte	0x1375
 2651 1374 00       		.byte	0
 2652 1375 09       		.uleb128 0x9
 2653 1376 04       		.byte	0x4
 2654 1377 06090000 		.4byte	0x906
 2655 137b 30       		.uleb128 0x30
 2656 137c 18070000 		.4byte	.LASF251
 2657 1380 17       		.byte	0x17
 2658 1381 89       		.byte	0x89
 2659 1382 96130000 		.4byte	0x1396
 2660 1386 12       		.uleb128 0x12
 2661 1387 75130000 		.4byte	0x1375
 2662 138b 12       		.uleb128 0x12
 2663 138c B8000000 		.4byte	0xb8
 2664 1390 12       		.uleb128 0x12
 2665 1391 B8000000 		.4byte	0xb8
 2666 1395 00       		.byte	0
 2667 1396 30       		.uleb128 0x30
 2668 1397 7A060000 		.4byte	.LASF252
 2669 139b 17       		.byte	0x17
 2670 139c 8E       		.byte	0x8e
 2671 139d AC130000 		.4byte	0x13ac
 2672 13a1 12       		.uleb128 0x12
 2673 13a2 75130000 		.4byte	0x1375
 2674 13a6 12       		.uleb128 0x12
ARM GAS  /tmp/ccp5l5Du.s 			page 48


 2675 13a7 B8000000 		.4byte	0xb8
 2676 13ab 00       		.byte	0
 2677 13ac 31       		.uleb128 0x31
 2678 13ad C2050000 		.4byte	.LASF254
 2679 13b1 08       		.byte	0x8
 2680 13b2 6401     		.2byte	0x164
 2681 13b4 4E020000 		.4byte	0x24e
 2682 13b8 D6130000 		.4byte	0x13d6
 2683 13bc 12       		.uleb128 0x12
 2684 13bd 8A020000 		.4byte	0x28a
 2685 13c1 12       		.uleb128 0x12
 2686 13c2 2C000000 		.4byte	0x2c
 2687 13c6 12       		.uleb128 0x12
 2688 13c7 05010000 		.4byte	0x105
 2689 13cb 12       		.uleb128 0x12
 2690 13cc 39040000 		.4byte	0x439
 2691 13d0 12       		.uleb128 0x12
 2692 13d1 8A020000 		.4byte	0x28a
 2693 13d5 00       		.byte	0
 2694 13d6 30       		.uleb128 0x30
 2695 13d7 C2030000 		.4byte	.LASF255
 2696 13db 18       		.byte	0x18
 2697 13dc 2A       		.byte	0x2a
 2698 13dd ED130000 		.4byte	0x13ed
 2699 13e1 12       		.uleb128 0x12
 2700 13e2 ED130000 		.4byte	0x13ed
 2701 13e6 12       		.uleb128 0x12
 2702 13e7 21040000 		.4byte	0x421
 2703 13eb 32       		.uleb128 0x32
 2704 13ec 00       		.byte	0
 2705 13ed 09       		.uleb128 0x9
 2706 13ee 04       		.byte	0x4
 2707 13ef 6F060000 		.4byte	0x66f
 2708 13f3 00       		.byte	0
 2709              		.section	.debug_abbrev,"",%progbits
 2710              	.Ldebug_abbrev0:
 2711 0000 01       		.uleb128 0x1
 2712 0001 11       		.uleb128 0x11
 2713 0002 01       		.byte	0x1
 2714 0003 25       		.uleb128 0x25
 2715 0004 0E       		.uleb128 0xe
 2716 0005 13       		.uleb128 0x13
 2717 0006 0B       		.uleb128 0xb
 2718 0007 03       		.uleb128 0x3
 2719 0008 0E       		.uleb128 0xe
 2720 0009 1B       		.uleb128 0x1b
 2721 000a 0E       		.uleb128 0xe
 2722 000b 55       		.uleb128 0x55
 2723 000c 17       		.uleb128 0x17
 2724 000d 11       		.uleb128 0x11
 2725 000e 01       		.uleb128 0x1
 2726 000f 10       		.uleb128 0x10
 2727 0010 17       		.uleb128 0x17
 2728 0011 00       		.byte	0
 2729 0012 00       		.byte	0
 2730 0013 02       		.uleb128 0x2
 2731 0014 24       		.uleb128 0x24
ARM GAS  /tmp/ccp5l5Du.s 			page 49


 2732 0015 00       		.byte	0
 2733 0016 0B       		.uleb128 0xb
 2734 0017 0B       		.uleb128 0xb
 2735 0018 3E       		.uleb128 0x3e
 2736 0019 0B       		.uleb128 0xb
 2737 001a 03       		.uleb128 0x3
 2738 001b 08       		.uleb128 0x8
 2739 001c 00       		.byte	0
 2740 001d 00       		.byte	0
 2741 001e 03       		.uleb128 0x3
 2742 001f 16       		.uleb128 0x16
 2743 0020 00       		.byte	0
 2744 0021 03       		.uleb128 0x3
 2745 0022 0E       		.uleb128 0xe
 2746 0023 3A       		.uleb128 0x3a
 2747 0024 0B       		.uleb128 0xb
 2748 0025 3B       		.uleb128 0x3b
 2749 0026 0B       		.uleb128 0xb
 2750 0027 49       		.uleb128 0x49
 2751 0028 13       		.uleb128 0x13
 2752 0029 00       		.byte	0
 2753 002a 00       		.byte	0
 2754 002b 04       		.uleb128 0x4
 2755 002c 24       		.uleb128 0x24
 2756 002d 00       		.byte	0
 2757 002e 0B       		.uleb128 0xb
 2758 002f 0B       		.uleb128 0xb
 2759 0030 3E       		.uleb128 0x3e
 2760 0031 0B       		.uleb128 0xb
 2761 0032 03       		.uleb128 0x3
 2762 0033 0E       		.uleb128 0xe
 2763 0034 00       		.byte	0
 2764 0035 00       		.byte	0
 2765 0036 05       		.uleb128 0x5
 2766 0037 13       		.uleb128 0x13
 2767 0038 01       		.byte	0x1
 2768 0039 03       		.uleb128 0x3
 2769 003a 0E       		.uleb128 0xe
 2770 003b 0B       		.uleb128 0xb
 2771 003c 0B       		.uleb128 0xb
 2772 003d 3A       		.uleb128 0x3a
 2773 003e 0B       		.uleb128 0xb
 2774 003f 3B       		.uleb128 0x3b
 2775 0040 0B       		.uleb128 0xb
 2776 0041 01       		.uleb128 0x1
 2777 0042 13       		.uleb128 0x13
 2778 0043 00       		.byte	0
 2779 0044 00       		.byte	0
 2780 0045 06       		.uleb128 0x6
 2781 0046 0D       		.uleb128 0xd
 2782 0047 00       		.byte	0
 2783 0048 03       		.uleb128 0x3
 2784 0049 0E       		.uleb128 0xe
 2785 004a 3A       		.uleb128 0x3a
 2786 004b 0B       		.uleb128 0xb
 2787 004c 3B       		.uleb128 0x3b
 2788 004d 0B       		.uleb128 0xb
ARM GAS  /tmp/ccp5l5Du.s 			page 50


 2789 004e 49       		.uleb128 0x49
 2790 004f 13       		.uleb128 0x13
 2791 0050 38       		.uleb128 0x38
 2792 0051 0B       		.uleb128 0xb
 2793 0052 00       		.byte	0
 2794 0053 00       		.byte	0
 2795 0054 07       		.uleb128 0x7
 2796 0055 0D       		.uleb128 0xd
 2797 0056 00       		.byte	0
 2798 0057 03       		.uleb128 0x3
 2799 0058 08       		.uleb128 0x8
 2800 0059 3A       		.uleb128 0x3a
 2801 005a 0B       		.uleb128 0xb
 2802 005b 3B       		.uleb128 0x3b
 2803 005c 0B       		.uleb128 0xb
 2804 005d 49       		.uleb128 0x49
 2805 005e 13       		.uleb128 0x13
 2806 005f 38       		.uleb128 0x38
 2807 0060 0B       		.uleb128 0xb
 2808 0061 00       		.byte	0
 2809 0062 00       		.byte	0
 2810 0063 08       		.uleb128 0x8
 2811 0064 13       		.uleb128 0x13
 2812 0065 01       		.byte	0x1
 2813 0066 0B       		.uleb128 0xb
 2814 0067 0B       		.uleb128 0xb
 2815 0068 3A       		.uleb128 0x3a
 2816 0069 0B       		.uleb128 0xb
 2817 006a 3B       		.uleb128 0x3b
 2818 006b 0B       		.uleb128 0xb
 2819 006c 01       		.uleb128 0x1
 2820 006d 13       		.uleb128 0x13
 2821 006e 00       		.byte	0
 2822 006f 00       		.byte	0
 2823 0070 09       		.uleb128 0x9
 2824 0071 0F       		.uleb128 0xf
 2825 0072 00       		.byte	0
 2826 0073 0B       		.uleb128 0xb
 2827 0074 0B       		.uleb128 0xb
 2828 0075 49       		.uleb128 0x49
 2829 0076 13       		.uleb128 0x13
 2830 0077 00       		.byte	0
 2831 0078 00       		.byte	0
 2832 0079 0A       		.uleb128 0xa
 2833 007a 0F       		.uleb128 0xf
 2834 007b 00       		.byte	0
 2835 007c 0B       		.uleb128 0xb
 2836 007d 0B       		.uleb128 0xb
 2837 007e 00       		.byte	0
 2838 007f 00       		.byte	0
 2839 0080 0B       		.uleb128 0xb
 2840 0081 0D       		.uleb128 0xd
 2841 0082 00       		.byte	0
 2842 0083 03       		.uleb128 0x3
 2843 0084 08       		.uleb128 0x8
 2844 0085 3A       		.uleb128 0x3a
 2845 0086 0B       		.uleb128 0xb
ARM GAS  /tmp/ccp5l5Du.s 			page 51


 2846 0087 3B       		.uleb128 0x3b
 2847 0088 05       		.uleb128 0x5
 2848 0089 49       		.uleb128 0x49
 2849 008a 13       		.uleb128 0x13
 2850 008b 38       		.uleb128 0x38
 2851 008c 0B       		.uleb128 0xb
 2852 008d 00       		.byte	0
 2853 008e 00       		.byte	0
 2854 008f 0C       		.uleb128 0xc
 2855 0090 13       		.uleb128 0x13
 2856 0091 01       		.byte	0x1
 2857 0092 03       		.uleb128 0x3
 2858 0093 0E       		.uleb128 0xe
 2859 0094 0B       		.uleb128 0xb
 2860 0095 0B       		.uleb128 0xb
 2861 0096 3A       		.uleb128 0x3a
 2862 0097 0B       		.uleb128 0xb
 2863 0098 3B       		.uleb128 0x3b
 2864 0099 05       		.uleb128 0x5
 2865 009a 01       		.uleb128 0x1
 2866 009b 13       		.uleb128 0x13
 2867 009c 00       		.byte	0
 2868 009d 00       		.byte	0
 2869 009e 0D       		.uleb128 0xd
 2870 009f 35       		.uleb128 0x35
 2871 00a0 00       		.byte	0
 2872 00a1 49       		.uleb128 0x49
 2873 00a2 13       		.uleb128 0x13
 2874 00a3 00       		.byte	0
 2875 00a4 00       		.byte	0
 2876 00a5 0E       		.uleb128 0xe
 2877 00a6 17       		.uleb128 0x17
 2878 00a7 01       		.byte	0x1
 2879 00a8 0B       		.uleb128 0xb
 2880 00a9 0B       		.uleb128 0xb
 2881 00aa 3A       		.uleb128 0x3a
 2882 00ab 0B       		.uleb128 0xb
 2883 00ac 3B       		.uleb128 0x3b
 2884 00ad 0B       		.uleb128 0xb
 2885 00ae 01       		.uleb128 0x1
 2886 00af 13       		.uleb128 0x13
 2887 00b0 00       		.byte	0
 2888 00b1 00       		.byte	0
 2889 00b2 0F       		.uleb128 0xf
 2890 00b3 0D       		.uleb128 0xd
 2891 00b4 00       		.byte	0
 2892 00b5 03       		.uleb128 0x3
 2893 00b6 0E       		.uleb128 0xe
 2894 00b7 3A       		.uleb128 0x3a
 2895 00b8 0B       		.uleb128 0xb
 2896 00b9 3B       		.uleb128 0x3b
 2897 00ba 0B       		.uleb128 0xb
 2898 00bb 49       		.uleb128 0x49
 2899 00bc 13       		.uleb128 0x13
 2900 00bd 00       		.byte	0
 2901 00be 00       		.byte	0
 2902 00bf 10       		.uleb128 0x10
ARM GAS  /tmp/ccp5l5Du.s 			page 52


 2903 00c0 26       		.uleb128 0x26
 2904 00c1 00       		.byte	0
 2905 00c2 49       		.uleb128 0x49
 2906 00c3 13       		.uleb128 0x13
 2907 00c4 00       		.byte	0
 2908 00c5 00       		.byte	0
 2909 00c6 11       		.uleb128 0x11
 2910 00c7 15       		.uleb128 0x15
 2911 00c8 01       		.byte	0x1
 2912 00c9 27       		.uleb128 0x27
 2913 00ca 19       		.uleb128 0x19
 2914 00cb 49       		.uleb128 0x49
 2915 00cc 13       		.uleb128 0x13
 2916 00cd 01       		.uleb128 0x1
 2917 00ce 13       		.uleb128 0x13
 2918 00cf 00       		.byte	0
 2919 00d0 00       		.byte	0
 2920 00d1 12       		.uleb128 0x12
 2921 00d2 05       		.uleb128 0x5
 2922 00d3 00       		.byte	0
 2923 00d4 49       		.uleb128 0x49
 2924 00d5 13       		.uleb128 0x13
 2925 00d6 00       		.byte	0
 2926 00d7 00       		.byte	0
 2927 00d8 13       		.uleb128 0x13
 2928 00d9 15       		.uleb128 0x15
 2929 00da 01       		.byte	0x1
 2930 00db 27       		.uleb128 0x27
 2931 00dc 19       		.uleb128 0x19
 2932 00dd 01       		.uleb128 0x1
 2933 00de 13       		.uleb128 0x13
 2934 00df 00       		.byte	0
 2935 00e0 00       		.byte	0
 2936 00e1 14       		.uleb128 0x14
 2937 00e2 16       		.uleb128 0x16
 2938 00e3 00       		.byte	0
 2939 00e4 03       		.uleb128 0x3
 2940 00e5 0E       		.uleb128 0xe
 2941 00e6 3A       		.uleb128 0x3a
 2942 00e7 0B       		.uleb128 0xb
 2943 00e8 3B       		.uleb128 0x3b
 2944 00e9 05       		.uleb128 0x5
 2945 00ea 49       		.uleb128 0x49
 2946 00eb 13       		.uleb128 0x13
 2947 00ec 00       		.byte	0
 2948 00ed 00       		.byte	0
 2949 00ee 15       		.uleb128 0x15
 2950 00ef 01       		.uleb128 0x1
 2951 00f0 01       		.byte	0x1
 2952 00f1 49       		.uleb128 0x49
 2953 00f2 13       		.uleb128 0x13
 2954 00f3 01       		.uleb128 0x1
 2955 00f4 13       		.uleb128 0x13
 2956 00f5 00       		.byte	0
 2957 00f6 00       		.byte	0
 2958 00f7 16       		.uleb128 0x16
 2959 00f8 21       		.uleb128 0x21
ARM GAS  /tmp/ccp5l5Du.s 			page 53


 2960 00f9 00       		.byte	0
 2961 00fa 49       		.uleb128 0x49
 2962 00fb 13       		.uleb128 0x13
 2963 00fc 2F       		.uleb128 0x2f
 2964 00fd 0B       		.uleb128 0xb
 2965 00fe 00       		.byte	0
 2966 00ff 00       		.byte	0
 2967 0100 17       		.uleb128 0x17
 2968 0101 13       		.uleb128 0x13
 2969 0102 01       		.byte	0x1
 2970 0103 0B       		.uleb128 0xb
 2971 0104 05       		.uleb128 0x5
 2972 0105 3A       		.uleb128 0x3a
 2973 0106 0B       		.uleb128 0xb
 2974 0107 3B       		.uleb128 0x3b
 2975 0108 0B       		.uleb128 0xb
 2976 0109 01       		.uleb128 0x1
 2977 010a 13       		.uleb128 0x13
 2978 010b 00       		.byte	0
 2979 010c 00       		.byte	0
 2980 010d 18       		.uleb128 0x18
 2981 010e 0D       		.uleb128 0xd
 2982 010f 00       		.byte	0
 2983 0110 03       		.uleb128 0x3
 2984 0111 0E       		.uleb128 0xe
 2985 0112 3A       		.uleb128 0x3a
 2986 0113 0B       		.uleb128 0xb
 2987 0114 3B       		.uleb128 0x3b
 2988 0115 05       		.uleb128 0x5
 2989 0116 49       		.uleb128 0x49
 2990 0117 13       		.uleb128 0x13
 2991 0118 38       		.uleb128 0x38
 2992 0119 0B       		.uleb128 0xb
 2993 011a 00       		.byte	0
 2994 011b 00       		.byte	0
 2995 011c 19       		.uleb128 0x19
 2996 011d 0D       		.uleb128 0xd
 2997 011e 00       		.byte	0
 2998 011f 03       		.uleb128 0x3
 2999 0120 0E       		.uleb128 0xe
 3000 0121 3A       		.uleb128 0x3a
 3001 0122 0B       		.uleb128 0xb
 3002 0123 3B       		.uleb128 0x3b
 3003 0124 05       		.uleb128 0x5
 3004 0125 49       		.uleb128 0x49
 3005 0126 13       		.uleb128 0x13
 3006 0127 38       		.uleb128 0x38
 3007 0128 05       		.uleb128 0x5
 3008 0129 00       		.byte	0
 3009 012a 00       		.byte	0
 3010 012b 1A       		.uleb128 0x1a
 3011 012c 16       		.uleb128 0x16
 3012 012d 00       		.byte	0
 3013 012e 03       		.uleb128 0x3
 3014 012f 08       		.uleb128 0x8
 3015 0130 3A       		.uleb128 0x3a
 3016 0131 0B       		.uleb128 0xb
ARM GAS  /tmp/ccp5l5Du.s 			page 54


 3017 0132 3B       		.uleb128 0x3b
 3018 0133 05       		.uleb128 0x5
 3019 0134 49       		.uleb128 0x49
 3020 0135 13       		.uleb128 0x13
 3021 0136 00       		.byte	0
 3022 0137 00       		.byte	0
 3023 0138 1B       		.uleb128 0x1b
 3024 0139 13       		.uleb128 0x13
 3025 013a 01       		.byte	0x1
 3026 013b 0B       		.uleb128 0xb
 3027 013c 05       		.uleb128 0x5
 3028 013d 3A       		.uleb128 0x3a
 3029 013e 0B       		.uleb128 0xb
 3030 013f 3B       		.uleb128 0x3b
 3031 0140 05       		.uleb128 0x5
 3032 0141 01       		.uleb128 0x1
 3033 0142 13       		.uleb128 0x13
 3034 0143 00       		.byte	0
 3035 0144 00       		.byte	0
 3036 0145 1C       		.uleb128 0x1c
 3037 0146 04       		.uleb128 0x4
 3038 0147 01       		.byte	0x1
 3039 0148 0B       		.uleb128 0xb
 3040 0149 0B       		.uleb128 0xb
 3041 014a 3A       		.uleb128 0x3a
 3042 014b 0B       		.uleb128 0xb
 3043 014c 3B       		.uleb128 0x3b
 3044 014d 0B       		.uleb128 0xb
 3045 014e 01       		.uleb128 0x1
 3046 014f 13       		.uleb128 0x13
 3047 0150 00       		.byte	0
 3048 0151 00       		.byte	0
 3049 0152 1D       		.uleb128 0x1d
 3050 0153 28       		.uleb128 0x28
 3051 0154 00       		.byte	0
 3052 0155 03       		.uleb128 0x3
 3053 0156 0E       		.uleb128 0xe
 3054 0157 1C       		.uleb128 0x1c
 3055 0158 0D       		.uleb128 0xd
 3056 0159 00       		.byte	0
 3057 015a 00       		.byte	0
 3058 015b 1E       		.uleb128 0x1e
 3059 015c 16       		.uleb128 0x16
 3060 015d 00       		.byte	0
 3061 015e 03       		.uleb128 0x3
 3062 015f 08       		.uleb128 0x8
 3063 0160 3A       		.uleb128 0x3a
 3064 0161 0B       		.uleb128 0xb
 3065 0162 3B       		.uleb128 0x3b
 3066 0163 0B       		.uleb128 0xb
 3067 0164 49       		.uleb128 0x49
 3068 0165 13       		.uleb128 0x13
 3069 0166 00       		.byte	0
 3070 0167 00       		.byte	0
 3071 0168 1F       		.uleb128 0x1f
 3072 0169 2E       		.uleb128 0x2e
 3073 016a 01       		.byte	0x1
ARM GAS  /tmp/ccp5l5Du.s 			page 55


 3074 016b 03       		.uleb128 0x3
 3075 016c 0E       		.uleb128 0xe
 3076 016d 3A       		.uleb128 0x3a
 3077 016e 0B       		.uleb128 0xb
 3078 016f 3B       		.uleb128 0x3b
 3079 0170 0B       		.uleb128 0xb
 3080 0171 27       		.uleb128 0x27
 3081 0172 19       		.uleb128 0x19
 3082 0173 49       		.uleb128 0x49
 3083 0174 13       		.uleb128 0x13
 3084 0175 11       		.uleb128 0x11
 3085 0176 01       		.uleb128 0x1
 3086 0177 12       		.uleb128 0x12
 3087 0178 06       		.uleb128 0x6
 3088 0179 40       		.uleb128 0x40
 3089 017a 18       		.uleb128 0x18
 3090 017b 9742     		.uleb128 0x2117
 3091 017d 19       		.uleb128 0x19
 3092 017e 01       		.uleb128 0x1
 3093 017f 13       		.uleb128 0x13
 3094 0180 00       		.byte	0
 3095 0181 00       		.byte	0
 3096 0182 20       		.uleb128 0x20
 3097 0183 05       		.uleb128 0x5
 3098 0184 00       		.byte	0
 3099 0185 03       		.uleb128 0x3
 3100 0186 08       		.uleb128 0x8
 3101 0187 3A       		.uleb128 0x3a
 3102 0188 0B       		.uleb128 0xb
 3103 0189 3B       		.uleb128 0x3b
 3104 018a 0B       		.uleb128 0xb
 3105 018b 49       		.uleb128 0x49
 3106 018c 13       		.uleb128 0x13
 3107 018d 02       		.uleb128 0x2
 3108 018e 17       		.uleb128 0x17
 3109 018f 00       		.byte	0
 3110 0190 00       		.byte	0
 3111 0191 21       		.uleb128 0x21
 3112 0192 898201   		.uleb128 0x4109
 3113 0195 01       		.byte	0x1
 3114 0196 11       		.uleb128 0x11
 3115 0197 01       		.uleb128 0x1
 3116 0198 31       		.uleb128 0x31
 3117 0199 13       		.uleb128 0x13
 3118 019a 01       		.uleb128 0x1
 3119 019b 13       		.uleb128 0x13
 3120 019c 00       		.byte	0
 3121 019d 00       		.byte	0
 3122 019e 22       		.uleb128 0x22
 3123 019f 8A8201   		.uleb128 0x410a
 3124 01a2 00       		.byte	0
 3125 01a3 02       		.uleb128 0x2
 3126 01a4 18       		.uleb128 0x18
 3127 01a5 9142     		.uleb128 0x2111
 3128 01a7 18       		.uleb128 0x18
 3129 01a8 00       		.byte	0
 3130 01a9 00       		.byte	0
ARM GAS  /tmp/ccp5l5Du.s 			page 56


 3131 01aa 23       		.uleb128 0x23
 3132 01ab 898201   		.uleb128 0x4109
 3133 01ae 01       		.byte	0x1
 3134 01af 11       		.uleb128 0x11
 3135 01b0 01       		.uleb128 0x1
 3136 01b1 31       		.uleb128 0x31
 3137 01b2 13       		.uleb128 0x13
 3138 01b3 00       		.byte	0
 3139 01b4 00       		.byte	0
 3140 01b5 24       		.uleb128 0x24
 3141 01b6 2E       		.uleb128 0x2e
 3142 01b7 01       		.byte	0x1
 3143 01b8 3F       		.uleb128 0x3f
 3144 01b9 19       		.uleb128 0x19
 3145 01ba 03       		.uleb128 0x3
 3146 01bb 0E       		.uleb128 0xe
 3147 01bc 3A       		.uleb128 0x3a
 3148 01bd 0B       		.uleb128 0xb
 3149 01be 3B       		.uleb128 0x3b
 3150 01bf 0B       		.uleb128 0xb
 3151 01c0 27       		.uleb128 0x27
 3152 01c1 19       		.uleb128 0x19
 3153 01c2 49       		.uleb128 0x49
 3154 01c3 13       		.uleb128 0x13
 3155 01c4 11       		.uleb128 0x11
 3156 01c5 01       		.uleb128 0x1
 3157 01c6 12       		.uleb128 0x12
 3158 01c7 06       		.uleb128 0x6
 3159 01c8 40       		.uleb128 0x40
 3160 01c9 18       		.uleb128 0x18
 3161 01ca 9742     		.uleb128 0x2117
 3162 01cc 19       		.uleb128 0x19
 3163 01cd 01       		.uleb128 0x1
 3164 01ce 13       		.uleb128 0x13
 3165 01cf 00       		.byte	0
 3166 01d0 00       		.byte	0
 3167 01d1 25       		.uleb128 0x25
 3168 01d2 34       		.uleb128 0x34
 3169 01d3 00       		.byte	0
 3170 01d4 03       		.uleb128 0x3
 3171 01d5 0E       		.uleb128 0xe
 3172 01d6 3A       		.uleb128 0x3a
 3173 01d7 0B       		.uleb128 0xb
 3174 01d8 3B       		.uleb128 0x3b
 3175 01d9 0B       		.uleb128 0xb
 3176 01da 49       		.uleb128 0x49
 3177 01db 13       		.uleb128 0x13
 3178 01dc 00       		.byte	0
 3179 01dd 00       		.byte	0
 3180 01de 26       		.uleb128 0x26
 3181 01df 34       		.uleb128 0x34
 3182 01e0 00       		.byte	0
 3183 01e1 03       		.uleb128 0x3
 3184 01e2 08       		.uleb128 0x8
 3185 01e3 3A       		.uleb128 0x3a
 3186 01e4 0B       		.uleb128 0xb
 3187 01e5 3B       		.uleb128 0x3b
ARM GAS  /tmp/ccp5l5Du.s 			page 57


 3188 01e6 0B       		.uleb128 0xb
 3189 01e7 49       		.uleb128 0x49
 3190 01e8 13       		.uleb128 0x13
 3191 01e9 02       		.uleb128 0x2
 3192 01ea 17       		.uleb128 0x17
 3193 01eb 00       		.byte	0
 3194 01ec 00       		.byte	0
 3195 01ed 27       		.uleb128 0x27
 3196 01ee 898201   		.uleb128 0x4109
 3197 01f1 00       		.byte	0
 3198 01f2 11       		.uleb128 0x11
 3199 01f3 01       		.uleb128 0x1
 3200 01f4 31       		.uleb128 0x31
 3201 01f5 13       		.uleb128 0x13
 3202 01f6 00       		.byte	0
 3203 01f7 00       		.byte	0
 3204 01f8 28       		.uleb128 0x28
 3205 01f9 21       		.uleb128 0x21
 3206 01fa 00       		.byte	0
 3207 01fb 49       		.uleb128 0x49
 3208 01fc 13       		.uleb128 0x13
 3209 01fd 2F       		.uleb128 0x2f
 3210 01fe 05       		.uleb128 0x5
 3211 01ff 00       		.byte	0
 3212 0200 00       		.byte	0
 3213 0201 29       		.uleb128 0x29
 3214 0202 34       		.uleb128 0x34
 3215 0203 00       		.byte	0
 3216 0204 03       		.uleb128 0x3
 3217 0205 0E       		.uleb128 0xe
 3218 0206 3A       		.uleb128 0x3a
 3219 0207 0B       		.uleb128 0xb
 3220 0208 3B       		.uleb128 0x3b
 3221 0209 0B       		.uleb128 0xb
 3222 020a 49       		.uleb128 0x49
 3223 020b 13       		.uleb128 0x13
 3224 020c 02       		.uleb128 0x2
 3225 020d 18       		.uleb128 0x18
 3226 020e 00       		.byte	0
 3227 020f 00       		.byte	0
 3228 0210 2A       		.uleb128 0x2a
 3229 0211 34       		.uleb128 0x34
 3230 0212 00       		.byte	0
 3231 0213 03       		.uleb128 0x3
 3232 0214 0E       		.uleb128 0xe
 3233 0215 3A       		.uleb128 0x3a
 3234 0216 0B       		.uleb128 0xb
 3235 0217 3B       		.uleb128 0x3b
 3236 0218 05       		.uleb128 0x5
 3237 0219 49       		.uleb128 0x49
 3238 021a 13       		.uleb128 0x13
 3239 021b 3F       		.uleb128 0x3f
 3240 021c 19       		.uleb128 0x19
 3241 021d 3C       		.uleb128 0x3c
 3242 021e 19       		.uleb128 0x19
 3243 021f 00       		.byte	0
 3244 0220 00       		.byte	0
ARM GAS  /tmp/ccp5l5Du.s 			page 58


 3245 0221 2B       		.uleb128 0x2b
 3246 0222 34       		.uleb128 0x34
 3247 0223 00       		.byte	0
 3248 0224 03       		.uleb128 0x3
 3249 0225 08       		.uleb128 0x8
 3250 0226 3A       		.uleb128 0x3a
 3251 0227 0B       		.uleb128 0xb
 3252 0228 3B       		.uleb128 0x3b
 3253 0229 0B       		.uleb128 0xb
 3254 022a 49       		.uleb128 0x49
 3255 022b 13       		.uleb128 0x13
 3256 022c 3F       		.uleb128 0x3f
 3257 022d 19       		.uleb128 0x19
 3258 022e 3C       		.uleb128 0x3c
 3259 022f 19       		.uleb128 0x19
 3260 0230 00       		.byte	0
 3261 0231 00       		.byte	0
 3262 0232 2C       		.uleb128 0x2c
 3263 0233 34       		.uleb128 0x34
 3264 0234 00       		.byte	0
 3265 0235 03       		.uleb128 0x3
 3266 0236 0E       		.uleb128 0xe
 3267 0237 3A       		.uleb128 0x3a
 3268 0238 0B       		.uleb128 0xb
 3269 0239 3B       		.uleb128 0x3b
 3270 023a 0B       		.uleb128 0xb
 3271 023b 49       		.uleb128 0x49
 3272 023c 13       		.uleb128 0x13
 3273 023d 3F       		.uleb128 0x3f
 3274 023e 19       		.uleb128 0x19
 3275 023f 02       		.uleb128 0x2
 3276 0240 18       		.uleb128 0x18
 3277 0241 00       		.byte	0
 3278 0242 00       		.byte	0
 3279 0243 2D       		.uleb128 0x2d
 3280 0244 2E       		.uleb128 0x2e
 3281 0245 01       		.byte	0x1
 3282 0246 3F       		.uleb128 0x3f
 3283 0247 19       		.uleb128 0x19
 3284 0248 03       		.uleb128 0x3
 3285 0249 0E       		.uleb128 0xe
 3286 024a 3A       		.uleb128 0x3a
 3287 024b 0B       		.uleb128 0xb
 3288 024c 3B       		.uleb128 0x3b
 3289 024d 05       		.uleb128 0x5
 3290 024e 27       		.uleb128 0x27
 3291 024f 19       		.uleb128 0x19
 3292 0250 3C       		.uleb128 0x3c
 3293 0251 19       		.uleb128 0x19
 3294 0252 01       		.uleb128 0x1
 3295 0253 13       		.uleb128 0x13
 3296 0254 00       		.byte	0
 3297 0255 00       		.byte	0
 3298 0256 2E       		.uleb128 0x2e
 3299 0257 2E       		.uleb128 0x2e
 3300 0258 00       		.byte	0
 3301 0259 3F       		.uleb128 0x3f
ARM GAS  /tmp/ccp5l5Du.s 			page 59


 3302 025a 19       		.uleb128 0x19
 3303 025b 03       		.uleb128 0x3
 3304 025c 0E       		.uleb128 0xe
 3305 025d 3A       		.uleb128 0x3a
 3306 025e 0B       		.uleb128 0xb
 3307 025f 3B       		.uleb128 0x3b
 3308 0260 0B       		.uleb128 0xb
 3309 0261 27       		.uleb128 0x27
 3310 0262 19       		.uleb128 0x19
 3311 0263 3C       		.uleb128 0x3c
 3312 0264 19       		.uleb128 0x19
 3313 0265 00       		.byte	0
 3314 0266 00       		.byte	0
 3315 0267 2F       		.uleb128 0x2f
 3316 0268 2E       		.uleb128 0x2e
 3317 0269 01       		.byte	0x1
 3318 026a 3F       		.uleb128 0x3f
 3319 026b 19       		.uleb128 0x19
 3320 026c 03       		.uleb128 0x3
 3321 026d 0E       		.uleb128 0xe
 3322 026e 3A       		.uleb128 0x3a
 3323 026f 0B       		.uleb128 0xb
 3324 0270 3B       		.uleb128 0x3b
 3325 0271 0B       		.uleb128 0xb
 3326 0272 27       		.uleb128 0x27
 3327 0273 19       		.uleb128 0x19
 3328 0274 49       		.uleb128 0x49
 3329 0275 13       		.uleb128 0x13
 3330 0276 3C       		.uleb128 0x3c
 3331 0277 19       		.uleb128 0x19
 3332 0278 01       		.uleb128 0x1
 3333 0279 13       		.uleb128 0x13
 3334 027a 00       		.byte	0
 3335 027b 00       		.byte	0
 3336 027c 30       		.uleb128 0x30
 3337 027d 2E       		.uleb128 0x2e
 3338 027e 01       		.byte	0x1
 3339 027f 3F       		.uleb128 0x3f
 3340 0280 19       		.uleb128 0x19
 3341 0281 03       		.uleb128 0x3
 3342 0282 0E       		.uleb128 0xe
 3343 0283 3A       		.uleb128 0x3a
 3344 0284 0B       		.uleb128 0xb
 3345 0285 3B       		.uleb128 0x3b
 3346 0286 0B       		.uleb128 0xb
 3347 0287 27       		.uleb128 0x27
 3348 0288 19       		.uleb128 0x19
 3349 0289 3C       		.uleb128 0x3c
 3350 028a 19       		.uleb128 0x19
 3351 028b 01       		.uleb128 0x1
 3352 028c 13       		.uleb128 0x13
 3353 028d 00       		.byte	0
 3354 028e 00       		.byte	0
 3355 028f 31       		.uleb128 0x31
 3356 0290 2E       		.uleb128 0x2e
 3357 0291 01       		.byte	0x1
 3358 0292 3F       		.uleb128 0x3f
ARM GAS  /tmp/ccp5l5Du.s 			page 60


 3359 0293 19       		.uleb128 0x19
 3360 0294 03       		.uleb128 0x3
 3361 0295 0E       		.uleb128 0xe
 3362 0296 3A       		.uleb128 0x3a
 3363 0297 0B       		.uleb128 0xb
 3364 0298 3B       		.uleb128 0x3b
 3365 0299 05       		.uleb128 0x5
 3366 029a 27       		.uleb128 0x27
 3367 029b 19       		.uleb128 0x19
 3368 029c 49       		.uleb128 0x49
 3369 029d 13       		.uleb128 0x13
 3370 029e 3C       		.uleb128 0x3c
 3371 029f 19       		.uleb128 0x19
 3372 02a0 01       		.uleb128 0x1
 3373 02a1 13       		.uleb128 0x13
 3374 02a2 00       		.byte	0
 3375 02a3 00       		.byte	0
 3376 02a4 32       		.uleb128 0x32
 3377 02a5 18       		.uleb128 0x18
 3378 02a6 00       		.byte	0
 3379 02a7 00       		.byte	0
 3380 02a8 00       		.byte	0
 3381 02a9 00       		.byte	0
 3382              		.section	.debug_loc,"",%progbits
 3383              	.Ldebug_loc0:
 3384              	.LLST0:
 3385 0000 00000000 		.4byte	.LVL0
 3386 0004 0A000000 		.4byte	.LVL1
 3387 0008 0100     		.2byte	0x1
 3388 000a 50       		.byte	0x50
 3389 000b 0A000000 		.4byte	.LVL1
 3390 000f 20000000 		.4byte	.LFE36
 3391 0013 0400     		.2byte	0x4
 3392 0015 F3       		.byte	0xf3
 3393 0016 01       		.uleb128 0x1
 3394 0017 50       		.byte	0x50
 3395 0018 9F       		.byte	0x9f
 3396 0019 00000000 		.4byte	0
 3397 001d 00000000 		.4byte	0
 3398              	.LLST1:
 3399 0021 00000000 		.4byte	.LVL4
 3400 0025 82000000 		.4byte	.LVL17
 3401 0029 0200     		.2byte	0x2
 3402 002b 30       		.byte	0x30
 3403 002c 9F       		.byte	0x9f
 3404 002d 82000000 		.4byte	.LVL17
 3405 0031 A6000000 		.4byte	.LVL19
 3406 0035 0500     		.2byte	0x5
 3407 0037 3A       		.byte	0x3a
 3408 0038 74       		.byte	0x74
 3409 0039 00       		.sleb128 0
 3410 003a 1C       		.byte	0x1c
 3411 003b 9F       		.byte	0x9f
 3412 003c A6000000 		.4byte	.LVL19
 3413 0040 AA000000 		.4byte	.LVL20
 3414 0044 0500     		.2byte	0x5
 3415 0046 3B       		.byte	0x3b
ARM GAS  /tmp/ccp5l5Du.s 			page 61


 3416 0047 74       		.byte	0x74
 3417 0048 00       		.sleb128 0
 3418 0049 1C       		.byte	0x1c
 3419 004a 9F       		.byte	0x9f
 3420 004b 00000000 		.4byte	0
 3421 004f 00000000 		.4byte	0
 3422              		.section	.debug_aranges,"",%progbits
 3423 0000 24000000 		.4byte	0x24
 3424 0004 0200     		.2byte	0x2
 3425 0006 00000000 		.4byte	.Ldebug_info0
 3426 000a 04       		.byte	0x4
 3427 000b 00       		.byte	0
 3428 000c 0000     		.2byte	0
 3429 000e 0000     		.2byte	0
 3430 0010 00000000 		.4byte	.LFB36
 3431 0014 20000000 		.4byte	.LFE36-.LFB36
 3432 0018 00000000 		.4byte	.LFB37
 3433 001c DC000000 		.4byte	.LFE37-.LFB37
 3434 0020 00000000 		.4byte	0
 3435 0024 00000000 		.4byte	0
 3436              		.section	.debug_ranges,"",%progbits
 3437              	.Ldebug_ranges0:
 3438 0000 00000000 		.4byte	.LFB36
 3439 0004 20000000 		.4byte	.LFE36
 3440 0008 00000000 		.4byte	.LFB37
 3441 000c DC000000 		.4byte	.LFE37
 3442 0010 00000000 		.4byte	0
 3443 0014 00000000 		.4byte	0
 3444              		.section	.debug_line,"",%progbits
 3445              	.Ldebug_line0:
 3446 0000 B5040000 		.section	.debug_str,"MS",%progbits,1
 3446      02004B04 
 3446      00000201 
 3446      FB0E0D00 
 3446      01010101 
 3447              	.LASF155:
 3448 0000 50494F5F 		.ascii	"PIO_IFSCSR\000"
 3448      49465343 
 3448      535200
 3449              	.LASF2:
 3450 000b 73697A65 		.ascii	"size_t\000"
 3450      5F7400
 3451              	.LASF253:
 3452 0012 50494F5F 		.ascii	"PIO_Configure\000"
 3452      436F6E66 
 3452      69677572 
 3452      6500
 3453              	.LASF52:
 3454 0020 73697A65 		.ascii	"sizetype\000"
 3454      74797065 
 3454      00
 3455              	.LASF26:
 3456 0029 73797374 		.ascii	"systime_t\000"
 3456      696D655F 
 3456      7400
 3457              	.LASF31:
 3458 0033 705F6374 		.ascii	"p_ctx\000"
ARM GAS  /tmp/ccp5l5Du.s 			page 62


 3458      7800
 3459              	.LASF23:
 3460 0039 74707269 		.ascii	"tprio_t\000"
 3460      6F5F7400 
 3461              	.LASF40:
 3462 0041 705F6D73 		.ascii	"p_msgqueue\000"
 3462      67717565 
 3462      756500
 3463              	.LASF15:
 3464 004c 696E7433 		.ascii	"int32_t\000"
 3464      325F7400 
 3465              	.LASF233:
 3466 0054 53657269 		.ascii	"SerialConfig\000"
 3466      616C436F 
 3466      6E666967 
 3466      00
 3467              	.LASF85:
 3468 0061 77726974 		.ascii	"writet\000"
 3468      657400
 3469              	.LASF167:
 3470 0068 50494F5F 		.ascii	"PIO_AIMMR\000"
 3470      41494D4D 
 3470      5200
 3471              	.LASF107:
 3472 0072 4144435F 		.ascii	"ADC_EMR\000"
 3472      454D5200 
 3473              	.LASF104:
 3474 007a 4144435F 		.ascii	"ADC_ISR\000"
 3474      49535200 
 3475              	.LASF90:
 3476 0082 576F5265 		.ascii	"WoReg\000"
 3476      6700
 3477              	.LASF178:
 3478 0088 50494F5F 		.ascii	"PIO_WPMR\000"
 3478      57504D52 
 3478      00
 3479              	.LASF81:
 3480 0091 77726974 		.ascii	"write\000"
 3480      6500
 3481              	.LASF232:
 3482 0097 73635F6D 		.ascii	"sc_mr\000"
 3482      7200
 3483              	.LASF219:
 3484 009d 696F706F 		.ascii	"ioportmask_t\000"
 3484      72746D61 
 3484      736B5F74 
 3484      00
 3485              	.LASF204:
 3486 00aa 55415254 		.ascii	"UART_SR\000"
 3486      5F535200 
 3487              	.LASF187:
 3488 00b2 50494F5F 		.ascii	"PIO_PCISR\000"
 3488      50434953 
 3488      5200
 3489              	.LASF201:
 3490 00bc 55415254 		.ascii	"UART_IER\000"
 3490      5F494552 
ARM GAS  /tmp/ccp5l5Du.s 			page 63


 3490      00
 3491              	.LASF207:
 3492 00c5 55415254 		.ascii	"UART_BRGR\000"
 3492      5F425247 
 3492      5200
 3493              	.LASF164:
 3494 00cf 52657365 		.ascii	"Reserved8\000"
 3494      72766564 
 3494      3800
 3495              	.LASF238:
 3496 00d9 74797065 		.ascii	"type\000"
 3496      00
 3497              	.LASF122:
 3498 00de 4144435F 		.ascii	"ADC_RNPR\000"
 3498      524E5052 
 3498      00
 3499              	.LASF191:
 3500 00e7 50494F5F 		.ascii	"PIO_TPR\000"
 3500      54505200 
 3501              	.LASF216:
 3502 00ef 55415254 		.ascii	"UART_PTCR\000"
 3502      5F505443 
 3502      5200
 3503              	.LASF124:
 3504 00f9 4144435F 		.ascii	"ADC_TNPR\000"
 3504      544E5052 
 3504      00
 3505              	.LASF55:
 3506 0102 6D5F6F77 		.ascii	"m_owner\000"
 3506      6E657200 
 3507              	.LASF64:
 3508 010a 65786974 		.ascii	"exitcode\000"
 3508      636F6465 
 3508      00
 3509              	.LASF3:
 3510 0113 5F5F7569 		.ascii	"__uint8_t\000"
 3510      6E74385F 
 3510      7400
 3511              	.LASF73:
 3512 011d 715F746F 		.ascii	"q_top\000"
 3512      7000
 3513              	.LASF247:
 3514 0123 506D6343 		.ascii	"PmcConfigurePllClock\000"
 3514      6F6E6669 
 3514      67757265 
 3514      506C6C43 
 3514      6C6F636B 
 3515              	.LASF116:
 3516 0138 4144435F 		.ascii	"ADC_WPSR\000"
 3516      57505352 
 3516      00
 3517              	.LASF162:
 3518 0141 50494F5F 		.ascii	"PIO_OWDR\000"
 3518      4F574452 
 3518      00
 3519              	.LASF86:
 3520 014a 72656164 		.ascii	"readt\000"
ARM GAS  /tmp/ccp5l5Du.s 			page 64


 3520      7400
 3521              	.LASF72:
 3522 0150 715F6275 		.ascii	"q_buffer\000"
 3522      66666572 
 3522      00
 3523              	.LASF261:
 3524 0159 4144435F 		.ascii	"ADC_Val\000"
 3524      56616C00 
 3525              	.LASF76:
 3526 0161 715F6E6F 		.ascii	"q_notify\000"
 3526      74696679 
 3526      00
 3527              	.LASF157:
 3528 016a 50494F5F 		.ascii	"PIO_PPDDR\000"
 3528      50504444 
 3528      5200
 3529              	.LASF32:
 3530 0174 705F6E65 		.ascii	"p_newer\000"
 3530      77657200 
 3531              	.LASF8:
 3532 017c 6C6F6E67 		.ascii	"long int\000"
 3532      20696E74 
 3532      00
 3533              	.LASF28:
 3534 0185 705F6E65 		.ascii	"p_next\000"
 3534      787400
 3535              	.LASF75:
 3536 018c 715F7264 		.ascii	"q_rdptr\000"
 3536      70747200 
 3537              	.LASF29:
 3538 0194 705F7072 		.ascii	"p_prev\000"
 3538      657600
 3539              	.LASF161:
 3540 019b 50494F5F 		.ascii	"PIO_OWER\000"
 3540      4F574552 
 3540      00
 3541              	.LASF136:
 3542 01a4 50494F5F 		.ascii	"PIO_IFSR\000"
 3542      49465352 
 3542      00
 3543              	.LASF120:
 3544 01ad 4144435F 		.ascii	"ADC_TPR\000"
 3544      54505200 
 3545              	.LASF21:
 3546 01b5 74737461 		.ascii	"tstate_t\000"
 3546      74655F74 
 3546      00
 3547              	.LASF260:
 3548 01be 6D61696E 		.ascii	"main\000"
 3548      00
 3549              	.LASF43:
 3550 01c3 705F6D74 		.ascii	"p_mtxlist\000"
 3550      786C6973 
 3550      7400
 3551              	.LASF229:
 3552 01cd 6F717565 		.ascii	"oqueue\000"
 3552      756500
ARM GAS  /tmp/ccp5l5Du.s 			page 65


 3553              	.LASF48:
 3554 01d4 72656761 		.ascii	"regarm_t\000"
 3554      726D5F74 
 3554      00
 3555              	.LASF158:
 3556 01dd 50494F5F 		.ascii	"PIO_PPDER\000"
 3556      50504445 
 3556      5200
 3557              	.LASF169:
 3558 01e7 50494F5F 		.ascii	"PIO_ESR\000"
 3558      45535200 
 3559              	.LASF93:
 3560 01ef 4144435F 		.ascii	"ADC_MR\000"
 3560      4D5200
 3561              	.LASF133:
 3562 01f6 50494F5F 		.ascii	"PIO_OSR\000"
 3562      4F535200 
 3563              	.LASF1:
 3564 01fe 7369676E 		.ascii	"signed char\000"
 3564      65642063 
 3564      68617200 
 3565              	.LASF66:
 3566 020a 65776D61 		.ascii	"ewmask\000"
 3566      736B00
 3567              	.LASF14:
 3568 0211 75696E74 		.ascii	"uint8_t\000"
 3568      385F7400 
 3569              	.LASF25:
 3570 0219 6576656E 		.ascii	"eventmask_t\000"
 3570      746D6173 
 3570      6B5F7400 
 3571              	.LASF51:
 3572 0225 636F6E74 		.ascii	"context\000"
 3572      65787400 
 3573              	.LASF151:
 3574 022d 50494F5F 		.ascii	"PIO_ABCDSR\000"
 3574      41424344 
 3574      535200
 3575              	.LASF193:
 3576 0238 50494F5F 		.ascii	"PIO_RNPR\000"
 3576      524E5052 
 3576      00
 3577              	.LASF4:
 3578 0241 756E7369 		.ascii	"unsigned char\000"
 3578      676E6564 
 3578      20636861 
 3578      7200
 3579              	.LASF148:
 3580 024f 50494F5F 		.ascii	"PIO_PUDR\000"
 3580      50554452 
 3580      00
 3581              	.LASF211:
 3582 0258 55415254 		.ascii	"UART_TCR\000"
 3582      5F544352 
 3582      00
 3583              	.LASF195:
 3584 0261 50494F5F 		.ascii	"PIO_TNPR\000"
ARM GAS  /tmp/ccp5l5Du.s 			page 66


 3584      544E5052 
 3584      00
 3585              	.LASF220:
 3586 026a 53445F55 		.ascii	"SD_UNINIT\000"
 3586      4E494E49 
 3586      5400
 3587              	.LASF179:
 3588 0274 50494F5F 		.ascii	"PIO_WPSR\000"
 3588      57505352 
 3588      00
 3589              	.LASF208:
 3590 027d 55415254 		.ascii	"UART_RPR\000"
 3590      5F525052 
 3590      00
 3591              	.LASF199:
 3592 0286 55415254 		.ascii	"UART_CR\000"
 3592      5F435200 
 3593              	.LASF149:
 3594 028e 50494F5F 		.ascii	"PIO_PUER\000"
 3594      50554552 
 3594      00
 3595              	.LASF67:
 3596 0297 63686172 		.ascii	"char\000"
 3596      00
 3597              	.LASF190:
 3598 029c 50494F5F 		.ascii	"PIO_RCR\000"
 3598      52435200 
 3599              	.LASF172:
 3600 02a4 52657365 		.ascii	"Reserved10\000"
 3600      72766564 
 3600      313000
 3601              	.LASF176:
 3602 02af 52657365 		.ascii	"Reserved11\000"
 3602      72766564 
 3602      313100
 3603              	.LASF180:
 3604 02ba 52657365 		.ascii	"Reserved12\000"
 3604      72766564 
 3604      313200
 3605              	.LASF182:
 3606 02c5 52657365 		.ascii	"Reserved13\000"
 3606      72766564 
 3606      313300
 3607              	.LASF30:
 3608 02d0 705F7072 		.ascii	"p_prio\000"
 3608      696F00
 3609              	.LASF69:
 3610 02d7 47656E65 		.ascii	"GenericQueue\000"
 3610      72696351 
 3610      75657565 
 3610      00
 3611              	.LASF146:
 3612 02e4 50494F5F 		.ascii	"PIO_MDDR\000"
 3612      4D444452 
 3612      00
 3613              	.LASF65:
 3614 02ed 77746F62 		.ascii	"wtobjp\000"
ARM GAS  /tmp/ccp5l5Du.s 			page 67


 3614      6A7000
 3615              	.LASF258:
 3616 02f4 2F686F6D 		.ascii	"/home/nicolas/Desktop/Embebidos/Health-herz/SAM3S/A"
 3616      652F6E69 
 3616      636F6C61 
 3616      732F4465 
 3616      736B746F 
 3617 0327 444300   		.ascii	"DC\000"
 3618              	.LASF140:
 3619 032a 50494F5F 		.ascii	"PIO_PDSR\000"
 3619      50445352 
 3619      00
 3620              	.LASF175:
 3621 0333 50494F5F 		.ascii	"PIO_FRLHSR\000"
 3621      46524C48 
 3621      535200
 3622              	.LASF226:
 3623 033e 666C6167 		.ascii	"flags\000"
 3623      7300
 3624              	.LASF177:
 3625 0344 50494F5F 		.ascii	"PIO_LOCKSR\000"
 3625      4C4F434B 
 3625      535200
 3626              	.LASF49:
 3627 034f 73746B61 		.ascii	"stkalign_t\000"
 3627      6C69676E 
 3627      5F7400
 3628              	.LASF79:
 3629 035a 4F757470 		.ascii	"OutputQueue\000"
 3629      75745175 
 3629      65756500 
 3630              	.LASF173:
 3631 0366 50494F5F 		.ascii	"PIO_FELLSR\000"
 3631      46454C4C 
 3631      535200
 3632              	.LASF145:
 3633 0371 50494F5F 		.ascii	"PIO_MDER\000"
 3633      4D444552 
 3633      00
 3634              	.LASF129:
 3635 037a 50494F5F 		.ascii	"PIO_PDR\000"
 3635      50445200 
 3636              	.LASF83:
 3637 0382 70757477 		.ascii	"putwouldblock\000"
 3637      6F756C64 
 3637      626C6F63 
 3637      6B00
 3638              	.LASF119:
 3639 0390 4144435F 		.ascii	"ADC_RCR\000"
 3639      52435200 
 3640              	.LASF212:
 3641 0398 55415254 		.ascii	"UART_RNPR\000"
 3641      5F524E50 
 3641      5200
 3642              	.LASF203:
 3643 03a2 55415254 		.ascii	"UART_IMR\000"
 3643      5F494D52 
ARM GAS  /tmp/ccp5l5Du.s 			page 68


 3643      00
 3644              	.LASF218:
 3645 03ab 55617274 		.ascii	"Uart\000"
 3645      00
 3646              	.LASF111:
 3647 03b0 4144435F 		.ascii	"ADC_CDR\000"
 3647      43445200 
 3648              	.LASF214:
 3649 03b8 55415254 		.ascii	"UART_TNPR\000"
 3649      5F544E50 
 3649      5200
 3650              	.LASF255:
 3651 03c2 63687072 		.ascii	"chprintf\000"
 3651      696E7466 
 3651      00
 3652              	.LASF245:
 3653 03cb 63685468 		.ascii	"chThdSleep\000"
 3653      64536C65 
 3653      657000
 3654              	.LASF171:
 3655 03d6 50494F5F 		.ascii	"PIO_ELSR\000"
 3655      454C5352 
 3655      00
 3656              	.LASF50:
 3657 03df 696E7463 		.ascii	"intctx\000"
 3657      747800
 3658              	.LASF42:
 3659 03e6 705F6570 		.ascii	"p_epending\000"
 3659      656E6469 
 3659      6E6700
 3660              	.LASF256:
 3661 03f1 474E5520 		.ascii	"GNU C 4.9.3 20150529 (release) [ARM/embedded-4_9-br"
 3661      4320342E 
 3661      392E3320 
 3661      32303135 
 3661      30353239 
 3662 0424 616E6368 		.ascii	"anch revision 227977] -mcpu=cortex-m3 -mno-thumb-in"
 3662      20726576 
 3662      6973696F 
 3662      6E203232 
 3662      37393737 
 3663 0457 74657277 		.ascii	"terwork -mthumb -ggdb -O2 -std=gnu99 -fomit-frame-p"
 3663      6F726B20 
 3663      2D6D7468 
 3663      756D6220 
 3663      2D676764 
 3664 048a 6F696E74 		.ascii	"ointer -falign-functions=16 -ffunction-sections -fd"
 3664      6572202D 
 3664      66616C69 
 3664      676E2D66 
 3664      756E6374 
 3665 04bd 6174612D 		.ascii	"ata-sections -fno-common\000"
 3665      73656374 
 3665      696F6E73 
 3665      202D666E 
 3665      6F2D636F 
 3666              	.LASF130:
ARM GAS  /tmp/ccp5l5Du.s 			page 69


 3667 04d6 50494F5F 		.ascii	"PIO_PSR\000"
 3667      50535200 
 3668              	.LASF206:
 3669 04de 55415254 		.ascii	"UART_THR\000"
 3669      5F544852 
 3669      00
 3670              	.LASF62:
 3671 04e7 65735F6E 		.ascii	"es_next\000"
 3671      65787400 
 3672              	.LASF71:
 3673 04ef 715F636F 		.ascii	"q_counter\000"
 3673      756E7465 
 3673      7200
 3674              	.LASF249:
 3675 04f9 436F6E66 		.ascii	"ConfigurePck\000"
 3675      69677572 
 3675      6550636B 
 3675      00
 3676              	.LASF61:
 3677 0506 4576656E 		.ascii	"EventSource\000"
 3677      74536F75 
 3677      72636500 
 3678              	.LASF12:
 3679 0512 5F5F7569 		.ascii	"__uint64_t\000"
 3679      6E743634 
 3679      5F7400
 3680              	.LASF98:
 3681 051d 4144435F 		.ascii	"ADC_CHSR\000"
 3681      43485352 
 3681      00
 3682              	.LASF10:
 3683 0526 6C6F6E67 		.ascii	"long unsigned int\000"
 3683      20756E73 
 3683      69676E65 
 3683      6420696E 
 3683      7400
 3684              	.LASF58:
 3685 0538 656C5F6E 		.ascii	"el_next\000"
 3685      65787400 
 3686              	.LASF109:
 3687 0540 4144435F 		.ascii	"ADC_CGR\000"
 3687      43475200 
 3688              	.LASF74:
 3689 0548 715F7772 		.ascii	"q_wrptr\000"
 3689      70747200 
 3690              	.LASF234:
 3691 0550 53657269 		.ascii	"SerialDriverVMT\000"
 3691      616C4472 
 3691      69766572 
 3691      564D5400 
 3692              	.LASF246:
 3693 0560 73645374 		.ascii	"sdStart\000"
 3693      61727400 
 3694              	.LASF138:
 3695 0568 50494F5F 		.ascii	"PIO_CODR\000"
 3695      434F4452 
 3695      00
ARM GAS  /tmp/ccp5l5Du.s 			page 70


 3696              	.LASF100:
 3697 0571 4144435F 		.ascii	"ADC_LCDR\000"
 3697      4C434452 
 3697      00
 3698              	.LASF243:
 3699 057a 68616C49 		.ascii	"halInit\000"
 3699      6E697400 
 3700              	.LASF9:
 3701 0582 5F5F7569 		.ascii	"__uint32_t\000"
 3701      6E743332 
 3701      5F7400
 3702              	.LASF142:
 3703 058d 50494F5F 		.ascii	"PIO_IDR\000"
 3703      49445200 
 3704              	.LASF53:
 3705 0595 4D757465 		.ascii	"Mutex\000"
 3705      7800
 3706              	.LASF259:
 3707 059b 54687265 		.ascii	"Thread1\000"
 3707      61643100 
 3708              	.LASF11:
 3709 05a3 6C6F6E67 		.ascii	"long long int\000"
 3709      206C6F6E 
 3709      6720696E 
 3709      7400
 3710              	.LASF54:
 3711 05b1 6D5F7175 		.ascii	"m_queue\000"
 3711      65756500 
 3712              	.LASF156:
 3713 05b9 50494F5F 		.ascii	"PIO_SCDR\000"
 3713      53434452 
 3713      00
 3714              	.LASF254:
 3715 05c2 63685468 		.ascii	"chThdCreateStatic\000"
 3715      64437265 
 3715      61746553 
 3715      74617469 
 3715      6300
 3716              	.LASF153:
 3717 05d4 50494F5F 		.ascii	"PIO_IFSCDR\000"
 3717      49465343 
 3717      445200
 3718              	.LASF257:
 3719 05df 6D61696E 		.ascii	"main.c\000"
 3719      2E6300
 3720              	.LASF198:
 3721 05e6 50494F5F 		.ascii	"PIO_PTSR\000"
 3721      50545352 
 3721      00
 3722              	.LASF141:
 3723 05ef 50494F5F 		.ascii	"PIO_IER\000"
 3723      49455200 
 3724              	.LASF237:
 3725 05f7 6D61736B 		.ascii	"mask\000"
 3725      00
 3726              	.LASF188:
 3727 05fc 50494F5F 		.ascii	"PIO_PCRHR\000"
ARM GAS  /tmp/ccp5l5Du.s 			page 71


 3727      50435248 
 3727      5200
 3728              	.LASF241:
 3729 0606 49544D5F 		.ascii	"ITM_RxBuffer\000"
 3729      52784275 
 3729      66666572 
 3729      00
 3730              	.LASF68:
 3731 0613 7466756E 		.ascii	"tfunc_t\000"
 3731      635F7400 
 3732              	.LASF137:
 3733 061b 50494F5F 		.ascii	"PIO_SODR\000"
 3733      534F4452 
 3733      00
 3734              	.LASF154:
 3735 0624 50494F5F 		.ascii	"PIO_IFSCER\000"
 3735      49465343 
 3735      455200
 3736              	.LASF77:
 3737 062f 716E6F74 		.ascii	"qnotify_t\000"
 3737      6966795F 
 3737      7400
 3738              	.LASF39:
 3739 0639 705F7761 		.ascii	"p_waiting\000"
 3739      6974696E 
 3739      6700
 3740              	.LASF225:
 3741 0643 6576656E 		.ascii	"event\000"
 3741      7400
 3742              	.LASF36:
 3743 0649 705F666C 		.ascii	"p_flags\000"
 3743      61677300 
 3744              	.LASF82:
 3745 0651 72656164 		.ascii	"read\000"
 3745      00
 3746              	.LASF102:
 3747 0656 4144435F 		.ascii	"ADC_IDR\000"
 3747      49445200 
 3748              	.LASF0:
 3749 065e 756E7369 		.ascii	"unsigned int\000"
 3749      676E6564 
 3749      20696E74 
 3749      00
 3750              	.LASF45:
 3751 066b 705F6D70 		.ascii	"p_mpool\000"
 3751      6F6F6C00 
 3752              	.LASF37:
 3753 0673 705F7265 		.ascii	"p_refs\000"
 3753      667300
 3754              	.LASF252:
 3755 067a 4144435F 		.ascii	"ADC_check\000"
 3755      63686563 
 3755      6B00
 3756              	.LASF185:
 3757 0684 50494F5F 		.ascii	"PIO_PCIDR\000"
 3757      50434944 
 3757      5200
ARM GAS  /tmp/ccp5l5Du.s 			page 72


 3758              	.LASF101:
 3759 068e 4144435F 		.ascii	"ADC_IER\000"
 3759      49455200 
 3760              	.LASF170:
 3761 0696 50494F5F 		.ascii	"PIO_LSR\000"
 3761      4C535200 
 3762              	.LASF231:
 3763 069e 73635F73 		.ascii	"sc_speed\000"
 3763      70656564 
 3763      00
 3764              	.LASF47:
 3765 06a7 54687265 		.ascii	"ThreadsList\000"
 3765      6164734C 
 3765      69737400 
 3766              	.LASF88:
 3767 06b3 696F666C 		.ascii	"ioflags_t\000"
 3767      6167735F 
 3767      7400
 3768              	.LASF242:
 3769 06bd 70696E50 		.ascii	"pinPCK\000"
 3769      434B00
 3770              	.LASF38:
 3771 06c4 705F7469 		.ascii	"p_time\000"
 3771      6D6500
 3772              	.LASF163:
 3773 06cb 50494F5F 		.ascii	"PIO_OWSR\000"
 3773      4F575352 
 3773      00
 3774              	.LASF217:
 3775 06d4 55415254 		.ascii	"UART_PTSR\000"
 3775      5F505453 
 3775      5200
 3776              	.LASF159:
 3777 06de 50494F5F 		.ascii	"PIO_PPDSR\000"
 3777      50504453 
 3777      5200
 3778              	.LASF44:
 3779 06e8 705F7265 		.ascii	"p_realprio\000"
 3779      616C7072 
 3779      696F00
 3780              	.LASF84:
 3781 06f3 67657477 		.ascii	"getwouldblock\000"
 3781      6F756C64 
 3781      626C6F63 
 3781      6B00
 3782              	.LASF210:
 3783 0701 55415254 		.ascii	"UART_TPR\000"
 3783      5F545052 
 3783      00
 3784              	.LASF236:
 3785 070a 5F50696E 		.ascii	"_Pin\000"
 3785      00
 3786              	.LASF135:
 3787 070f 50494F5F 		.ascii	"PIO_IFDR\000"
 3787      49464452 
 3787      00
 3788              	.LASF251:
ARM GAS  /tmp/ccp5l5Du.s 			page 73


 3789 0718 4144435F 		.ascii	"ADC_cfgFrequency\000"
 3789      63666746 
 3789      72657175 
 3789      656E6379 
 3789      00
 3790              	.LASF123:
 3791 0729 4144435F 		.ascii	"ADC_RNCR\000"
 3791      524E4352 
 3791      00
 3792              	.LASF228:
 3793 0732 69717565 		.ascii	"iqueue\000"
 3793      756500
 3794              	.LASF192:
 3795 0739 50494F5F 		.ascii	"PIO_TCR\000"
 3795      54435200 
 3796              	.LASF213:
 3797 0741 55415254 		.ascii	"UART_RNCR\000"
 3797      5F524E43 
 3797      5200
 3798              	.LASF125:
 3799 074b 4144435F 		.ascii	"ADC_TNCR\000"
 3799      544E4352 
 3799      00
 3800              	.LASF202:
 3801 0754 55415254 		.ascii	"UART_IDR\000"
 3801      5F494452 
 3801      00
 3802              	.LASF13:
 3803 075d 6C6F6E67 		.ascii	"long long unsigned int\000"
 3803      206C6F6E 
 3803      6720756E 
 3803      7369676E 
 3803      65642069 
 3804              	.LASF33:
 3805 0774 705F6F6C 		.ascii	"p_older\000"
 3805      64657200 
 3806              	.LASF239:
 3807 077c 61747472 		.ascii	"attribute\000"
 3807      69627574 
 3807      6500
 3808              	.LASF189:
 3809 0786 50494F5F 		.ascii	"PIO_RPR\000"
 3809      52505200 
 3810              	.LASF132:
 3811 078e 50494F5F 		.ascii	"PIO_ODR\000"
 3811      4F445200 
 3812              	.LASF24:
 3813 0796 6D73675F 		.ascii	"msg_t\000"
 3813      7400
 3814              	.LASF134:
 3815 079c 50494F5F 		.ascii	"PIO_IFER\000"
 3815      49464552 
 3815      00
 3816              	.LASF110:
 3817 07a5 4144435F 		.ascii	"ADC_COR\000"
 3817      434F5200 
 3818              	.LASF150:
ARM GAS  /tmp/ccp5l5Du.s 			page 74


 3819 07ad 50494F5F 		.ascii	"PIO_PUSR\000"
 3819      50555352 
 3819      00
 3820              	.LASF127:
 3821 07b6 4144435F 		.ascii	"ADC_PTSR\000"
 3821      50545352 
 3821      00
 3822              	.LASF121:
 3823 07bf 4144435F 		.ascii	"ADC_TCR\000"
 3823      54435200 
 3824              	.LASF166:
 3825 07c7 50494F5F 		.ascii	"PIO_AIMDR\000"
 3825      41494D44 
 3825      5200
 3826              	.LASF224:
 3827 07d1 53657269 		.ascii	"SerialDriver\000"
 3827      616C4472 
 3827      69766572 
 3827      00
 3828              	.LASF118:
 3829 07de 4144435F 		.ascii	"ADC_RPR\000"
 3829      52505200 
 3830              	.LASF94:
 3831 07e6 4144435F 		.ascii	"ADC_SEQR1\000"
 3831      53455152 
 3831      3100
 3832              	.LASF95:
 3833 07f0 4144435F 		.ascii	"ADC_SEQR2\000"
 3833      53455152 
 3833      3200
 3834              	.LASF70:
 3835 07fa 715F7761 		.ascii	"q_waiting\000"
 3835      6974696E 
 3835      6700
 3836              	.LASF99:
 3837 0804 52657365 		.ascii	"Reserved1\000"
 3837      72766564 
 3837      3100
 3838              	.LASF105:
 3839 080e 52657365 		.ascii	"Reserved2\000"
 3839      72766564 
 3839      3200
 3840              	.LASF112:
 3841 0818 52657365 		.ascii	"Reserved3\000"
 3841      72766564 
 3841      3300
 3842              	.LASF114:
 3843 0822 52657365 		.ascii	"Reserved4\000"
 3843      72766564 
 3843      3400
 3844              	.LASF117:
 3845 082c 52657365 		.ascii	"Reserved5\000"
 3845      72766564 
 3845      3500
 3846              	.LASF152:
 3847 0836 52657365 		.ascii	"Reserved6\000"
 3847      72766564 
ARM GAS  /tmp/ccp5l5Du.s 			page 75


 3847      3600
 3848              	.LASF160:
 3849 0840 52657365 		.ascii	"Reserved7\000"
 3849      72766564 
 3849      3700
 3850              	.LASF20:
 3851 084a 746D6F64 		.ascii	"tmode_t\000"
 3851      655F7400 
 3852              	.LASF168:
 3853 0852 52657365 		.ascii	"Reserved9\000"
 3853      72766564 
 3853      3900
 3854              	.LASF165:
 3855 085c 50494F5F 		.ascii	"PIO_AIMER\000"
 3855      41494D45 
 3855      5200
 3856              	.LASF223:
 3857 0866 73647374 		.ascii	"sdstate_t\000"
 3857      6174655F 
 3857      7400
 3858              	.LASF147:
 3859 0870 50494F5F 		.ascii	"PIO_MDSR\000"
 3859      4D445352 
 3859      00
 3860              	.LASF143:
 3861 0879 50494F5F 		.ascii	"PIO_IMR\000"
 3861      494D5200 
 3862              	.LASF222:
 3863 0881 53445F52 		.ascii	"SD_READY\000"
 3863      45414459 
 3863      00
 3864              	.LASF139:
 3865 088a 50494F5F 		.ascii	"PIO_ODSR\000"
 3865      4F445352 
 3865      00
 3866              	.LASF194:
 3867 0893 50494F5F 		.ascii	"PIO_RNCR\000"
 3867      524E4352 
 3867      00
 3868              	.LASF196:
 3869 089c 50494F5F 		.ascii	"PIO_TNCR\000"
 3869      544E4352 
 3869      00
 3870              	.LASF181:
 3871 08a5 50494F5F 		.ascii	"PIO_SCHMITT\000"
 3871      5343484D 
 3871      49545400 
 3872              	.LASF5:
 3873 08b1 73686F72 		.ascii	"short int\000"
 3873      7420696E 
 3873      7400
 3874              	.LASF17:
 3875 08bb 75696E74 		.ascii	"uint64_t\000"
 3875      36345F74 
 3875      00
 3876              	.LASF89:
 3877 08c4 526F5265 		.ascii	"RoReg\000"
ARM GAS  /tmp/ccp5l5Du.s 			page 76


 3877      6700
 3878              	.LASF209:
 3879 08ca 55415254 		.ascii	"UART_RCR\000"
 3879      5F524352 
 3879      00
 3880              	.LASF230:
 3881 08d3 75617274 		.ascii	"uart\000"
 3881      00
 3882              	.LASF227:
 3883 08d8 73746174 		.ascii	"state\000"
 3883      6500
 3884              	.LASF106:
 3885 08de 4144435F 		.ascii	"ADC_OVER\000"
 3885      4F564552 
 3885      00
 3886              	.LASF19:
 3887 08e7 626F6F6C 		.ascii	"bool_t\000"
 3887      5F7400
 3888              	.LASF103:
 3889 08ee 4144435F 		.ascii	"ADC_IMR\000"
 3889      494D5200 
 3890              	.LASF92:
 3891 08f6 4144435F 		.ascii	"ADC_CR\000"
 3891      435200
 3892              	.LASF27:
 3893 08fd 54687265 		.ascii	"Thread\000"
 3893      616400
 3894              	.LASF91:
 3895 0904 52775265 		.ascii	"RwReg\000"
 3895      6700
 3896              	.LASF235:
 3897 090a 67657466 		.ascii	"getflags\000"
 3897      6C616773 
 3897      00
 3898              	.LASF126:
 3899 0913 4144435F 		.ascii	"ADC_PTCR\000"
 3899      50544352 
 3899      00
 3900              	.LASF200:
 3901 091c 55415254 		.ascii	"UART_MR\000"
 3901      5F4D5200 
 3902              	.LASF186:
 3903 0924 50494F5F 		.ascii	"PIO_PCIMR\000"
 3903      5043494D 
 3903      5200
 3904              	.LASF22:
 3905 092e 74726566 		.ascii	"trefs_t\000"
 3905      735F7400 
 3906              	.LASF57:
 3907 0936 4576656E 		.ascii	"EventListener\000"
 3907      744C6973 
 3907      74656E65 
 3907      7200
 3908              	.LASF183:
 3909 0944 50494F5F 		.ascii	"PIO_PCMR\000"
 3909      50434D52 
 3909      00
ARM GAS  /tmp/ccp5l5Du.s 			page 77


 3910              	.LASF244:
 3911 094d 63685379 		.ascii	"chSysInit\000"
 3911      73496E69 
 3911      7400
 3912              	.LASF16:
 3913 0957 75696E74 		.ascii	"uint32_t\000"
 3913      33325F74 
 3913      00
 3914              	.LASF113:
 3915 0960 4144435F 		.ascii	"ADC_ACR\000"
 3915      41435200 
 3916              	.LASF46:
 3917 0968 54687265 		.ascii	"ThreadsQueue\000"
 3917      61647351 
 3917      75657565 
 3917      00
 3918              	.LASF18:
 3919 0975 75696E74 		.ascii	"uint_fast16_t\000"
 3919      5F666173 
 3919      7431365F 
 3919      7400
 3920              	.LASF97:
 3921 0983 4144435F 		.ascii	"ADC_CHDR\000"
 3921      43484452 
 3921      00
 3922              	.LASF174:
 3923 098c 50494F5F 		.ascii	"PIO_REHLSR\000"
 3923      5245484C 
 3923      535200
 3924              	.LASF63:
 3925 0997 7264796D 		.ascii	"rdymsg\000"
 3925      736700
 3926              	.LASF6:
 3927 099e 73686F72 		.ascii	"short unsigned int\000"
 3927      7420756E 
 3927      7369676E 
 3927      65642069 
 3927      6E7400
 3928              	.LASF115:
 3929 09b1 4144435F 		.ascii	"ADC_WPMR\000"
 3929      57504D52 
 3929      00
 3930              	.LASF96:
 3931 09ba 4144435F 		.ascii	"ADC_CHER\000"
 3931      43484552 
 3931      00
 3932              	.LASF128:
 3933 09c3 50494F5F 		.ascii	"PIO_PER\000"
 3933      50455200 
 3934              	.LASF78:
 3935 09cb 496E7075 		.ascii	"InputQueue\000"
 3935      74517565 
 3935      756500
 3936              	.LASF248:
 3937 09d6 506D634D 		.ascii	"PmcMasterClockSelection\000"
 3937      61737465 
 3937      72436C6F 
ARM GAS  /tmp/ccp5l5Du.s 			page 78


 3937      636B5365 
 3937      6C656374 
 3938              	.LASF7:
 3939 09ee 5F5F696E 		.ascii	"__int32_t\000"
 3939      7433325F 
 3939      7400
 3940              	.LASF221:
 3941 09f8 53445F53 		.ascii	"SD_STOP\000"
 3941      544F5000 
 3942              	.LASF80:
 3943 0a00 42617365 		.ascii	"BaseChannelVMT\000"
 3943      4368616E 
 3943      6E656C56 
 3943      4D5400
 3944              	.LASF60:
 3945 0a0f 656C5F6D 		.ascii	"el_mask\000"
 3945      61736B00 
 3946              	.LASF108:
 3947 0a17 4144435F 		.ascii	"ADC_CWR\000"
 3947      43575200 
 3948              	.LASF250:
 3949 0a1f 4144435F 		.ascii	"ADC_Initialize\000"
 3949      496E6974 
 3949      69616C69 
 3949      7A6500
 3950              	.LASF34:
 3951 0a2e 705F6E61 		.ascii	"p_name\000"
 3951      6D6500
 3952              	.LASF56:
 3953 0a35 6D5F6E65 		.ascii	"m_next\000"
 3953      787400
 3954              	.LASF87:
 3955 0a3c 42617365 		.ascii	"BaseChannel\000"
 3955      4368616E 
 3955      6E656C00 
 3956              	.LASF144:
 3957 0a48 50494F5F 		.ascii	"PIO_ISR\000"
 3957      49535200 
 3958              	.LASF131:
 3959 0a50 50494F5F 		.ascii	"PIO_OER\000"
 3959      4F455200 
 3960              	.LASF215:
 3961 0a58 55415254 		.ascii	"UART_TNCR\000"
 3961      5F544E43 
 3961      5200
 3962              	.LASF205:
 3963 0a62 55415254 		.ascii	"UART_RHR\000"
 3963      5F524852 
 3963      00
 3964              	.LASF240:
 3965 0a6b 77615468 		.ascii	"waThread1\000"
 3965      72656164 
 3965      3100
 3966              	.LASF41:
 3967 0a75 705F6D73 		.ascii	"p_msg\000"
 3967      6700
 3968              	.LASF59:
ARM GAS  /tmp/ccp5l5Du.s 			page 79


 3969 0a7b 656C5F6C 		.ascii	"el_listener\000"
 3969      69737465 
 3969      6E657200 
 3970              	.LASF197:
 3971 0a87 50494F5F 		.ascii	"PIO_PTCR\000"
 3971      50544352 
 3971      00
 3972              	.LASF184:
 3973 0a90 50494F5F 		.ascii	"PIO_PCIER\000"
 3973      50434945 
 3973      5200
 3974              	.LASF35:
 3975 0a9a 705F7374 		.ascii	"p_state\000"
 3975      61746500 
 3976              		.ident	"GCC: (GNU Tools for ARM Embedded Processors) 4.9.3 20150529 (release) [ARM/embedded-4_9-br
ARM GAS  /tmp/ccp5l5Du.s 			page 80


DEFINED SYMBOLS
                            *ABS*:00000000 main.c
     /tmp/ccp5l5Du.s:19     .text.Thread1:00000000 $t
     /tmp/ccp5l5Du.s:24     .text.Thread1:00000000 Thread1
     /tmp/ccp5l5Du.s:62     .text.Thread1:0000001c $d
     /tmp/ccp5l5Du.s:67     .text.startup.main:00000000 $t
     /tmp/ccp5l5Du.s:73     .text.startup.main:00000000 main
     /tmp/ccp5l5Du.s:211    .text.startup.main:000000bc $d
     /tmp/ccp5l5Du.s:235    .rodata.pinPCK:00000000 pinPCK
     /tmp/ccp5l5Du.s:224    .bss.waThread1:00000000 $d
     /tmp/ccp5l5Du.s:228    .bss.waThread1:00000000 waThread1
     /tmp/ccp5l5Du.s:231    .rodata.pinPCK:00000000 $d
     /tmp/ccp5l5Du.s:243    .rodata.str1.4:00000000 $d
                     .debug_frame:00000010 $d

UNDEFINED SYMBOLS
chThdSleep
halInit
chSysInit
sdStart
PIO_Configure
PmcConfigurePllClock
PmcMasterClockSelection
ConfigurePck
ADC_Initialize
ADC_cfgFrequency
ADC_check
chThdCreateStatic
chprintf
SD2
