ARM GAS  /tmp/ccU6hAdg.s 			page 1


   1              		.syntax unified
   2              		.cpu cortex-m3
   3              		.fpu softvfp
   4              		.eabi_attribute 20, 1
   5              		.eabi_attribute 21, 1
   6              		.eabi_attribute 23, 3
   7              		.eabi_attribute 24, 1
   8              		.eabi_attribute 25, 1
   9              		.eabi_attribute 26, 1
  10              		.eabi_attribute 30, 2
  11              		.eabi_attribute 34, 1
  12              		.eabi_attribute 18, 4
  13              		.thumb
  14              		.file	"nvic.c"
  15              		.text
  16              	.Ltext0:
  17              		.cfi_sections	.debug_frame
  18              		.section	.text.nvicEnableVector,"ax",%progbits
  19              		.align	2
  20              		.p2align 4,,15
  21              		.global	nvicEnableVector
  22              		.thumb
  23              		.thumb_func
  24              		.type	nvicEnableVector, %function
  25              	nvicEnableVector:
  26              	.LFB7:
  27              		.file 1 "/home/nicolas/Desktop/Embebidos/stamp_repo/files/code/ext/ChibiOS/os/ports/common/ARMCMx/
  28              		.loc 1 46 0
  29              		.cfi_startproc
  30              		@ args = 0, pretend = 0, frame = 0
  31              		@ frame_needed = 0, uses_anonymous_args = 0
  32              		@ link register save eliminated.
  33              	.LVL0:
  34 0000 20F00302 		bic	r2, r0, #3
  35 0004 02F16042 		add	r2, r2, #-536870912
  36 0008 70B4     		push	{r4, r5, r6}
  37              		.cfi_def_cfa_offset 12
  38              		.cfi_offset 4, -12
  39              		.cfi_offset 5, -8
  40              		.cfi_offset 6, -4
  41 000a 02F56142 		add	r2, r2, #57600
  42              		.loc 1 47 0
  43 000e 00F00304 		and	r4, r0, #3
  44              		.loc 1 49 0
  45 0012 D2F80053 		ldr	r5, [r2, #768]
  46              		.loc 1 47 0
  47 0016 E400     		lsls	r4, r4, #3
  48              	.LVL1:
  49              		.loc 1 50 0
  50 0018 4309     		lsrs	r3, r0, #5
  51              		.loc 1 49 0
  52 001a FF26     		movs	r6, #255
  53 001c A640     		lsls	r6, r6, r4
  54 001e 9B00     		lsls	r3, r3, #2
  55 0020 A140     		lsls	r1, r1, r4
  56              	.LVL2:
  57 0022 25EA0605 		bic	r5, r5, r6
ARM GAS  /tmp/ccU6hAdg.s 			page 2


  58              		.loc 1 50 0
  59 0026 0124     		movs	r4, #1
  60              	.LVL3:
  61 0028 03F16043 		add	r3, r3, #-536870912
  62 002c 00F01F00 		and	r0, r0, #31
  63              	.LVL4:
  64 0030 04FA00F0 		lsl	r0, r4, r0
  65              		.loc 1 49 0
  66 0034 2943     		orrs	r1, r1, r5
  67 0036 03F56143 		add	r3, r3, #57600
  68 003a C2F80013 		str	r1, [r2, #768]
  69              		.loc 1 52 0
  70 003e 70BC     		pop	{r4, r5, r6}
  71              		.cfi_restore 6
  72              		.cfi_restore 5
  73              		.cfi_restore 4
  74              		.cfi_def_cfa_offset 0
  75              		.loc 1 50 0
  76 0040 C3F88001 		str	r0, [r3, #384]
  77              		.loc 1 51 0
  78 0044 1860     		str	r0, [r3]
  79              		.loc 1 52 0
  80 0046 7047     		bx	lr
  81              		.cfi_endproc
  82              	.LFE7:
  83              		.size	nvicEnableVector, .-nvicEnableVector
  84              		.section	.text.nvicDisableVector,"ax",%progbits
  85              		.align	2
  86              		.p2align 4,,15
  87              		.global	nvicDisableVector
  88              		.thumb
  89              		.thumb_func
  90              		.type	nvicDisableVector, %function
  91              	nvicDisableVector:
  92              	.LFB8:
  93              		.loc 1 60 0
  94              		.cfi_startproc
  95              		@ args = 0, pretend = 0, frame = 0
  96              		@ frame_needed = 0, uses_anonymous_args = 0
  97              		@ link register save eliminated.
  98              	.LVL5:
  99 0000 30B4     		push	{r4, r5}
 100              		.cfi_def_cfa_offset 8
 101              		.cfi_offset 4, -8
 102              		.cfi_offset 5, -4
 103              		.loc 1 63 0
 104 0002 4209     		lsrs	r2, r0, #5
 105 0004 00F01F05 		and	r5, r0, #31
 106 0008 0C4C     		ldr	r4, .L5
 107 000a 20F00303 		bic	r3, r0, #3
 108 000e 0121     		movs	r1, #1
 109 0010 A940     		lsls	r1, r1, r5
 110 0012 2032     		adds	r2, r2, #32
 111 0014 03F16043 		add	r3, r3, #-536870912
 112 0018 44F82210 		str	r1, [r4, r2, lsl #2]
 113 001c 03F56143 		add	r3, r3, #57600
 114              		.loc 1 61 0
ARM GAS  /tmp/ccU6hAdg.s 			page 3


 115 0020 00F00300 		and	r0, r0, #3
 116              	.LVL6:
 117              		.loc 1 64 0
 118 0024 D3F80013 		ldr	r1, [r3, #768]
 119              		.loc 1 61 0
 120 0028 C000     		lsls	r0, r0, #3
 121              	.LVL7:
 122              		.loc 1 64 0
 123 002a FF22     		movs	r2, #255
 124 002c 8240     		lsls	r2, r2, r0
 125 002e 21EA0202 		bic	r2, r1, r2
 126 0032 C3F80023 		str	r2, [r3, #768]
 127              		.loc 1 65 0
 128 0036 30BC     		pop	{r4, r5}
 129              		.cfi_restore 5
 130              		.cfi_restore 4
 131              		.cfi_def_cfa_offset 0
 132 0038 7047     		bx	lr
 133              	.L6:
 134 003a 00BF     		.align	2
 135              	.L5:
 136 003c 00E100E0 		.word	-536813312
 137              		.cfi_endproc
 138              	.LFE8:
 139              		.size	nvicDisableVector, .-nvicDisableVector
 140              		.section	.text.nvicSetSystemHandlerPriority,"ax",%progbits
 141              		.align	2
 142              		.p2align 4,,15
 143              		.global	nvicSetSystemHandlerPriority
 144              		.thumb
 145              		.thumb_func
 146              		.type	nvicSetSystemHandlerPriority, %function
 147              	nvicSetSystemHandlerPriority:
 148              	.LFB9:
 149              		.loc 1 74 0
 150              		.cfi_startproc
 151              		@ args = 0, pretend = 0, frame = 0
 152              		@ frame_needed = 0, uses_anonymous_args = 0
 153              		@ link register save eliminated.
 154              	.LVL8:
 155 0000 20F00303 		bic	r3, r0, #3
 156 0004 03F16043 		add	r3, r3, #-536870912
 157 0008 03F56D43 		add	r3, r3, #60672
 158              		.loc 1 75 0
 159 000c 00F00300 		and	r0, r0, #3
 160              	.LVL9:
 161              		.loc 1 74 0
 162 0010 10B4     		push	{r4}
 163              		.cfi_def_cfa_offset 4
 164              		.cfi_offset 4, -4
 165              		.loc 1 75 0
 166 0012 C000     		lsls	r0, r0, #3
 167              	.LVL10:
 168              		.loc 1 77 0
 169 0014 9A69     		ldr	r2, [r3, #24]
 170              		.loc 1 78 0
 171 0016 FF24     		movs	r4, #255
ARM GAS  /tmp/ccU6hAdg.s 			page 4


 172 0018 8440     		lsls	r4, r4, r0
 173              		.loc 1 77 0
 174 001a 22EA0402 		bic	r2, r2, r4
 175              		.loc 1 78 0
 176 001e 8140     		lsls	r1, r1, r0
 177              	.LVL11:
 178 0020 1143     		orrs	r1, r1, r2
 179              		.loc 1 77 0
 180 0022 9961     		str	r1, [r3, #24]
 181              		.loc 1 79 0
 182 0024 5DF8044B 		ldr	r4, [sp], #4
 183              		.cfi_restore 4
 184              		.cfi_def_cfa_offset 0
 185 0028 7047     		bx	lr
 186              		.cfi_endproc
 187              	.LFE9:
 188              		.size	nvicSetSystemHandlerPriority, .-nvicSetSystemHandlerPriority
 189 002a 00BF     		.text
 190              	.Letext0:
 191              		.file 2 "/opt/gcc-arm-none-eabi-4_9-2015q3/arm-none-eabi/include/machine/_default_types.h"
 192              		.file 3 "/opt/gcc-arm-none-eabi-4_9-2015q3/arm-none-eabi/include/sys/_stdint.h"
 193              		.file 4 "/home/nicolas/Desktop/Embebidos/stamp_repo/files/code/ext/ChibiOS/os/ports/common/ARMCMx/