ARM GAS  /tmp/ccVoo9SF.s 			page 1


   1              		.syntax unified
   2              		.cpu cortex-m3
   3              		.fpu softvfp
   4              		.eabi_attribute 20, 1
   5              		.eabi_attribute 21, 1
   6              		.eabi_attribute 23, 3
   7              		.eabi_attribute 24, 1
   8              		.eabi_attribute 25, 1
   9              		.eabi_attribute 26, 1
  10              		.eabi_attribute 30, 2
  11              		.eabi_attribute 34, 1
  12              		.eabi_attribute 18, 4
  13              		.thumb
  14              		.file	"pal_lld.c"
  15              		.text
  16              	.Ltext0:
  17              		.cfi_sections	.debug_frame
  18              		.section	.text._pal_lld_init,"ax",%progbits
  19              		.align	2
  20              		.p2align 4,,15
  21              		.global	_pal_lld_init
  22              		.thumb
  23              		.thumb_func
  24              		.type	_pal_lld_init, %function
  25              	_pal_lld_init:
  26              	.LFB36:
  27              		.file 1 "/home/nicolas/Desktop/Embebidos/stamp_repo/files/code/ext/ChibiOS/os/hal/platforms/AT91SA
  28              		.loc 1 71 0
  29              		.cfi_startproc
  30              		@ args = 0, pretend = 0, frame = 0
  31              		@ frame_needed = 0, uses_anonymous_args = 0
  32              		@ link register save eliminated.
  33              	.LVL0:
  34 0000 70B4     		push	{r4, r5, r6}
  35              		.cfi_def_cfa_offset 12
  36              		.cfi_offset 4, -12
  37              		.cfi_offset 5, -8
  38              		.cfi_offset 6, -4
  39              		.loc 1 81 0
  40 0002 284B     		ldr	r3, .L3
  41 0004 284C     		ldr	r4, .L3+4
  42              		.loc 1 83 0
  43 0006 294A     		ldr	r2, .L3+8
  44              		.loc 1 82 0
  45 0008 0121     		movs	r1, #1
  46              		.loc 1 81 0
  47 000a C3F8E440 		str	r4, [r3, #228]
  48              		.loc 1 82 0
  49 000e 1961     		str	r1, [r3, #16]
  50              		.loc 1 83 0
  51 0010 C3F8E420 		str	r2, [r3, #228]
  52              		.loc 1 90 0
  53 0014 8168     		ldr	r1, [r0, #8]
  54 0016 264A     		ldr	r2, .L3+12
  55              		.loc 1 91 0
  56 0018 CC43     		mvns	r4, r1
  57              		.loc 1 92 0
ARM GAS  /tmp/ccVoo9SF.s 			page 2


  58 001a 4FF0FF33 		mov	r3, #-1
  59              		.loc 1 90 0
  60 001e 5166     		str	r1, [r2, #100]
  61              		.loc 1 91 0
  62 0020 1466     		str	r4, [r2, #96]
  63              		.loc 1 92 0
  64 0022 1360     		str	r3, [r2]
  65              		.loc 1 93 0
  66 0024 0168     		ldr	r1, [r0]
  67              		.loc 1 102 0
  68 0026 0024     		movs	r4, #0
  69              		.loc 1 93 0
  70 0028 9163     		str	r1, [r2, #56]
  71              		.loc 1 94 0
  72 002a 4568     		ldr	r5, [r0, #4]
  73              		.loc 1 110 0
  74 002c 2149     		ldr	r1, .L3+16
  75              		.loc 1 95 0
  76 002e EE43     		mvns	r6, r5
  77              		.loc 1 94 0
  78 0030 1561     		str	r5, [r2, #16]
  79              		.loc 1 95 0
  80 0032 5661     		str	r6, [r2, #20]
  81              		.loc 1 96 0
  82 0034 5362     		str	r3, [r2, #36]
  83              		.loc 1 97 0
  84 0036 5364     		str	r3, [r2, #68]
  85              		.loc 1 98 0
  86 0038 5365     		str	r3, [r2, #84]
  87              		.loc 1 102 0
  88 003a 1467     		str	r4, [r2, #112]
  89              		.loc 1 103 0
  90 003c 5467     		str	r4, [r2, #116]
  91              		.loc 1 105 0
  92 003e C2F8A030 		str	r3, [r2, #160]
  93              		.loc 1 110 0
  94 0042 4569     		ldr	r5, [r0, #20]
  95              		.loc 1 111 0
  96 0044 EE43     		mvns	r6, r5
  97              		.loc 1 110 0
  98 0046 4D66     		str	r5, [r1, #100]
  99              		.loc 1 111 0
 100 0048 0E66     		str	r6, [r1, #96]
 101              		.loc 1 112 0
 102 004a 0B60     		str	r3, [r1]
 103              		.loc 1 113 0
 104 004c C568     		ldr	r5, [r0, #12]
 105 004e 8D63     		str	r5, [r1, #56]
 106              		.loc 1 114 0
 107 0050 0569     		ldr	r5, [r0, #16]
 108              		.loc 1 115 0
 109 0052 EE43     		mvns	r6, r5
 110              		.loc 1 114 0
 111 0054 0D61     		str	r5, [r1, #16]
 112              		.loc 1 115 0
 113 0056 4E61     		str	r6, [r1, #20]
 114              		.loc 1 116 0
ARM GAS  /tmp/ccVoo9SF.s 			page 3


 115 0058 4B62     		str	r3, [r1, #36]
 116              		.loc 1 117 0
 117 005a 4B64     		str	r3, [r1, #68]
 118              		.loc 1 118 0
 119 005c 4B65     		str	r3, [r1, #84]
 120              		.loc 1 122 0
 121 005e 0C67     		str	r4, [r1, #112]
 122              		.loc 1 123 0
 123 0060 4C67     		str	r4, [r1, #116]
 124              		.loc 1 125 0
 125 0062 C1F8A030 		str	r3, [r1, #160]
 126              		.loc 1 130 0
 127 0066 016A     		ldr	r1, [r0, #32]
 128              		.loc 1 131 0
 129 0068 CD43     		mvns	r5, r1
 130              		.loc 1 130 0
 131 006a C2F86414 		str	r1, [r2, #1124]
 132              		.loc 1 131 0
 133 006e C2F86054 		str	r5, [r2, #1120]
 134              		.loc 1 132 0
 135 0072 C2F80034 		str	r3, [r2, #1024]
 136              		.loc 1 133 0
 137 0076 8169     		ldr	r1, [r0, #24]
 138 0078 C2F83814 		str	r1, [r2, #1080]
 139              		.loc 1 134 0
 140 007c C169     		ldr	r1, [r0, #28]
 141              		.loc 1 135 0
 142 007e C843     		mvns	r0, r1
 143              	.LVL1:
 144              		.loc 1 134 0
 145 0080 C2F81014 		str	r1, [r2, #1040]
 146              		.loc 1 135 0
 147 0084 C2F81404 		str	r0, [r2, #1044]
 148              		.loc 1 136 0
 149 0088 C2F82434 		str	r3, [r2, #1060]
 150              		.loc 1 137 0
 151 008c C2F84434 		str	r3, [r2, #1092]
 152              		.loc 1 138 0
 153 0090 C2F85434 		str	r3, [r2, #1108]
 154              		.loc 1 142 0
 155 0094 C2F87044 		str	r4, [r2, #1136]
 156              		.loc 1 143 0
 157 0098 C2F87444 		str	r4, [r2, #1140]
 158              		.loc 1 145 0
 159 009c C2F8A034 		str	r3, [r2, #1184]
 160              		.loc 1 146 0
 161 00a0 70BC     		pop	{r4, r5, r6}
 162              		.cfi_restore 6
 163              		.cfi_restore 5
 164              		.cfi_restore 4
 165              		.cfi_def_cfa_offset 0
 166 00a2 7047     		bx	lr
 167              	.L4:
 168              		.align	2
 169              	.L3:
 170 00a4 00040E40 		.word	1074660352
 171 00a8 00434D50 		.word	1347240704
ARM GAS  /tmp/ccVoo9SF.s 			page 4


 172 00ac 01434D50 		.word	1347240705
 173 00b0 000E0E40 		.word	1074662912
 174 00b4 00100E40 		.word	1074663424
 175              		.cfi_endproc
 176              	.LFE36:
 177              		.size	_pal_lld_init, .-_pal_lld_init
 178              		.section	.text._pal_lld_setgroupmode,"ax",%progbits
 179              		.align	2
 180              		.p2align 4,,15
 181              		.global	_pal_lld_setgroupmode
 182              		.thumb
 183              		.thumb_func
 184              		.type	_pal_lld_setgroupmode, %function
 185              	_pal_lld_setgroupmode:
 186              	.LFB37:
 187              		.loc 1 167 0
 188              		.cfi_startproc
 189              		@ args = 0, pretend = 0, frame = 0
 190              		@ frame_needed = 0, uses_anonymous_args = 0
 191              		@ link register save eliminated.
 192              	.LVL2:
 193              		.loc 1 169 0
 194 0000 02F01F02 		and	r2, r2, #31
 195              	.LVL3:
 196 0004 072A     		cmp	r2, #7
 197 0006 08D8     		bhi	.L5
 198 0008 DFE802F0 		tbb	[pc, r2]
 199              	.L8:
 200 000c 10       		.byte	(.L7-.L8)/2
 201 000d 08       		.byte	(.L9-.L8)/2
 202 000e 0D       		.byte	(.L10-.L8)/2
 203 000f 10       		.byte	(.L7-.L8)/2
 204 0010 07       		.byte	(.L5-.L8)/2
 205 0011 0D       		.byte	(.L10-.L8)/2
 206 0012 09       		.byte	(.L11-.L8)/2
 207 0013 04       		.byte	(.L12-.L8)/2
 208              		.p2align 1
 209              	.L12:
 210              		.loc 1 189 0
 211 0014 4166     		str	r1, [r0, #100]
 212              		.loc 1 190 0
 213 0016 0161     		str	r1, [r0, #16]
 214              		.loc 1 191 0
 215 0018 0165     		str	r1, [r0, #80]
 216              	.L5:
 217 001a 7047     		bx	lr
 218              	.L9:
 219              		.loc 1 181 0
 220 001c 0163     		str	r1, [r0, #48]
 221              	.L11:
 222              		.loc 1 184 0
 223 001e 0166     		str	r1, [r0, #96]
 224              		.loc 1 185 0
 225 0020 0161     		str	r1, [r0, #16]
 226              		.loc 1 186 0
 227 0022 4165     		str	r1, [r0, #84]
 228              		.loc 1 187 0
ARM GAS  /tmp/ccVoo9SF.s 			page 5


 229 0024 7047     		bx	lr
 230              	.L10:
 231              		.loc 1 177 0
 232 0026 0166     		str	r1, [r0, #96]
 233              		.loc 1 178 0
 234 0028 4161     		str	r1, [r0, #20]
 235              		.loc 1 179 0
 236 002a 7047     		bx	lr
 237              	.L7:
 238              		.loc 1 172 0
 239 002c 4166     		str	r1, [r0, #100]
 240              		.loc 1 173 0
 241 002e 4161     		str	r1, [r0, #20]
 242              		.loc 1 174 0
 243 0030 7047     		bx	lr
 244              		.cfi_endproc
 245              	.LFE37:
 246              		.size	_pal_lld_setgroupmode, .-_pal_lld_setgroupmode
 247 0032 00BF     		.text
 248              	.Letext0:
 249              		.file 2 "/opt/gcc-arm-none-eabi-4_9-2015q3/arm-none-eabi/include/machine/_default_types.h"
 250              		.file 3 "/opt/gcc-arm-none-eabi-4_9-2015q3/arm-none-eabi/include/sys/_stdint.h"
 251              		.file 4 "/opt/gcc-arm-none-eabi-4_9-2015q3/arm-none-eabi/include/stdint.h"
 252              		.file 5 "/home/nicolas/Desktop/Embebidos/stamp_repo/files/code/ext/ChibiOS/os/hal/platforms/AT91SA
 253              		.file 6 "/home/nicolas/Desktop/Embebidos/stamp_repo/files/code/ext/ChibiOS/os/hal/platforms/AT91SA
 254              		.file 7 "/home/nicolas/Desktop/Embebidos/stamp_repo/files/code/ext/ChibiOS/os/hal/platforms/AT91SA
 255              		.section	.debug_info,"",%progbits
 256              	.Ldebug_info0:
 257 0000 84080000 		.4byte	0x884
 258 0004 0400     		.2byte	0x4
 259 0006 00000000 		.4byte	.Ldebug_abbrev0
 260 000a 04       		.byte	0x4
 261 000b 01       		.uleb128 0x1
 262 000c 57000000 		.4byte	.LASF134
 263 0010 01       		.byte	0x1
 264 0011 5C020000 		.4byte	.LASF135
 265 0015 00000000 		.4byte	.Ldebug_ranges0+0
 266 0019 00000000 		.4byte	0
 267 001d 00000000 		.4byte	.Ldebug_line0
 268 0021 02       		.uleb128 0x2
 269 0022 04       		.byte	0x4
 270 0023 05       		.byte	0x5
 271 0024 696E7400 		.ascii	"int\000"
 272 0028 03       		.uleb128 0x3
 273 0029 04       		.byte	0x4
 274 002a 07       		.byte	0x7
 275 002b 4B030000 		.4byte	.LASF0
 276 002f 03       		.uleb128 0x3
 277 0030 01       		.byte	0x1
 278 0031 06       		.byte	0x6
 279 0032 9C010000 		.4byte	.LASF1
 280 0036 03       		.uleb128 0x3
 281 0037 01       		.byte	0x1
 282 0038 08       		.byte	0x8
 283 0039 E2040000 		.4byte	.LASF2
 284 003d 03       		.uleb128 0x3
 285 003e 02       		.byte	0x2
ARM GAS  /tmp/ccVoo9SF.s 			page 6


 286 003f 05       		.byte	0x5
 287 0040 F9040000 		.4byte	.LASF3
 288 0044 03       		.uleb128 0x3
 289 0045 02       		.byte	0x2
 290 0046 07       		.byte	0x7
 291 0047 C1030000 		.4byte	.LASF4
 292 004b 03       		.uleb128 0x3
 293 004c 04       		.byte	0x4
 294 004d 05       		.byte	0x5
 295 004e 2D020000 		.4byte	.LASF5
 296 0052 04       		.uleb128 0x4
 297 0053 F9020000 		.4byte	.LASF9
 298 0057 02       		.byte	0x2
 299 0058 41       		.byte	0x41
 300 0059 5D000000 		.4byte	0x5d
 301 005d 03       		.uleb128 0x3
 302 005e 04       		.byte	0x4
 303 005f 07       		.byte	0x7
 304 0060 8B030000 		.4byte	.LASF6
 305 0064 03       		.uleb128 0x3
 306 0065 08       		.byte	0x8
 307 0066 05       		.byte	0x5
 308 0067 8E010000 		.4byte	.LASF7
 309 006b 03       		.uleb128 0x3
 310 006c 08       		.byte	0x8
 311 006d 07       		.byte	0x7
 312 006e 3C010000 		.4byte	.LASF8
 313 0072 04       		.uleb128 0x4
 314 0073 4F050000 		.4byte	.LASF10
 315 0077 03       		.byte	0x3
 316 0078 20       		.byte	0x20
 317 0079 52000000 		.4byte	0x52
 318 007d 04       		.uleb128 0x4
 319 007e 0C050000 		.4byte	.LASF11
 320 0082 04       		.byte	0x4
 321 0083 34       		.byte	0x34
 322 0084 28000000 		.4byte	0x28
 323 0088 05       		.uleb128 0x5
 324 0089 72000000 		.4byte	0x72
 325 008d 03       		.uleb128 0x3
 326 008e 04       		.byte	0x4
 327 008f 07       		.byte	0x7
 328 0090 46040000 		.4byte	.LASF12
 329 0094 03       		.uleb128 0x3
 330 0095 01       		.byte	0x1
 331 0096 08       		.byte	0x8
 332 0097 6E050000 		.4byte	.LASF13
 333 009b 04       		.uleb128 0x4
 334 009c 16040000 		.4byte	.LASF14
 335 00a0 05       		.byte	0x5
 336 00a1 35       		.byte	0x35
 337 00a2 A6000000 		.4byte	0xa6
 338 00a6 06       		.uleb128 0x6
 339 00a7 88000000 		.4byte	0x88
 340 00ab 04       		.uleb128 0x4
 341 00ac 85040000 		.4byte	.LASF15
 342 00b0 05       		.byte	0x5
ARM GAS  /tmp/ccVoo9SF.s 			page 7


 343 00b1 39       		.byte	0x39
 344 00b2 88000000 		.4byte	0x88
 345 00b6 04       		.uleb128 0x4
 346 00b7 75040000 		.4byte	.LASF16
 347 00bb 05       		.byte	0x5
 348 00bc 3A       		.byte	0x3a
 349 00bd 88000000 		.4byte	0x88
 350 00c1 07       		.uleb128 0x7
 351 00c2 B6000000 		.4byte	0xb6
 352 00c6 D1000000 		.4byte	0xd1
 353 00ca 08       		.uleb128 0x8
 354 00cb 8D000000 		.4byte	0x8d
 355 00cf 12       		.byte	0x12
 356 00d0 00       		.byte	0
 357 00d1 07       		.uleb128 0x7
 358 00d2 B6000000 		.4byte	0xb6
 359 00d6 E1000000 		.4byte	0xe1
 360 00da 08       		.uleb128 0x8
 361 00db 8D000000 		.4byte	0x8d
 362 00df 00       		.byte	0
 363 00e0 00       		.byte	0
 364 00e1 07       		.uleb128 0x7
 365 00e2 B6000000 		.4byte	0xb6
 366 00e6 F1000000 		.4byte	0xf1
 367 00ea 08       		.uleb128 0x8
 368 00eb 8D000000 		.4byte	0x8d
 369 00ef 01       		.byte	0x1
 370 00f0 00       		.byte	0
 371 00f1 07       		.uleb128 0x7
 372 00f2 B6000000 		.4byte	0xb6
 373 00f6 01010000 		.4byte	0x101
 374 00fa 08       		.uleb128 0x8
 375 00fb 8D000000 		.4byte	0x8d
 376 00ff 04       		.byte	0x4
 377 0100 00       		.byte	0
 378 0101 09       		.uleb128 0x9
 379 0102 9001     		.2byte	0x190
 380 0104 05       		.byte	0x5
 381 0105 DA06     		.2byte	0x6da
 382 0107 FA040000 		.4byte	0x4fa
 383 010b 0A       		.uleb128 0xa
 384 010c F1020000 		.4byte	.LASF17
 385 0110 05       		.byte	0x5
 386 0111 DB06     		.2byte	0x6db
 387 0113 AB000000 		.4byte	0xab
 388 0117 00       		.byte	0
 389 0118 0A       		.uleb128 0xa
 390 0119 25020000 		.4byte	.LASF18
 391 011d 05       		.byte	0x5
 392 011e DC06     		.2byte	0x6dc
 393 0120 AB000000 		.4byte	0xab
 394 0124 04       		.byte	0x4
 395 0125 0A       		.uleb128 0xa
 396 0126 C3010000 		.4byte	.LASF19
 397 012a 05       		.byte	0x5
 398 012b DD06     		.2byte	0x6dd
 399 012d 9B000000 		.4byte	0x9b
ARM GAS  /tmp/ccVoo9SF.s 			page 8


 400 0131 08       		.byte	0x8
 401 0132 0A       		.uleb128 0xa
 402 0133 CB010000 		.4byte	.LASF20
 403 0137 05       		.byte	0x5
 404 0138 DE06     		.2byte	0x6de
 405 013a FA040000 		.4byte	0x4fa
 406 013e 0C       		.byte	0xc
 407 013f 0A       		.uleb128 0xa
 408 0140 3E040000 		.4byte	.LASF21
 409 0144 05       		.byte	0x5
 410 0145 DF06     		.2byte	0x6df
 411 0147 AB000000 		.4byte	0xab
 412 014b 10       		.byte	0x10
 413 014c 0A       		.uleb128 0xa
 414 014d AF030000 		.4byte	.LASF22
 415 0151 05       		.byte	0x5
 416 0152 E006     		.2byte	0x6e0
 417 0154 AB000000 		.4byte	0xab
 418 0158 14       		.byte	0x14
 419 0159 0A       		.uleb128 0xa
 420 015a 7E030000 		.4byte	.LASF23
 421 015e 05       		.byte	0x5
 422 015f E106     		.2byte	0x6e1
 423 0161 9B000000 		.4byte	0x9b
 424 0165 18       		.byte	0x18
 425 0166 0A       		.uleb128 0xa
 426 0167 D5010000 		.4byte	.LASF24
 427 016b 05       		.byte	0x5
 428 016c E206     		.2byte	0x6e2
 429 016e FF040000 		.4byte	0x4ff
 430 0172 1C       		.byte	0x1c
 431 0173 0A       		.uleb128 0xa
 432 0174 A3050000 		.4byte	.LASF25
 433 0178 05       		.byte	0x5
 434 0179 E306     		.2byte	0x6e3
 435 017b AB000000 		.4byte	0xab
 436 017f 20       		.byte	0x20
 437 0180 0A       		.uleb128 0xa
 438 0181 03050000 		.4byte	.LASF26
 439 0185 05       		.byte	0x5
 440 0186 E406     		.2byte	0x6e4
 441 0188 AB000000 		.4byte	0xab
 442 018c 24       		.byte	0x24
 443 018d 0A       		.uleb128 0xa
 444 018e F0040000 		.4byte	.LASF27
 445 0192 05       		.byte	0x5
 446 0193 E506     		.2byte	0x6e5
 447 0195 9B000000 		.4byte	0x9b
 448 0199 28       		.byte	0x28
 449 019a 0A       		.uleb128 0xa
 450 019b DF010000 		.4byte	.LASF28
 451 019f 05       		.byte	0x5
 452 01a0 E606     		.2byte	0x6e6
 453 01a2 04050000 		.4byte	0x504
 454 01a6 2C       		.byte	0x2c
 455 01a7 0A       		.uleb128 0xa
 456 01a8 49060000 		.4byte	.LASF29
ARM GAS  /tmp/ccVoo9SF.s 			page 9


 457 01ac 05       		.byte	0x5
 458 01ad E706     		.2byte	0x6e7
 459 01af AB000000 		.4byte	0xab
 460 01b3 30       		.byte	0x30
 461 01b4 0A       		.uleb128 0xa
 462 01b5 19050000 		.4byte	.LASF30
 463 01b9 05       		.byte	0x5
 464 01ba E806     		.2byte	0x6e8
 465 01bc AB000000 		.4byte	0xab
 466 01c0 34       		.byte	0x34
 467 01c1 0A       		.uleb128 0xa
 468 01c2 A6030000 		.4byte	.LASF31
 469 01c6 05       		.byte	0x5
 470 01c7 E906     		.2byte	0x6e9
 471 01c9 B6000000 		.4byte	0xb6
 472 01cd 38       		.byte	0x38
 473 01ce 0A       		.uleb128 0xa
 474 01cf CD020000 		.4byte	.LASF32
 475 01d3 05       		.byte	0x5
 476 01d4 EA06     		.2byte	0x6ea
 477 01d6 9B000000 		.4byte	0x9b
 478 01da 3C       		.byte	0x3c
 479 01db 0A       		.uleb128 0xa
 480 01dc 95040000 		.4byte	.LASF33
 481 01e0 05       		.byte	0x5
 482 01e1 EB06     		.2byte	0x6eb
 483 01e3 AB000000 		.4byte	0xab
 484 01e7 40       		.byte	0x40
 485 01e8 0A       		.uleb128 0xa
 486 01e9 1C040000 		.4byte	.LASF34
 487 01ed 05       		.byte	0x5
 488 01ee EC06     		.2byte	0x6ec
 489 01f0 AB000000 		.4byte	0xab
 490 01f4 44       		.byte	0x44
 491 01f5 0A       		.uleb128 0xa
 492 01f6 DA040000 		.4byte	.LASF35
 493 01fa 05       		.byte	0x5
 494 01fb ED06     		.2byte	0x6ed
 495 01fd 9B000000 		.4byte	0x9b
 496 0201 48       		.byte	0x48
 497 0202 0A       		.uleb128 0xa
 498 0203 0E040000 		.4byte	.LASF36
 499 0207 05       		.byte	0x5
 500 0208 EE06     		.2byte	0x6ee
 501 020a 9B000000 		.4byte	0x9b
 502 020e 4C       		.byte	0x4c
 503 020f 0A       		.uleb128 0xa
 504 0210 46050000 		.4byte	.LASF37
 505 0214 05       		.byte	0x5
 506 0215 EF06     		.2byte	0x6ef
 507 0217 AB000000 		.4byte	0xab
 508 021b 50       		.byte	0x50
 509 021c 0A       		.uleb128 0xa
 510 021d 9D040000 		.4byte	.LASF38
 511 0221 05       		.byte	0x5
 512 0222 F006     		.2byte	0x6f0
 513 0224 AB000000 		.4byte	0xab
ARM GAS  /tmp/ccVoo9SF.s 			page 10


 514 0228 54       		.byte	0x54
 515 0229 0A       		.uleb128 0xa
 516 022a 7C010000 		.4byte	.LASF39
 517 022e 05       		.byte	0x5
 518 022f F106     		.2byte	0x6f1
 519 0231 9B000000 		.4byte	0x9b
 520 0235 58       		.byte	0x58
 521 0236 0A       		.uleb128 0xa
 522 0237 E9010000 		.4byte	.LASF40
 523 023b 05       		.byte	0x5
 524 023c F206     		.2byte	0x6f2
 525 023e 09050000 		.4byte	0x509
 526 0242 5C       		.byte	0x5c
 527 0243 0A       		.uleb128 0xa
 528 0244 36020000 		.4byte	.LASF41
 529 0248 05       		.byte	0x5
 530 0249 F306     		.2byte	0x6f3
 531 024b AB000000 		.4byte	0xab
 532 024f 60       		.byte	0x60
 533 0250 0A       		.uleb128 0xa
 534 0251 62030000 		.4byte	.LASF42
 535 0255 05       		.byte	0x5
 536 0256 F406     		.2byte	0x6f4
 537 0258 AB000000 		.4byte	0xab
 538 025c 64       		.byte	0x64
 539 025d 0A       		.uleb128 0xa
 540 025e 85010000 		.4byte	.LASF43
 541 0262 05       		.byte	0x5
 542 0263 F506     		.2byte	0x6f5
 543 0265 9B000000 		.4byte	0x9b
 544 0269 68       		.byte	0x68
 545 026a 0A       		.uleb128 0xa
 546 026b B7030000 		.4byte	.LASF44
 547 026f 05       		.byte	0x5
 548 0270 F606     		.2byte	0x6f6
 549 0272 0E050000 		.4byte	0x50e
 550 0276 6C       		.byte	0x6c
 551 0277 0A       		.uleb128 0xa
 552 0278 E6020000 		.4byte	.LASF45
 553 027c 05       		.byte	0x5
 554 027d F706     		.2byte	0x6f7
 555 027f 13050000 		.4byte	0x513
 556 0283 70       		.byte	0x70
 557 0284 0A       		.uleb128 0xa
 558 0285 FD010000 		.4byte	.LASF46
 559 0289 05       		.byte	0x5
 560 028a F806     		.2byte	0x6f8
 561 028c 18050000 		.4byte	0x518
 562 0290 78       		.byte	0x78
 563 0291 0A       		.uleb128 0xa
 564 0292 98050000 		.4byte	.LASF47
 565 0296 05       		.byte	0x5
 566 0297 F906     		.2byte	0x6f9
 567 0299 AB000000 		.4byte	0xab
 568 029d 80       		.byte	0x80
 569 029e 0A       		.uleb128 0xa
 570 029f 17060000 		.4byte	.LASF48
ARM GAS  /tmp/ccVoo9SF.s 			page 11


 571 02a3 05       		.byte	0x5
 572 02a4 FA06     		.2byte	0x6fa
 573 02a6 AB000000 		.4byte	0xab
 574 02aa 84       		.byte	0x84
 575 02ab 0A       		.uleb128 0xa
 576 02ac 84050000 		.4byte	.LASF49
 577 02b0 05       		.byte	0x5
 578 02b1 FB06     		.2byte	0x6fb
 579 02b3 9B000000 		.4byte	0x9b
 580 02b7 88       		.byte	0x88
 581 02b8 0A       		.uleb128 0xa
 582 02b9 73010000 		.4byte	.LASF50
 583 02bd 05       		.byte	0x5
 584 02be FC06     		.2byte	0x6fc
 585 02c0 B6000000 		.4byte	0xb6
 586 02c4 8C       		.byte	0x8c
 587 02c5 0A       		.uleb128 0xa
 588 02c6 8B040000 		.4byte	.LASF51
 589 02ca 05       		.byte	0x5
 590 02cb FD06     		.2byte	0x6fd
 591 02cd AB000000 		.4byte	0xab
 592 02d1 90       		.byte	0x90
 593 02d2 0A       		.uleb128 0xa
 594 02d3 3C050000 		.4byte	.LASF52
 595 02d7 05       		.byte	0x5
 596 02d8 FE06     		.2byte	0x6fe
 597 02da AB000000 		.4byte	0xab
 598 02de 94       		.byte	0x94
 599 02df 0A       		.uleb128 0xa
 600 02e0 7B040000 		.4byte	.LASF53
 601 02e4 05       		.byte	0x5
 602 02e5 FF06     		.2byte	0x6ff
 603 02e7 9B000000 		.4byte	0x9b
 604 02eb 98       		.byte	0x98
 605 02ec 0A       		.uleb128 0xa
 606 02ed 07020000 		.4byte	.LASF54
 607 02f1 05       		.byte	0x5
 608 02f2 0007     		.2byte	0x700
 609 02f4 1D050000 		.4byte	0x51d
 610 02f8 9C       		.byte	0x9c
 611 02f9 0A       		.uleb128 0xa
 612 02fa 44000000 		.4byte	.LASF55
 613 02fe 05       		.byte	0x5
 614 02ff 0107     		.2byte	0x701
 615 0301 AB000000 		.4byte	0xab
 616 0305 A0       		.byte	0xa0
 617 0306 0A       		.uleb128 0xa
 618 0307 40060000 		.4byte	.LASF56
 619 030b 05       		.byte	0x5
 620 030c 0207     		.2byte	0x702
 621 030e AB000000 		.4byte	0xab
 622 0312 A4       		.byte	0xa4
 623 0313 0A       		.uleb128 0xa
 624 0314 05060000 		.4byte	.LASF57
 625 0318 05       		.byte	0x5
 626 0319 0307     		.2byte	0x703
 627 031b 9B000000 		.4byte	0x9b
ARM GAS  /tmp/ccVoo9SF.s 			page 12


 628 031f A8       		.byte	0xa8
 629 0320 0A       		.uleb128 0xa
 630 0321 11020000 		.4byte	.LASF58
 631 0325 05       		.byte	0x5
 632 0326 0407     		.2byte	0x704
 633 0328 22050000 		.4byte	0x522
 634 032c AC       		.byte	0xac
 635 032d 0A       		.uleb128 0xa
 636 032e 04040000 		.4byte	.LASF59
 637 0332 05       		.byte	0x5
 638 0333 0507     		.2byte	0x705
 639 0335 AB000000 		.4byte	0xab
 640 0339 B0       		.byte	0xb0
 641 033a 0A       		.uleb128 0xa
 642 033b 73050000 		.4byte	.LASF60
 643 033f 05       		.byte	0x5
 644 0340 0607     		.2byte	0x706
 645 0342 AB000000 		.4byte	0xab
 646 0346 B4       		.byte	0xb4
 647 0347 0A       		.uleb128 0xa
 648 0348 2C040000 		.4byte	.LASF61
 649 034c 05       		.byte	0x5
 650 034d 0707     		.2byte	0x707
 651 034f 9B000000 		.4byte	0x9b
 652 0353 B8       		.byte	0xb8
 653 0354 0A       		.uleb128 0xa
 654 0355 1B020000 		.4byte	.LASF62
 655 0359 05       		.byte	0x5
 656 035a 0807     		.2byte	0x708
 657 035c 27050000 		.4byte	0x527
 658 0360 BC       		.byte	0xbc
 659 0361 0A       		.uleb128 0xa
 660 0362 B2010000 		.4byte	.LASF63
 661 0366 05       		.byte	0x5
 662 0367 0907     		.2byte	0x709
 663 0369 AB000000 		.4byte	0xab
 664 036d C0       		.byte	0xc0
 665 036e 0A       		.uleb128 0xa
 666 036f F4050000 		.4byte	.LASF64
 667 0373 05       		.byte	0x5
 668 0374 0A07     		.2byte	0x70a
 669 0376 AB000000 		.4byte	0xab
 670 037a C4       		.byte	0xc4
 671 037b 0A       		.uleb128 0xa
 672 037c 0A000000 		.4byte	.LASF65
 673 0380 05       		.byte	0x5
 674 0381 0B07     		.2byte	0x70b
 675 0383 9B000000 		.4byte	0x9b
 676 0387 C8       		.byte	0xc8
 677 0388 0A       		.uleb128 0xa
 678 0389 11030000 		.4byte	.LASF66
 679 038d 05       		.byte	0x5
 680 038e 0C07     		.2byte	0x70c
 681 0390 2C050000 		.4byte	0x52c
 682 0394 CC       		.byte	0xcc
 683 0395 0A       		.uleb128 0xa
 684 0396 C6040000 		.4byte	.LASF67
ARM GAS  /tmp/ccVoo9SF.s 			page 13


 685 039a 05       		.byte	0x5
 686 039b 0D07     		.2byte	0x70d
 687 039d AB000000 		.4byte	0xab
 688 03a1 D0       		.byte	0xd0
 689 03a2 0A       		.uleb128 0xa
 690 03a3 58050000 		.4byte	.LASF68
 691 03a7 05       		.byte	0x5
 692 03a8 0E07     		.2byte	0x70e
 693 03aa AB000000 		.4byte	0xab
 694 03ae D4       		.byte	0xd4
 695 03af 0A       		.uleb128 0xa
 696 03b0 6B030000 		.4byte	.LASF69
 697 03b4 05       		.byte	0x5
 698 03b5 0F07     		.2byte	0x70f
 699 03b7 9B000000 		.4byte	0x9b
 700 03bb D8       		.byte	0xd8
 701 03bc 0A       		.uleb128 0xa
 702 03bd 1C030000 		.4byte	.LASF70
 703 03c1 05       		.byte	0x5
 704 03c2 1007     		.2byte	0x710
 705 03c4 31050000 		.4byte	0x531
 706 03c8 DC       		.byte	0xdc
 707 03c9 0A       		.uleb128 0xa
 708 03ca F9030000 		.4byte	.LASF71
 709 03ce 05       		.byte	0x5
 710 03cf 1107     		.2byte	0x711
 711 03d1 9B000000 		.4byte	0x9b
 712 03d5 E0       		.byte	0xe0
 713 03d6 0A       		.uleb128 0xa
 714 03d7 55040000 		.4byte	.LASF72
 715 03db 05       		.byte	0x5
 716 03dc 1207     		.2byte	0x712
 717 03de B6000000 		.4byte	0xb6
 718 03e2 E4       		.byte	0xe4
 719 03e3 0A       		.uleb128 0xa
 720 03e4 3D030000 		.4byte	.LASF73
 721 03e8 05       		.byte	0x5
 722 03e9 1307     		.2byte	0x713
 723 03eb 9B000000 		.4byte	0x9b
 724 03ef E8       		.byte	0xe8
 725 03f0 0A       		.uleb128 0xa
 726 03f1 27030000 		.4byte	.LASF74
 727 03f5 05       		.byte	0x5
 728 03f6 1407     		.2byte	0x714
 729 03f8 36050000 		.4byte	0x536
 730 03fc EC       		.byte	0xec
 731 03fd 0B       		.uleb128 0xb
 732 03fe 2B000000 		.4byte	.LASF75
 733 0402 05       		.byte	0x5
 734 0403 1507     		.2byte	0x715
 735 0405 B6000000 		.4byte	0xb6
 736 0409 0001     		.2byte	0x100
 737 040b 0B       		.uleb128 0xb
 738 040c 32030000 		.4byte	.LASF76
 739 0410 05       		.byte	0x5
 740 0411 1607     		.2byte	0x716
 741 0413 3B050000 		.4byte	0x53b
ARM GAS  /tmp/ccVoo9SF.s 			page 14


 742 0417 0401     		.2byte	0x104
 743 0419 0B       		.uleb128 0xb
 744 041a D1040000 		.4byte	.LASF77
 745 041e 05       		.byte	0x5
 746 041f 1707     		.2byte	0x717
 747 0421 B6000000 		.4byte	0xb6
 748 0425 5001     		.2byte	0x150
 749 0427 0B       		.uleb128 0xb
 750 0428 C3020000 		.4byte	.LASF78
 751 042c 05       		.byte	0x5
 752 042d 1807     		.2byte	0x718
 753 042f AB000000 		.4byte	0xab
 754 0433 5401     		.2byte	0x154
 755 0435 0B       		.uleb128 0xb
 756 0436 53010000 		.4byte	.LASF79
 757 043a 05       		.byte	0x5
 758 043b 1907     		.2byte	0x719
 759 043d AB000000 		.4byte	0xab
 760 0441 5801     		.2byte	0x158
 761 0443 0B       		.uleb128 0xb
 762 0444 A8010000 		.4byte	.LASF80
 763 0448 05       		.byte	0x5
 764 0449 1A07     		.2byte	0x71a
 765 044b 9B000000 		.4byte	0x9b
 766 044f 5C01     		.2byte	0x15c
 767 0451 0B       		.uleb128 0xb
 768 0452 4D000000 		.4byte	.LASF81
 769 0456 05       		.byte	0x5
 770 0457 1B07     		.2byte	0x71b
 771 0459 9B000000 		.4byte	0x9b
 772 045d 6001     		.2byte	0x160
 773 045f 0B       		.uleb128 0xb
 774 0460 00000000 		.4byte	.LASF82
 775 0464 05       		.byte	0x5
 776 0465 1C07     		.2byte	0x71c
 777 0467 9B000000 		.4byte	0x9b
 778 046b 6401     		.2byte	0x164
 779 046d 0B       		.uleb128 0xb
 780 046e F1030000 		.4byte	.LASF83
 781 0472 05       		.byte	0x5
 782 0473 1D07     		.2byte	0x71d
 783 0475 B6000000 		.4byte	0xb6
 784 0479 6801     		.2byte	0x168
 785 047b 0B       		.uleb128 0xb
 786 047c 2C050000 		.4byte	.LASF84
 787 0480 05       		.byte	0x5
 788 0481 1E07     		.2byte	0x71e
 789 0483 B6000000 		.4byte	0xb6
 790 0487 6C01     		.2byte	0x16c
 791 0489 0B       		.uleb128 0xb
 792 048a 1A000000 		.4byte	.LASF85
 793 048e 05       		.byte	0x5
 794 048f 1F07     		.2byte	0x71f
 795 0491 B6000000 		.4byte	0xb6
 796 0495 7001     		.2byte	0x170
 797 0497 0B       		.uleb128 0xb
 798 0498 76030000 		.4byte	.LASF86
ARM GAS  /tmp/ccVoo9SF.s 			page 15


 799 049c 05       		.byte	0x5
 800 049d 2007     		.2byte	0x720
 801 049f B6000000 		.4byte	0xb6
 802 04a3 7401     		.2byte	0x174
 803 04a5 0B       		.uleb128 0xb
 804 04a6 B7050000 		.4byte	.LASF87
 805 04aa 05       		.byte	0x5
 806 04ab 2107     		.2byte	0x721
 807 04ad B6000000 		.4byte	0xb6
 808 04b1 7801     		.2byte	0x178
 809 04b3 0B       		.uleb128 0xb
 810 04b4 5D010000 		.4byte	.LASF88
 811 04b8 05       		.byte	0x5
 812 04b9 2207     		.2byte	0x722
 813 04bb B6000000 		.4byte	0xb6
 814 04bf 7C01     		.2byte	0x17c
 815 04c1 0B       		.uleb128 0xb
 816 04c2 A6040000 		.4byte	.LASF89
 817 04c6 05       		.byte	0x5
 818 04c7 2307     		.2byte	0x723
 819 04c9 B6000000 		.4byte	0xb6
 820 04cd 8001     		.2byte	0x180
 821 04cf 0B       		.uleb128 0xb
 822 04d0 FC050000 		.4byte	.LASF90
 823 04d4 05       		.byte	0x5
 824 04d5 2407     		.2byte	0x724
 825 04d7 B6000000 		.4byte	0xb6
 826 04db 8401     		.2byte	0x184
 827 04dd 0B       		.uleb128 0xb
 828 04de D6020000 		.4byte	.LASF91
 829 04e2 05       		.byte	0x5
 830 04e3 2507     		.2byte	0x725
 831 04e5 AB000000 		.4byte	0xab
 832 04e9 8801     		.2byte	0x188
 833 04eb 0B       		.uleb128 0xb
 834 04ec 9D030000 		.4byte	.LASF92
 835 04f0 05       		.byte	0x5
 836 04f1 2607     		.2byte	0x726
 837 04f3 9B000000 		.4byte	0x9b
 838 04f7 8C01     		.2byte	0x18c
 839 04f9 00       		.byte	0
 840 04fa 05       		.uleb128 0x5
 841 04fb D1000000 		.4byte	0xd1
 842 04ff 05       		.uleb128 0x5
 843 0500 D1000000 		.4byte	0xd1
 844 0504 05       		.uleb128 0x5
 845 0505 D1000000 		.4byte	0xd1
 846 0509 05       		.uleb128 0x5
 847 050a D1000000 		.4byte	0xd1
 848 050e 05       		.uleb128 0x5
 849 050f D1000000 		.4byte	0xd1
 850 0513 05       		.uleb128 0x5
 851 0514 E1000000 		.4byte	0xe1
 852 0518 05       		.uleb128 0x5
 853 0519 E1000000 		.4byte	0xe1
 854 051d 05       		.uleb128 0x5
 855 051e D1000000 		.4byte	0xd1
ARM GAS  /tmp/ccVoo9SF.s 			page 16


 856 0522 05       		.uleb128 0x5
 857 0523 D1000000 		.4byte	0xd1
 858 0527 05       		.uleb128 0x5
 859 0528 D1000000 		.4byte	0xd1
 860 052c 05       		.uleb128 0x5
 861 052d D1000000 		.4byte	0xd1
 862 0531 05       		.uleb128 0x5
 863 0532 D1000000 		.4byte	0xd1
 864 0536 05       		.uleb128 0x5
 865 0537 F1000000 		.4byte	0xf1
 866 053b 05       		.uleb128 0x5
 867 053c C1000000 		.4byte	0xc1
 868 0540 0C       		.uleb128 0xc
 869 0541 50696F00 		.ascii	"Pio\000"
 870 0545 05       		.byte	0x5
 871 0546 2707     		.2byte	0x727
 872 0548 01010000 		.4byte	0x101
 873 054c 09       		.uleb128 0x9
 874 054d 1401     		.2byte	0x114
 875 054f 05       		.byte	0x5
 876 0550 3F0D     		.2byte	0xd3f
 877 0552 16070000 		.4byte	0x716
 878 0556 0A       		.uleb128 0xa
 879 0557 37060000 		.4byte	.LASF93
 880 055b 05       		.byte	0x5
 881 055c 400D     		.2byte	0xd40
 882 055e AB000000 		.4byte	0xab
 883 0562 00       		.byte	0
 884 0563 0A       		.uleb128 0xa
 885 0564 BA010000 		.4byte	.LASF94
 886 0568 05       		.byte	0x5
 887 0569 410D     		.2byte	0xd41
 888 056b AB000000 		.4byte	0xab
 889 056f 04       		.byte	0x4
 890 0570 0A       		.uleb128 0xa
 891 0571 8F050000 		.4byte	.LASF95
 892 0575 05       		.byte	0x5
 893 0576 420D     		.2byte	0xd42
 894 0578 9B000000 		.4byte	0x9b
 895 057c 08       		.byte	0x8
 896 057d 0A       		.uleb128 0xa
 897 057e CB010000 		.4byte	.LASF20
 898 0582 05       		.byte	0x5
 899 0583 430D     		.2byte	0xd43
 900 0585 16070000 		.4byte	0x716
 901 0589 0C       		.byte	0xc
 902 058a 0A       		.uleb128 0xa
 903 058b 48020000 		.4byte	.LASF96
 904 058f 05       		.byte	0x5
 905 0590 440D     		.2byte	0xd44
 906 0592 AB000000 		.4byte	0xab
 907 0596 10       		.byte	0x10
 908 0597 0A       		.uleb128 0xa
 909 0598 DD030000 		.4byte	.LASF97
 910 059c 05       		.byte	0x5
 911 059d 450D     		.2byte	0xd45
 912 059f AB000000 		.4byte	0xab
ARM GAS  /tmp/ccVoo9SF.s 			page 17


 913 05a3 14       		.byte	0x14
 914 05a4 0A       		.uleb128 0xa
 915 05a5 F3010000 		.4byte	.LASF98
 916 05a9 05       		.byte	0x5
 917 05aa 460D     		.2byte	0xd46
 918 05ac 9B000000 		.4byte	0x9b
 919 05b0 18       		.byte	0x18
 920 05b1 0A       		.uleb128 0xa
 921 05b2 D5010000 		.4byte	.LASF24
 922 05b6 05       		.byte	0x5
 923 05b7 470D     		.2byte	0xd47
 924 05b9 1B070000 		.4byte	0x71b
 925 05bd 1C       		.byte	0x1c
 926 05be 0A       		.uleb128 0xa
 927 05bf 22000000 		.4byte	.LASF99
 928 05c3 05       		.byte	0x5
 929 05c4 480D     		.2byte	0xd48
 930 05c6 B6000000 		.4byte	0xb6
 931 05ca 20       		.byte	0x20
 932 05cb 0A       		.uleb128 0xa
 933 05cc 58030000 		.4byte	.LASF100
 934 05d0 05       		.byte	0x5
 935 05d1 490D     		.2byte	0xd49
 936 05d3 9B000000 		.4byte	0x9b
 937 05d7 24       		.byte	0x24
 938 05d8 0A       		.uleb128 0xa
 939 05d9 B4040000 		.4byte	.LASF101
 940 05dd 05       		.byte	0x5
 941 05de 4A0D     		.2byte	0xd4a
 942 05e0 B6000000 		.4byte	0xb6
 943 05e4 28       		.byte	0x28
 944 05e5 0A       		.uleb128 0xa
 945 05e6 63050000 		.4byte	.LASF102
 946 05ea 05       		.byte	0x5
 947 05eb 4B0D     		.2byte	0xd4b
 948 05ed B6000000 		.4byte	0xb6
 949 05f1 2C       		.byte	0x2c
 950 05f2 0A       		.uleb128 0xa
 951 05f3 D4030000 		.4byte	.LASF103
 952 05f7 05       		.byte	0x5
 953 05f8 4C0D     		.2byte	0xd4c
 954 05fa B6000000 		.4byte	0xb6
 955 05fe 30       		.byte	0x30
 956 05ff 0A       		.uleb128 0xa
 957 0600 DF010000 		.4byte	.LASF28
 958 0604 05       		.byte	0x5
 959 0605 4D0D     		.2byte	0xd4d
 960 0607 20070000 		.4byte	0x720
 961 060b 34       		.byte	0x34
 962 060c 0A       		.uleb128 0xa
 963 060d 24040000 		.4byte	.LASF104
 964 0611 05       		.byte	0x5
 965 0612 4E0D     		.2byte	0xd4e
 966 0614 B6000000 		.4byte	0xb6
 967 0618 38       		.byte	0x38
 968 0619 0A       		.uleb128 0xa
 969 061a E9010000 		.4byte	.LASF40
ARM GAS  /tmp/ccVoo9SF.s 			page 18


 970 061e 05       		.byte	0x5
 971 061f 4F0D     		.2byte	0xd4f
 972 0621 25070000 		.4byte	0x725
 973 0625 3C       		.byte	0x3c
 974 0626 0A       		.uleb128 0xa
 975 0627 09030000 		.4byte	.LASF105
 976 062b 05       		.byte	0x5
 977 062c 500D     		.2byte	0xd50
 978 062e 3A070000 		.4byte	0x73a
 979 0632 40       		.byte	0x40
 980 0633 0A       		.uleb128 0xa
 981 0634 B7030000 		.4byte	.LASF44
 982 0638 05       		.byte	0x5
 983 0639 510D     		.2byte	0xd51
 984 063b 3F070000 		.4byte	0x73f
 985 063f 4C       		.byte	0x4c
 986 0640 0A       		.uleb128 0xa
 987 0641 D6050000 		.4byte	.LASF106
 988 0645 05       		.byte	0x5
 989 0646 520D     		.2byte	0xd52
 990 0648 AB000000 		.4byte	0xab
 991 064c 60       		.byte	0x60
 992 064d 0A       		.uleb128 0xa
 993 064e 34050000 		.4byte	.LASF107
 994 0652 05       		.byte	0x5
 995 0653 530D     		.2byte	0xd53
 996 0655 AB000000 		.4byte	0xab
 997 0659 64       		.byte	0x64
 998 065a 0A       		.uleb128 0xa
 999 065b 13000000 		.4byte	.LASF108
 1000 065f 05       		.byte	0x5
 1001 0660 540D     		.2byte	0xd54
 1002 0662 9B000000 		.4byte	0x9b
 1003 0666 68       		.byte	0x68
 1004 0667 0A       		.uleb128 0xa
 1005 0668 EC050000 		.4byte	.LASF109
 1006 066c 05       		.byte	0x5
 1007 066d 550D     		.2byte	0xd55
 1008 066f 9B000000 		.4byte	0x9b
 1009 0673 6C       		.byte	0x6c
 1010 0674 0A       		.uleb128 0xa
 1011 0675 6C040000 		.4byte	.LASF110
 1012 0679 05       		.byte	0x5
 1013 067a 560D     		.2byte	0xd56
 1014 067c B6000000 		.4byte	0xb6
 1015 0680 70       		.byte	0x70
 1016 0681 0A       		.uleb128 0xa
 1017 0682 0E060000 		.4byte	.LASF111
 1018 0686 05       		.byte	0x5
 1019 0687 570D     		.2byte	0xd57
 1020 0689 B6000000 		.4byte	0xb6
 1021 068d 74       		.byte	0x74
 1022 068e 0A       		.uleb128 0xa
 1023 068f 5E040000 		.4byte	.LASF112
 1024 0693 05       		.byte	0x5
 1025 0694 580D     		.2byte	0xd58
 1026 0696 AB000000 		.4byte	0xab
ARM GAS  /tmp/ccVoo9SF.s 			page 19


 1027 069a 78       		.byte	0x78
 1028 069b 0A       		.uleb128 0xa
 1029 069c FD010000 		.4byte	.LASF46
 1030 06a0 05       		.byte	0x5
 1031 06a1 590D     		.2byte	0xd59
 1032 06a3 54070000 		.4byte	0x754
 1033 06a7 7C       		.byte	0x7c
 1034 06a8 0A       		.uleb128 0xa
 1035 06a9 3F020000 		.4byte	.LASF113
 1036 06ad 05       		.byte	0x5
 1037 06ae 5A0D     		.2byte	0xd5a
 1038 06b0 B6000000 		.4byte	0xb6
 1039 06b4 E4       		.byte	0xe4
 1040 06b5 0A       		.uleb128 0xa
 1041 06b6 63060000 		.4byte	.LASF114
 1042 06ba 05       		.byte	0x5
 1043 06bb 5B0D     		.2byte	0xd5b
 1044 06bd 9B000000 		.4byte	0x9b
 1045 06c1 E8       		.byte	0xe8
 1046 06c2 0A       		.uleb128 0xa
 1047 06c3 07020000 		.4byte	.LASF54
 1048 06c7 05       		.byte	0x5
 1049 06c8 5C0D     		.2byte	0xd5c
 1050 06ca 59070000 		.4byte	0x759
 1051 06ce EC       		.byte	0xec
 1052 06cf 0B       		.uleb128 0xb
 1053 06d0 52020000 		.4byte	.LASF115
 1054 06d4 05       		.byte	0x5
 1055 06d5 5D0D     		.2byte	0xd5d
 1056 06d7 AB000000 		.4byte	0xab
 1057 06db 0001     		.2byte	0x100
 1058 06dd 0B       		.uleb128 0xb
 1059 06de E7030000 		.4byte	.LASF116
 1060 06e2 05       		.byte	0x5
 1061 06e3 5E0D     		.2byte	0xd5e
 1062 06e5 AB000000 		.4byte	0xab
 1063 06e9 0401     		.2byte	0x104
 1064 06eb 0B       		.uleb128 0xb
 1065 06ec 22050000 		.4byte	.LASF117
 1066 06f0 05       		.byte	0x5
 1067 06f1 5F0D     		.2byte	0xd5f
 1068 06f3 9B000000 		.4byte	0x9b
 1069 06f7 0801     		.2byte	0x108
 1070 06f9 0B       		.uleb128 0xb
 1071 06fa 11020000 		.4byte	.LASF58
 1072 06fe 05       		.byte	0x5
 1073 06ff 600D     		.2byte	0xd60
 1074 0701 5E070000 		.4byte	0x75e
 1075 0705 0C01     		.2byte	0x10c
 1076 0707 0B       		.uleb128 0xb
 1077 0708 36040000 		.4byte	.LASF118
 1078 070c 05       		.byte	0x5
 1079 070d 610D     		.2byte	0xd61
 1080 070f B6000000 		.4byte	0xb6
 1081 0713 1001     		.2byte	0x110
 1082 0715 00       		.byte	0
 1083 0716 05       		.uleb128 0x5
ARM GAS  /tmp/ccVoo9SF.s 			page 20


 1084 0717 D1000000 		.4byte	0xd1
 1085 071b 05       		.uleb128 0x5
 1086 071c D1000000 		.4byte	0xd1
 1087 0720 05       		.uleb128 0x5
 1088 0721 D1000000 		.4byte	0xd1
 1089 0725 05       		.uleb128 0x5
 1090 0726 D1000000 		.4byte	0xd1
 1091 072a 07       		.uleb128 0x7
 1092 072b B6000000 		.4byte	0xb6
 1093 072f 3A070000 		.4byte	0x73a
 1094 0733 08       		.uleb128 0x8
 1095 0734 8D000000 		.4byte	0x8d
 1096 0738 02       		.byte	0x2
 1097 0739 00       		.byte	0
 1098 073a 05       		.uleb128 0x5
 1099 073b 2A070000 		.4byte	0x72a
 1100 073f 05       		.uleb128 0x5
 1101 0740 F1000000 		.4byte	0xf1
 1102 0744 07       		.uleb128 0x7
 1103 0745 B6000000 		.4byte	0xb6
 1104 0749 54070000 		.4byte	0x754
 1105 074d 08       		.uleb128 0x8
 1106 074e 8D000000 		.4byte	0x8d
 1107 0752 19       		.byte	0x19
 1108 0753 00       		.byte	0
 1109 0754 05       		.uleb128 0x5
 1110 0755 44070000 		.4byte	0x744
 1111 0759 05       		.uleb128 0x5
 1112 075a F1000000 		.4byte	0xf1
 1113 075e 05       		.uleb128 0x5
 1114 075f D1000000 		.4byte	0xd1
 1115 0763 0C       		.uleb128 0xc
 1116 0764 506D6300 		.ascii	"Pmc\000"
 1117 0768 05       		.byte	0x5
 1118 0769 620D     		.2byte	0xd62
 1119 076b 4C050000 		.4byte	0x54c
 1120 076f 0D       		.uleb128 0xd
 1121 0770 0C       		.byte	0xc
 1122 0771 06       		.byte	0x6
 1123 0772 38       		.byte	0x38
 1124 0773 9C070000 		.4byte	0x79c
 1125 0777 0E       		.uleb128 0xe
 1126 0778 67040000 		.4byte	.LASF119
 1127 077c 06       		.byte	0x6
 1128 077d 3A       		.byte	0x3a
 1129 077e 72000000 		.4byte	0x72
 1130 0782 00       		.byte	0
 1131 0783 0F       		.uleb128 0xf
 1132 0784 6F737200 		.ascii	"osr\000"
 1133 0788 06       		.byte	0x6
 1134 0789 3C       		.byte	0x3c
 1135 078a 72000000 		.4byte	0x72
 1136 078e 04       		.byte	0x4
 1137 078f 0E       		.uleb128 0xe
 1138 0790 86030000 		.4byte	.LASF120
 1139 0794 06       		.byte	0x6
 1140 0795 3E       		.byte	0x3e
ARM GAS  /tmp/ccVoo9SF.s 			page 21


 1141 0796 72000000 		.4byte	0x72
 1142 079a 08       		.byte	0x8
 1143 079b 00       		.byte	0
 1144 079c 04       		.uleb128 0x4
 1145 079d 22060000 		.4byte	.LASF121
 1146 07a1 06       		.byte	0x6
 1147 07a2 3F       		.byte	0x3f
 1148 07a3 6F070000 		.4byte	0x76f
 1149 07a7 0D       		.uleb128 0xd
 1150 07a8 24       		.byte	0x24
 1151 07a9 06       		.byte	0x6
 1152 07aa 48       		.byte	0x48
 1153 07ab D4070000 		.4byte	0x7d4
 1154 07af 0E       		.uleb128 0xe
 1155 07b0 5C060000 		.4byte	.LASF122
 1156 07b4 06       		.byte	0x6
 1157 07b5 4A       		.byte	0x4a
 1158 07b6 9C070000 		.4byte	0x79c
 1159 07ba 00       		.byte	0
 1160 07bb 0E       		.uleb128 0xe
 1161 07bc BF040000 		.4byte	.LASF123
 1162 07c0 06       		.byte	0x6
 1163 07c1 4B       		.byte	0x4b
 1164 07c2 9C070000 		.4byte	0x79c
 1165 07c6 0C       		.byte	0xc
 1166 07c7 0E       		.uleb128 0xe
 1167 07c8 DF020000 		.4byte	.LASF124
 1168 07cc 06       		.byte	0x6
 1169 07cd 4C       		.byte	0x4c
 1170 07ce 9C070000 		.4byte	0x79c
 1171 07d2 18       		.byte	0x18
 1172 07d3 00       		.byte	0
 1173 07d4 04       		.uleb128 0x4
 1174 07d5 52060000 		.4byte	.LASF125
 1175 07d9 06       		.byte	0x6
 1176 07da 4D       		.byte	0x4d
 1177 07db A7070000 		.4byte	0x7a7
 1178 07df 04       		.uleb128 0x4
 1179 07e0 37000000 		.4byte	.LASF126
 1180 07e4 06       		.byte	0x6
 1181 07e5 5D       		.byte	0x5d
 1182 07e6 72000000 		.4byte	0x72
 1183 07ea 04       		.uleb128 0x4
 1184 07eb AC050000 		.4byte	.LASF127
 1185 07ef 06       		.byte	0x6
 1186 07f0 65       		.byte	0x65
 1187 07f1 F5070000 		.4byte	0x7f5
 1188 07f5 10       		.uleb128 0x10
 1189 07f6 04       		.byte	0x4
 1190 07f7 40050000 		.4byte	0x540
 1191 07fb 11       		.uleb128 0x11
 1192 07fc DE050000 		.4byte	.LASF128
 1193 0800 01       		.byte	0x1
 1194 0801 47       		.byte	0x47
 1195 0802 00000000 		.4byte	.LFB36
 1196 0806 B8000000 		.4byte	.LFE36-.LFB36
 1197 080a 01       		.uleb128 0x1
ARM GAS  /tmp/ccVoo9SF.s 			page 22


 1198 080b 9C       		.byte	0x9c
 1199 080c 2C080000 		.4byte	0x82c
 1200 0810 12       		.uleb128 0x12
 1201 0811 7D050000 		.4byte	.LASF130
 1202 0815 01       		.byte	0x1
 1203 0816 47       		.byte	0x47
 1204 0817 2C080000 		.4byte	0x82c
 1205 081b 00000000 		.4byte	.LLST0
 1206 081f 13       		.uleb128 0x13
 1207 0820 4F040000 		.4byte	.LASF136
 1208 0824 01       		.byte	0x1
 1209 0825 48       		.byte	0x48
 1210 0826 72000000 		.4byte	0x72
 1211 082a 01       		.byte	0x1
 1212 082b 00       		.byte	0
 1213 082c 10       		.uleb128 0x10
 1214 082d 04       		.byte	0x4
 1215 082e 32080000 		.4byte	0x832
 1216 0832 06       		.uleb128 0x6
 1217 0833 D4070000 		.4byte	0x7d4
 1218 0837 11       		.uleb128 0x11
 1219 0838 C0050000 		.4byte	.LASF129
 1220 083c 01       		.byte	0x1
 1221 083d A5       		.byte	0xa5
 1222 083e 00000000 		.4byte	.LFB37
 1223 0842 32000000 		.4byte	.LFE37-.LFB37
 1224 0846 01       		.uleb128 0x1
 1225 0847 9C       		.byte	0x9c
 1226 0848 76080000 		.4byte	0x876
 1227 084c 14       		.uleb128 0x14
 1228 084d AF040000 		.4byte	.LASF131
 1229 0851 01       		.byte	0x1
 1230 0852 A5       		.byte	0xa5
 1231 0853 EA070000 		.4byte	0x7ea
 1232 0857 01       		.uleb128 0x1
 1233 0858 50       		.byte	0x50
 1234 0859 14       		.uleb128 0x14
 1235 085a 04030000 		.4byte	.LASF132
 1236 085e 01       		.byte	0x1
 1237 085f A6       		.byte	0xa6
 1238 0860 DF070000 		.4byte	0x7df
 1239 0864 01       		.uleb128 0x1
 1240 0865 51       		.byte	0x51
 1241 0866 12       		.uleb128 0x12
 1242 0867 46030000 		.4byte	.LASF133
 1243 086b 01       		.byte	0x1
 1244 086c A7       		.byte	0xa7
 1245 086d 7D000000 		.4byte	0x7d
 1246 0871 21000000 		.4byte	.LLST1
 1247 0875 00       		.byte	0
 1248 0876 15       		.uleb128 0x15
 1249 0877 66010000 		.4byte	.LASF137
 1250 087b 07       		.byte	0x7
 1251 087c CE06     		.2byte	0x6ce
 1252 087e 82080000 		.4byte	0x882
 1253 0882 05       		.uleb128 0x5
 1254 0883 21000000 		.4byte	0x21
ARM GAS  /tmp/ccVoo9SF.s 			page 23


 1255 0887 00       		.byte	0
 1256              		.section	.debug_abbrev,"",%progbits
 1257              	.Ldebug_abbrev0:
 1258 0000 01       		.uleb128 0x1
 1259 0001 11       		.uleb128 0x11
 1260 0002 01       		.byte	0x1
 1261 0003 25       		.uleb128 0x25
 1262 0004 0E       		.uleb128 0xe
 1263 0005 13       		.uleb128 0x13
 1264 0006 0B       		.uleb128 0xb
 1265 0007 03       		.uleb128 0x3
 1266 0008 0E       		.uleb128 0xe
 1267 0009 55       		.uleb128 0x55
 1268 000a 17       		.uleb128 0x17
 1269 000b 11       		.uleb128 0x11
 1270 000c 01       		.uleb128 0x1
 1271 000d 10       		.uleb128 0x10
 1272 000e 17       		.uleb128 0x17
 1273 000f 00       		.byte	0
 1274 0010 00       		.byte	0
 1275 0011 02       		.uleb128 0x2
 1276 0012 24       		.uleb128 0x24
 1277 0013 00       		.byte	0
 1278 0014 0B       		.uleb128 0xb
 1279 0015 0B       		.uleb128 0xb
 1280 0016 3E       		.uleb128 0x3e
 1281 0017 0B       		.uleb128 0xb
 1282 0018 03       		.uleb128 0x3
 1283 0019 08       		.uleb128 0x8
 1284 001a 00       		.byte	0
 1285 001b 00       		.byte	0
 1286 001c 03       		.uleb128 0x3
 1287 001d 24       		.uleb128 0x24
 1288 001e 00       		.byte	0
 1289 001f 0B       		.uleb128 0xb
 1290 0020 0B       		.uleb128 0xb
 1291 0021 3E       		.uleb128 0x3e
 1292 0022 0B       		.uleb128 0xb
 1293 0023 03       		.uleb128 0x3
 1294 0024 0E       		.uleb128 0xe
 1295 0025 00       		.byte	0
 1296 0026 00       		.byte	0
 1297 0027 04       		.uleb128 0x4
 1298 0028 16       		.uleb128 0x16
 1299 0029 00       		.byte	0
 1300 002a 03       		.uleb128 0x3
 1301 002b 0E       		.uleb128 0xe
 1302 002c 3A       		.uleb128 0x3a
 1303 002d 0B       		.uleb128 0xb
 1304 002e 3B       		.uleb128 0x3b
 1305 002f 0B       		.uleb128 0xb
 1306 0030 49       		.uleb128 0x49
 1307 0031 13       		.uleb128 0x13
 1308 0032 00       		.byte	0
 1309 0033 00       		.byte	0
 1310 0034 05       		.uleb128 0x5
 1311 0035 35       		.uleb128 0x35
ARM GAS  /tmp/ccVoo9SF.s 			page 24


 1312 0036 00       		.byte	0
 1313 0037 49       		.uleb128 0x49
 1314 0038 13       		.uleb128 0x13
 1315 0039 00       		.byte	0
 1316 003a 00       		.byte	0
 1317 003b 06       		.uleb128 0x6
 1318 003c 26       		.uleb128 0x26
 1319 003d 00       		.byte	0
 1320 003e 49       		.uleb128 0x49
 1321 003f 13       		.uleb128 0x13
 1322 0040 00       		.byte	0
 1323 0041 00       		.byte	0
 1324 0042 07       		.uleb128 0x7
 1325 0043 01       		.uleb128 0x1
 1326 0044 01       		.byte	0x1
 1327 0045 49       		.uleb128 0x49
 1328 0046 13       		.uleb128 0x13
 1329 0047 01       		.uleb128 0x1
 1330 0048 13       		.uleb128 0x13
 1331 0049 00       		.byte	0
 1332 004a 00       		.byte	0
 1333 004b 08       		.uleb128 0x8
 1334 004c 21       		.uleb128 0x21
 1335 004d 00       		.byte	0
 1336 004e 49       		.uleb128 0x49
 1337 004f 13       		.uleb128 0x13
 1338 0050 2F       		.uleb128 0x2f
 1339 0051 0B       		.uleb128 0xb
 1340 0052 00       		.byte	0
 1341 0053 00       		.byte	0
 1342 0054 09       		.uleb128 0x9
 1343 0055 13       		.uleb128 0x13
 1344 0056 01       		.byte	0x1
 1345 0057 0B       		.uleb128 0xb
 1346 0058 05       		.uleb128 0x5
 1347 0059 3A       		.uleb128 0x3a
 1348 005a 0B       		.uleb128 0xb
 1349 005b 3B       		.uleb128 0x3b
 1350 005c 05       		.uleb128 0x5
 1351 005d 01       		.uleb128 0x1
 1352 005e 13       		.uleb128 0x13
 1353 005f 00       		.byte	0
 1354 0060 00       		.byte	0
 1355 0061 0A       		.uleb128 0xa
 1356 0062 0D       		.uleb128 0xd
 1357 0063 00       		.byte	0
 1358 0064 03       		.uleb128 0x3
 1359 0065 0E       		.uleb128 0xe
 1360 0066 3A       		.uleb128 0x3a
 1361 0067 0B       		.uleb128 0xb
 1362 0068 3B       		.uleb128 0x3b
 1363 0069 05       		.uleb128 0x5
 1364 006a 49       		.uleb128 0x49
 1365 006b 13       		.uleb128 0x13
 1366 006c 38       		.uleb128 0x38
 1367 006d 0B       		.uleb128 0xb
 1368 006e 00       		.byte	0
ARM GAS  /tmp/ccVoo9SF.s 			page 25


 1369 006f 00       		.byte	0
 1370 0070 0B       		.uleb128 0xb
 1371 0071 0D       		.uleb128 0xd
 1372 0072 00       		.byte	0
 1373 0073 03       		.uleb128 0x3
 1374 0074 0E       		.uleb128 0xe
 1375 0075 3A       		.uleb128 0x3a
 1376 0076 0B       		.uleb128 0xb
 1377 0077 3B       		.uleb128 0x3b
 1378 0078 05       		.uleb128 0x5
 1379 0079 49       		.uleb128 0x49
 1380 007a 13       		.uleb128 0x13
 1381 007b 38       		.uleb128 0x38
 1382 007c 05       		.uleb128 0x5
 1383 007d 00       		.byte	0
 1384 007e 00       		.byte	0
 1385 007f 0C       		.uleb128 0xc
 1386 0080 16       		.uleb128 0x16
 1387 0081 00       		.byte	0
 1388 0082 03       		.uleb128 0x3
 1389 0083 08       		.uleb128 0x8
 1390 0084 3A       		.uleb128 0x3a
 1391 0085 0B       		.uleb128 0xb
 1392 0086 3B       		.uleb128 0x3b
 1393 0087 05       		.uleb128 0x5
 1394 0088 49       		.uleb128 0x49
 1395 0089 13       		.uleb128 0x13
 1396 008a 00       		.byte	0
 1397 008b 00       		.byte	0
 1398 008c 0D       		.uleb128 0xd
 1399 008d 13       		.uleb128 0x13
 1400 008e 01       		.byte	0x1
 1401 008f 0B       		.uleb128 0xb
 1402 0090 0B       		.uleb128 0xb
 1403 0091 3A       		.uleb128 0x3a
 1404 0092 0B       		.uleb128 0xb
 1405 0093 3B       		.uleb128 0x3b
 1406 0094 0B       		.uleb128 0xb
 1407 0095 01       		.uleb128 0x1
 1408 0096 13       		.uleb128 0x13
 1409 0097 00       		.byte	0
 1410 0098 00       		.byte	0
 1411 0099 0E       		.uleb128 0xe
 1412 009a 0D       		.uleb128 0xd
 1413 009b 00       		.byte	0
 1414 009c 03       		.uleb128 0x3
 1415 009d 0E       		.uleb128 0xe
 1416 009e 3A       		.uleb128 0x3a
 1417 009f 0B       		.uleb128 0xb
 1418 00a0 3B       		.uleb128 0x3b
 1419 00a1 0B       		.uleb128 0xb
 1420 00a2 49       		.uleb128 0x49
 1421 00a3 13       		.uleb128 0x13
 1422 00a4 38       		.uleb128 0x38
 1423 00a5 0B       		.uleb128 0xb
 1424 00a6 00       		.byte	0
 1425 00a7 00       		.byte	0
ARM GAS  /tmp/ccVoo9SF.s 			page 26


 1426 00a8 0F       		.uleb128 0xf
 1427 00a9 0D       		.uleb128 0xd
 1428 00aa 00       		.byte	0
 1429 00ab 03       		.uleb128 0x3
 1430 00ac 08       		.uleb128 0x8
 1431 00ad 3A       		.uleb128 0x3a
 1432 00ae 0B       		.uleb128 0xb
 1433 00af 3B       		.uleb128 0x3b
 1434 00b0 0B       		.uleb128 0xb
 1435 00b1 49       		.uleb128 0x49
 1436 00b2 13       		.uleb128 0x13
 1437 00b3 38       		.uleb128 0x38
 1438 00b4 0B       		.uleb128 0xb
 1439 00b5 00       		.byte	0
 1440 00b6 00       		.byte	0
 1441 00b7 10       		.uleb128 0x10
 1442 00b8 0F       		.uleb128 0xf
 1443 00b9 00       		.byte	0
 1444 00ba 0B       		.uleb128 0xb
 1445 00bb 0B       		.uleb128 0xb
 1446 00bc 49       		.uleb128 0x49
 1447 00bd 13       		.uleb128 0x13
 1448 00be 00       		.byte	0
 1449 00bf 00       		.byte	0
 1450 00c0 11       		.uleb128 0x11
 1451 00c1 2E       		.uleb128 0x2e
 1452 00c2 01       		.byte	0x1
 1453 00c3 3F       		.uleb128 0x3f
 1454 00c4 19       		.uleb128 0x19
 1455 00c5 03       		.uleb128 0x3
 1456 00c6 0E       		.uleb128 0xe
 1457 00c7 3A       		.uleb128 0x3a
 1458 00c8 0B       		.uleb128 0xb
 1459 00c9 3B       		.uleb128 0x3b
 1460 00ca 0B       		.uleb128 0xb
 1461 00cb 27       		.uleb128 0x27
 1462 00cc 19       		.uleb128 0x19
 1463 00cd 11       		.uleb128 0x11
 1464 00ce 01       		.uleb128 0x1
 1465 00cf 12       		.uleb128 0x12
 1466 00d0 06       		.uleb128 0x6
 1467 00d1 40       		.uleb128 0x40
 1468 00d2 18       		.uleb128 0x18
 1469 00d3 9742     		.uleb128 0x2117
 1470 00d5 19       		.uleb128 0x19
 1471 00d6 01       		.uleb128 0x1
 1472 00d7 13       		.uleb128 0x13
 1473 00d8 00       		.byte	0
 1474 00d9 00       		.byte	0
 1475 00da 12       		.uleb128 0x12
 1476 00db 05       		.uleb128 0x5
 1477 00dc 00       		.byte	0
 1478 00dd 03       		.uleb128 0x3
 1479 00de 0E       		.uleb128 0xe
 1480 00df 3A       		.uleb128 0x3a
 1481 00e0 0B       		.uleb128 0xb
 1482 00e1 3B       		.uleb128 0x3b
ARM GAS  /tmp/ccVoo9SF.s 			page 27


 1483 00e2 0B       		.uleb128 0xb
 1484 00e3 49       		.uleb128 0x49
 1485 00e4 13       		.uleb128 0x13
 1486 00e5 02       		.uleb128 0x2
 1487 00e6 17       		.uleb128 0x17
 1488 00e7 00       		.byte	0
 1489 00e8 00       		.byte	0
 1490 00e9 13       		.uleb128 0x13
 1491 00ea 34       		.uleb128 0x34
 1492 00eb 00       		.byte	0
 1493 00ec 03       		.uleb128 0x3
 1494 00ed 0E       		.uleb128 0xe
 1495 00ee 3A       		.uleb128 0x3a
 1496 00ef 0B       		.uleb128 0xb
 1497 00f0 3B       		.uleb128 0x3b
 1498 00f1 0B       		.uleb128 0xb
 1499 00f2 49       		.uleb128 0x49
 1500 00f3 13       		.uleb128 0x13
 1501 00f4 1C       		.uleb128 0x1c
 1502 00f5 0B       		.uleb128 0xb
 1503 00f6 00       		.byte	0
 1504 00f7 00       		.byte	0
 1505 00f8 14       		.uleb128 0x14
 1506 00f9 05       		.uleb128 0x5
 1507 00fa 00       		.byte	0
 1508 00fb 03       		.uleb128 0x3
 1509 00fc 0E       		.uleb128 0xe
 1510 00fd 3A       		.uleb128 0x3a
 1511 00fe 0B       		.uleb128 0xb
 1512 00ff 3B       		.uleb128 0x3b
 1513 0100 0B       		.uleb128 0xb
 1514 0101 49       		.uleb128 0x49
 1515 0102 13       		.uleb128 0x13
 1516 0103 02       		.uleb128 0x2
 1517 0104 18       		.uleb128 0x18
 1518 0105 00       		.byte	0
 1519 0106 00       		.byte	0
 1520 0107 15       		.uleb128 0x15
 1521 0108 34       		.uleb128 0x34
 1522 0109 00       		.byte	0
 1523 010a 03       		.uleb128 0x3
 1524 010b 0E       		.uleb128 0xe
 1525 010c 3A       		.uleb128 0x3a
 1526 010d 0B       		.uleb128 0xb
 1527 010e 3B       		.uleb128 0x3b
 1528 010f 05       		.uleb128 0x5
 1529 0110 49       		.uleb128 0x49
 1530 0111 13       		.uleb128 0x13
 1531 0112 3F       		.uleb128 0x3f
 1532 0113 19       		.uleb128 0x19
 1533 0114 3C       		.uleb128 0x3c
 1534 0115 19       		.uleb128 0x19
 1535 0116 00       		.byte	0
 1536 0117 00       		.byte	0
 1537 0118 00       		.byte	0
 1538              		.section	.debug_loc,"",%progbits
 1539              	.Ldebug_loc0:
ARM GAS  /tmp/ccVoo9SF.s 			page 28


 1540              	.LLST0:
 1541 0000 00000000 		.4byte	.LVL0
 1542 0004 80000000 		.4byte	.LVL1
 1543 0008 0100     		.2byte	0x1
 1544 000a 50       		.byte	0x50
 1545 000b 80000000 		.4byte	.LVL1
 1546 000f B8000000 		.4byte	.LFE36
 1547 0013 0400     		.2byte	0x4
 1548 0015 F3       		.byte	0xf3
 1549 0016 01       		.uleb128 0x1
 1550 0017 50       		.byte	0x50
 1551 0018 9F       		.byte	0x9f
 1552 0019 00000000 		.4byte	0
 1553 001d 00000000 		.4byte	0
 1554              	.LLST1:
 1555 0021 00000000 		.4byte	.LVL2
 1556 0025 04000000 		.4byte	.LVL3
 1557 0029 0100     		.2byte	0x1
 1558 002b 52       		.byte	0x52
 1559 002c 04000000 		.4byte	.LVL3
 1560 0030 32000000 		.4byte	.LFE37
 1561 0034 0400     		.2byte	0x4
 1562 0036 F3       		.byte	0xf3
 1563 0037 01       		.uleb128 0x1
 1564 0038 52       		.byte	0x52
 1565 0039 9F       		.byte	0x9f
 1566 003a 00000000 		.4byte	0
 1567 003e 00000000 		.4byte	0
 1568              		.section	.debug_aranges,"",%progbits
 1569 0000 24000000 		.4byte	0x24
 1570 0004 0200     		.2byte	0x2
 1571 0006 00000000 		.4byte	.Ldebug_info0
 1572 000a 04       		.byte	0x4
 1573 000b 00       		.byte	0
 1574 000c 0000     		.2byte	0
 1575 000e 0000     		.2byte	0
 1576 0010 00000000 		.4byte	.LFB36
 1577 0014 B8000000 		.4byte	.LFE36-.LFB36
 1578 0018 00000000 		.4byte	.LFB37
 1579 001c 32000000 		.4byte	.LFE37-.LFB37
 1580 0020 00000000 		.4byte	0
 1581 0024 00000000 		.4byte	0
 1582              		.section	.debug_ranges,"",%progbits
 1583              	.Ldebug_ranges0:
 1584 0000 00000000 		.4byte	.LFB36
 1585 0004 B8000000 		.4byte	.LFE36
 1586 0008 00000000 		.4byte	.LFB37
 1587 000c 32000000 		.4byte	.LFE37
 1588 0010 00000000 		.4byte	0
 1589 0014 00000000 		.4byte	0
 1590              		.section	.debug_line,"",%progbits
 1591              	.Ldebug_line0:
 1592 0000 6B020000 		.section	.debug_str,"MS",%progbits,1
 1592      0200E901 
 1592      00000201 
 1592      FB0E0D00 
 1592      01010101 
ARM GAS  /tmp/ccVoo9SF.s 			page 29


 1593              	.LASF82:
 1594 0000 50494F5F 		.ascii	"PIO_PCRHR\000"
 1594      50435248 
 1594      5200
 1595              	.LASF65:
 1596 000a 50494F5F 		.ascii	"PIO_ELSR\000"
 1596      454C5352 
 1596      00
 1597              	.LASF108:
 1598 0013 504D435F 		.ascii	"PMC_SR\000"
 1598      535200
 1599              	.LASF85:
 1600 001a 50494F5F 		.ascii	"PIO_TPR\000"
 1600      54505200 
 1601              	.LASF99:
 1602 0022 434B4752 		.ascii	"CKGR_MOR\000"
 1602      5F4D4F52 
 1602      00
 1603              	.LASF75:
 1604 002b 50494F5F 		.ascii	"PIO_SCHMITT\000"
 1604      5343484D 
 1604      49545400 
 1605              	.LASF126:
 1606 0037 696F706F 		.ascii	"ioportmask_t\000"
 1606      72746D61 
 1606      736B5F74 
 1606      00
 1607              	.LASF55:
 1608 0044 50494F5F 		.ascii	"PIO_OWER\000"
 1608      4F574552 
 1608      00
 1609              	.LASF81:
 1610 004d 50494F5F 		.ascii	"PIO_PCISR\000"
 1610      50434953 
 1610      5200
 1611              	.LASF134:
 1612 0057 474E5520 		.ascii	"GNU C 4.9.3 20150529 (release) [ARM/embedded-4_9-br"
 1612      4320342E 
 1612      392E3320 
 1612      32303135 
 1612      30353239 
 1613 008a 616E6368 		.ascii	"anch revision 227977] -mcpu=cortex-m3 -mno-thumb-in"
 1613      20726576 
 1613      6973696F 
 1613      6E203232 
 1613      37393737 
 1614 00bd 74657277 		.ascii	"terwork -mthumb -ggdb -O2 -std=gnu99 -fomit-frame-p"
 1614      6F726B20 
 1614      2D6D7468 
 1614      756D6220 
 1614      2D676764 
 1615 00f0 6F696E74 		.ascii	"ointer -falign-functions=16 -ffunction-sections -fd"
 1615      6572202D 
 1615      66616C69 
 1615      676E2D66 
 1615      756E6374 
 1616 0123 6174612D 		.ascii	"ata-sections -fno-common\000"
ARM GAS  /tmp/ccVoo9SF.s 			page 30


 1616      73656374 
 1616      696F6E73 
 1616      202D666E 
 1616      6F2D636F 
 1617              	.LASF8:
 1618 013c 6C6F6E67 		.ascii	"long long unsigned int\000"
 1618      206C6F6E 
 1618      6720756E 
 1618      7369676E 
 1618      65642069 
 1619              	.LASF79:
 1620 0153 50494F5F 		.ascii	"PIO_PCIDR\000"
 1620      50434944 
 1620      5200
 1621              	.LASF88:
 1622 015d 50494F5F 		.ascii	"PIO_RNCR\000"
 1622      524E4352 
 1622      00
 1623              	.LASF137:
 1624 0166 49544D5F 		.ascii	"ITM_RxBuffer\000"
 1624      52784275 
 1624      66666572 
 1624      00
 1625              	.LASF50:
 1626 0173 50494F5F 		.ascii	"PIO_SCDR\000"
 1626      53434452 
 1626      00
 1627              	.LASF39:
 1628 017c 50494F5F 		.ascii	"PIO_MDSR\000"
 1628      4D445352 
 1628      00
 1629              	.LASF43:
 1630 0185 50494F5F 		.ascii	"PIO_PUSR\000"
 1630      50555352 
 1630      00
 1631              	.LASF7:
 1632 018e 6C6F6E67 		.ascii	"long long int\000"
 1632      206C6F6E 
 1632      6720696E 
 1632      7400
 1633              	.LASF1:
 1634 019c 7369676E 		.ascii	"signed char\000"
 1634      65642063 
 1634      68617200 
 1635              	.LASF80:
 1636 01a8 50494F5F 		.ascii	"PIO_PCIMR\000"
 1636      5043494D 
 1636      5200
 1637              	.LASF63:
 1638 01b2 50494F5F 		.ascii	"PIO_ESR\000"
 1638      45535200 
 1639              	.LASF94:
 1640 01ba 504D435F 		.ascii	"PMC_SCDR\000"
 1640      53434452 
 1640      00
 1641              	.LASF19:
 1642 01c3 50494F5F 		.ascii	"PIO_PSR\000"
ARM GAS  /tmp/ccVoo9SF.s 			page 31


 1642      50535200 
 1643              	.LASF20:
 1644 01cb 52657365 		.ascii	"Reserved1\000"
 1644      72766564 
 1644      3100
 1645              	.LASF24:
 1646 01d5 52657365 		.ascii	"Reserved2\000"
 1646      72766564 
 1646      3200
 1647              	.LASF28:
 1648 01df 52657365 		.ascii	"Reserved3\000"
 1648      72766564 
 1648      3300
 1649              	.LASF40:
 1650 01e9 52657365 		.ascii	"Reserved4\000"
 1650      72766564 
 1650      3400
 1651              	.LASF98:
 1652 01f3 504D435F 		.ascii	"PMC_PCSR0\000"
 1652      50435352 
 1652      3000
 1653              	.LASF46:
 1654 01fd 52657365 		.ascii	"Reserved6\000"
 1654      72766564 
 1654      3600
 1655              	.LASF54:
 1656 0207 52657365 		.ascii	"Reserved7\000"
 1656      72766564 
 1656      3700
 1657              	.LASF58:
 1658 0211 52657365 		.ascii	"Reserved8\000"
 1658      72766564 
 1658      3800
 1659              	.LASF62:
 1660 021b 52657365 		.ascii	"Reserved9\000"
 1660      72766564 
 1660      3900
 1661              	.LASF18:
 1662 0225 50494F5F 		.ascii	"PIO_PDR\000"
 1662      50445200 
 1663              	.LASF5:
 1664 022d 6C6F6E67 		.ascii	"long int\000"
 1664      20696E74 
 1664      00
 1665              	.LASF41:
 1666 0236 50494F5F 		.ascii	"PIO_PUDR\000"
 1666      50554452 
 1666      00
 1667              	.LASF113:
 1668 023f 504D435F 		.ascii	"PMC_WPMR\000"
 1668      57504D52 
 1668      00
 1669              	.LASF96:
 1670 0248 504D435F 		.ascii	"PMC_PCER0\000"
 1670      50434552 
 1670      3000
 1671              	.LASF115:
ARM GAS  /tmp/ccVoo9SF.s 			page 32


 1672 0252 504D435F 		.ascii	"PMC_PCER1\000"
 1672      50434552 
 1672      3100
 1673              	.LASF135:
 1674 025c 2F686F6D 		.ascii	"/home/nicolas/Desktop/Embebidos/stamp_repo/files/co"
 1674      652F6E69 
 1674      636F6C61 
 1674      732F4465 
 1674      736B746F 
 1675 028f 64652F65 		.ascii	"de/ext/ChibiOS/os/hal/platforms/AT91SAM3S/pal_lld.c"
 1675      78742F43 
 1675      68696269 
 1675      4F532F6F 
 1675      732F6861 
 1676 02c2 00       		.ascii	"\000"
 1677              	.LASF78:
 1678 02c3 50494F5F 		.ascii	"PIO_PCIER\000"
 1678      50434945 
 1678      5200
 1679              	.LASF32:
 1680 02cd 50494F5F 		.ascii	"PIO_PDSR\000"
 1680      50445352 
 1680      00
 1681              	.LASF91:
 1682 02d6 50494F5F 		.ascii	"PIO_PTCR\000"
 1682      50544352 
 1682      00
 1683              	.LASF124:
 1684 02df 50324461 		.ascii	"P2Data\000"
 1684      746100
 1685              	.LASF45:
 1686 02e6 50494F5F 		.ascii	"PIO_ABCDSR\000"
 1686      41424344 
 1686      535200
 1687              	.LASF17:
 1688 02f1 50494F5F 		.ascii	"PIO_PER\000"
 1688      50455200 
 1689              	.LASF9:
 1690 02f9 5F5F7569 		.ascii	"__uint32_t\000"
 1690      6E743332 
 1690      5F7400
 1691              	.LASF132:
 1692 0304 6D61736B 		.ascii	"mask\000"
 1692      00
 1693              	.LASF105:
 1694 0309 504D435F 		.ascii	"PMC_PCK\000"
 1694      50434B00 
 1695              	.LASF66:
 1696 0311 52657365 		.ascii	"Reserved10\000"
 1696      72766564 
 1696      313000
 1697              	.LASF70:
 1698 031c 52657365 		.ascii	"Reserved11\000"
 1698      72766564 
 1698      313100
 1699              	.LASF74:
 1700 0327 52657365 		.ascii	"Reserved12\000"
ARM GAS  /tmp/ccVoo9SF.s 			page 33


 1700      72766564 
 1700      313200
 1701              	.LASF76:
 1702 0332 52657365 		.ascii	"Reserved13\000"
 1702      72766564 
 1702      313300
 1703              	.LASF73:
 1704 033d 50494F5F 		.ascii	"PIO_WPSR\000"
 1704      57505352 
 1704      00
 1705              	.LASF133:
 1706 0346 6D6F6465 		.ascii	"mode\000"
 1706      00
 1707              	.LASF0:
 1708 034b 756E7369 		.ascii	"unsigned int\000"
 1708      676E6564 
 1708      20696E74 
 1708      00
 1709              	.LASF100:
 1710 0358 434B4752 		.ascii	"CKGR_MCFR\000"
 1710      5F4D4346 
 1710      5200
 1711              	.LASF42:
 1712 0362 50494F5F 		.ascii	"PIO_PUER\000"
 1712      50554552 
 1712      00
 1713              	.LASF69:
 1714 036b 50494F5F 		.ascii	"PIO_FRLHSR\000"
 1714      46524C48 
 1714      535200
 1715              	.LASF86:
 1716 0376 50494F5F 		.ascii	"PIO_TCR\000"
 1716      54435200 
 1717              	.LASF23:
 1718 037e 50494F5F 		.ascii	"PIO_OSR\000"
 1718      4F535200 
 1719              	.LASF120:
 1720 0386 70757372 		.ascii	"pusr\000"
 1720      00
 1721              	.LASF6:
 1722 038b 6C6F6E67 		.ascii	"long unsigned int\000"
 1722      20756E73 
 1722      69676E65 
 1722      6420696E 
 1722      7400
 1723              	.LASF92:
 1724 039d 50494F5F 		.ascii	"PIO_PTSR\000"
 1724      50545352 
 1724      00
 1725              	.LASF31:
 1726 03a6 50494F5F 		.ascii	"PIO_ODSR\000"
 1726      4F445352 
 1726      00
 1727              	.LASF22:
 1728 03af 50494F5F 		.ascii	"PIO_ODR\000"
 1728      4F445200 
 1729              	.LASF44:
ARM GAS  /tmp/ccVoo9SF.s 			page 34


 1730 03b7 52657365 		.ascii	"Reserved5\000"
 1730      72766564 
 1730      3500
 1731              	.LASF4:
 1732 03c1 73686F72 		.ascii	"short unsigned int\000"
 1732      7420756E 
 1732      7369676E 
 1732      65642069 
 1732      6E7400
 1733              	.LASF103:
 1734 03d4 504D435F 		.ascii	"PMC_MCKR\000"
 1734      4D434B52 
 1734      00
 1735              	.LASF97:
 1736 03dd 504D435F 		.ascii	"PMC_PCDR0\000"
 1736      50434452 
 1736      3000
 1737              	.LASF116:
 1738 03e7 504D435F 		.ascii	"PMC_PCDR1\000"
 1738      50434452 
 1738      3100
 1739              	.LASF83:
 1740 03f1 50494F5F 		.ascii	"PIO_RPR\000"
 1740      52505200 
 1741              	.LASF71:
 1742 03f9 50494F5F 		.ascii	"PIO_LOCKSR\000"
 1742      4C4F434B 
 1742      535200
 1743              	.LASF59:
 1744 0404 50494F5F 		.ascii	"PIO_AIMER\000"
 1744      41494D45 
 1744      5200
 1745              	.LASF36:
 1746 040e 50494F5F 		.ascii	"PIO_ISR\000"
 1746      49535200 
 1747              	.LASF14:
 1748 0416 526F5265 		.ascii	"RoReg\000"
 1748      6700
 1749              	.LASF34:
 1750 041c 50494F5F 		.ascii	"PIO_IDR\000"
 1750      49445200 
 1751              	.LASF104:
 1752 0424 504D435F 		.ascii	"PMC_USB\000"
 1752      55534200 
 1753              	.LASF61:
 1754 042c 50494F5F 		.ascii	"PIO_AIMMR\000"
 1754      41494D4D 
 1754      5200
 1755              	.LASF118:
 1756 0436 504D435F 		.ascii	"PMC_OCR\000"
 1756      4F435200 
 1757              	.LASF21:
 1758 043e 50494F5F 		.ascii	"PIO_OER\000"
 1758      4F455200 
 1759              	.LASF12:
 1760 0446 73697A65 		.ascii	"sizetype\000"
 1760      74797065 
ARM GAS  /tmp/ccVoo9SF.s 			page 35


 1760      00
 1761              	.LASF136:
 1762 044f 706F7274 		.ascii	"ports\000"
 1762      7300
 1763              	.LASF72:
 1764 0455 50494F5F 		.ascii	"PIO_WPMR\000"
 1764      57504D52 
 1764      00
 1765              	.LASF112:
 1766 045e 504D435F 		.ascii	"PMC_FOCR\000"
 1766      464F4352 
 1766      00
 1767              	.LASF119:
 1768 0467 6F647372 		.ascii	"odsr\000"
 1768      00
 1769              	.LASF110:
 1770 046c 504D435F 		.ascii	"PMC_FSMR\000"
 1770      46534D52 
 1770      00
 1771              	.LASF16:
 1772 0475 52775265 		.ascii	"RwReg\000"
 1772      6700
 1773              	.LASF53:
 1774 047b 50494F5F 		.ascii	"PIO_PPDSR\000"
 1774      50504453 
 1774      5200
 1775              	.LASF15:
 1776 0485 576F5265 		.ascii	"WoReg\000"
 1776      6700
 1777              	.LASF51:
 1778 048b 50494F5F 		.ascii	"PIO_PPDDR\000"
 1778      50504444 
 1778      5200
 1779              	.LASF33:
 1780 0495 50494F5F 		.ascii	"PIO_IER\000"
 1780      49455200 
 1781              	.LASF38:
 1782 049d 50494F5F 		.ascii	"PIO_MDDR\000"
 1782      4D444452 
 1782      00
 1783              	.LASF89:
 1784 04a6 50494F5F 		.ascii	"PIO_TNPR\000"
 1784      544E5052 
 1784      00
 1785              	.LASF131:
 1786 04af 706F7274 		.ascii	"port\000"
 1786      00
 1787              	.LASF101:
 1788 04b4 434B4752 		.ascii	"CKGR_PLLAR\000"
 1788      5F504C4C 
 1788      415200
 1789              	.LASF123:
 1790 04bf 50314461 		.ascii	"P1Data\000"
 1790      746100
 1791              	.LASF67:
 1792 04c6 50494F5F 		.ascii	"PIO_FELLSR\000"
 1792      46454C4C 
ARM GAS  /tmp/ccVoo9SF.s 			page 36


 1792      535200
 1793              	.LASF77:
 1794 04d1 50494F5F 		.ascii	"PIO_PCMR\000"
 1794      50434D52 
 1794      00
 1795              	.LASF35:
 1796 04da 50494F5F 		.ascii	"PIO_IMR\000"
 1796      494D5200 
 1797              	.LASF2:
 1798 04e2 756E7369 		.ascii	"unsigned char\000"
 1798      676E6564 
 1798      20636861 
 1798      7200
 1799              	.LASF27:
 1800 04f0 50494F5F 		.ascii	"PIO_IFSR\000"
 1800      49465352 
 1800      00
 1801              	.LASF3:
 1802 04f9 73686F72 		.ascii	"short int\000"
 1802      7420696E 
 1802      7400
 1803              	.LASF26:
 1804 0503 50494F5F 		.ascii	"PIO_IFDR\000"
 1804      49464452 
 1804      00
 1805              	.LASF11:
 1806 050c 75696E74 		.ascii	"uint_fast8_t\000"
 1806      5F666173 
 1806      74385F74 
 1806      00
 1807              	.LASF30:
 1808 0519 50494F5F 		.ascii	"PIO_CODR\000"
 1808      434F4452 
 1808      00
 1809              	.LASF117:
 1810 0522 504D435F 		.ascii	"PMC_PCSR1\000"
 1810      50435352 
 1810      3100
 1811              	.LASF84:
 1812 052c 50494F5F 		.ascii	"PIO_RCR\000"
 1812      52435200 
 1813              	.LASF107:
 1814 0534 504D435F 		.ascii	"PMC_IDR\000"
 1814      49445200 
 1815              	.LASF52:
 1816 053c 50494F5F 		.ascii	"PIO_PPDER\000"
 1816      50504445 
 1816      5200
 1817              	.LASF37:
 1818 0546 50494F5F 		.ascii	"PIO_MDER\000"
 1818      4D444552 
 1818      00
 1819              	.LASF10:
 1820 054f 75696E74 		.ascii	"uint32_t\000"
 1820      33325F74 
 1820      00
 1821              	.LASF68:
ARM GAS  /tmp/ccVoo9SF.s 			page 37


 1822 0558 50494F5F 		.ascii	"PIO_REHLSR\000"
 1822      5245484C 
 1822      535200
 1823              	.LASF102:
 1824 0563 434B4752 		.ascii	"CKGR_PLLBR\000"
 1824      5F504C4C 
 1824      425200
 1825              	.LASF13:
 1826 056e 63686172 		.ascii	"char\000"
 1826      00
 1827              	.LASF60:
 1828 0573 50494F5F 		.ascii	"PIO_AIMDR\000"
 1828      41494D44 
 1828      5200
 1829              	.LASF130:
 1830 057d 636F6E66 		.ascii	"config\000"
 1830      696700
 1831              	.LASF49:
 1832 0584 50494F5F 		.ascii	"PIO_IFSCSR\000"
 1832      49465343 
 1832      535200
 1833              	.LASF95:
 1834 058f 504D435F 		.ascii	"PMC_SCSR\000"
 1834      53435352 
 1834      00
 1835              	.LASF47:
 1836 0598 50494F5F 		.ascii	"PIO_IFSCDR\000"
 1836      49465343 
 1836      445200
 1837              	.LASF25:
 1838 05a3 50494F5F 		.ascii	"PIO_IFER\000"
 1838      49464552 
 1838      00
 1839              	.LASF127:
 1840 05ac 696F706F 		.ascii	"ioportid_t\000"
 1840      72746964 
 1840      5F7400
 1841              	.LASF87:
 1842 05b7 50494F5F 		.ascii	"PIO_RNPR\000"
 1842      524E5052 
 1842      00
 1843              	.LASF129:
 1844 05c0 5F70616C 		.ascii	"_pal_lld_setgroupmode\000"
 1844      5F6C6C64 
 1844      5F736574 
 1844      67726F75 
 1844      706D6F64 
 1845              	.LASF106:
 1846 05d6 504D435F 		.ascii	"PMC_IER\000"
 1846      49455200 
 1847              	.LASF128:
 1848 05de 5F70616C 		.ascii	"_pal_lld_init\000"
 1848      5F6C6C64 
 1848      5F696E69 
 1848      7400
 1849              	.LASF109:
 1850 05ec 504D435F 		.ascii	"PMC_IMR\000"
ARM GAS  /tmp/ccVoo9SF.s 			page 38


 1850      494D5200 
 1851              	.LASF64:
 1852 05f4 50494F5F 		.ascii	"PIO_LSR\000"
 1852      4C535200 
 1853              	.LASF90:
 1854 05fc 50494F5F 		.ascii	"PIO_TNCR\000"
 1854      544E4352 
 1854      00
 1855              	.LASF57:
 1856 0605 50494F5F 		.ascii	"PIO_OWSR\000"
 1856      4F575352 
 1856      00
 1857              	.LASF111:
 1858 060e 504D435F 		.ascii	"PMC_FSPR\000"
 1858      46535052 
 1858      00
 1859              	.LASF48:
 1860 0617 50494F5F 		.ascii	"PIO_IFSCER\000"
 1860      49465343 
 1860      455200
 1861              	.LASF121:
 1862 0622 61743931 		.ascii	"at91sam3_pio_setup_t\000"
 1862      73616D33 
 1862      5F70696F 
 1862      5F736574 
 1862      75705F74 
 1863              	.LASF93:
 1864 0637 504D435F 		.ascii	"PMC_SCER\000"
 1864      53434552 
 1864      00
 1865              	.LASF56:
 1866 0640 50494F5F 		.ascii	"PIO_OWDR\000"
 1866      4F574452 
 1866      00
 1867              	.LASF29:
 1868 0649 50494F5F 		.ascii	"PIO_SODR\000"
 1868      534F4452 
 1868      00
 1869              	.LASF125:
 1870 0652 50414C43 		.ascii	"PALConfig\000"
 1870      6F6E6669 
 1870      6700
 1871              	.LASF122:
 1872 065c 50304461 		.ascii	"P0Data\000"
 1872      746100
 1873              	.LASF114:
 1874 0663 504D435F 		.ascii	"PMC_WPSR\000"
 1874      57505352 
 1874      00
 1875              		.ident	"GCC: (GNU Tools for ARM Embedded Processors) 4.9.3 20150529 (release) [ARM/embedded-4_9-br
ARM GAS  /tmp/ccVoo9SF.s 			page 39


DEFINED SYMBOLS
                            *ABS*:00000000 pal_lld.c
     /tmp/ccVoo9SF.s:19     .text._pal_lld_init:00000000 $t
     /tmp/ccVoo9SF.s:25     .text._pal_lld_init:00000000 _pal_lld_init
     /tmp/ccVoo9SF.s:170    .text._pal_lld_init:000000a4 $d
     /tmp/ccVoo9SF.s:179    .text._pal_lld_setgroupmode:00000000 $t
     /tmp/ccVoo9SF.s:185    .text._pal_lld_setgroupmode:00000000 _pal_lld_setgroupmode
     /tmp/ccVoo9SF.s:200    .text._pal_lld_setgroupmode:0000000c $d
     /tmp/ccVoo9SF.s:208    .text._pal_lld_setgroupmode:00000014 $t
                     .debug_frame:00000010 $d

NO UNDEFINED SYMBOLS
