ARM GAS  /tmp/ccVoo9SF.s 			page 1


   1              		.syntax unified
   2              		.cpu cortex-m3
   3              		.fpu softvfp
   4              		.eabi_attribute 20, 1
   5              		.eabi_attribute 21, 1
   6              		.eabi_attribute 23, 3
   7              		.eabi_attribute 24, 1
   8              		.eabi_attribute 25, 1
   9              		.eabi_attribute 26, 1
  10              		.eabi_attribute 30, 2
  11              		.eabi_attribute 34, 1
  12              		.eabi_attribute 18, 4
  13              		.thumb
  14              		.file	"pal_lld.c"
  15              		.text
  16              	.Ltext0:
  17              		.cfi_sections	.debug_frame
  18              		.section	.text._pal_lld_init,"ax",%progbits
  19              		.align	2
  20              		.p2align 4,,15
  21              		.global	_pal_lld_init
  22              		.thumb
  23              		.thumb_func
  24              		.type	_pal_lld_init, %function
  25              	_pal_lld_init:
  26              	.LFB36:
  27              		.file 1 "/home/nicolas/Desktop/Embebidos/stamp_repo/files/code/ext/ChibiOS/os/hal/platforms/AT91SA
  28              		.loc 1 71 0
  29              		.cfi_startproc
  30              		@ args = 0, pretend = 0, frame = 0
  31              		@ frame_needed = 0, uses_anonymous_args = 0
  32              		@ link register save eliminated.
  33              	.LVL0:
  34 0000 70B4     		push	{r4, r5, r6}
  35              		.cfi_def_cfa_offset 12
  36              		.cfi_offset 4, -12
  37              		.cfi_offset 5, -8
  38              		.cfi_offset 6, -4
  39              		.loc 1 81 0
  40 0002 284B     		ldr	r3, .L3
  41 0004 284C     		ldr	r4, .L3+4
  42              		.loc 1 83 0
  43 0006 294A     		ldr	r2, .L3+8
  44              		.loc 1 82 0
  45 0008 0121     		movs	r1, #1
  46              		.loc 1 81 0
  47 000a C3F8E440 		str	r4, [r3, #228]
  48              		.loc 1 82 0
  49 000e 1961     		str	r1, [r3, #16]
  50              		.loc 1 83 0
  51 0010 C3F8E420 		str	r2, [r3, #228]
  52              		.loc 1 90 0
  53 0014 8168     		ldr	r1, [r0, #8]
  54 0016 264A     		ldr	r2, .L3+12
  55              		.loc 1 91 0
  56 0018 CC43     		mvns	r4, r1
  57              		.loc 1 92 0
ARM GAS  /tmp/ccVoo9SF.s 			page 2


  58 001a 4FF0FF33 		mov	r3, #-1
  59              		.loc 1 90 0
  60 001e 5166     		str	r1, [r2, #100]
  61              		.loc 1 91 0
  62 0020 1466     		str	r4, [r2, #96]
  63              		.loc 1 92 0
  64 0022 1360     		str	r3, [r2]
  65              		.loc 1 93 0
  66 0024 0168     		ldr	r1, [r0]
  67              		.loc 1 102 0
  68 0026 0024     		movs	r4, #0
  69              		.loc 1 93 0
  70 0028 9163     		str	r1, [r2, #56]
  71              		.loc 1 94 0
  72 002a 4568     		ldr	r5, [r0, #4]
  73              		.loc 1 110 0
  74 002c 2149     		ldr	r1, .L3+16
  75              		.loc 1 95 0
  76 002e EE43     		mvns	r6, r5
  77              		.loc 1 94 0
  78 0030 1561     		str	r5, [r2, #16]
  79              		.loc 1 95 0
  80 0032 5661     		str	r6, [r2, #20]
  81              		.loc 1 96 0
  82 0034 5362     		str	r3, [r2, #36]
  83              		.loc 1 97 0
  84 0036 5364     		str	r3, [r2, #68]
  85              		.loc 1 98 0
  86 0038 5365     		str	r3, [r2, #84]
  87              		.loc 1 102 0
  88 003a 1467     		str	r4, [r2, #112]
  89              		.loc 1 103 0
  90 003c 5467     		str	r4, [r2, #116]
  91              		.loc 1 105 0
  92 003e C2F8A030 		str	r3, [r2, #160]
  93              		.loc 1 110 0
  94 0042 4569     		ldr	r5, [r0, #20]
  95              		.loc 1 111 0
  96 0044 EE43     		mvns	r6, r5
  97              		.loc 1 110 0
  98 0046 4D66     		str	r5, [r1, #100]
  99              		.loc 1 111 0
 100 0048 0E66     		str	r6, [r1, #96]
 101              		.loc 1 112 0
 102 004a 0B60     		str	r3, [r1]
 103              		.loc 1 113 0
 104 004c C568     		ldr	r5, [r0, #12]
 105 004e 8D63     		str	r5, [r1, #56]
 106              		.loc 1 114 0
 107 0050 0569     		ldr	r5, [r0, #16]
 108              		.loc 1 115 0
 109 0052 EE43     		mvns	r6, r5
 110              		.loc 1 114 0
 111 0054 0D61     		str	r5, [r1, #16]
 112              		.loc 1 115 0
 113 0056 4E61     		str	r6, [r1, #20]
 114              		.loc 1 116 0
ARM GAS  /tmp/ccVoo9SF.s 			page 3


 115 0058 4B62     		str	r3, [r1, #36]
 116              		.loc 1 117 0
 117 005a 4B64     		str	r3, [r1, #68]
 118              		.loc 1 118 0
 119 005c 4B65     		str	r3, [r1, #84]
 120              		.loc 1 122 0
 121 005e 0C67     		str	r4, [r1, #112]
 122              		.loc 1 123 0
 123 0060 4C67     		str	r4, [r1, #116]
 124              		.loc 1 125 0
 125 0062 C1F8A030 		str	r3, [r1, #160]
 126              		.loc 1 130 0
 127 0066 016A     		ldr	r1, [r0, #32]
 128              		.loc 1 131 0
 129 0068 CD43     		mvns	r5, r1
 130              		.loc 1 130 0
 131 006a C2F86414 		str	r1, [r2, #1124]
 132              		.loc 1 131 0
 133 006e C2F86054 		str	r5, [r2, #1120]
 134              		.loc 1 132 0
 135 0072 C2F80034 		str	r3, [r2, #1024]
 136              		.loc 1 133 0
 137 0076 8169     		ldr	r1, [r0, #24]
 138 0078 C2F83814 		str	r1, [r2, #1080]
 139              		.loc 1 134 0
 140 007c C169     		ldr	r1, [r0, #28]
 141              		.loc 1 135 0
 142 007e C843     		mvns	r0, r1
 143              	.LVL1:
 144              		.loc 1 134 0
 145 0080 C2F81014 		str	r1, [r2, #1040]
 146              		.loc 1 135 0
 147 0084 C2F81404 		str	r0, [r2, #1044]
 148              		.loc 1 136 0
 149 0088 C2F82434 		str	r3, [r2, #1060]
 150              		.loc 1 137 0
 151 008c C2F84434 		str	r3, [r2, #1092]
 152              		.loc 1 138 0
 153 0090 C2F85434 		str	r3, [r2, #1108]
 154              		.loc 1 142 0
 155 0094 C2F87044 		str	r4, [r2, #1136]
 156              		.loc 1 143 0
 157 0098 C2F87444 		str	r4, [r2, #1140]
 158              		.loc 1 145 0
 159 009c C2F8A034 		str	r3, [r2, #1184]
 160              		.loc 1 146 0
 161 00a0 70BC     		pop	{r4, r5, r6}
 162              		.cfi_restore 6
 163              		.cfi_restore 5
 164              		.cfi_restore 4
 165              		.cfi_def_cfa_offset 0
 166 00a2 7047     		bx	lr
 167              	.L4:
 168              		.align	2
 169              	.L3:
 170 00a4 00040E40 		.word	1074660352
 171 00a8 00434D50 		.word	1347240704
ARM GAS  /tmp/ccVoo9SF.s 			page 4


 172 00ac 01434D50 		.word	1347240705
 173 00b0 000E0E40 		.word	1074662912
 174 00b4 00100E40 		.word	1074663424
 175              		.cfi_endproc
 176              	.LFE36:
 177              		.size	_pal_lld_init, .-_pal_lld_init
 178              		.section	.text._pal_lld_setgroupmode,"ax",%progbits
 179              		.align	2
 180              		.p2align 4,,15
 181              		.global	_pal_lld_setgroupmode
 182              		.thumb
 183              		.thumb_func
 184              		.type	_pal_lld_setgroupmode, %function
 185              	_pal_lld_setgroupmode:
 186              	.LFB37:
 187              		.loc 1 167 0
 188              		.cfi_startproc
 189              		@ args = 0, pretend = 0, frame = 0
 190              		@ frame_needed = 0, uses_anonymous_args = 0
 191              		@ link register save eliminated.
 192              	.LVL2:
 193              		.loc 1 169 0
 194 0000 02F01F02 		and	r2, r2, #31
 195              	.LVL3:
 196 0004 072A     		cmp	r2, #7
 197 0006 08D8     		bhi	.L5
 198 0008 DFE802F0 		tbb	[pc, r2]
 199              	.L8:
 200 000c 10       		.byte	(.L7-.L8)/2
 201 000d 08       		.byte	(.L9-.L8)/2
 202 000e 0D       		.byte	(.L10-.L8)/2
 203 000f 10       		.byte	(.L7-.L8)/2
 204 0010 07       		.byte	(.L5-.L8)/2
 205 0011 0D       		.byte	(.L10-.L8)/2
 206 0012 09       		.byte	(.L11-.L8)/2
 207 0013 04       		.byte	(.L12-.L8)/2
 208              		.p2align 1
 209              	.L12:
 210              		.loc 1 189 0
 211 0014 4166     		str	r1, [r0, #100]
 212              		.loc 1 190 0
 213 0016 0161     		str	r1, [r0, #16]
 214              		.loc 1 191 0
 215 0018 0165     		str	r1, [r0, #80]
 216              	.L5:
 217 001a 7047     		bx	lr
 218              	.L9:
 219              		.loc 1 181 0
 220 001c 0163     		str	r1, [r0, #48]
 221              	.L11:
 222              		.loc 1 184 0
 223 001e 0166     		str	r1, [r0, #96]
 224              		.loc 1 185 0
 225 0020 0161     		str	r1, [r0, #16]
 226              		.loc 1 186 0
 227 0022 4165     		str	r1, [r0, #84]
 228              		.loc 1 187 0
ARM GAS  /tmp/ccVoo9SF.s 			page 5


 229 0024 7047     		bx	lr
 230              	.L10:
 231              		.loc 1 177 0
 232 0026 0166     		str	r1, [r0, #96]
 233              		.loc 1 178 0
 234 0028 4161     		str	r1, [r0, #20]
 235              		.loc 1 179 0
 236 002a 7047     		bx	lr
 237              	.L7:
 238              		.loc 1 172 0
 239 002c 4166     		str	r1, [r0, #100]
 240              		.loc 1 173 0
 241 002e 4161     		str	r1, [r0, #20]
 242              		.loc 1 174 0
 243 0030 7047     		bx	lr
 244              		.cfi_endproc
 245              	.LFE37:
 246              		.size	_pal_lld_setgroupmode, .-_pal_lld_setgroupmode
 247 0032 00BF     		.text
 248              	.Letext0:
 249              		.file 2 "/opt/gcc-arm-none-eabi-4_9-2015q3/arm-none-eabi/include/machine/_default_types.h"
 250              		.file 3 "/opt/gcc-arm-none-eabi-4_9-2015q3/arm-none-eabi/include/sys/_stdint.h"
 251              		.file 4 "/opt/gcc-arm-none-eabi-4_9-2015q3/arm-none-eabi/include/stdint.h"
 252              		.file 5 "/home/nicolas/Desktop/Embebidos/stamp_repo/files/code/ext/ChibiOS/os/hal/platforms/AT91SA
 253              		.file 6 "/home/nicolas/Desktop/Embebidos/stamp_repo/files/code/ext/ChibiOS/os/hal/platforms/AT91SA
 254              		.file 7 "/home/nicolas/Desktop/Embebidos/stamp_repo/files/code/ext/ChibiOS/os/hal/platforms/AT91SA