ARM GAS  /tmp/cccUwHWM.s 			page 1


   1              		.syntax unified
   2              		.cpu cortex-m3
   3              		.fpu softvfp
   4              		.eabi_attribute 20, 1
   5              		.eabi_attribute 21, 1
   6              		.eabi_attribute 23, 3
   7              		.eabi_attribute 24, 1
   8              		.eabi_attribute 25, 1
   9              		.eabi_attribute 26, 1
  10              		.eabi_attribute 30, 2
  11              		.eabi_attribute 34, 1
  12              		.eabi_attribute 18, 4
  13              		.thumb
  14              		.file	"pio.c"
  15              		.text
  16              	.Ltext0:
  17              		.cfi_sections	.debug_frame
  18              		.section	.text.PIO_Configure,"ax",%progbits
  19              		.align	2
  20              		.p2align 4,,15
  21              		.global	PIO_Configure
  22              		.thumb
  23              		.thumb_func
  24              		.type	PIO_Configure, %function
  25              	PIO_Configure:
  26              	.LFB6:
  27              		.file 1 "/home/nicolas/Escritorio/Embebidos/stamp_repo/files/code/ext/ChibiOS/os/hal/platforms/AT9
  28              		.loc 1 306 0
  29              		.cfi_startproc
  30              		@ args = 0, pretend = 0, frame = 0
  31              		@ frame_needed = 0, uses_anonymous_args = 0
  32              	.LVL0:
  33 0000 70B5     		push	{r4, r5, r6, lr}
  34              		.cfi_def_cfa_offset 16
  35              		.cfi_offset 4, -16
  36              		.cfi_offset 5, -12
  37              		.cfi_offset 6, -8
  38              		.cfi_offset 14, -4
  39              		.loc 1 308 0
  40 0002 0D46     		mov	r5, r1
  41 0004 00F10C04 		add	r4, r0, #12
  42 0008 31B3     		cbz	r1, .L33
  43              	.LVL1:
  44              	.L32:
  45              		.loc 1 310 0
  46 000a 14F8033C 		ldrb	r3, [r4, #-3]	@ zero_extendqisi2
  47 000e 062B     		cmp	r3, #6
  48 0010 00F29D80 		bhi	.L34
  49 0014 DFE803F0 		tbb	[pc, r3]
  50              	.L5:
  51 0018 7E       		.byte	(.L4-.L5)/2
  52 0019 68       		.byte	(.L6-.L5)/2
  53 001a 57       		.byte	(.L7-.L5)/2
  54 001b 3F       		.byte	(.L8-.L5)/2
  55 001c 22       		.byte	(.L9-.L5)/2
  56 001d 04       		.byte	(.L10-.L5)/2
  57 001e 04       		.byte	(.L10-.L5)/2
ARM GAS  /tmp/cccUwHWM.s 			page 2


  58 001f 00       		.p2align 1
  59              	.L10:
  60              	.LBB26:
  61              		.loc 1 348 0
  62 0020 14F8026C 		ldrb	r6, [r4, #-2]	@ zero_extendqisi2
  63              		.loc 1 345 0
  64 0024 54F8082C 		ldr	r2, [r4, #-8]
  65              		.loc 1 346 0
  66 0028 54F80C1C 		ldr	r1, [r4, #-12]
  67              		.loc 1 348 0
  68 002c 06F00400 		and	r0, r6, #4
  69 0030 C0B2     		uxtb	r0, r0
  70              	.LVL2:
  71              	.LBB27:
  72              	.LBB28:
  73              		.loc 1 255 0
  74 0032 F607     		lsls	r6, r6, #31
  75              	.LVL3:
  76              		.loc 1 252 0
  77 0034 5164     		str	r1, [r2, #68]
  78              	.LVL4:
  79              		.loc 1 257 0
  80 0036 4CBF     		ite	mi
  81 0038 5166     		strmi	r1, [r2, #100]
  82              		.loc 1 261 0
  83 003a 1166     		strpl	r1, [r2, #96]
  84              		.loc 1 265 0
  85 003c 0028     		cmp	r0, #0
  86 003e 40F08180 		bne	.L42
  87              		.loc 1 271 0
  88 0042 5165     		str	r1, [r2, #84]
  89              	.L29:
  90              		.loc 1 276 0
  91 0044 062B     		cmp	r3, #6
  92              		.loc 1 278 0
  93 0046 0CBF     		ite	eq
  94 0048 1163     		streq	r1, [r2, #48]
  95              		.loc 1 282 0
  96 004a 5163     		strne	r1, [r2, #52]
  97              	.LBE28:
  98              	.LBE27:
  99              	.LBE26:
 100              		.loc 1 308 0
 101 004c 013D     		subs	r5, r5, #1
 102              	.LVL5:
 103              	.LBB47:
 104              	.LBB31:
 105              	.LBB29:
 106              		.loc 1 286 0
 107 004e 1161     		str	r1, [r2, #16]
 108 0050 04F10C04 		add	r4, r4, #12
 109              	.LVL6:
 110              		.loc 1 287 0
 111 0054 1160     		str	r1, [r2]
 112              	.LVL7:
 113              	.LBE29:
 114              	.LBE31:
ARM GAS  /tmp/cccUwHWM.s 			page 3


 115              	.LBE47:
 116              		.loc 1 308 0
 117 0056 D8D1     		bne	.L32
 118              	.LVL8:
 119              	.L33:
 120              		.loc 1 359 0
 121 0058 0120     		movs	r0, #1
 122 005a 70BD     		pop	{r4, r5, r6, pc}
 123              	.LVL9:
 124              	.L9:
 125              	.LBB48:
 126              		.loc 1 337 0
 127 005c 14F8040C 		ldrb	r0, [r4, #-4]	@ zero_extendqisi2
 128 0060 FFF7FEFF 		bl	PMC_EnablePeripheral
 129              	.LVL10:
 130              		.loc 1 338 0
 131 0064 14F8021C 		ldrb	r1, [r4, #-2]	@ zero_extendqisi2
 132 0068 54F8083C 		ldr	r3, [r4, #-8]
 133              	.LVL11:
 134              		.loc 1 339 0
 135 006c 54F80C2C 		ldr	r2, [r4, #-12]
 136              	.LVL12:
 137              	.LBB32:
 138              	.LBB33:
 139              		.loc 1 203 0
 140 0070 CE07     		lsls	r6, r1, #31
 141              		.loc 1 200 0
 142 0072 5A64     		str	r2, [r3, #68]
 143              		.loc 1 204 0
 144 0074 4CBF     		ite	mi
 145 0076 5A66     		strmi	r2, [r3, #100]
 146              		.loc 1 206 0
 147 0078 1A66     		strpl	r2, [r3, #96]
 148              		.loc 1 209 0
 149 007a 11F00A0F 		tst	r1, #10
 150              		.loc 1 210 0
 151 007e 14BF     		ite	ne
 152 0080 1A62     		strne	r2, [r3, #32]
 153              		.loc 1 212 0
 154 0082 5A62     		streq	r2, [r3, #36]
 155              		.loc 1 215 0
 156 0084 8807     		lsls	r0, r1, #30
 157 0086 5FD4     		bmi	.L43
 158              		.loc 1 221 0
 159 0088 0907     		lsls	r1, r1, #28
 160              	.LVL13:
 161              		.loc 1 223 0
 162 008a 48BF     		it	mi
 163 008c C3F88420 		strmi	r2, [r3, #132]
 164              	.L25:
 165              		.loc 1 228 0
 166 0090 5A61     		str	r2, [r3, #20]
 167              		.loc 1 229 0
 168 0092 1A60     		str	r2, [r3]
 169 0094 11E0     		b	.L13
 170              	.LVL14:
 171              	.L8:
ARM GAS  /tmp/cccUwHWM.s 			page 4


 172              	.LBE33:
 173              	.LBE32:
 174              		.loc 1 334 0
 175 0096 14F8021C 		ldrb	r1, [r4, #-2]	@ zero_extendqisi2
 176              		.loc 1 332 0
 177 009a 54F8083C 		ldr	r3, [r4, #-8]
 178              	.LVL15:
 179              		.loc 1 333 0
 180 009e 54F80C2C 		ldr	r2, [r4, #-12]
 181              	.LVL16:
 182              	.LBB35:
 183              	.LBB36:
 184              		.loc 1 168 0
 185 00a2 C907     		lsls	r1, r1, #31
 186              	.LVL17:
 187              		.loc 1 165 0
 188 00a4 5A64     		str	r2, [r3, #68]
 189              	.LVL18:
 190              		.loc 1 170 0
 191 00a6 4CBF     		ite	mi
 192 00a8 5A66     		strmi	r2, [r3, #100]
 193              		.loc 1 174 0
 194 00aa 1A66     		strpl	r2, [r3, #96]
 195              		.loc 1 177 0
 196 00ac 196F     		ldr	r1, [r3, #112]
 197              	.LVL19:
 198              		.loc 1 178 0
 199 00ae 1143     		orrs	r1, r1, r2
 200              	.LVL20:
 201              	.L40:
 202 00b0 1967     		str	r1, [r3, #112]
 203              		.loc 1 179 0
 204 00b2 596F     		ldr	r1, [r3, #116]
 205              	.LVL21:
 206              		.loc 1 180 0
 207 00b4 1143     		orrs	r1, r1, r2
 208              	.LVL22:
 209 00b6 5967     		str	r1, [r3, #116]
 210              		.loc 1 182 0
 211 00b8 5A60     		str	r2, [r3, #4]
 212              	.L13:
 213              	.LVL23:
 214              	.LBE36:
 215              	.LBE35:
 216              	.LBE48:
 217              		.loc 1 308 0
 218 00ba 013D     		subs	r5, r5, #1
 219              	.LVL24:
 220 00bc 04F10C04 		add	r4, r4, #12
 221              	.LVL25:
 222 00c0 A3D1     		bne	.L32
 223              		.loc 1 359 0
 224 00c2 0120     		movs	r0, #1
 225 00c4 70BD     		pop	{r4, r5, r6, pc}
 226              	.LVL26:
 227              	.L7:
 228              	.LBB49:
ARM GAS  /tmp/cccUwHWM.s 			page 5


 229              		.loc 1 328 0
 230 00c6 14F8021C 		ldrb	r1, [r4, #-2]	@ zero_extendqisi2
 231              		.loc 1 326 0
 232 00ca 54F8083C 		ldr	r3, [r4, #-8]
 233              	.LVL27:
 234              		.loc 1 327 0
 235 00ce 54F80C2C 		ldr	r2, [r4, #-12]
 236              	.LVL28:
 237              	.LBB37:
 238              	.LBB38:
 239              		.loc 1 132 0
 240 00d2 C807     		lsls	r0, r1, #31
 241              		.loc 1 129 0
 242 00d4 5A64     		str	r2, [r3, #68]
 243              		.loc 1 134 0
 244 00d6 4CBF     		ite	mi
 245 00d8 5A66     		strmi	r2, [r3, #100]
 246              		.loc 1 138 0
 247 00da 1A66     		strpl	r2, [r3, #96]
 248              		.loc 1 141 0
 249 00dc 196F     		ldr	r1, [r3, #112]
 250              	.LVL29:
 251              		.loc 1 142 0
 252 00de 186F     		ldr	r0, [r3, #112]
 253 00e0 0140     		ands	r1, r1, r0
 254              	.LVL30:
 255 00e2 21EA0201 		bic	r1, r1, r2
 256 00e6 E3E7     		b	.L40
 257              	.LVL31:
 258              	.L6:
 259              	.LBE38:
 260              	.LBE37:
 261              		.loc 1 322 0
 262 00e8 14F8021C 		ldrb	r1, [r4, #-2]	@ zero_extendqisi2
 263              		.loc 1 320 0
 264 00ec 54F8083C 		ldr	r3, [r4, #-8]
 265              	.LVL32:
 266              		.loc 1 321 0
 267 00f0 54F80C2C 		ldr	r2, [r4, #-12]
 268              	.LVL33:
 269              	.LBB39:
 270              	.LBB40:
 271              		.loc 1 96 0
 272 00f4 CE07     		lsls	r6, r1, #31
 273              		.loc 1 93 0
 274 00f6 5A64     		str	r2, [r3, #68]
 275              		.loc 1 98 0
 276 00f8 4CBF     		ite	mi
 277 00fa 5A66     		strmi	r2, [r3, #100]
 278              		.loc 1 102 0
 279 00fc 1A66     		strpl	r2, [r3, #96]
 280              		.loc 1 105 0
 281 00fe 196F     		ldr	r1, [r3, #112]
 282              	.LVL34:
 283              		.loc 1 106 0
 284 0100 1143     		orrs	r1, r1, r2
 285              	.LVL35:
ARM GAS  /tmp/cccUwHWM.s 			page 6


 286 0102 1967     		str	r1, [r3, #112]
 287              		.loc 1 107 0
 288 0104 596F     		ldr	r1, [r3, #116]
 289              	.LVL36:
 290              		.loc 1 108 0
 291 0106 586F     		ldr	r0, [r3, #116]
 292 0108 0140     		ands	r1, r1, r0
 293              	.LVL37:
 294 010a 21EA0201 		bic	r1, r1, r2
 295 010e 5967     		str	r1, [r3, #116]
 296              		.loc 1 110 0
 297 0110 5A60     		str	r2, [r3, #4]
 298 0112 D2E7     		b	.L13
 299              	.LVL38:
 300              	.L4:
 301              	.LBE40:
 302              	.LBE39:
 303              		.loc 1 315 0
 304 0114 54F80C1C 		ldr	r1, [r4, #-12]
 305              		.loc 1 316 0
 306 0118 14F8022C 		ldrb	r2, [r4, #-2]	@ zero_extendqisi2
 307              	.LBB41:
 308              	.LBB42:
 309              		.loc 1 71 0
 310 011c C843     		mvns	r0, r1
 311              	.LBE42:
 312              	.LBE41:
 313              		.loc 1 314 0
 314 011e 54F8083C 		ldr	r3, [r4, #-8]
 315              	.LVL39:
 316              	.LBB44:
 317              	.LBB43:
 318              		.loc 1 62 0
 319 0122 D207     		lsls	r2, r2, #31
 320              	.LVL40:
 321              		.loc 1 59 0
 322 0124 5964     		str	r1, [r3, #68]
 323              	.LVL41:
 324              		.loc 1 63 0
 325 0126 4CBF     		ite	mi
 326 0128 5966     		strmi	r1, [r3, #100]
 327              		.loc 1 67 0
 328 012a 1966     		strpl	r1, [r3, #96]
 329              		.loc 1 70 0
 330 012c 1A6F     		ldr	r2, [r3, #112]
 331              	.LVL42:
 332              		.loc 1 71 0
 333 012e 1E6F     		ldr	r6, [r3, #112]
 334 0130 3240     		ands	r2, r2, r6
 335              	.LVL43:
 336 0132 0240     		ands	r2, r2, r0
 337 0134 1A67     		str	r2, [r3, #112]
 338              		.loc 1 72 0
 339 0136 5A6F     		ldr	r2, [r3, #116]
 340              	.LVL44:
 341              		.loc 1 73 0
 342 0138 5E6F     		ldr	r6, [r3, #116]
ARM GAS  /tmp/cccUwHWM.s 			page 7


 343 013a 3240     		ands	r2, r2, r6
 344              	.LVL45:
 345 013c 1040     		ands	r0, r0, r2
 346 013e 5867     		str	r0, [r3, #116]
 347              		.loc 1 74 0
 348 0140 5960     		str	r1, [r3, #4]
 349 0142 BAE7     		b	.L13
 350              	.LVL46:
 351              	.L42:
 352              	.LBE43:
 353              	.LBE44:
 354              	.LBB45:
 355              	.LBB30:
 356              		.loc 1 267 0
 357 0144 1165     		str	r1, [r2, #80]
 358 0146 7DE7     		b	.L29
 359              	.LVL47:
 360              	.L43:
 361              	.LBE30:
 362              	.LBE45:
 363              	.LBB46:
 364              	.LBB34:
 365              		.loc 1 217 0
 366 0148 C3F88020 		str	r2, [r3, #128]
 367 014c A0E7     		b	.L25
 368              	.LVL48:
 369              	.L34:
 370              	.LBE34:
 371              	.LBE46:
 372              		.loc 1 352 0
 373 014e 0020     		movs	r0, #0
 374              	.LBE49:
 375              		.loc 1 360 0
 376 0150 70BD     		pop	{r4, r5, r6, pc}
 377              		.cfi_endproc
 378              	.LFE6:
 379              		.size	PIO_Configure, .-PIO_Configure
 380 0152 00BF     		.section	.text.PIO_Set,"ax",%progbits
 381              		.align	2
 382              		.p2align 4,,15
 383              		.global	PIO_Set
 384              		.thumb
 385              		.thumb_func
 386              		.type	PIO_Set, %function
 387              	PIO_Set:
 388              	.LFB7:
 389              		.loc 1 370 0
 390              		.cfi_startproc
 391              		@ args = 0, pretend = 0, frame = 0
 392              		@ frame_needed = 0, uses_anonymous_args = 0
 393              		@ link register save eliminated.
 394              	.LVL49:
 395              		.loc 1 371 0
 396 0000 90E80C00 		ldmia	r0, {r2, r3}
 397 0004 1A63     		str	r2, [r3, #48]
 398 0006 7047     		bx	lr
 399              		.cfi_endproc
ARM GAS  /tmp/cccUwHWM.s 			page 8


 400              	.LFE7:
 401              		.size	PIO_Set, .-PIO_Set
 402              		.section	.text.PIO_Clear,"ax",%progbits
 403              		.align	2
 404              		.p2align 4,,15
 405              		.global	PIO_Clear
 406              		.thumb
 407              		.thumb_func
 408              		.type	PIO_Clear, %function
 409              	PIO_Clear:
 410              	.LFB8:
 411              		.loc 1 382 0
 412              		.cfi_startproc
 413              		@ args = 0, pretend = 0, frame = 0
 414              		@ frame_needed = 0, uses_anonymous_args = 0
 415              		@ link register save eliminated.
 416              	.LVL50:
 417              		.loc 1 383 0
 418 0000 90E80C00 		ldmia	r0, {r2, r3}
 419 0004 5A63     		str	r2, [r3, #52]
 420 0006 7047     		bx	lr
 421              		.cfi_endproc
 422              	.LFE8:
 423              		.size	PIO_Clear, .-PIO_Clear
 424              		.section	.text.PIO_Get,"ax",%progbits
 425              		.align	2
 426              		.p2align 4,,15
 427              		.global	PIO_Get
 428              		.thumb
 429              		.thumb_func
 430              		.type	PIO_Get, %function
 431              	PIO_Get:
 432              	.LFB9:
 433              		.loc 1 398 0
 434              		.cfi_startproc
 435              		@ args = 0, pretend = 0, frame = 0
 436              		@ frame_needed = 0, uses_anonymous_args = 0
 437              		@ link register save eliminated.
 438              	.LVL51:
 439              		.loc 1 401 0
 440 0000 437A     		ldrb	r3, [r0, #9]	@ zero_extendqisi2
 441 0002 053B     		subs	r3, r3, #5
 442 0004 012B     		cmp	r3, #1
 443              		.loc 1 403 0
 444 0006 4368     		ldr	r3, [r0, #4]
 445 0008 94BF     		ite	ls
 446 000a 9A6B     		ldrls	r2, [r3, #56]
 447              	.LVL52:
 448              		.loc 1 407 0
 449 000c DA6B     		ldrhi	r2, [r3, #60]
 450              	.LVL53:
 451              		.loc 1 410 0
 452 000e 0368     		ldr	r3, [r0]
 453 0010 1A42     		tst	r2, r3
 454              		.loc 1 418 0
 455 0012 14BF     		ite	ne
 456 0014 0120     		movne	r0, #1
ARM GAS  /tmp/cccUwHWM.s 			page 9


 457              	.LVL54:
 458 0016 0020     		moveq	r0, #0
 459 0018 7047     		bx	lr
 460              		.cfi_endproc
 461              	.LFE9:
 462              		.size	PIO_Get, .-PIO_Get
 463 001a 00BF     		.section	.text.PIO_GetOutputDataStatus,"ax",%progbits
 464              		.align	2
 465              		.p2align 4,,15
 466              		.global	PIO_GetOutputDataStatus
 467              		.thumb
 468              		.thumb_func
 469              		.type	PIO_GetOutputDataStatus, %function
 470              	PIO_GetOutputDataStatus:
 471              	.LFB10:
 472              		.loc 1 431 0
 473              		.cfi_startproc
 474              		@ args = 0, pretend = 0, frame = 0
 475              		@ frame_needed = 0, uses_anonymous_args = 0
 476              		@ link register save eliminated.
 477              	.LVL55:
 478              		.loc 1 432 0
 479 0000 4268     		ldr	r2, [r0, #4]
 480 0002 0368     		ldr	r3, [r0]
 481 0004 926B     		ldr	r2, [r2, #56]
 482 0006 1A42     		tst	r2, r3
 483              		.loc 1 440 0
 484 0008 14BF     		ite	ne
 485 000a 0120     		movne	r0, #1
 486              	.LVL56:
 487 000c 0020     		moveq	r0, #0
 488 000e 7047     		bx	lr
 489              		.cfi_endproc
 490              	.LFE10:
 491              		.size	PIO_GetOutputDataStatus, .-PIO_GetOutputDataStatus
 492              		.section	.text.PIO_SetDebounceFilter,"ax",%progbits
 493              		.align	2
 494              		.p2align 4,,15
 495              		.global	PIO_SetDebounceFilter
 496              		.thumb
 497              		.thumb_func
 498              		.type	PIO_SetDebounceFilter, %function
 499              	PIO_SetDebounceFilter:
 500              	.LFB11:
 501              		.loc 1 449 0
 502              		.cfi_startproc
 503              		@ args = 0, pretend = 0, frame = 0
 504              		@ frame_needed = 0, uses_anonymous_args = 0
 505              		@ link register save eliminated.
 506              	.LVL57:
 507              		.loc 1 453 0
 508 0000 47F6A673 		movw	r3, #32678
 509 0004 4900     		lsls	r1, r1, #1
 510              	.LVL58:
 511 0006 B3FBF1F3 		udiv	r3, r3, r1
 512              		.loc 1 450 0
 513 000a 4268     		ldr	r2, [r0, #4]
ARM GAS  /tmp/cccUwHWM.s 			page 10


 514              	.LVL59:
 515              		.loc 1 452 0
 516 000c 0168     		ldr	r1, [r0]
 517              		.loc 1 453 0
 518 000e 013B     		subs	r3, r3, #1
 519 0010 C3F30D03 		ubfx	r3, r3, #0, #14
 520              		.loc 1 452 0
 521 0014 C2F88410 		str	r1, [r2, #132]
 522              		.loc 1 453 0
 523 0018 C2F88C30 		str	r3, [r2, #140]
 524 001c 7047     		bx	lr
 525              		.cfi_endproc
 526              	.LFE11:
 527              		.size	PIO_SetDebounceFilter, .-PIO_SetDebounceFilter
 528 001e 00BF     		.text
 529              	.Letext0:
 530              		.file 2 "/opt/gcc-arm-none-eabi-4_9-2015q3/arm-none-eabi/include/machine/_default_types.h"
 531              		.file 3 "/opt/gcc-arm-none-eabi-4_9-2015q3/arm-none-eabi/include/sys/_stdint.h"
 532              		.file 4 "/home/nicolas/Escritorio/Embebidos/stamp_repo/files/code/ext/ChibiOS/os/hal/platforms/AT9
 533              		.file 5 "/home/nicolas/Escritorio/Embebidos/stamp_repo/files/code/ext/ChibiOS/os/hal/platforms/AT9