ARM GAS  /tmp/ccNIiQWZ.s 			page 1


   1              		.syntax unified
   2              		.cpu cortex-m3
   3              		.fpu softvfp
   4              		.eabi_attribute 20, 1
   5              		.eabi_attribute 21, 1
   6              		.eabi_attribute 23, 3
   7              		.eabi_attribute 24, 1
   8              		.eabi_attribute 25, 1
   9              		.eabi_attribute 26, 1
  10              		.eabi_attribute 30, 2
  11              		.eabi_attribute 34, 1
  12              		.eabi_attribute 18, 4
  13              		.thumb
  14              		.file	"pmc.c"
  15              		.text
  16              	.Ltext0:
  17              		.cfi_sections	.debug_frame
  18              		.section	.text.PMC_EnablePeripheral,"ax",%progbits
  19              		.align	2
  20              		.p2align 4,,15
  21              		.global	PMC_EnablePeripheral
  22              		.thumb
  23              		.thumb_func
  24              		.type	PMC_EnablePeripheral, %function
  25              	PMC_EnablePeripheral:
  26              	.LFB0:
  27              		.file 1 "/home/nicolas/Desktop/Embebidos/stamp_repo/files/code/ext/ChibiOS/os/hal/platforms/AT91SA
  28              		.loc 1 62 0
  29              		.cfi_startproc
  30              		@ args = 0, pretend = 0, frame = 0
  31              		@ frame_needed = 0, uses_anonymous_args = 0
  32              	.LVL0:
  33              		.loc 1 63 0
  34 0000 2228     		cmp	r0, #34
  35              		.loc 1 62 0
  36 0002 08B5     		push	{r3, lr}
  37              		.cfi_def_cfa_offset 8
  38              		.cfi_offset 3, -8
  39              		.cfi_offset 14, -4
  40              		.loc 1 63 0
  41 0004 15D8     		bhi	.L7
  42              		.loc 1 65 0
  43 0006 1F28     		cmp	r0, #31
  44              		.loc 1 67 0
  45 0008 0D49     		ldr	r1, .L8
  46              		.loc 1 65 0
  47 000a 07D8     		bhi	.L3
  48              		.loc 1 67 0
  49 000c 0123     		movs	r3, #1
  50 000e 8A69     		ldr	r2, [r1, #24]
  51 0010 8340     		lsls	r3, r3, r0
  52 0012 1A40     		ands	r2, r2, r3
  53 0014 9342     		cmp	r3, r2
  54 0016 0BD0     		beq	.L1
  55              		.loc 1 73 0
  56 0018 0B61     		str	r3, [r1, #16]
  57 001a 08BD     		pop	{r3, pc}
ARM GAS  /tmp/ccNIiQWZ.s 			page 2


  58              	.L3:
  59              	.LVL1:
  60              		.loc 1 79 0
  61 001c D1F80821 		ldr	r2, [r1, #264]
  62              		.loc 1 78 0
  63 0020 2038     		subs	r0, r0, #32
  64              	.LVL2:
  65              		.loc 1 79 0
  66 0022 0123     		movs	r3, #1
  67 0024 8340     		lsls	r3, r3, r0
  68 0026 1A40     		ands	r2, r2, r3
  69 0028 9342     		cmp	r3, r2
  70              		.loc 1 85 0
  71 002a 18BF     		it	ne
  72 002c C1F80031 		strne	r3, [r1, #256]
  73              	.L1:
  74 0030 08BD     		pop	{r3, pc}
  75              	.L7:
  76              		.loc 1 63 0 discriminator 1
  77 0032 0448     		ldr	r0, .L8+4
  78              	.LVL3:
  79 0034 3F21     		movs	r1, #63
  80 0036 044A     		ldr	r2, .L8+8
  81 0038 044B     		ldr	r3, .L8+12
  82 003a FFF7FEFF 		bl	__assert_func
  83              	.LVL4:
  84              	.L9:
  85 003e 00BF     		.align	2
  86              	.L8:
  87 0040 00040E40 		.word	1074660352
  88 0044 00000000 		.word	.LC0
  89 0048 00000000 		.word	.LANCHOR0
  90 004c 64000000 		.word	.LC1
  91              		.cfi_endproc
  92              	.LFE0:
  93              		.size	PMC_EnablePeripheral, .-PMC_EnablePeripheral
  94              		.section	.text.PMC_DisablePeripheral,"ax",%progbits
  95              		.align	2
  96              		.p2align 4,,15
  97              		.global	PMC_DisablePeripheral
  98              		.thumb
  99              		.thumb_func
 100              		.type	PMC_DisablePeripheral, %function
 101              	PMC_DisablePeripheral:
 102              	.LFB1:
 103              		.loc 1 99 0
 104              		.cfi_startproc
 105              		@ args = 0, pretend = 0, frame = 0
 106              		@ frame_needed = 0, uses_anonymous_args = 0
 107              	.LVL5:
 108              		.loc 1 100 0
 109 0000 2228     		cmp	r0, #34
 110              		.loc 1 99 0
 111 0002 08B5     		push	{r3, lr}
 112              		.cfi_def_cfa_offset 8
 113              		.cfi_offset 3, -8
 114              		.cfi_offset 14, -4
ARM GAS  /tmp/ccNIiQWZ.s 			page 3


 115              		.loc 1 100 0
 116 0004 15D8     		bhi	.L15
 117              		.loc 1 102 0
 118 0006 1F28     		cmp	r0, #31
 119              		.loc 1 104 0
 120 0008 0D49     		ldr	r1, .L17
 121              		.loc 1 102 0
 122 000a 0AD9     		bls	.L16
 123              	.LVL6:
 124              		.loc 1 116 0
 125 000c D1F80821 		ldr	r2, [r1, #264]
 126              		.loc 1 115 0
 127 0010 2038     		subs	r0, r0, #32
 128              	.LVL7:
 129              		.loc 1 116 0
 130 0012 0123     		movs	r3, #1
 131 0014 8340     		lsls	r3, r3, r0
 132 0016 1A40     		ands	r2, r2, r3
 133 0018 9342     		cmp	r3, r2
 134              		.loc 1 122 0
 135 001a 08BF     		it	eq
 136 001c C1F80431 		streq	r3, [r1, #260]
 137              	.L10:
 138 0020 08BD     		pop	{r3, pc}
 139              	.L16:
 140              		.loc 1 104 0
 141 0022 0123     		movs	r3, #1
 142 0024 8A69     		ldr	r2, [r1, #24]
 143 0026 8340     		lsls	r3, r3, r0
 144 0028 1A40     		ands	r2, r2, r3
 145 002a 9342     		cmp	r3, r2
 146 002c F8D1     		bne	.L10
 147              		.loc 1 110 0
 148 002e 4B61     		str	r3, [r1, #20]
 149 0030 08BD     		pop	{r3, pc}
 150              	.L15:
 151              		.loc 1 100 0 discriminator 1
 152 0032 0448     		ldr	r0, .L17+4
 153              	.LVL8:
 154 0034 6421     		movs	r1, #100
 155 0036 044A     		ldr	r2, .L17+8
 156 0038 044B     		ldr	r3, .L17+12
 157 003a FFF7FEFF 		bl	__assert_func
 158              	.LVL9:
 159              	.L18:
 160 003e 00BF     		.align	2
 161              	.L17:
 162 0040 00040E40 		.word	1074660352
 163 0044 00000000 		.word	.LC0
 164 0048 00000000 		.word	.LANCHOR1
 165 004c 64000000 		.word	.LC1
 166              		.cfi_endproc
 167              	.LFE1:
 168              		.size	PMC_DisablePeripheral, .-PMC_DisablePeripheral
 169              		.section	.text.PMC_EnableAllPeripherals,"ax",%progbits
 170              		.align	2
 171              		.p2align 4,,15
ARM GAS  /tmp/ccNIiQWZ.s 			page 4


 172              		.global	PMC_EnableAllPeripherals
 173              		.thumb
 174              		.thumb_func
 175              		.type	PMC_EnableAllPeripherals, %function
 176              	PMC_EnableAllPeripherals:
 177              	.LFB2:
 178              		.loc 1 131 0
 179              		.cfi_startproc
 180              		@ args = 0, pretend = 0, frame = 0
 181              		@ frame_needed = 0, uses_anonymous_args = 0
 182              		@ link register save eliminated.
 183              		.loc 1 132 0
 184 0000 0A4B     		ldr	r3, .L24
 185 0002 6FF00302 		mvn	r2, #3
 186              		.loc 1 133 0
 187 0006 1946     		mov	r1, r3
 188              		.loc 1 132 0
 189 0008 1A61     		str	r2, [r3, #16]
 190              	.L20:
 191              		.loc 1 133 0 discriminator 1
 192 000a 8B69     		ldr	r3, [r1, #24]
 193 000c 074A     		ldr	r2, .L24
 194 000e 23F00303 		bic	r3, r3, #3
 195 0012 0433     		adds	r3, r3, #4
 196 0014 F9D1     		bne	.L20
 197              		.loc 1 136 0
 198 0016 1146     		mov	r1, r2
 199              		.loc 1 135 0
 200 0018 4FF0FF33 		mov	r3, #-1
 201 001c C2F80031 		str	r3, [r2, #256]
 202              	.L21:
 203              		.loc 1 136 0 discriminator 1
 204 0020 D1F80831 		ldr	r3, [r1, #264]
 205 0024 0133     		adds	r3, r3, #1
 206 0026 FBD1     		bne	.L21
 207              		.loc 1 139 0
 208 0028 7047     		bx	lr
 209              	.L25:
 210 002a 00BF     		.align	2
 211              	.L24:
 212 002c 00040E40 		.word	1074660352
 213              		.cfi_endproc
 214              	.LFE2:
 215              		.size	PMC_EnableAllPeripherals, .-PMC_EnableAllPeripherals
 216              		.section	.text.PMC_DisableAllPeripherals,"ax",%progbits
 217              		.align	2
 218              		.p2align 4,,15
 219              		.global	PMC_DisableAllPeripherals
 220              		.thumb
 221              		.thumb_func
 222              		.type	PMC_DisableAllPeripherals, %function
 223              	PMC_DisableAllPeripherals:
 224              	.LFB3:
 225              		.loc 1 145 0
 226              		.cfi_startproc
 227              		@ args = 0, pretend = 0, frame = 0
 228              		@ frame_needed = 0, uses_anonymous_args = 0
ARM GAS  /tmp/ccNIiQWZ.s 			page 5


 229              		@ link register save eliminated.
 230              		.loc 1 146 0
 231 0000 094B     		ldr	r3, .L31
 232 0002 6FF00302 		mvn	r2, #3
 233              		.loc 1 147 0
 234 0006 1946     		mov	r1, r3
 235              		.loc 1 146 0
 236 0008 5A61     		str	r2, [r3, #20]
 237              	.L27:
 238              		.loc 1 147 0 discriminator 1
 239 000a 8B69     		ldr	r3, [r1, #24]
 240 000c 064A     		ldr	r2, .L31
 241 000e 33F00303 		bics	r3, r3, #3
 242 0012 FAD1     		bne	.L27
 243              		.loc 1 150 0
 244 0014 1146     		mov	r1, r2
 245              		.loc 1 149 0
 246 0016 4FF0FF33 		mov	r3, #-1
 247 001a C2F80431 		str	r3, [r2, #260]
 248              	.L28:
 249              		.loc 1 150 0 discriminator 1
 250 001e D1F80831 		ldr	r3, [r1, #264]
 251 0022 002B     		cmp	r3, #0
 252 0024 FBD1     		bne	.L28
 253              		.loc 1 153 0
 254 0026 7047     		bx	lr
 255              	.L32:
 256              		.align	2
 257              	.L31:
 258 0028 00040E40 		.word	1074660352
 259              		.cfi_endproc
 260              	.LFE3:
 261              		.size	PMC_DisableAllPeripherals, .-PMC_DisableAllPeripherals
 262              		.section	.text.PMC_IsPeriphEnabled,"ax",%progbits
 263              		.align	2
 264              		.p2align 4,,15
 265              		.global	PMC_IsPeriphEnabled
 266              		.thumb
 267              		.thumb_func
 268              		.type	PMC_IsPeriphEnabled, %function
 269              	PMC_IsPeriphEnabled:
 270              	.LFB4:
 271              		.loc 1 161 0
 272              		.cfi_startproc
 273              		@ args = 0, pretend = 0, frame = 0
 274              		@ frame_needed = 0, uses_anonymous_args = 0
 275              	.LVL10:
 276              		.loc 1 162 0
 277 0000 2228     		cmp	r0, #34
 278              		.loc 1 161 0
 279 0002 08B5     		push	{r3, lr}
 280              		.cfi_def_cfa_offset 8
 281              		.cfi_offset 3, -8
 282              		.cfi_offset 14, -4
 283              		.loc 1 162 0
 284 0004 10D8     		bhi	.L38
 285              		.loc 1 164 0
ARM GAS  /tmp/ccNIiQWZ.s 			page 6


 286 0006 1F28     		cmp	r0, #31
 287              		.loc 1 166 0
 288 0008 0A4B     		ldr	r3, .L40
 289              		.loc 1 164 0
 290 000a 07D9     		bls	.L39
 291              		.loc 1 169 0
 292 000c 0122     		movs	r2, #1
 293 000e D3F80831 		ldr	r3, [r3, #264]
 294 0012 2038     		subs	r0, r0, #32
 295              	.LVL11:
 296 0014 02FA00F0 		lsl	r0, r2, r0
 297              	.LVL12:
 298 0018 1840     		ands	r0, r0, r3
 299              		.loc 1 171 0
 300 001a 08BD     		pop	{r3, pc}
 301              	.LVL13:
 302              	.L39:
 303              		.loc 1 166 0
 304 001c 0122     		movs	r2, #1
 305 001e 9B69     		ldr	r3, [r3, #24]
 306 0020 02FA00F0 		lsl	r0, r2, r0
 307              	.LVL14:
 308 0024 1840     		ands	r0, r0, r3
 309 0026 08BD     		pop	{r3, pc}
 310              	.LVL15:
 311              	.L38:
 312              		.loc 1 162 0 discriminator 1
 313 0028 0348     		ldr	r0, .L40+4
 314              	.LVL16:
 315 002a A221     		movs	r1, #162
 316 002c 034A     		ldr	r2, .L40+8
 317 002e 044B     		ldr	r3, .L40+12
 318 0030 FFF7FEFF 		bl	__assert_func
 319              	.LVL17:
 320              	.L41:
 321              		.align	2
 322              	.L40:
 323 0034 00040E40 		.word	1074660352
 324 0038 00000000 		.word	.LC0
 325 003c 00000000 		.word	.LANCHOR2
 326 0040 64000000 		.word	.LC1
 327              		.cfi_endproc
 328              	.LFE4:
 329              		.size	PMC_IsPeriphEnabled, .-PMC_IsPeriphEnabled
 330              		.section	.text.PmcMasterClockSelection,"ax",%progbits
 331              		.align	2
 332              		.p2align 4,,15
 333              		.global	PmcMasterClockSelection
 334              		.thumb
 335              		.thumb_func
 336              		.type	PmcMasterClockSelection, %function
 337              	PmcMasterClockSelection:
 338              	.LFB5:
 339              		.loc 1 175 0
 340              		.cfi_startproc
 341              		@ args = 0, pretend = 0, frame = 0
 342              		@ frame_needed = 0, uses_anonymous_args = 0
ARM GAS  /tmp/ccNIiQWZ.s 			page 7


 343              		@ link register save eliminated.
 344              	.LVL18:
 345 0000 30B4     		push	{r4, r5}
 346              		.cfi_def_cfa_offset 8
 347              		.cfi_offset 4, -8
 348              		.cfi_offset 5, -4
 349              		.loc 1 178 0
 350 0002 0328     		cmp	r0, #3
 351 0004 20D8     		bhi	.L42
 352 0006 DFE800F0 		tbb	[pc, r0]
 353              	.L45:
 354 000a 02       		.byte	(.L44-.L45)/2
 355 000b 02       		.byte	(.L44-.L45)/2
 356 000c 21       		.byte	(.L46-.L45)/2
 357 000d 21       		.byte	(.L46-.L45)/2
 358              		.p2align 1
 359              	.L44:
 360              		.loc 1 183 0
 361 000e 1F4D     		ldr	r5, .L65
 362              		.loc 1 176 0
 363 0010 0023     		movs	r3, #0
 364              		.loc 1 183 0
 365 0012 2A6B     		ldr	r2, [r5, #48]
 366              		.loc 1 186 0
 367 0014 2C46     		mov	r4, r5
 368              		.loc 1 183 0
 369 0016 22F00302 		bic	r2, r2, #3
 370 001a 1043     		orrs	r0, r0, r2
 371              	.LVL19:
 372 001c 2863     		str	r0, [r5, #48]
 373              		.loc 1 186 0
 374 001e 01E0     		b	.L48
 375              	.LVL20:
 376              	.L61:
 377              		.loc 1 186 0 is_stmt 0 discriminator 1
 378 0020 0133     		adds	r3, r3, #1
 379              	.LVL21:
 380 0022 02D0     		beq	.L47
 381              	.LVL22:
 382              	.L48:
 383              		.loc 1 186 0 discriminator 2
 384 0024 A26E     		ldr	r2, [r4, #104]
 385 0026 1507     		lsls	r5, r2, #28
 386 0028 FAD5     		bpl	.L61
 387              	.LVL23:
 388              	.L47:
 389              		.loc 1 189 0 is_stmt 1
 390 002a 184C     		ldr	r4, .L65
 391 002c 226B     		ldr	r2, [r4, #48]
 392              		.loc 1 192 0
 393 002e 2046     		mov	r0, r4
 394              		.loc 1 189 0
 395 0030 22F07002 		bic	r2, r2, #112
 396 0034 1143     		orrs	r1, r1, r2
 397              	.LVL24:
 398 0036 2163     		str	r1, [r4, #48]
 399              		.loc 1 192 0
ARM GAS  /tmp/ccNIiQWZ.s 			page 8


 400 0038 02E0     		b	.L50
 401              	.LVL25:
 402              	.L62:
 403              		.loc 1 192 0 is_stmt 0 discriminator 1
 404 003a 0133     		adds	r3, r3, #1
 405 003c 04D0     		beq	.L42
 406 003e 0B46     		mov	r3, r1
 407              	.LVL26:
 408              	.L50:
 409              		.loc 1 192 0 discriminator 2
 410 0040 826E     		ldr	r2, [r0, #104]
 411 0042 591C     		adds	r1, r3, #1
 412              	.LVL27:
 413 0044 1407     		lsls	r4, r2, #28
 414 0046 F8D5     		bpl	.L62
 415              	.LVL28:
 416              	.L42:
 417              		.loc 1 210 0 is_stmt 1
 418 0048 30BC     		pop	{r4, r5}
 419              		.cfi_remember_state
 420              		.cfi_restore 5
 421              		.cfi_restore 4
 422              		.cfi_def_cfa_offset 0
 423 004a 7047     		bx	lr
 424              	.LVL29:
 425              	.L46:
 426              		.cfi_restore_state
 427              		.loc 1 198 0
 428 004c 0F4D     		ldr	r5, .L65
 429              		.loc 1 176 0
 430 004e 0023     		movs	r3, #0
 431              		.loc 1 198 0
 432 0050 2A6B     		ldr	r2, [r5, #48]
 433              		.loc 1 201 0
 434 0052 2C46     		mov	r4, r5
 435              		.loc 1 198 0
 436 0054 22F07002 		bic	r2, r2, #112
 437 0058 1143     		orrs	r1, r1, r2
 438              	.LVL30:
 439 005a 2963     		str	r1, [r5, #48]
 440              		.loc 1 201 0
 441 005c 01E0     		b	.L53
 442              	.LVL31:
 443              	.L63:
 444              		.loc 1 201 0 is_stmt 0 discriminator 1
 445 005e 0133     		adds	r3, r3, #1
 446              	.LVL32:
 447 0060 02D0     		beq	.L52
 448              	.LVL33:
 449              	.L53:
 450              		.loc 1 201 0 discriminator 2
 451 0062 A26E     		ldr	r2, [r4, #104]
 452 0064 1107     		lsls	r1, r2, #28
 453 0066 FAD5     		bpl	.L63
 454              	.LVL34:
 455              	.L52:
 456              		.loc 1 204 0 is_stmt 1
ARM GAS  /tmp/ccNIiQWZ.s 			page 9


 457 0068 0849     		ldr	r1, .L65
 458 006a 0A6B     		ldr	r2, [r1, #48]
 459              		.loc 1 207 0
 460 006c 0C46     		mov	r4, r1
 461              		.loc 1 204 0
 462 006e 22F00302 		bic	r2, r2, #3
 463 0072 1043     		orrs	r0, r0, r2
 464              	.LVL35:
 465 0074 0863     		str	r0, [r1, #48]
 466              		.loc 1 207 0
 467 0076 02E0     		b	.L54
 468              	.LVL36:
 469              	.L64:
 470              		.loc 1 207 0 is_stmt 0 discriminator 1
 471 0078 0133     		adds	r3, r3, #1
 472 007a E5D0     		beq	.L42
 473 007c 0B46     		mov	r3, r1
 474              	.LVL37:
 475              	.L54:
 476              		.loc 1 207 0 discriminator 2
 477 007e A26E     		ldr	r2, [r4, #104]
 478 0080 591C     		adds	r1, r3, #1
 479              	.LVL38:
 480 0082 1207     		lsls	r2, r2, #28
 481 0084 F8D5     		bpl	.L64
 482              		.loc 1 210 0 is_stmt 1
 483 0086 30BC     		pop	{r4, r5}
 484              		.cfi_restore 4
 485              		.cfi_restore 5
 486              		.cfi_def_cfa_offset 0
 487 0088 7047     		bx	lr
 488              	.L66:
 489 008a 00BF     		.align	2
 490              	.L65:
 491 008c 00040E40 		.word	1074660352
 492              		.cfi_endproc
 493              	.LFE5:
 494              		.size	PmcMasterClockSelection, .-PmcMasterClockSelection
 495              		.section	.text.ConfigurePck,"ax",%progbits
 496              		.align	2
 497              		.p2align 4,,15
 498              		.global	ConfigurePck
 499              		.thumb
 500              		.thumb_func
 501              		.type	ConfigurePck, %function
 502              	ConfigurePck:
 503              	.LFB6:
 504              		.loc 1 213 0
 505              		.cfi_startproc
 506              		@ args = 0, pretend = 0, frame = 0
 507              		@ frame_needed = 0, uses_anonymous_args = 0
 508              		@ link register save eliminated.
 509              	.LVL39:
 510              		.loc 1 215 0
 511 0000 084B     		ldr	r3, .L72
 512              		.loc 1 213 0
 513 0002 30B4     		push	{r4, r5}
ARM GAS  /tmp/ccNIiQWZ.s 			page 10


 514              		.cfi_def_cfa_offset 8
 515              		.cfi_offset 4, -8
 516              		.cfi_offset 5, -4
 517              		.loc 1 223 0
 518 0004 1A46     		mov	r2, r3
 519              		.loc 1 215 0
 520 0006 084D     		ldr	r5, .L72+4
 521              		.loc 1 217 0
 522 0008 4FF48064 		mov	r4, #1024
 523              		.loc 1 219 0
 524 000c 0143     		orrs	r1, r1, r0
 525              	.LVL40:
 526              		.loc 1 215 0
 527 000e C3F8E450 		str	r5, [r3, #228]
 528              		.loc 1 217 0
 529 0012 5C60     		str	r4, [r3, #4]
 530              		.loc 1 219 0
 531 0014 9964     		str	r1, [r3, #72]
 532              		.loc 1 221 0
 533 0016 1C60     		str	r4, [r3]
 534              	.L68:
 535              		.loc 1 223 0 discriminator 1
 536 0018 936E     		ldr	r3, [r2, #104]
 537 001a 5B05     		lsls	r3, r3, #21
 538 001c FCD5     		bpl	.L68
 539              		.loc 1 224 0
 540 001e 30BC     		pop	{r4, r5}
 541              		.cfi_restore 5
 542              		.cfi_restore 4
 543              		.cfi_def_cfa_offset 0
 544 0020 7047     		bx	lr
 545              	.L73:
 546 0022 00BF     		.align	2
 547              	.L72:
 548 0024 00040E40 		.word	1074660352
 549 0028 00434D50 		.word	1347240704
 550              		.cfi_endproc
 551              	.LFE6:
 552              		.size	ConfigurePck, .-ConfigurePck
 553              		.section	.text.PmcMainClockSwitchMainOsc,"ax",%progbits
 554              		.align	2
 555              		.p2align 4,,15
 556              		.global	PmcMainClockSwitchMainOsc
 557              		.thumb
 558              		.thumb_func
 559              		.type	PmcMainClockSwitchMainOsc, %function
 560              	PmcMainClockSwitchMainOsc:
 561              	.LFB7:
 562              		.loc 1 228 0
 563              		.cfi_startproc
 564              		@ args = 0, pretend = 0, frame = 0
 565              		@ frame_needed = 0, uses_anonymous_args = 0
 566              		@ link register save eliminated.
 567              		.loc 1 232 0
 568 0000 054B     		ldr	r3, .L79
 569 0002 064A     		ldr	r2, .L79+4
 570              		.loc 1 235 0
ARM GAS  /tmp/ccNIiQWZ.s 			page 11


 571 0004 1946     		mov	r1, r3
 572              		.loc 1 232 0
 573 0006 1A62     		str	r2, [r3, #32]
 574              	.LVL41:
 575              		.loc 1 235 0
 576 0008 0023     		movs	r3, #0
 577 000a 01E0     		b	.L76
 578              	.LVL42:
 579              	.L78:
 580              		.loc 1 235 0 is_stmt 0 discriminator 2
 581 000c 013B     		subs	r3, r3, #1
 582              	.LVL43:
 583 000e 02D0     		beq	.L74
 584              	.LVL44:
 585              	.L76:
 586              		.loc 1 235 0 discriminator 3
 587 0010 8A6E     		ldr	r2, [r1, #104]
 588 0012 D203     		lsls	r2, r2, #15
 589 0014 FAD5     		bpl	.L78
 590              	.LVL45:
 591              	.L74:
 592 0016 7047     		bx	lr
 593              	.L80:
 594              		.align	2
 595              	.L79:
 596 0018 00040E40 		.word	1074660352
 597 001c 09083701 		.word	20383753
 598              		.cfi_endproc
 599              	.LFE7:
 600              		.size	PmcMainClockSwitchMainOsc, .-PmcMainClockSwitchMainOsc
 601              		.section	.text.PmcConfigurePllClock,"ax",%progbits
 602              		.align	2
 603              		.p2align 4,,15
 604              		.global	PmcConfigurePllClock
 605              		.thumb
 606              		.thumb_func
 607              		.type	PmcConfigurePllClock, %function
 608              	PmcConfigurePllClock:
 609              	.LFB8:
 610              		.loc 1 240 0 is_stmt 1
 611              		.cfi_startproc
 612              		@ args = 0, pretend = 0, frame = 0
 613              		@ frame_needed = 0, uses_anonymous_args = 0
 614              		@ link register save eliminated.
 615              		.loc 1 243 0
 616 0000 A0B9     		cbnz	r0, .L82
 617              		.loc 1 240 0
 618 0002 10B4     		push	{r4}
 619              		.cfi_def_cfa_offset 4
 620              		.cfi_offset 4, -4
 621              		.loc 1 246 0
 622 0004 144C     		ldr	r4, .L96
 623 0006 42F00053 		orr	r3, r2, #536870912
 624 000a 0A04     		lsls	r2, r1, #16
 625 000c 1440     		ands	r4, r4, r2
 626 000e 43F4F853 		orr	r3, r3, #7936
 627 0012 124A     		ldr	r2, .L96+4
ARM GAS  /tmp/ccNIiQWZ.s 			page 12


 628 0014 2343     		orrs	r3, r3, r4
 629 0016 9362     		str	r3, [r2, #40]
 630              		.loc 1 249 0
 631 0018 21B9     		cbnz	r1, .L83
 632              	.L81:
 633              		.loc 1 268 0
 634 001a 5DF8044B 		ldr	r4, [sp], #4
 635              		.cfi_restore 4
 636              		.cfi_def_cfa_offset 0
 637              	.L94:
 638 001e 7047     		bx	lr
 639              	.L95:
 640              		.cfi_def_cfa_offset 4
 641              		.cfi_offset 4, -4
 642              		.loc 1 252 0 discriminator 1
 643 0020 0138     		subs	r0, r0, #1
 644 0022 FAD0     		beq	.L81
 645              	.L83:
 646              		.loc 1 252 0 is_stmt 0 discriminator 2
 647 0024 936E     		ldr	r3, [r2, #104]
 648 0026 9907     		lsls	r1, r3, #30
 649 0028 F7D4     		bmi	.L81
 650 002a F9E7     		b	.L95
 651              	.L82:
 652              		.cfi_def_cfa_offset 0
 653              		.cfi_restore 4
 654              		.loc 1 256 0 is_stmt 1
 655 002c 0128     		cmp	r0, #1
 656 002e F6D1     		bne	.L94
 657              		.loc 1 259 0
 658 0030 094B     		ldr	r3, .L96
 659 0032 0804     		lsls	r0, r1, #16
 660 0034 42F00052 		orr	r2, r2, #536870912
 661 0038 0340     		ands	r3, r3, r0
 662 003a 42F4F852 		orr	r2, r2, #7936
 663 003e 0748     		ldr	r0, .L96+4
 664 0040 1A43     		orrs	r2, r2, r3
 665 0042 C262     		str	r2, [r0, #44]
 666              		.loc 1 262 0
 667 0044 0029     		cmp	r1, #0
 668 0046 EAD0     		beq	.L94
 669              		.loc 1 265 0
 670 0048 0146     		mov	r1, r0
 671 004a 0023     		movs	r3, #0
 672              	.L85:
 673              		.loc 1 265 0 is_stmt 0 discriminator 2
 674 004c 8A6E     		ldr	r2, [r1, #104]
 675 004e 5207     		lsls	r2, r2, #29
 676 0050 E5D4     		bmi	.L94
 677              		.loc 1 265 0 discriminator 1
 678 0052 013B     		subs	r3, r3, #1
 679 0054 FAD1     		bne	.L85
 680 0056 7047     		bx	lr
 681              	.L97:
 682              		.align	2
 683              	.L96:
 684 0058 0000FF07 		.word	134152192
ARM GAS  /tmp/ccNIiQWZ.s 			page 13


 685 005c 00040E40 		.word	1074660352
 686              		.cfi_endproc
 687              	.LFE8:
 688              		.size	PmcConfigurePllClock, .-PmcConfigurePllClock
 689              		.section	.rodata.__func__.4818,"a",%progbits
 690              		.align	2
 691              		.set	.LANCHOR2,. + 0
 692              		.type	__func__.4818, %object
 693              		.size	__func__.4818, 20
 694              	__func__.4818:
 695 0000 504D435F 		.ascii	"PMC_IsPeriphEnabled\000"
 695      49735065 
 695      72697068 
 695      456E6162 
 695      6C656400 
 696              		.section	.rodata.__func__.4792,"a",%progbits
 697              		.align	2
 698              		.set	.LANCHOR0,. + 0
 699              		.type	__func__.4792, %object
 700              		.size	__func__.4792, 21
 701              	__func__.4792:
 702 0000 504D435F 		.ascii	"PMC_EnablePeripheral\000"
 702      456E6162 
 702      6C655065 
 702      72697068 
 702      6572616C 
 703              		.section	.rodata.__func__.4796,"a",%progbits
 704              		.align	2
 705              		.set	.LANCHOR1,. + 0
 706              		.type	__func__.4796, %object
 707              		.size	__func__.4796, 22
 708              	__func__.4796:
 709 0000 504D435F 		.ascii	"PMC_DisablePeripheral\000"
 709      44697361 
 709      626C6550 
 709      65726970 
 709      68657261 
 710              		.section	.rodata.str1.4,"aMS",%progbits,1
 711              		.align	2
 712              	.LC0:
 713 0000 2F686F6D 		.ascii	"/home/nicolas/Desktop/Embebidos/stamp_repo/files/co"
 713      652F6E69 
 713      636F6C61 
 713      732F4465 
 713      736B746F 
 714 0033 64652F65 		.ascii	"de/ext/ChibiOS/os/hal/platforms/AT91SAM3S/pmc.c\000"
 714      78742F43 
 714      68696269 
 714      4F532F6F 
 714      732F6861 
 715 0063 00       		.space	1
 716              	.LC1:
 717 0064 64774964 		.ascii	"dwId < 35\000"
 717      203C2033 
 717      3500
 718              		.text
 719              	.Letext0:
ARM GAS  /tmp/ccNIiQWZ.s 			page 14


 720              		.file 2 "/opt/gcc-arm-none-eabi-4_9-2015q3/arm-none-eabi/include/machine/_default_types.h"
 721              		.file 3 "/opt/gcc-arm-none-eabi-4_9-2015q3/arm-none-eabi/include/sys/_stdint.h"
 722              		.file 4 "/home/nicolas/Desktop/Embebidos/stamp_repo/files/code/ext/ChibiOS/os/hal/platforms/AT91SA
 723              		.file 5 "/opt/gcc-arm-none-eabi-4_9-2015q3/arm-none-eabi/include/assert.h"
 724              		.section	.debug_info,"",%progbits
 725              	.Ldebug_info0:
 726 0000 A0050000 		.4byte	0x5a0
 727 0004 0400     		.2byte	0x4
 728 0006 00000000 		.4byte	.Ldebug_abbrev0
 729 000a 04       		.byte	0x4
 730 000b 01       		.uleb128 0x1
 731 000c 7A010000 		.4byte	.LASF68
 732 0010 01       		.byte	0x1
 733 0011 39030000 		.4byte	.LASF69
 734 0015 00000000 		.4byte	.Ldebug_ranges0+0
 735 0019 00000000 		.4byte	0
 736 001d 00000000 		.4byte	.Ldebug_line0
 737 0021 02       		.uleb128 0x2
 738 0022 01       		.byte	0x1
 739 0023 06       		.byte	0x6
 740 0024 9F020000 		.4byte	.LASF0
 741 0028 03       		.uleb128 0x3
 742 0029 58010000 		.4byte	.LASF5
 743 002d 02       		.byte	0x2
 744 002e 1D       		.byte	0x1d
 745 002f 33000000 		.4byte	0x33
 746 0033 02       		.uleb128 0x2
 747 0034 01       		.byte	0x1
 748 0035 08       		.byte	0x8
 749 0036 6D020000 		.4byte	.LASF1
 750 003a 02       		.uleb128 0x2
 751 003b 02       		.byte	0x2
 752 003c 05       		.byte	0x5
 753 003d 31000000 		.4byte	.LASF2
 754 0041 02       		.uleb128 0x2
 755 0042 02       		.byte	0x2
 756 0043 07       		.byte	0x7
 757 0044 0C030000 		.4byte	.LASF3
 758 0048 02       		.uleb128 0x2
 759 0049 04       		.byte	0x4
 760 004a 05       		.byte	0x5
 761 004b 4F010000 		.4byte	.LASF4
 762 004f 03       		.uleb128 0x3
 763 0050 69000000 		.4byte	.LASF6
 764 0054 02       		.byte	0x2
 765 0055 41       		.byte	0x41
 766 0056 5A000000 		.4byte	0x5a
 767 005a 02       		.uleb128 0x2
 768 005b 04       		.byte	0x4
 769 005c 07       		.byte	0x7
 770 005d DB030000 		.4byte	.LASF7
 771 0061 02       		.uleb128 0x2
 772 0062 08       		.byte	0x8
 773 0063 05       		.byte	0x5
 774 0064 24010000 		.4byte	.LASF8
 775 0068 02       		.uleb128 0x2
 776 0069 08       		.byte	0x8
ARM GAS  /tmp/ccNIiQWZ.s 			page 15


 777 006a 07       		.byte	0x7
 778 006b AB020000 		.4byte	.LASF9
 779 006f 04       		.uleb128 0x4
 780 0070 04       		.byte	0x4
 781 0071 05       		.byte	0x5
 782 0072 696E7400 		.ascii	"int\000"
 783 0076 02       		.uleb128 0x2
 784 0077 04       		.byte	0x4
 785 0078 07       		.byte	0x7
 786 0079 CB020000 		.4byte	.LASF10
 787 007d 03       		.uleb128 0x3
 788 007e AB000000 		.4byte	.LASF11
 789 0082 03       		.byte	0x3
 790 0083 14       		.byte	0x14
 791 0084 28000000 		.4byte	0x28
 792 0088 03       		.uleb128 0x3
 793 0089 C2020000 		.4byte	.LASF12
 794 008d 03       		.byte	0x3
 795 008e 20       		.byte	0x20
 796 008f 4F000000 		.4byte	0x4f
 797 0093 03       		.uleb128 0x3
 798 0094 67020000 		.4byte	.LASF13
 799 0098 04       		.byte	0x4
 800 0099 35       		.byte	0x35
 801 009a 9E000000 		.4byte	0x9e
 802 009e 05       		.uleb128 0x5
 803 009f A3000000 		.4byte	0xa3
 804 00a3 06       		.uleb128 0x6
 805 00a4 88000000 		.4byte	0x88
 806 00a8 03       		.uleb128 0x3
 807 00a9 88000000 		.4byte	.LASF14
 808 00ad 04       		.byte	0x4
 809 00ae 39       		.byte	0x39
 810 00af B3000000 		.4byte	0xb3
 811 00b3 06       		.uleb128 0x6
 812 00b4 88000000 		.4byte	0x88
 813 00b8 03       		.uleb128 0x3
 814 00b9 99020000 		.4byte	.LASF15
 815 00bd 04       		.byte	0x4
 816 00be 3A       		.byte	0x3a
 817 00bf B3000000 		.4byte	0xb3
 818 00c3 02       		.uleb128 0x2
 819 00c4 04       		.byte	0x4
 820 00c5 07       		.byte	0x7
 821 00c6 3B000000 		.4byte	.LASF16
 822 00ca 07       		.uleb128 0x7
 823 00cb B8000000 		.4byte	0xb8
 824 00cf DA000000 		.4byte	0xda
 825 00d3 08       		.uleb128 0x8
 826 00d4 C3000000 		.4byte	0xc3
 827 00d8 00       		.byte	0
 828 00d9 00       		.byte	0
 829 00da 07       		.uleb128 0x7
 830 00db B8000000 		.4byte	0xb8
 831 00df EA000000 		.4byte	0xea
 832 00e3 08       		.uleb128 0x8
 833 00e4 C3000000 		.4byte	0xc3
ARM GAS  /tmp/ccNIiQWZ.s 			page 16


 834 00e8 04       		.byte	0x4
 835 00e9 00       		.byte	0
 836 00ea 09       		.uleb128 0x9
 837 00eb 1401     		.2byte	0x114
 838 00ed 04       		.byte	0x4
 839 00ee 3F0D     		.2byte	0xd3f
 840 00f0 B4020000 		.4byte	0x2b4
 841 00f4 0A       		.uleb128 0xa
 842 00f5 B2030000 		.4byte	.LASF17
 843 00f9 04       		.byte	0x4
 844 00fa 400D     		.2byte	0xd40
 845 00fc A8000000 		.4byte	0xa8
 846 0100 00       		.byte	0
 847 0101 0A       		.uleb128 0xa
 848 0102 53040000 		.4byte	.LASF18
 849 0106 04       		.byte	0x4
 850 0107 410D     		.2byte	0xd41
 851 0109 A8000000 		.4byte	0xa8
 852 010d 04       		.byte	0x4
 853 010e 0A       		.uleb128 0xa
 854 010f 1A000000 		.4byte	.LASF19
 855 0113 04       		.byte	0x4
 856 0114 420D     		.2byte	0xd42
 857 0116 93000000 		.4byte	0x93
 858 011a 08       		.byte	0x8
 859 011b 0A       		.uleb128 0xa
 860 011c 97000000 		.4byte	.LASF20
 861 0120 04       		.byte	0x4
 862 0121 430D     		.2byte	0xd43
 863 0123 B4020000 		.4byte	0x2b4
 864 0127 0C       		.byte	0xc
 865 0128 0A       		.uleb128 0xa
 866 0129 74000000 		.4byte	.LASF21
 867 012d 04       		.byte	0x4
 868 012e 440D     		.2byte	0xd44
 869 0130 A8000000 		.4byte	0xa8
 870 0134 10       		.byte	0x10
 871 0135 0A       		.uleb128 0xa
 872 0136 08010000 		.4byte	.LASF22
 873 013a 04       		.byte	0x4
 874 013b 450D     		.2byte	0xd45
 875 013d A8000000 		.4byte	0xa8
 876 0141 14       		.byte	0x14
 877 0142 0A       		.uleb128 0xa
 878 0143 D8020000 		.4byte	.LASF23
 879 0147 04       		.byte	0x4
 880 0148 460D     		.2byte	0xd46
 881 014a 93000000 		.4byte	0x93
 882 014e 18       		.byte	0x18
 883 014f 0A       		.uleb128 0xa
 884 0150 A1000000 		.4byte	.LASF24
 885 0154 04       		.byte	0x4
 886 0155 470D     		.2byte	0xd47
 887 0157 B9020000 		.4byte	0x2b9
 888 015b 1C       		.byte	0x1c
 889 015c 0A       		.uleb128 0xa
 890 015d E5000000 		.4byte	.LASF25
ARM GAS  /tmp/ccNIiQWZ.s 			page 17


 891 0161 04       		.byte	0x4
 892 0162 480D     		.2byte	0xd48
 893 0164 B8000000 		.4byte	0xb8
 894 0168 20       		.byte	0x20
 895 0169 0A       		.uleb128 0xa
 896 016a 0C040000 		.4byte	.LASF26
 897 016e 04       		.byte	0x4
 898 016f 490D     		.2byte	0xd49
 899 0171 93000000 		.4byte	0x93
 900 0175 24       		.byte	0x24
 901 0176 0A       		.uleb128 0xa
 902 0177 A7030000 		.4byte	.LASF27
 903 017b 04       		.byte	0x4
 904 017c 4A0D     		.2byte	0xd4a
 905 017e B8000000 		.4byte	0xb8
 906 0182 28       		.byte	0x28
 907 0183 0A       		.uleb128 0xa
 908 0184 5C040000 		.4byte	.LASF28
 909 0188 04       		.byte	0x4
 910 0189 4B0D     		.2byte	0xd4b
 911 018b B8000000 		.4byte	0xb8
 912 018f 2C       		.byte	0x2c
 913 0190 0A       		.uleb128 0xa
 914 0191 32010000 		.4byte	.LASF29
 915 0195 04       		.byte	0x4
 916 0196 4C0D     		.2byte	0xd4c
 917 0198 B8000000 		.4byte	0xb8
 918 019c 30       		.byte	0x30
 919 019d 0A       		.uleb128 0xa
 920 019e ED030000 		.4byte	.LASF30
 921 01a2 04       		.byte	0x4
 922 01a3 4D0D     		.2byte	0xd4d
 923 01a5 BE020000 		.4byte	0x2be
 924 01a9 34       		.byte	0x34
 925 01aa 0A       		.uleb128 0xa
 926 01ab FB020000 		.4byte	.LASF31
 927 01af 04       		.byte	0x4
 928 01b0 4E0D     		.2byte	0xd4e
 929 01b2 B8000000 		.4byte	0xb8
 930 01b6 38       		.byte	0x38
 931 01b7 0A       		.uleb128 0xa
 932 01b8 B3000000 		.4byte	.LASF32
 933 01bc 04       		.byte	0x4
 934 01bd 4F0D     		.2byte	0xd4f
 935 01bf C3020000 		.4byte	0x2c3
 936 01c3 3C       		.byte	0x3c
 937 01c4 0A       		.uleb128 0xa
 938 01c5 4B040000 		.4byte	.LASF33
 939 01c9 04       		.byte	0x4
 940 01ca 500D     		.2byte	0xd50
 941 01cc D8020000 		.4byte	0x2d8
 942 01d0 40       		.byte	0x40
 943 01d1 0A       		.uleb128 0xa
 944 01d2 BD000000 		.4byte	.LASF34
 945 01d6 04       		.byte	0x4
 946 01d7 510D     		.2byte	0xd51
 947 01d9 DD020000 		.4byte	0x2dd
ARM GAS  /tmp/ccNIiQWZ.s 			page 18


 948 01dd 4C       		.byte	0x4c
 949 01de 0A       		.uleb128 0xa
 950 01df 1C010000 		.4byte	.LASF35
 951 01e3 04       		.byte	0x4
 952 01e4 520D     		.2byte	0xd52
 953 01e6 A8000000 		.4byte	0xa8
 954 01ea 60       		.byte	0x60
 955 01eb 0A       		.uleb128 0xa
 956 01ec 12000000 		.4byte	.LASF36
 957 01f0 04       		.byte	0x4
 958 01f1 530D     		.2byte	0xd53
 959 01f3 A8000000 		.4byte	0xa8
 960 01f7 64       		.byte	0x64
 961 01f8 0A       		.uleb128 0xa
 962 01f9 1F030000 		.4byte	.LASF37
 963 01fd 04       		.byte	0x4
 964 01fe 540D     		.2byte	0xd54
 965 0200 93000000 		.4byte	0x93
 966 0204 68       		.byte	0x68
 967 0205 0A       		.uleb128 0xa
 968 0206 5F020000 		.4byte	.LASF38
 969 020a 04       		.byte	0x4
 970 020b 550D     		.2byte	0xd55
 971 020d 93000000 		.4byte	0x93
 972 0211 6C       		.byte	0x6c
 973 0212 0A       		.uleb128 0xa
 974 0213 8E000000 		.4byte	.LASF39
 975 0217 04       		.byte	0x4
 976 0218 560D     		.2byte	0xd56
 977 021a B8000000 		.4byte	0xb8
 978 021e 70       		.byte	0x70
 979 021f 0A       		.uleb128 0xa
 980 0220 09000000 		.4byte	.LASF40
 981 0224 04       		.byte	0x4
 982 0225 570D     		.2byte	0xd57
 983 0227 B8000000 		.4byte	0xb8
 984 022b 74       		.byte	0x74
 985 022c 0A       		.uleb128 0xa
 986 022d 00000000 		.4byte	.LASF41
 987 0231 04       		.byte	0x4
 988 0232 580D     		.2byte	0xd58
 989 0234 A8000000 		.4byte	0xa8
 990 0238 78       		.byte	0x78
 991 0239 0A       		.uleb128 0xa
 992 023a C7000000 		.4byte	.LASF42
 993 023e 04       		.byte	0x4
 994 023f 590D     		.2byte	0xd59
 995 0241 F2020000 		.4byte	0x2f2
 996 0245 7C       		.byte	0x7c
 997 0246 0A       		.uleb128 0xa
 998 0247 7B020000 		.4byte	.LASF43
 999 024b 04       		.byte	0x4
 1000 024c 5A0D     		.2byte	0xd5a
 1001 024e B8000000 		.4byte	0xb8
 1002 0252 E4       		.byte	0xe4
 1003 0253 0A       		.uleb128 0xa
 1004 0254 F2020000 		.4byte	.LASF44
ARM GAS  /tmp/ccNIiQWZ.s 			page 19


 1005 0258 04       		.byte	0x4
 1006 0259 5B0D     		.2byte	0xd5b
 1007 025b 93000000 		.4byte	0x93
 1008 025f E8       		.byte	0xe8
 1009 0260 0A       		.uleb128 0xa
 1010 0261 D1000000 		.4byte	.LASF45
 1011 0265 04       		.byte	0x4
 1012 0266 5C0D     		.2byte	0xd5c
 1013 0268 F7020000 		.4byte	0x2f7
 1014 026c EC       		.byte	0xec
 1015 026d 0B       		.uleb128 0xb
 1016 026e 7E000000 		.4byte	.LASF46
 1017 0272 04       		.byte	0x4
 1018 0273 5D0D     		.2byte	0xd5d
 1019 0275 A8000000 		.4byte	0xa8
 1020 0279 0001     		.2byte	0x100
 1021 027b 0B       		.uleb128 0xb
 1022 027c 12010000 		.4byte	.LASF47
 1023 0280 04       		.byte	0x4
 1024 0281 5E0D     		.2byte	0xd5e
 1025 0283 A8000000 		.4byte	0xa8
 1026 0287 0401     		.2byte	0x104
 1027 0289 0B       		.uleb128 0xb
 1028 028a E2020000 		.4byte	.LASF48
 1029 028e 04       		.byte	0x4
 1030 028f 5F0D     		.2byte	0xd5f
 1031 0291 93000000 		.4byte	0x93
 1032 0295 0801     		.2byte	0x108
 1033 0297 0B       		.uleb128 0xb
 1034 0298 DB000000 		.4byte	.LASF49
 1035 029c 04       		.byte	0x4
 1036 029d 600D     		.2byte	0xd60
 1037 029f FC020000 		.4byte	0x2fc
 1038 02a3 0C01     		.2byte	0x10c
 1039 02a5 0B       		.uleb128 0xb
 1040 02a6 23000000 		.4byte	.LASF50
 1041 02aa 04       		.byte	0x4
 1042 02ab 610D     		.2byte	0xd61
 1043 02ad B8000000 		.4byte	0xb8
 1044 02b1 1001     		.2byte	0x110
 1045 02b3 00       		.byte	0
 1046 02b4 06       		.uleb128 0x6
 1047 02b5 CA000000 		.4byte	0xca
 1048 02b9 06       		.uleb128 0x6
 1049 02ba CA000000 		.4byte	0xca
 1050 02be 06       		.uleb128 0x6
 1051 02bf CA000000 		.4byte	0xca
 1052 02c3 06       		.uleb128 0x6
 1053 02c4 CA000000 		.4byte	0xca
 1054 02c8 07       		.uleb128 0x7
 1055 02c9 B8000000 		.4byte	0xb8
 1056 02cd D8020000 		.4byte	0x2d8
 1057 02d1 08       		.uleb128 0x8
 1058 02d2 C3000000 		.4byte	0xc3
 1059 02d6 02       		.byte	0x2
 1060 02d7 00       		.byte	0
 1061 02d8 06       		.uleb128 0x6
ARM GAS  /tmp/ccNIiQWZ.s 			page 20


 1062 02d9 C8020000 		.4byte	0x2c8
 1063 02dd 06       		.uleb128 0x6
 1064 02de DA000000 		.4byte	0xda
 1065 02e2 07       		.uleb128 0x7
 1066 02e3 B8000000 		.4byte	0xb8
 1067 02e7 F2020000 		.4byte	0x2f2
 1068 02eb 08       		.uleb128 0x8
 1069 02ec C3000000 		.4byte	0xc3
 1070 02f0 19       		.byte	0x19
 1071 02f1 00       		.byte	0
 1072 02f2 06       		.uleb128 0x6
 1073 02f3 E2020000 		.4byte	0x2e2
 1074 02f7 06       		.uleb128 0x6
 1075 02f8 DA000000 		.4byte	0xda
 1076 02fc 06       		.uleb128 0x6
 1077 02fd CA000000 		.4byte	0xca
 1078 0301 0C       		.uleb128 0xc
 1079 0302 506D6300 		.ascii	"Pmc\000"
 1080 0306 04       		.byte	0x4
 1081 0307 620D     		.2byte	0xd62
 1082 0309 EA000000 		.4byte	0xea
 1083 030d 0D       		.uleb128 0xd
 1084 030e F7030000 		.4byte	.LASF52
 1085 0312 01       		.byte	0x1
 1086 0313 3D       		.byte	0x3d
 1087 0314 00000000 		.4byte	.LFB0
 1088 0318 50000000 		.4byte	.LFE0-.LFB0
 1089 031c 01       		.uleb128 0x1
 1090 031d 9C       		.byte	0x9c
 1091 031e 6C030000 		.4byte	0x36c
 1092 0322 0E       		.uleb128 0xe
 1093 0323 A2030000 		.4byte	.LASF54
 1094 0327 01       		.byte	0x1
 1095 0328 3D       		.byte	0x3d
 1096 0329 88000000 		.4byte	0x88
 1097 032d 00000000 		.4byte	.LLST0
 1098 0331 0F       		.uleb128 0xf
 1099 0332 03030000 		.4byte	.LASF55
 1100 0336 83030000 		.4byte	0x383
 1101 033a 05       		.uleb128 0x5
 1102 033b 03       		.byte	0x3
 1103 033c 00000000 		.4byte	__func__.4792
 1104 0340 10       		.uleb128 0x10
 1105 0341 3E000000 		.4byte	.LVL4
 1106 0345 78050000 		.4byte	0x578
 1107 0349 11       		.uleb128 0x11
 1108 034a 01       		.uleb128 0x1
 1109 034b 53       		.byte	0x53
 1110 034c 05       		.uleb128 0x5
 1111 034d 03       		.byte	0x3
 1112 034e 64000000 		.4byte	.LC1
 1113 0352 11       		.uleb128 0x11
 1114 0353 01       		.uleb128 0x1
 1115 0354 52       		.byte	0x52
 1116 0355 05       		.uleb128 0x5
 1117 0356 03       		.byte	0x3
 1118 0357 00000000 		.4byte	.LANCHOR0
ARM GAS  /tmp/ccNIiQWZ.s 			page 21


 1119 035b 11       		.uleb128 0x11
 1120 035c 01       		.uleb128 0x1
 1121 035d 51       		.byte	0x51
 1122 035e 02       		.uleb128 0x2
 1123 035f 08       		.byte	0x8
 1124 0360 3F       		.byte	0x3f
 1125 0361 11       		.uleb128 0x11
 1126 0362 01       		.uleb128 0x1
 1127 0363 50       		.byte	0x50
 1128 0364 05       		.uleb128 0x5
 1129 0365 03       		.byte	0x3
 1130 0366 00000000 		.4byte	.LC0
 1131 036a 00       		.byte	0
 1132 036b 00       		.byte	0
 1133 036c 07       		.uleb128 0x7
 1134 036d 7C030000 		.4byte	0x37c
 1135 0371 7C030000 		.4byte	0x37c
 1136 0375 08       		.uleb128 0x8
 1137 0376 C3000000 		.4byte	0xc3
 1138 037a 14       		.byte	0x14
 1139 037b 00       		.byte	0
 1140 037c 02       		.uleb128 0x2
 1141 037d 01       		.byte	0x1
 1142 037e 08       		.byte	0x8
 1143 037f 26030000 		.4byte	.LASF51
 1144 0383 05       		.uleb128 0x5
 1145 0384 6C030000 		.4byte	0x36c
 1146 0388 0D       		.uleb128 0xd
 1147 0389 BB030000 		.4byte	.LASF53
 1148 038d 01       		.byte	0x1
 1149 038e 62       		.byte	0x62
 1150 038f 00000000 		.4byte	.LFB1
 1151 0393 50000000 		.4byte	.LFE1-.LFB1
 1152 0397 01       		.uleb128 0x1
 1153 0398 9C       		.byte	0x9c
 1154 0399 E7030000 		.4byte	0x3e7
 1155 039d 0E       		.uleb128 0xe
 1156 039e A2030000 		.4byte	.LASF54
 1157 03a2 01       		.byte	0x1
 1158 03a3 62       		.byte	0x62
 1159 03a4 88000000 		.4byte	0x88
 1160 03a8 39000000 		.4byte	.LLST1
 1161 03ac 0F       		.uleb128 0xf
 1162 03ad 03030000 		.4byte	.LASF55
 1163 03b1 F7030000 		.4byte	0x3f7
 1164 03b5 05       		.uleb128 0x5
 1165 03b6 03       		.byte	0x3
 1166 03b7 00000000 		.4byte	__func__.4796
 1167 03bb 10       		.uleb128 0x10
 1168 03bc 3E000000 		.4byte	.LVL9
 1169 03c0 78050000 		.4byte	0x578
 1170 03c4 11       		.uleb128 0x11
 1171 03c5 01       		.uleb128 0x1
 1172 03c6 53       		.byte	0x53
 1173 03c7 05       		.uleb128 0x5
 1174 03c8 03       		.byte	0x3
 1175 03c9 64000000 		.4byte	.LC1
ARM GAS  /tmp/ccNIiQWZ.s 			page 22


 1176 03cd 11       		.uleb128 0x11
 1177 03ce 01       		.uleb128 0x1
 1178 03cf 52       		.byte	0x52
 1179 03d0 05       		.uleb128 0x5
 1180 03d1 03       		.byte	0x3
 1181 03d2 00000000 		.4byte	.LANCHOR1
 1182 03d6 11       		.uleb128 0x11
 1183 03d7 01       		.uleb128 0x1
 1184 03d8 51       		.byte	0x51
 1185 03d9 02       		.uleb128 0x2
 1186 03da 08       		.byte	0x8
 1187 03db 64       		.byte	0x64
 1188 03dc 11       		.uleb128 0x11
 1189 03dd 01       		.uleb128 0x1
 1190 03de 50       		.byte	0x50
 1191 03df 05       		.uleb128 0x5
 1192 03e0 03       		.byte	0x3
 1193 03e1 00000000 		.4byte	.LC0
 1194 03e5 00       		.byte	0
 1195 03e6 00       		.byte	0
 1196 03e7 07       		.uleb128 0x7
 1197 03e8 7C030000 		.4byte	0x37c
 1198 03ec F7030000 		.4byte	0x3f7
 1199 03f0 08       		.uleb128 0x8
 1200 03f1 C3000000 		.4byte	0xc3
 1201 03f5 15       		.byte	0x15
 1202 03f6 00       		.byte	0
 1203 03f7 05       		.uleb128 0x5
 1204 03f8 E7030000 		.4byte	0x3e7
 1205 03fc 12       		.uleb128 0x12
 1206 03fd 50000000 		.4byte	.LASF56
 1207 0401 01       		.byte	0x1
 1208 0402 82       		.byte	0x82
 1209 0403 00000000 		.4byte	.LFB2
 1210 0407 30000000 		.4byte	.LFE2-.LFB2
 1211 040b 01       		.uleb128 0x1
 1212 040c 9C       		.byte	0x9c
 1213 040d 12       		.uleb128 0x12
 1214 040e EE000000 		.4byte	.LASF57
 1215 0412 01       		.byte	0x1
 1216 0413 90       		.byte	0x90
 1217 0414 00000000 		.4byte	.LFB3
 1218 0418 2C000000 		.4byte	.LFE3-.LFB3
 1219 041c 01       		.uleb128 0x1
 1220 041d 9C       		.byte	0x9c
 1221 041e 13       		.uleb128 0x13
 1222 041f 3B010000 		.4byte	.LASF70
 1223 0423 01       		.byte	0x1
 1224 0424 A0       		.byte	0xa0
 1225 0425 88000000 		.4byte	0x88
 1226 0429 00000000 		.4byte	.LFB4
 1227 042d 44000000 		.4byte	.LFE4-.LFB4
 1228 0431 01       		.uleb128 0x1
 1229 0432 9C       		.byte	0x9c
 1230 0433 81040000 		.4byte	0x481
 1231 0437 0E       		.uleb128 0xe
 1232 0438 A2030000 		.4byte	.LASF54
ARM GAS  /tmp/ccNIiQWZ.s 			page 23


 1233 043c 01       		.byte	0x1
 1234 043d A0       		.byte	0xa0
 1235 043e 88000000 		.4byte	0x88
 1236 0442 72000000 		.4byte	.LLST2
 1237 0446 0F       		.uleb128 0xf
 1238 0447 03030000 		.4byte	.LASF55
 1239 044b 91040000 		.4byte	0x491
 1240 044f 05       		.uleb128 0x5
 1241 0450 03       		.byte	0x3
 1242 0451 00000000 		.4byte	__func__.4818
 1243 0455 10       		.uleb128 0x10
 1244 0456 34000000 		.4byte	.LVL17
 1245 045a 78050000 		.4byte	0x578
 1246 045e 11       		.uleb128 0x11
 1247 045f 01       		.uleb128 0x1
 1248 0460 53       		.byte	0x53
 1249 0461 05       		.uleb128 0x5
 1250 0462 03       		.byte	0x3
 1251 0463 64000000 		.4byte	.LC1
 1252 0467 11       		.uleb128 0x11
 1253 0468 01       		.uleb128 0x1
 1254 0469 52       		.byte	0x52
 1255 046a 05       		.uleb128 0x5
 1256 046b 03       		.byte	0x3
 1257 046c 00000000 		.4byte	.LANCHOR2
 1258 0470 11       		.uleb128 0x11
 1259 0471 01       		.uleb128 0x1
 1260 0472 51       		.byte	0x51
 1261 0473 02       		.uleb128 0x2
 1262 0474 08       		.byte	0x8
 1263 0475 A2       		.byte	0xa2
 1264 0476 11       		.uleb128 0x11
 1265 0477 01       		.uleb128 0x1
 1266 0478 50       		.byte	0x50
 1267 0479 05       		.uleb128 0x5
 1268 047a 03       		.byte	0x3
 1269 047b 00000000 		.4byte	.LC0
 1270 047f 00       		.byte	0
 1271 0480 00       		.byte	0
 1272 0481 07       		.uleb128 0x7
 1273 0482 7C030000 		.4byte	0x37c
 1274 0486 91040000 		.4byte	0x491
 1275 048a 08       		.uleb128 0x8
 1276 048b C3000000 		.4byte	0xc3
 1277 048f 13       		.byte	0x13
 1278 0490 00       		.byte	0
 1279 0491 05       		.uleb128 0x5
 1280 0492 81040000 		.4byte	0x481
 1281 0496 0D       		.uleb128 0xd
 1282 0497 62010000 		.4byte	.LASF58
 1283 049b 01       		.byte	0x1
 1284 049c AE       		.byte	0xae
 1285 049d 00000000 		.4byte	.LFB5
 1286 04a1 90000000 		.4byte	.LFE5-.LFB5
 1287 04a5 01       		.uleb128 0x1
 1288 04a6 9C       		.byte	0x9c
 1289 04a7 D9040000 		.4byte	0x4d9
ARM GAS  /tmp/ccNIiQWZ.s 			page 24


 1290 04ab 0E       		.uleb128 0xe
 1291 04ac 2B030000 		.4byte	.LASF59
 1292 04b0 01       		.byte	0x1
 1293 04b1 AE       		.byte	0xae
 1294 04b2 88000000 		.4byte	0x88
 1295 04b6 D2000000 		.4byte	.LLST3
 1296 04ba 0E       		.uleb128 0xe
 1297 04bb 44000000 		.4byte	.LASF60
 1298 04bf 01       		.byte	0x1
 1299 04c0 AE       		.byte	0xae
 1300 04c1 88000000 		.4byte	0x88
 1301 04c5 0C010000 		.4byte	.LLST4
 1302 04c9 14       		.uleb128 0x14
 1303 04ca D1030000 		.4byte	.LASF63
 1304 04ce 01       		.byte	0x1
 1305 04cf B0       		.byte	0xb0
 1306 04d0 88000000 		.4byte	0x88
 1307 04d4 46010000 		.4byte	.LLST5
 1308 04d8 00       		.byte	0
 1309 04d9 0D       		.uleb128 0xd
 1310 04da 30040000 		.4byte	.LASF61
 1311 04de 01       		.byte	0x1
 1312 04df D4       		.byte	0xd4
 1313 04e0 00000000 		.4byte	.LFB6
 1314 04e4 2C000000 		.4byte	.LFE6-.LFB6
 1315 04e8 01       		.uleb128 0x1
 1316 04e9 9C       		.byte	0x9c
 1317 04ea 0B050000 		.4byte	0x50b
 1318 04ee 15       		.uleb128 0x15
 1319 04ef 2B030000 		.4byte	.LASF59
 1320 04f3 01       		.byte	0x1
 1321 04f4 D4       		.byte	0xd4
 1322 04f5 88000000 		.4byte	0x88
 1323 04f9 01       		.uleb128 0x1
 1324 04fa 50       		.byte	0x50
 1325 04fb 0E       		.uleb128 0xe
 1326 04fc 44000000 		.4byte	.LASF60
 1327 0500 01       		.byte	0x1
 1328 0501 D4       		.byte	0xd4
 1329 0502 88000000 		.4byte	0x88
 1330 0506 08020000 		.4byte	.LLST6
 1331 050a 00       		.byte	0
 1332 050b 0D       		.uleb128 0xd
 1333 050c 16040000 		.4byte	.LASF62
 1334 0510 01       		.byte	0x1
 1335 0511 E3       		.byte	0xe3
 1336 0512 00000000 		.4byte	.LFB7
 1337 0516 20000000 		.4byte	.LFE7-.LFB7
 1338 051a 01       		.uleb128 0x1
 1339 051b 9C       		.byte	0x9c
 1340 051c 30050000 		.4byte	0x530
 1341 0520 14       		.uleb128 0x14
 1342 0521 D1030000 		.4byte	.LASF63
 1343 0525 01       		.byte	0x1
 1344 0526 E5       		.byte	0xe5
 1345 0527 88000000 		.4byte	0x88
 1346 052b 29020000 		.4byte	.LLST7
ARM GAS  /tmp/ccNIiQWZ.s 			page 25


 1347 052f 00       		.byte	0
 1348 0530 0D       		.uleb128 0xd
 1349 0531 84020000 		.4byte	.LASF64
 1350 0535 01       		.byte	0x1
 1351 0536 EF       		.byte	0xef
 1352 0537 00000000 		.4byte	.LFB8
 1353 053b 60000000 		.4byte	.LFE8-.LFB8
 1354 053f 01       		.uleb128 0x1
 1355 0540 9C       		.byte	0x9c
 1356 0541 78050000 		.4byte	0x578
 1357 0545 15       		.uleb128 0x15
 1358 0546 2B000000 		.4byte	.LASF65
 1359 054a 01       		.byte	0x1
 1360 054b EF       		.byte	0xef
 1361 054c 7D000000 		.4byte	0x7d
 1362 0550 01       		.uleb128 0x1
 1363 0551 50       		.byte	0x50
 1364 0552 15       		.uleb128 0x15
 1365 0553 9C030000 		.4byte	.LASF66
 1366 0557 01       		.byte	0x1
 1367 0558 EF       		.byte	0xef
 1368 0559 88000000 		.4byte	0x88
 1369 055d 01       		.uleb128 0x1
 1370 055e 51       		.byte	0x51
 1371 055f 15       		.uleb128 0x15
 1372 0560 EC020000 		.4byte	.LASF67
 1373 0564 01       		.byte	0x1
 1374 0565 EF       		.byte	0xef
 1375 0566 88000000 		.4byte	0x88
 1376 056a 01       		.uleb128 0x1
 1377 056b 52       		.byte	0x52
 1378 056c 16       		.uleb128 0x16
 1379 056d D1030000 		.4byte	.LASF63
 1380 0571 01       		.byte	0x1
 1381 0572 F1       		.byte	0xf1
 1382 0573 88000000 		.4byte	0x88
 1383 0577 00       		.byte	0
 1384 0578 17       		.uleb128 0x17
 1385 0579 3D040000 		.4byte	.LASF71
 1386 057d 05       		.byte	0x5
 1387 057e 29       		.byte	0x29
 1388 057f 98050000 		.4byte	0x598
 1389 0583 18       		.uleb128 0x18
 1390 0584 98050000 		.4byte	0x598
 1391 0588 18       		.uleb128 0x18
 1392 0589 6F000000 		.4byte	0x6f
 1393 058d 18       		.uleb128 0x18
 1394 058e 98050000 		.4byte	0x598
 1395 0592 18       		.uleb128 0x18
 1396 0593 98050000 		.4byte	0x598
 1397 0597 00       		.byte	0
 1398 0598 19       		.uleb128 0x19
 1399 0599 04       		.byte	0x4
 1400 059a 9E050000 		.4byte	0x59e
 1401 059e 05       		.uleb128 0x5
 1402 059f 7C030000 		.4byte	0x37c
 1403 05a3 00       		.byte	0
ARM GAS  /tmp/ccNIiQWZ.s 			page 26


 1404              		.section	.debug_abbrev,"",%progbits
 1405              	.Ldebug_abbrev0:
 1406 0000 01       		.uleb128 0x1
 1407 0001 11       		.uleb128 0x11
 1408 0002 01       		.byte	0x1
 1409 0003 25       		.uleb128 0x25
 1410 0004 0E       		.uleb128 0xe
 1411 0005 13       		.uleb128 0x13
 1412 0006 0B       		.uleb128 0xb
 1413 0007 03       		.uleb128 0x3
 1414 0008 0E       		.uleb128 0xe
 1415 0009 55       		.uleb128 0x55
 1416 000a 17       		.uleb128 0x17
 1417 000b 11       		.uleb128 0x11
 1418 000c 01       		.uleb128 0x1
 1419 000d 10       		.uleb128 0x10
 1420 000e 17       		.uleb128 0x17
 1421 000f 00       		.byte	0
 1422 0010 00       		.byte	0
 1423 0011 02       		.uleb128 0x2
 1424 0012 24       		.uleb128 0x24
 1425 0013 00       		.byte	0
 1426 0014 0B       		.uleb128 0xb
 1427 0015 0B       		.uleb128 0xb
 1428 0016 3E       		.uleb128 0x3e
 1429 0017 0B       		.uleb128 0xb
 1430 0018 03       		.uleb128 0x3
 1431 0019 0E       		.uleb128 0xe
 1432 001a 00       		.byte	0
 1433 001b 00       		.byte	0
 1434 001c 03       		.uleb128 0x3
 1435 001d 16       		.uleb128 0x16
 1436 001e 00       		.byte	0
 1437 001f 03       		.uleb128 0x3
 1438 0020 0E       		.uleb128 0xe
 1439 0021 3A       		.uleb128 0x3a
 1440 0022 0B       		.uleb128 0xb
 1441 0023 3B       		.uleb128 0x3b
 1442 0024 0B       		.uleb128 0xb
 1443 0025 49       		.uleb128 0x49
 1444 0026 13       		.uleb128 0x13
 1445 0027 00       		.byte	0
 1446 0028 00       		.byte	0
 1447 0029 04       		.uleb128 0x4
 1448 002a 24       		.uleb128 0x24
 1449 002b 00       		.byte	0
 1450 002c 0B       		.uleb128 0xb
 1451 002d 0B       		.uleb128 0xb
 1452 002e 3E       		.uleb128 0x3e
 1453 002f 0B       		.uleb128 0xb
 1454 0030 03       		.uleb128 0x3
 1455 0031 08       		.uleb128 0x8
 1456 0032 00       		.byte	0
 1457 0033 00       		.byte	0
 1458 0034 05       		.uleb128 0x5
 1459 0035 26       		.uleb128 0x26
 1460 0036 00       		.byte	0
ARM GAS  /tmp/ccNIiQWZ.s 			page 27


 1461 0037 49       		.uleb128 0x49
 1462 0038 13       		.uleb128 0x13
 1463 0039 00       		.byte	0
 1464 003a 00       		.byte	0
 1465 003b 06       		.uleb128 0x6
 1466 003c 35       		.uleb128 0x35
 1467 003d 00       		.byte	0
 1468 003e 49       		.uleb128 0x49
 1469 003f 13       		.uleb128 0x13
 1470 0040 00       		.byte	0
 1471 0041 00       		.byte	0
 1472 0042 07       		.uleb128 0x7
 1473 0043 01       		.uleb128 0x1
 1474 0044 01       		.byte	0x1
 1475 0045 49       		.uleb128 0x49
 1476 0046 13       		.uleb128 0x13
 1477 0047 01       		.uleb128 0x1
 1478 0048 13       		.uleb128 0x13
 1479 0049 00       		.byte	0
 1480 004a 00       		.byte	0
 1481 004b 08       		.uleb128 0x8
 1482 004c 21       		.uleb128 0x21
 1483 004d 00       		.byte	0
 1484 004e 49       		.uleb128 0x49
 1485 004f 13       		.uleb128 0x13
 1486 0050 2F       		.uleb128 0x2f
 1487 0051 0B       		.uleb128 0xb
 1488 0052 00       		.byte	0
 1489 0053 00       		.byte	0
 1490 0054 09       		.uleb128 0x9
 1491 0055 13       		.uleb128 0x13
 1492 0056 01       		.byte	0x1
 1493 0057 0B       		.uleb128 0xb
 1494 0058 05       		.uleb128 0x5
 1495 0059 3A       		.uleb128 0x3a
 1496 005a 0B       		.uleb128 0xb
 1497 005b 3B       		.uleb128 0x3b
 1498 005c 05       		.uleb128 0x5
 1499 005d 01       		.uleb128 0x1
 1500 005e 13       		.uleb128 0x13
 1501 005f 00       		.byte	0
 1502 0060 00       		.byte	0
 1503 0061 0A       		.uleb128 0xa
 1504 0062 0D       		.uleb128 0xd
 1505 0063 00       		.byte	0
 1506 0064 03       		.uleb128 0x3
 1507 0065 0E       		.uleb128 0xe
 1508 0066 3A       		.uleb128 0x3a
 1509 0067 0B       		.uleb128 0xb
 1510 0068 3B       		.uleb128 0x3b
 1511 0069 05       		.uleb128 0x5
 1512 006a 49       		.uleb128 0x49
 1513 006b 13       		.uleb128 0x13
 1514 006c 38       		.uleb128 0x38
 1515 006d 0B       		.uleb128 0xb
 1516 006e 00       		.byte	0
 1517 006f 00       		.byte	0
ARM GAS  /tmp/ccNIiQWZ.s 			page 28


 1518 0070 0B       		.uleb128 0xb
 1519 0071 0D       		.uleb128 0xd
 1520 0072 00       		.byte	0
 1521 0073 03       		.uleb128 0x3
 1522 0074 0E       		.uleb128 0xe
 1523 0075 3A       		.uleb128 0x3a
 1524 0076 0B       		.uleb128 0xb
 1525 0077 3B       		.uleb128 0x3b
 1526 0078 05       		.uleb128 0x5
 1527 0079 49       		.uleb128 0x49
 1528 007a 13       		.uleb128 0x13
 1529 007b 38       		.uleb128 0x38
 1530 007c 05       		.uleb128 0x5
 1531 007d 00       		.byte	0
 1532 007e 00       		.byte	0
 1533 007f 0C       		.uleb128 0xc
 1534 0080 16       		.uleb128 0x16
 1535 0081 00       		.byte	0
 1536 0082 03       		.uleb128 0x3
 1537 0083 08       		.uleb128 0x8
 1538 0084 3A       		.uleb128 0x3a
 1539 0085 0B       		.uleb128 0xb
 1540 0086 3B       		.uleb128 0x3b
 1541 0087 05       		.uleb128 0x5
 1542 0088 49       		.uleb128 0x49
 1543 0089 13       		.uleb128 0x13
 1544 008a 00       		.byte	0
 1545 008b 00       		.byte	0
 1546 008c 0D       		.uleb128 0xd
 1547 008d 2E       		.uleb128 0x2e
 1548 008e 01       		.byte	0x1
 1549 008f 3F       		.uleb128 0x3f
 1550 0090 19       		.uleb128 0x19
 1551 0091 03       		.uleb128 0x3
 1552 0092 0E       		.uleb128 0xe
 1553 0093 3A       		.uleb128 0x3a
 1554 0094 0B       		.uleb128 0xb
 1555 0095 3B       		.uleb128 0x3b
 1556 0096 0B       		.uleb128 0xb
 1557 0097 27       		.uleb128 0x27
 1558 0098 19       		.uleb128 0x19
 1559 0099 11       		.uleb128 0x11
 1560 009a 01       		.uleb128 0x1
 1561 009b 12       		.uleb128 0x12
 1562 009c 06       		.uleb128 0x6
 1563 009d 40       		.uleb128 0x40
 1564 009e 18       		.uleb128 0x18
 1565 009f 9742     		.uleb128 0x2117
 1566 00a1 19       		.uleb128 0x19
 1567 00a2 01       		.uleb128 0x1
 1568 00a3 13       		.uleb128 0x13
 1569 00a4 00       		.byte	0
 1570 00a5 00       		.byte	0
 1571 00a6 0E       		.uleb128 0xe
 1572 00a7 05       		.uleb128 0x5
 1573 00a8 00       		.byte	0
 1574 00a9 03       		.uleb128 0x3
ARM GAS  /tmp/ccNIiQWZ.s 			page 29


 1575 00aa 0E       		.uleb128 0xe
 1576 00ab 3A       		.uleb128 0x3a
 1577 00ac 0B       		.uleb128 0xb
 1578 00ad 3B       		.uleb128 0x3b
 1579 00ae 0B       		.uleb128 0xb
 1580 00af 49       		.uleb128 0x49
 1581 00b0 13       		.uleb128 0x13
 1582 00b1 02       		.uleb128 0x2
 1583 00b2 17       		.uleb128 0x17
 1584 00b3 00       		.byte	0
 1585 00b4 00       		.byte	0
 1586 00b5 0F       		.uleb128 0xf
 1587 00b6 34       		.uleb128 0x34
 1588 00b7 00       		.byte	0
 1589 00b8 03       		.uleb128 0x3
 1590 00b9 0E       		.uleb128 0xe
 1591 00ba 49       		.uleb128 0x49
 1592 00bb 13       		.uleb128 0x13
 1593 00bc 34       		.uleb128 0x34
 1594 00bd 19       		.uleb128 0x19
 1595 00be 02       		.uleb128 0x2
 1596 00bf 18       		.uleb128 0x18
 1597 00c0 00       		.byte	0
 1598 00c1 00       		.byte	0
 1599 00c2 10       		.uleb128 0x10
 1600 00c3 898201   		.uleb128 0x4109
 1601 00c6 01       		.byte	0x1
 1602 00c7 11       		.uleb128 0x11
 1603 00c8 01       		.uleb128 0x1
 1604 00c9 31       		.uleb128 0x31
 1605 00ca 13       		.uleb128 0x13
 1606 00cb 00       		.byte	0
 1607 00cc 00       		.byte	0
 1608 00cd 11       		.uleb128 0x11
 1609 00ce 8A8201   		.uleb128 0x410a
 1610 00d1 00       		.byte	0
 1611 00d2 02       		.uleb128 0x2
 1612 00d3 18       		.uleb128 0x18
 1613 00d4 9142     		.uleb128 0x2111
 1614 00d6 18       		.uleb128 0x18
 1615 00d7 00       		.byte	0
 1616 00d8 00       		.byte	0
 1617 00d9 12       		.uleb128 0x12
 1618 00da 2E       		.uleb128 0x2e
 1619 00db 00       		.byte	0
 1620 00dc 3F       		.uleb128 0x3f
 1621 00dd 19       		.uleb128 0x19
 1622 00de 03       		.uleb128 0x3
 1623 00df 0E       		.uleb128 0xe
 1624 00e0 3A       		.uleb128 0x3a
 1625 00e1 0B       		.uleb128 0xb
 1626 00e2 3B       		.uleb128 0x3b
 1627 00e3 0B       		.uleb128 0xb
 1628 00e4 27       		.uleb128 0x27
 1629 00e5 19       		.uleb128 0x19
 1630 00e6 11       		.uleb128 0x11
 1631 00e7 01       		.uleb128 0x1
ARM GAS  /tmp/ccNIiQWZ.s 			page 30


 1632 00e8 12       		.uleb128 0x12
 1633 00e9 06       		.uleb128 0x6
 1634 00ea 40       		.uleb128 0x40
 1635 00eb 18       		.uleb128 0x18
 1636 00ec 9742     		.uleb128 0x2117
 1637 00ee 19       		.uleb128 0x19
 1638 00ef 00       		.byte	0
 1639 00f0 00       		.byte	0
 1640 00f1 13       		.uleb128 0x13
 1641 00f2 2E       		.uleb128 0x2e
 1642 00f3 01       		.byte	0x1
 1643 00f4 3F       		.uleb128 0x3f
 1644 00f5 19       		.uleb128 0x19
 1645 00f6 03       		.uleb128 0x3
 1646 00f7 0E       		.uleb128 0xe
 1647 00f8 3A       		.uleb128 0x3a
 1648 00f9 0B       		.uleb128 0xb
 1649 00fa 3B       		.uleb128 0x3b
 1650 00fb 0B       		.uleb128 0xb
 1651 00fc 27       		.uleb128 0x27
 1652 00fd 19       		.uleb128 0x19
 1653 00fe 49       		.uleb128 0x49
 1654 00ff 13       		.uleb128 0x13
 1655 0100 11       		.uleb128 0x11
 1656 0101 01       		.uleb128 0x1
 1657 0102 12       		.uleb128 0x12
 1658 0103 06       		.uleb128 0x6
 1659 0104 40       		.uleb128 0x40
 1660 0105 18       		.uleb128 0x18
 1661 0106 9742     		.uleb128 0x2117
 1662 0108 19       		.uleb128 0x19
 1663 0109 01       		.uleb128 0x1
 1664 010a 13       		.uleb128 0x13
 1665 010b 00       		.byte	0
 1666 010c 00       		.byte	0
 1667 010d 14       		.uleb128 0x14
 1668 010e 34       		.uleb128 0x34
 1669 010f 00       		.byte	0
 1670 0110 03       		.uleb128 0x3
 1671 0111 0E       		.uleb128 0xe
 1672 0112 3A       		.uleb128 0x3a
 1673 0113 0B       		.uleb128 0xb
 1674 0114 3B       		.uleb128 0x3b
 1675 0115 0B       		.uleb128 0xb
 1676 0116 49       		.uleb128 0x49
 1677 0117 13       		.uleb128 0x13
 1678 0118 02       		.uleb128 0x2
 1679 0119 17       		.uleb128 0x17
 1680 011a 00       		.byte	0
 1681 011b 00       		.byte	0
 1682 011c 15       		.uleb128 0x15
 1683 011d 05       		.uleb128 0x5
 1684 011e 00       		.byte	0
 1685 011f 03       		.uleb128 0x3
 1686 0120 0E       		.uleb128 0xe
 1687 0121 3A       		.uleb128 0x3a
 1688 0122 0B       		.uleb128 0xb
ARM GAS  /tmp/ccNIiQWZ.s 			page 31


 1689 0123 3B       		.uleb128 0x3b
 1690 0124 0B       		.uleb128 0xb
 1691 0125 49       		.uleb128 0x49
 1692 0126 13       		.uleb128 0x13
 1693 0127 02       		.uleb128 0x2
 1694 0128 18       		.uleb128 0x18
 1695 0129 00       		.byte	0
 1696 012a 00       		.byte	0
 1697 012b 16       		.uleb128 0x16
 1698 012c 34       		.uleb128 0x34
 1699 012d 00       		.byte	0
 1700 012e 03       		.uleb128 0x3
 1701 012f 0E       		.uleb128 0xe
 1702 0130 3A       		.uleb128 0x3a
 1703 0131 0B       		.uleb128 0xb
 1704 0132 3B       		.uleb128 0x3b
 1705 0133 0B       		.uleb128 0xb
 1706 0134 49       		.uleb128 0x49
 1707 0135 13       		.uleb128 0x13
 1708 0136 00       		.byte	0
 1709 0137 00       		.byte	0
 1710 0138 17       		.uleb128 0x17
 1711 0139 2E       		.uleb128 0x2e
 1712 013a 01       		.byte	0x1
 1713 013b 3F       		.uleb128 0x3f
 1714 013c 19       		.uleb128 0x19
 1715 013d 03       		.uleb128 0x3
 1716 013e 0E       		.uleb128 0xe
 1717 013f 3A       		.uleb128 0x3a
 1718 0140 0B       		.uleb128 0xb
 1719 0141 3B       		.uleb128 0x3b
 1720 0142 0B       		.uleb128 0xb
 1721 0143 27       		.uleb128 0x27
 1722 0144 19       		.uleb128 0x19
 1723 0145 3C       		.uleb128 0x3c
 1724 0146 19       		.uleb128 0x19
 1725 0147 01       		.uleb128 0x1
 1726 0148 13       		.uleb128 0x13
 1727 0149 00       		.byte	0
 1728 014a 00       		.byte	0
 1729 014b 18       		.uleb128 0x18
 1730 014c 05       		.uleb128 0x5
 1731 014d 00       		.byte	0
 1732 014e 49       		.uleb128 0x49
 1733 014f 13       		.uleb128 0x13
 1734 0150 00       		.byte	0
 1735 0151 00       		.byte	0
 1736 0152 19       		.uleb128 0x19
 1737 0153 0F       		.uleb128 0xf
 1738 0154 00       		.byte	0
 1739 0155 0B       		.uleb128 0xb
 1740 0156 0B       		.uleb128 0xb
 1741 0157 49       		.uleb128 0x49
 1742 0158 13       		.uleb128 0x13
 1743 0159 00       		.byte	0
 1744 015a 00       		.byte	0
 1745 015b 00       		.byte	0
ARM GAS  /tmp/ccNIiQWZ.s 			page 32


 1746              		.section	.debug_loc,"",%progbits
 1747              	.Ldebug_loc0:
 1748              	.LLST0:
 1749 0000 00000000 		.4byte	.LVL0
 1750 0004 1C000000 		.4byte	.LVL1
 1751 0008 0100     		.2byte	0x1
 1752 000a 50       		.byte	0x50
 1753 000b 1C000000 		.4byte	.LVL1
 1754 000f 22000000 		.4byte	.LVL2
 1755 0013 0300     		.2byte	0x3
 1756 0015 70       		.byte	0x70
 1757 0016 60       		.sleb128 -32
 1758 0017 9F       		.byte	0x9f
 1759 0018 22000000 		.4byte	.LVL2
 1760 001c 34000000 		.4byte	.LVL3
 1761 0020 0100     		.2byte	0x1
 1762 0022 50       		.byte	0x50
 1763 0023 34000000 		.4byte	.LVL3
 1764 0027 50000000 		.4byte	.LFE0
 1765 002b 0400     		.2byte	0x4
 1766 002d F3       		.byte	0xf3
 1767 002e 01       		.uleb128 0x1
 1768 002f 50       		.byte	0x50
 1769 0030 9F       		.byte	0x9f
 1770 0031 00000000 		.4byte	0
 1771 0035 00000000 		.4byte	0
 1772              	.LLST1:
 1773 0039 00000000 		.4byte	.LVL5
 1774 003d 0C000000 		.4byte	.LVL6
 1775 0041 0100     		.2byte	0x1
 1776 0043 50       		.byte	0x50
 1777 0044 0C000000 		.4byte	.LVL6
 1778 0048 12000000 		.4byte	.LVL7
 1779 004c 0300     		.2byte	0x3
 1780 004e 70       		.byte	0x70
 1781 004f 60       		.sleb128 -32
 1782 0050 9F       		.byte	0x9f
 1783 0051 12000000 		.4byte	.LVL7
 1784 0055 34000000 		.4byte	.LVL8
 1785 0059 0100     		.2byte	0x1
 1786 005b 50       		.byte	0x50
 1787 005c 34000000 		.4byte	.LVL8
 1788 0060 50000000 		.4byte	.LFE1
 1789 0064 0400     		.2byte	0x4
 1790 0066 F3       		.byte	0xf3
 1791 0067 01       		.uleb128 0x1
 1792 0068 50       		.byte	0x50
 1793 0069 9F       		.byte	0x9f
 1794 006a 00000000 		.4byte	0
 1795 006e 00000000 		.4byte	0
 1796              	.LLST2:
 1797 0072 00000000 		.4byte	.LVL10
 1798 0076 14000000 		.4byte	.LVL11
 1799 007a 0100     		.2byte	0x1
 1800 007c 50       		.byte	0x50
 1801 007d 14000000 		.4byte	.LVL11
 1802 0081 18000000 		.4byte	.LVL12
ARM GAS  /tmp/ccNIiQWZ.s 			page 33


 1803 0085 0300     		.2byte	0x3
 1804 0087 70       		.byte	0x70
 1805 0088 20       		.sleb128 32
 1806 0089 9F       		.byte	0x9f
 1807 008a 18000000 		.4byte	.LVL12
 1808 008e 1C000000 		.4byte	.LVL13
 1809 0092 0400     		.2byte	0x4
 1810 0094 F3       		.byte	0xf3
 1811 0095 01       		.uleb128 0x1
 1812 0096 50       		.byte	0x50
 1813 0097 9F       		.byte	0x9f
 1814 0098 1C000000 		.4byte	.LVL13
 1815 009c 24000000 		.4byte	.LVL14
 1816 00a0 0100     		.2byte	0x1
 1817 00a2 50       		.byte	0x50
 1818 00a3 24000000 		.4byte	.LVL14
 1819 00a7 28000000 		.4byte	.LVL15
 1820 00ab 0400     		.2byte	0x4
 1821 00ad F3       		.byte	0xf3
 1822 00ae 01       		.uleb128 0x1
 1823 00af 50       		.byte	0x50
 1824 00b0 9F       		.byte	0x9f
 1825 00b1 28000000 		.4byte	.LVL15
 1826 00b5 2A000000 		.4byte	.LVL16
 1827 00b9 0100     		.2byte	0x1
 1828 00bb 50       		.byte	0x50
 1829 00bc 2A000000 		.4byte	.LVL16
 1830 00c0 44000000 		.4byte	.LFE4
 1831 00c4 0400     		.2byte	0x4
 1832 00c6 F3       		.byte	0xf3
 1833 00c7 01       		.uleb128 0x1
 1834 00c8 50       		.byte	0x50
 1835 00c9 9F       		.byte	0x9f
 1836 00ca 00000000 		.4byte	0
 1837 00ce 00000000 		.4byte	0
 1838              	.LLST3:
 1839 00d2 00000000 		.4byte	.LVL18
 1840 00d6 1C000000 		.4byte	.LVL19
 1841 00da 0100     		.2byte	0x1
 1842 00dc 50       		.byte	0x50
 1843 00dd 1C000000 		.4byte	.LVL19
 1844 00e1 4C000000 		.4byte	.LVL29
 1845 00e5 0400     		.2byte	0x4
 1846 00e7 F3       		.byte	0xf3
 1847 00e8 01       		.uleb128 0x1
 1848 00e9 50       		.byte	0x50
 1849 00ea 9F       		.byte	0x9f
 1850 00eb 4C000000 		.4byte	.LVL29
 1851 00ef 74000000 		.4byte	.LVL35
 1852 00f3 0100     		.2byte	0x1
 1853 00f5 50       		.byte	0x50
 1854 00f6 74000000 		.4byte	.LVL35
 1855 00fa 90000000 		.4byte	.LFE5
 1856 00fe 0400     		.2byte	0x4
 1857 0100 F3       		.byte	0xf3
 1858 0101 01       		.uleb128 0x1
 1859 0102 50       		.byte	0x50
ARM GAS  /tmp/ccNIiQWZ.s 			page 34


 1860 0103 9F       		.byte	0x9f
 1861 0104 00000000 		.4byte	0
 1862 0108 00000000 		.4byte	0
 1863              	.LLST4:
 1864 010c 00000000 		.4byte	.LVL18
 1865 0110 36000000 		.4byte	.LVL24
 1866 0114 0100     		.2byte	0x1
 1867 0116 51       		.byte	0x51
 1868 0117 36000000 		.4byte	.LVL24
 1869 011b 4C000000 		.4byte	.LVL29
 1870 011f 0400     		.2byte	0x4
 1871 0121 F3       		.byte	0xf3
 1872 0122 01       		.uleb128 0x1
 1873 0123 51       		.byte	0x51
 1874 0124 9F       		.byte	0x9f
 1875 0125 4C000000 		.4byte	.LVL29
 1876 0129 5A000000 		.4byte	.LVL30
 1877 012d 0100     		.2byte	0x1
 1878 012f 51       		.byte	0x51
 1879 0130 5A000000 		.4byte	.LVL30
 1880 0134 90000000 		.4byte	.LFE5
 1881 0138 0400     		.2byte	0x4
 1882 013a F3       		.byte	0xf3
 1883 013b 01       		.uleb128 0x1
 1884 013c 51       		.byte	0x51
 1885 013d 9F       		.byte	0x9f
 1886 013e 00000000 		.4byte	0
 1887 0142 00000000 		.4byte	0
 1888              	.LLST5:
 1889 0146 00000000 		.4byte	.LVL18
 1890 014a 20000000 		.4byte	.LVL20
 1891 014e 0200     		.2byte	0x2
 1892 0150 30       		.byte	0x30
 1893 0151 9F       		.byte	0x9f
 1894 0152 20000000 		.4byte	.LVL20
 1895 0156 22000000 		.4byte	.LVL21
 1896 015a 0300     		.2byte	0x3
 1897 015c 73       		.byte	0x73
 1898 015d 01       		.sleb128 1
 1899 015e 9F       		.byte	0x9f
 1900 015f 22000000 		.4byte	.LVL21
 1901 0163 24000000 		.4byte	.LVL22
 1902 0167 0100     		.2byte	0x1
 1903 0169 53       		.byte	0x53
 1904 016a 24000000 		.4byte	.LVL22
 1905 016e 2A000000 		.4byte	.LVL23
 1906 0172 0300     		.2byte	0x3
 1907 0174 73       		.byte	0x73
 1908 0175 01       		.sleb128 1
 1909 0176 9F       		.byte	0x9f
 1910 0177 2A000000 		.4byte	.LVL23
 1911 017b 3A000000 		.4byte	.LVL25
 1912 017f 0100     		.2byte	0x1
 1913 0181 53       		.byte	0x53
 1914 0182 3A000000 		.4byte	.LVL25
 1915 0186 40000000 		.4byte	.LVL26
 1916 018a 0100     		.2byte	0x1
ARM GAS  /tmp/ccNIiQWZ.s 			page 35


 1917 018c 51       		.byte	0x51
 1918 018d 40000000 		.4byte	.LVL26
 1919 0191 44000000 		.4byte	.LVL27
 1920 0195 0100     		.2byte	0x1
 1921 0197 53       		.byte	0x53
 1922 0198 44000000 		.4byte	.LVL27
 1923 019c 48000000 		.4byte	.LVL28
 1924 01a0 0100     		.2byte	0x1
 1925 01a2 51       		.byte	0x51
 1926 01a3 4C000000 		.4byte	.LVL29
 1927 01a7 5E000000 		.4byte	.LVL31
 1928 01ab 0200     		.2byte	0x2
 1929 01ad 30       		.byte	0x30
 1930 01ae 9F       		.byte	0x9f
 1931 01af 5E000000 		.4byte	.LVL31
 1932 01b3 60000000 		.4byte	.LVL32
 1933 01b7 0300     		.2byte	0x3
 1934 01b9 73       		.byte	0x73
 1935 01ba 01       		.sleb128 1
 1936 01bb 9F       		.byte	0x9f
 1937 01bc 60000000 		.4byte	.LVL32
 1938 01c0 62000000 		.4byte	.LVL33
 1939 01c4 0100     		.2byte	0x1
 1940 01c6 53       		.byte	0x53
 1941 01c7 62000000 		.4byte	.LVL33
 1942 01cb 68000000 		.4byte	.LVL34
 1943 01cf 0300     		.2byte	0x3
 1944 01d1 73       		.byte	0x73
 1945 01d2 01       		.sleb128 1
 1946 01d3 9F       		.byte	0x9f
 1947 01d4 68000000 		.4byte	.LVL34
 1948 01d8 78000000 		.4byte	.LVL36
 1949 01dc 0100     		.2byte	0x1
 1950 01de 53       		.byte	0x53
 1951 01df 78000000 		.4byte	.LVL36
 1952 01e3 7E000000 		.4byte	.LVL37
 1953 01e7 0100     		.2byte	0x1
 1954 01e9 51       		.byte	0x51
 1955 01ea 7E000000 		.4byte	.LVL37
 1956 01ee 82000000 		.4byte	.LVL38
 1957 01f2 0100     		.2byte	0x1
 1958 01f4 53       		.byte	0x53
 1959 01f5 82000000 		.4byte	.LVL38
 1960 01f9 90000000 		.4byte	.LFE5
 1961 01fd 0100     		.2byte	0x1
 1962 01ff 51       		.byte	0x51
 1963 0200 00000000 		.4byte	0
 1964 0204 00000000 		.4byte	0
 1965              	.LLST6:
 1966 0208 00000000 		.4byte	.LVL39
 1967 020c 0E000000 		.4byte	.LVL40
 1968 0210 0100     		.2byte	0x1
 1969 0212 51       		.byte	0x51
 1970 0213 0E000000 		.4byte	.LVL40
 1971 0217 2C000000 		.4byte	.LFE6
 1972 021b 0400     		.2byte	0x4
 1973 021d F3       		.byte	0xf3
ARM GAS  /tmp/ccNIiQWZ.s 			page 36


 1974 021e 01       		.uleb128 0x1
 1975 021f 51       		.byte	0x51
 1976 0220 9F       		.byte	0x9f
 1977 0221 00000000 		.4byte	0
 1978 0225 00000000 		.4byte	0
 1979              	.LLST7:
 1980 0229 08000000 		.4byte	.LVL41
 1981 022d 0C000000 		.4byte	.LVL42
 1982 0231 0200     		.2byte	0x2
 1983 0233 30       		.byte	0x30
 1984 0234 9F       		.byte	0x9f
 1985 0235 0C000000 		.4byte	.LVL42
 1986 0239 0E000000 		.4byte	.LVL43
 1987 023d 0500     		.2byte	0x5
 1988 023f 31       		.byte	0x31
 1989 0240 73       		.byte	0x73
 1990 0241 00       		.sleb128 0
 1991 0242 1C       		.byte	0x1c
 1992 0243 9F       		.byte	0x9f
 1993 0244 0E000000 		.4byte	.LVL43
 1994 0248 10000000 		.4byte	.LVL44
 1995 024c 0400     		.2byte	0x4
 1996 024e 73       		.byte	0x73
 1997 024f 00       		.sleb128 0
 1998 0250 1F       		.byte	0x1f
 1999 0251 9F       		.byte	0x9f
 2000 0252 10000000 		.4byte	.LVL44
 2001 0256 16000000 		.4byte	.LVL45
 2002 025a 0500     		.2byte	0x5
 2003 025c 31       		.byte	0x31
 2004 025d 73       		.byte	0x73
 2005 025e 00       		.sleb128 0
 2006 025f 1C       		.byte	0x1c
 2007 0260 9F       		.byte	0x9f
 2008 0261 00000000 		.4byte	0
 2009 0265 00000000 		.4byte	0
 2010              		.section	.debug_aranges,"",%progbits
 2011 0000 5C000000 		.4byte	0x5c
 2012 0004 0200     		.2byte	0x2
 2013 0006 00000000 		.4byte	.Ldebug_info0
 2014 000a 04       		.byte	0x4
 2015 000b 00       		.byte	0
 2016 000c 0000     		.2byte	0
 2017 000e 0000     		.2byte	0
 2018 0010 00000000 		.4byte	.LFB0
 2019 0014 50000000 		.4byte	.LFE0-.LFB0
 2020 0018 00000000 		.4byte	.LFB1
 2021 001c 50000000 		.4byte	.LFE1-.LFB1
 2022 0020 00000000 		.4byte	.LFB2
 2023 0024 30000000 		.4byte	.LFE2-.LFB2
 2024 0028 00000000 		.4byte	.LFB3
 2025 002c 2C000000 		.4byte	.LFE3-.LFB3
 2026 0030 00000000 		.4byte	.LFB4
 2027 0034 44000000 		.4byte	.LFE4-.LFB4
 2028 0038 00000000 		.4byte	.LFB5
 2029 003c 90000000 		.4byte	.LFE5-.LFB5
 2030 0040 00000000 		.4byte	.LFB6
ARM GAS  /tmp/ccNIiQWZ.s 			page 37


 2031 0044 2C000000 		.4byte	.LFE6-.LFB6
 2032 0048 00000000 		.4byte	.LFB7
 2033 004c 20000000 		.4byte	.LFE7-.LFB7
 2034 0050 00000000 		.4byte	.LFB8
 2035 0054 60000000 		.4byte	.LFE8-.LFB8
 2036 0058 00000000 		.4byte	0
 2037 005c 00000000 		.4byte	0
 2038              		.section	.debug_ranges,"",%progbits
 2039              	.Ldebug_ranges0:
 2040 0000 00000000 		.4byte	.LFB0
 2041 0004 50000000 		.4byte	.LFE0
 2042 0008 00000000 		.4byte	.LFB1
 2043 000c 50000000 		.4byte	.LFE1
 2044 0010 00000000 		.4byte	.LFB2
 2045 0014 30000000 		.4byte	.LFE2
 2046 0018 00000000 		.4byte	.LFB3
 2047 001c 2C000000 		.4byte	.LFE3
 2048 0020 00000000 		.4byte	.LFB4
 2049 0024 44000000 		.4byte	.LFE4
 2050 0028 00000000 		.4byte	.LFB5
 2051 002c 90000000 		.4byte	.LFE5
 2052 0030 00000000 		.4byte	.LFB6
 2053 0034 2C000000 		.4byte	.LFE6
 2054 0038 00000000 		.4byte	.LFB7
 2055 003c 20000000 		.4byte	.LFE7
 2056 0040 00000000 		.4byte	.LFB8
 2057 0044 60000000 		.4byte	.LFE8
 2058 0048 00000000 		.4byte	0
 2059 004c 00000000 		.4byte	0
 2060              		.section	.debug_line,"",%progbits
 2061              	.Ldebug_line0:
 2062 0000 4F030000 		.section	.debug_str,"MS",%progbits,1
 2062      0200CA01 
 2062      00000201 
 2062      FB0E0D00 
 2062      01010101 
 2063              	.LASF41:
 2064 0000 504D435F 		.ascii	"PMC_FOCR\000"
 2064      464F4352 
 2064      00
 2065              	.LASF40:
 2066 0009 504D435F 		.ascii	"PMC_FSPR\000"
 2066      46535052 
 2066      00
 2067              	.LASF36:
 2068 0012 504D435F 		.ascii	"PMC_IDR\000"
 2068      49445200 
 2069              	.LASF19:
 2070 001a 504D435F 		.ascii	"PMC_SCSR\000"
 2070      53435352 
 2070      00
 2071              	.LASF50:
 2072 0023 504D435F 		.ascii	"PMC_OCR\000"
 2072      4F435200 
 2073              	.LASF65:
 2074 002b 706C6C61 		.ascii	"pllab\000"
 2074      6200
ARM GAS  /tmp/ccNIiQWZ.s 			page 38


 2075              	.LASF2:
 2076 0031 73686F72 		.ascii	"short int\000"
 2076      7420696E 
 2076      7400
 2077              	.LASF16:
 2078 003b 73697A65 		.ascii	"sizetype\000"
 2078      74797065 
 2078      00
 2079              	.LASF60:
 2080 0044 64775072 		.ascii	"dwPrescaler\000"
 2080      65736361 
 2080      6C657200 
 2081              	.LASF56:
 2082 0050 504D435F 		.ascii	"PMC_EnableAllPeripherals\000"
 2082      456E6162 
 2082      6C65416C 
 2082      6C506572 
 2082      69706865 
 2083              	.LASF6:
 2084 0069 5F5F7569 		.ascii	"__uint32_t\000"
 2084      6E743332 
 2084      5F7400
 2085              	.LASF21:
 2086 0074 504D435F 		.ascii	"PMC_PCER0\000"
 2086      50434552 
 2086      3000
 2087              	.LASF46:
 2088 007e 504D435F 		.ascii	"PMC_PCER1\000"
 2088      50434552 
 2088      3100
 2089              	.LASF14:
 2090 0088 576F5265 		.ascii	"WoReg\000"
 2090      6700
 2091              	.LASF39:
 2092 008e 504D435F 		.ascii	"PMC_FSMR\000"
 2092      46534D52 
 2092      00
 2093              	.LASF20:
 2094 0097 52657365 		.ascii	"Reserved1\000"
 2094      72766564 
 2094      3100
 2095              	.LASF24:
 2096 00a1 52657365 		.ascii	"Reserved2\000"
 2096      72766564 
 2096      3200
 2097              	.LASF11:
 2098 00ab 75696E74 		.ascii	"uint8_t\000"
 2098      385F7400 
 2099              	.LASF32:
 2100 00b3 52657365 		.ascii	"Reserved4\000"
 2100      72766564 
 2100      3400
 2101              	.LASF34:
 2102 00bd 52657365 		.ascii	"Reserved5\000"
 2102      72766564 
 2102      3500
 2103              	.LASF42:
ARM GAS  /tmp/ccNIiQWZ.s 			page 39


 2104 00c7 52657365 		.ascii	"Reserved6\000"
 2104      72766564 
 2104      3600
 2105              	.LASF45:
 2106 00d1 52657365 		.ascii	"Reserved7\000"
 2106      72766564 
 2106      3700
 2107              	.LASF49:
 2108 00db 52657365 		.ascii	"Reserved8\000"
 2108      72766564 
 2108      3800
 2109              	.LASF25:
 2110 00e5 434B4752 		.ascii	"CKGR_MOR\000"
 2110      5F4D4F52 
 2110      00
 2111              	.LASF57:
 2112 00ee 504D435F 		.ascii	"PMC_DisableAllPeripherals\000"
 2112      44697361 
 2112      626C6541 
 2112      6C6C5065 
 2112      72697068 
 2113              	.LASF22:
 2114 0108 504D435F 		.ascii	"PMC_PCDR0\000"
 2114      50434452 
 2114      3000
 2115              	.LASF47:
 2116 0112 504D435F 		.ascii	"PMC_PCDR1\000"
 2116      50434452 
 2116      3100
 2117              	.LASF35:
 2118 011c 504D435F 		.ascii	"PMC_IER\000"
 2118      49455200 
 2119              	.LASF8:
 2120 0124 6C6F6E67 		.ascii	"long long int\000"
 2120      206C6F6E 
 2120      6720696E 
 2120      7400
 2121              	.LASF29:
 2122 0132 504D435F 		.ascii	"PMC_MCKR\000"
 2122      4D434B52 
 2122      00
 2123              	.LASF70:
 2124 013b 504D435F 		.ascii	"PMC_IsPeriphEnabled\000"
 2124      49735065 
 2124      72697068 
 2124      456E6162 
 2124      6C656400 
 2125              	.LASF4:
 2126 014f 6C6F6E67 		.ascii	"long int\000"
 2126      20696E74 
 2126      00
 2127              	.LASF5:
 2128 0158 5F5F7569 		.ascii	"__uint8_t\000"
 2128      6E74385F 
 2128      7400
 2129              	.LASF58:
 2130 0162 506D634D 		.ascii	"PmcMasterClockSelection\000"
ARM GAS  /tmp/ccNIiQWZ.s 			page 40


 2130      61737465 
 2130      72436C6F 
 2130      636B5365 
 2130      6C656374 
 2131              	.LASF68:
 2132 017a 474E5520 		.ascii	"GNU C 4.9.3 20150529 (release) [ARM/embedded-4_9-br"
 2132      4320342E 
 2132      392E3320 
 2132      32303135 
 2132      30353239 
 2133 01ad 616E6368 		.ascii	"anch revision 227977] -mcpu=cortex-m3 -mno-thumb-in"
 2133      20726576 
 2133      6973696F 
 2133      6E203232 
 2133      37393737 
 2134 01e0 74657277 		.ascii	"terwork -mthumb -ggdb -O2 -std=gnu99 -fomit-frame-p"
 2134      6F726B20 
 2134      2D6D7468 
 2134      756D6220 
 2134      2D676764 
 2135 0213 6F696E74 		.ascii	"ointer -falign-functions=16 -ffunction-sections -fd"
 2135      6572202D 
 2135      66616C69 
 2135      676E2D66 
 2135      756E6374 
 2136 0246 6174612D 		.ascii	"ata-sections -fno-common\000"
 2136      73656374 
 2136      696F6E73 
 2136      202D666E 
 2136      6F2D636F 
 2137              	.LASF38:
 2138 025f 504D435F 		.ascii	"PMC_IMR\000"
 2138      494D5200 
 2139              	.LASF13:
 2140 0267 526F5265 		.ascii	"RoReg\000"
 2140      6700
 2141              	.LASF1:
 2142 026d 756E7369 		.ascii	"unsigned char\000"
 2142      676E6564 
 2142      20636861 
 2142      7200
 2143              	.LASF43:
 2144 027b 504D435F 		.ascii	"PMC_WPMR\000"
 2144      57504D52 
 2144      00
 2145              	.LASF64:
 2146 0284 506D6343 		.ascii	"PmcConfigurePllClock\000"
 2146      6F6E6669 
 2146      67757265 
 2146      506C6C43 
 2146      6C6F636B 
 2147              	.LASF15:
 2148 0299 52775265 		.ascii	"RwReg\000"
 2148      6700
 2149              	.LASF0:
 2150 029f 7369676E 		.ascii	"signed char\000"
 2150      65642063 
ARM GAS  /tmp/ccNIiQWZ.s 			page 41


 2150      68617200 
 2151              	.LASF9:
 2152 02ab 6C6F6E67 		.ascii	"long long unsigned int\000"
 2152      206C6F6E 
 2152      6720756E 
 2152      7369676E 
 2152      65642069 
 2153              	.LASF12:
 2154 02c2 75696E74 		.ascii	"uint32_t\000"
 2154      33325F74 
 2154      00
 2155              	.LASF10:
 2156 02cb 756E7369 		.ascii	"unsigned int\000"
 2156      676E6564 
 2156      20696E74 
 2156      00
 2157              	.LASF23:
 2158 02d8 504D435F 		.ascii	"PMC_PCSR0\000"
 2158      50435352 
 2158      3000
 2159              	.LASF48:
 2160 02e2 504D435F 		.ascii	"PMC_PCSR1\000"
 2160      50435352 
 2160      3100
 2161              	.LASF67:
 2162 02ec 64774469 		.ascii	"dwDiv\000"
 2162      7600
 2163              	.LASF44:
 2164 02f2 504D435F 		.ascii	"PMC_WPSR\000"
 2164      57505352 
 2164      00
 2165              	.LASF31:
 2166 02fb 504D435F 		.ascii	"PMC_USB\000"
 2166      55534200 
 2167              	.LASF55:
 2168 0303 5F5F6675 		.ascii	"__func__\000"
 2168      6E635F5F 
 2168      00
 2169              	.LASF3:
 2170 030c 73686F72 		.ascii	"short unsigned int\000"
 2170      7420756E 
 2170      7369676E 
 2170      65642069 
 2170      6E7400
 2171              	.LASF37:
 2172 031f 504D435F 		.ascii	"PMC_SR\000"
 2172      535200
 2173              	.LASF51:
 2174 0326 63686172 		.ascii	"char\000"
 2174      00
 2175              	.LASF59:
 2176 032b 6477436C 		.ascii	"dwClockSource\000"
 2176      6F636B53 
 2176      6F757263 
 2176      6500
 2177              	.LASF69:
 2178 0339 2F686F6D 		.ascii	"/home/nicolas/Desktop/Embebidos/stamp_repo/files/co"
ARM GAS  /tmp/ccNIiQWZ.s 			page 42


 2178      652F6E69 
 2178      636F6C61 
 2178      732F4465 
 2178      736B746F 
 2179 036c 64652F65 		.ascii	"de/ext/ChibiOS/os/hal/platforms/AT91SAM3S/pmc.c\000"
 2179      78742F43 
 2179      68696269 
 2179      4F532F6F 
 2179      732F6861 
 2180              	.LASF66:
 2181 039c 64774D75 		.ascii	"dwMul\000"
 2181      6C00
 2182              	.LASF54:
 2183 03a2 64774964 		.ascii	"dwId\000"
 2183      00
 2184              	.LASF27:
 2185 03a7 434B4752 		.ascii	"CKGR_PLLAR\000"
 2185      5F504C4C 
 2185      415200
 2186              	.LASF17:
 2187 03b2 504D435F 		.ascii	"PMC_SCER\000"
 2187      53434552 
 2187      00
 2188              	.LASF53:
 2189 03bb 504D435F 		.ascii	"PMC_DisablePeripheral\000"
 2189      44697361 
 2189      626C6550 
 2189      65726970 
 2189      68657261 
 2190              	.LASF63:
 2191 03d1 64775469 		.ascii	"dwTimeout\000"
 2191      6D656F75 
 2191      7400
 2192              	.LASF7:
 2193 03db 6C6F6E67 		.ascii	"long unsigned int\000"
 2193      20756E73 
 2193      69676E65 
 2193      6420696E 
 2193      7400
 2194              	.LASF30:
 2195 03ed 52657365 		.ascii	"Reserved3\000"
 2195      72766564 
 2195      3300
 2196              	.LASF52:
 2197 03f7 504D435F 		.ascii	"PMC_EnablePeripheral\000"
 2197      456E6162 
 2197      6C655065 
 2197      72697068 
 2197      6572616C 
 2198              	.LASF26:
 2199 040c 434B4752 		.ascii	"CKGR_MCFR\000"
 2199      5F4D4346 
 2199      5200
 2200              	.LASF62:
 2201 0416 506D634D 		.ascii	"PmcMainClockSwitchMainOsc\000"
 2201      61696E43 
 2201      6C6F636B 
ARM GAS  /tmp/ccNIiQWZ.s 			page 43


 2201      53776974 
 2201      63684D61 
 2202              	.LASF61:
 2203 0430 436F6E66 		.ascii	"ConfigurePck\000"
 2203      69677572 
 2203      6550636B 
 2203      00
 2204              	.LASF71:
 2205 043d 5F5F6173 		.ascii	"__assert_func\000"
 2205      73657274 
 2205      5F66756E 
 2205      6300
 2206              	.LASF33:
 2207 044b 504D435F 		.ascii	"PMC_PCK\000"
 2207      50434B00 
 2208              	.LASF18:
 2209 0453 504D435F 		.ascii	"PMC_SCDR\000"
 2209      53434452 
 2209      00
 2210              	.LASF28:
 2211 045c 434B4752 		.ascii	"CKGR_PLLBR\000"
 2211      5F504C4C 
 2211      425200
 2212              		.ident	"GCC: (GNU Tools for ARM Embedded Processors) 4.9.3 20150529 (release) [ARM/embedded-4_9-br
ARM GAS  /tmp/ccNIiQWZ.s 			page 44


DEFINED SYMBOLS
                            *ABS*:00000000 pmc.c
     /tmp/ccNIiQWZ.s:19     .text.PMC_EnablePeripheral:00000000 $t
     /tmp/ccNIiQWZ.s:25     .text.PMC_EnablePeripheral:00000000 PMC_EnablePeripheral
     /tmp/ccNIiQWZ.s:87     .text.PMC_EnablePeripheral:00000040 $d
     /tmp/ccNIiQWZ.s:95     .text.PMC_DisablePeripheral:00000000 $t
     /tmp/ccNIiQWZ.s:101    .text.PMC_DisablePeripheral:00000000 PMC_DisablePeripheral
     /tmp/ccNIiQWZ.s:162    .text.PMC_DisablePeripheral:00000040 $d
     /tmp/ccNIiQWZ.s:170    .text.PMC_EnableAllPeripherals:00000000 $t
     /tmp/ccNIiQWZ.s:176    .text.PMC_EnableAllPeripherals:00000000 PMC_EnableAllPeripherals
     /tmp/ccNIiQWZ.s:212    .text.PMC_EnableAllPeripherals:0000002c $d
     /tmp/ccNIiQWZ.s:217    .text.PMC_DisableAllPeripherals:00000000 $t
     /tmp/ccNIiQWZ.s:223    .text.PMC_DisableAllPeripherals:00000000 PMC_DisableAllPeripherals
     /tmp/ccNIiQWZ.s:258    .text.PMC_DisableAllPeripherals:00000028 $d
     /tmp/ccNIiQWZ.s:263    .text.PMC_IsPeriphEnabled:00000000 $t
     /tmp/ccNIiQWZ.s:269    .text.PMC_IsPeriphEnabled:00000000 PMC_IsPeriphEnabled
     /tmp/ccNIiQWZ.s:323    .text.PMC_IsPeriphEnabled:00000034 $d
     /tmp/ccNIiQWZ.s:331    .text.PmcMasterClockSelection:00000000 $t
     /tmp/ccNIiQWZ.s:337    .text.PmcMasterClockSelection:00000000 PmcMasterClockSelection
     /tmp/ccNIiQWZ.s:354    .text.PmcMasterClockSelection:0000000a $d
     /tmp/ccNIiQWZ.s:358    .text.PmcMasterClockSelection:0000000e $t
     /tmp/ccNIiQWZ.s:491    .text.PmcMasterClockSelection:0000008c $d
     /tmp/ccNIiQWZ.s:496    .text.ConfigurePck:00000000 $t
     /tmp/ccNIiQWZ.s:502    .text.ConfigurePck:00000000 ConfigurePck
     /tmp/ccNIiQWZ.s:548    .text.ConfigurePck:00000024 $d
     /tmp/ccNIiQWZ.s:554    .text.PmcMainClockSwitchMainOsc:00000000 $t
     /tmp/ccNIiQWZ.s:560    .text.PmcMainClockSwitchMainOsc:00000000 PmcMainClockSwitchMainOsc
     /tmp/ccNIiQWZ.s:596    .text.PmcMainClockSwitchMainOsc:00000018 $d
     /tmp/ccNIiQWZ.s:602    .text.PmcConfigurePllClock:00000000 $t
     /tmp/ccNIiQWZ.s:608    .text.PmcConfigurePllClock:00000000 PmcConfigurePllClock
     /tmp/ccNIiQWZ.s:684    .text.PmcConfigurePllClock:00000058 $d
     /tmp/ccNIiQWZ.s:690    .rodata.__func__.4818:00000000 $d
     /tmp/ccNIiQWZ.s:694    .rodata.__func__.4818:00000000 __func__.4818
     /tmp/ccNIiQWZ.s:697    .rodata.__func__.4792:00000000 $d
     /tmp/ccNIiQWZ.s:701    .rodata.__func__.4792:00000000 __func__.4792
     /tmp/ccNIiQWZ.s:704    .rodata.__func__.4796:00000000 $d
     /tmp/ccNIiQWZ.s:708    .rodata.__func__.4796:00000000 __func__.4796
     /tmp/ccNIiQWZ.s:711    .rodata.str1.4:00000000 $d
                     .debug_frame:00000010 $d

UNDEFINED SYMBOLS
__assert_func
