ARM GAS  /tmp/ccZQrU9d.s 			page 1


   1              		.syntax unified
   2              		.cpu cortex-m3
   3              		.fpu softvfp
   4              		.eabi_attribute 20, 1
   5              		.eabi_attribute 21, 1
   6              		.eabi_attribute 23, 3
   7              		.eabi_attribute 24, 1
   8              		.eabi_attribute 25, 1
   9              		.eabi_attribute 26, 1
  10              		.eabi_attribute 30, 2
  11              		.eabi_attribute 34, 1
  12              		.eabi_attribute 18, 4
  13              		.thumb
  14              		.file	"pmc.c"
  15              		.text
  16              	.Ltext0:
  17              		.cfi_sections	.debug_frame
  18              		.section	.text.PMC_EnablePeripheral,"ax",%progbits
  19              		.align	2
  20              		.p2align 4,,15
  21              		.global	PMC_EnablePeripheral
  22              		.thumb
  23              		.thumb_func
  24              		.type	PMC_EnablePeripheral, %function
  25              	PMC_EnablePeripheral:
  26              	.LFB0:
  27              		.file 1 "/home/diana/Documentos/Embebidos/stamp_repo/files/code/ext/ChibiOS/os/hal/platforms/AT91S
  28              		.loc 1 62 0
  29              		.cfi_startproc
  30              		@ args = 0, pretend = 0, frame = 0
  31              		@ frame_needed = 0, uses_anonymous_args = 0
  32              	.LVL0:
  33              		.loc 1 63 0
  34 0000 2228     		cmp	r0, #34
  35              		.loc 1 62 0
  36 0002 08B5     		push	{r3, lr}
  37              		.cfi_def_cfa_offset 8
  38              		.cfi_offset 3, -8
  39              		.cfi_offset 14, -4
  40              		.loc 1 63 0
  41 0004 15D8     		bhi	.L7
  42              		.loc 1 65 0
  43 0006 1F28     		cmp	r0, #31
  44              		.loc 1 67 0
  45 0008 0D49     		ldr	r1, .L8
  46              		.loc 1 65 0
  47 000a 07D8     		bhi	.L3
  48              		.loc 1 67 0
  49 000c 0123     		movs	r3, #1
  50 000e 8A69     		ldr	r2, [r1, #24]
  51 0010 8340     		lsls	r3, r3, r0
  52 0012 1A40     		ands	r2, r2, r3
  53 0014 9342     		cmp	r3, r2
  54 0016 0BD0     		beq	.L1
  55              		.loc 1 73 0
  56 0018 0B61     		str	r3, [r1, #16]
  57 001a 08BD     		pop	{r3, pc}
ARM GAS  /tmp/ccZQrU9d.s 			page 2


  58              	.L3:
  59              	.LVL1:
  60              		.loc 1 79 0
  61 001c D1F80821 		ldr	r2, [r1, #264]
  62              		.loc 1 78 0
  63 0020 2038     		subs	r0, r0, #32
  64              	.LVL2:
  65              		.loc 1 79 0
  66 0022 0123     		movs	r3, #1
  67 0024 8340     		lsls	r3, r3, r0
  68 0026 1A40     		ands	r2, r2, r3
  69 0028 9342     		cmp	r3, r2
  70              		.loc 1 85 0
  71 002a 18BF     		it	ne
  72 002c C1F80031 		strne	r3, [r1, #256]
  73              	.L1:
  74 0030 08BD     		pop	{r3, pc}
  75              	.L7:
  76              		.loc 1 63 0 discriminator 1
  77 0032 0448     		ldr	r0, .L8+4
  78              	.LVL3:
  79 0034 3F21     		movs	r1, #63
  80 0036 044A     		ldr	r2, .L8+8
  81 0038 044B     		ldr	r3, .L8+12
  82 003a FFF7FEFF 		bl	__assert_func
  83              	.LVL4:
  84              	.L9:
  85 003e 00BF     		.align	2
  86              	.L8:
  87 0040 00040E40 		.word	1074660352
  88 0044 00000000 		.word	.LC0
  89 0048 00000000 		.word	.LANCHOR0
  90 004c 64000000 		.word	.LC1
  91              		.cfi_endproc
  92              	.LFE0:
  93              		.size	PMC_EnablePeripheral, .-PMC_EnablePeripheral
  94              		.section	.text.PMC_DisablePeripheral,"ax",%progbits
  95              		.align	2
  96              		.p2align 4,,15
  97              		.global	PMC_DisablePeripheral
  98              		.thumb
  99              		.thumb_func
 100              		.type	PMC_DisablePeripheral, %function
 101              	PMC_DisablePeripheral:
 102              	.LFB1:
 103              		.loc 1 99 0
 104              		.cfi_startproc
 105              		@ args = 0, pretend = 0, frame = 0
 106              		@ frame_needed = 0, uses_anonymous_args = 0
 107              	.LVL5:
 108              		.loc 1 100 0
 109 0000 2228     		cmp	r0, #34
 110              		.loc 1 99 0
 111 0002 08B5     		push	{r3, lr}
 112              		.cfi_def_cfa_offset 8
 113              		.cfi_offset 3, -8
 114              		.cfi_offset 14, -4
ARM GAS  /tmp/ccZQrU9d.s 			page 3


 115              		.loc 1 100 0
 116 0004 15D8     		bhi	.L15
 117              		.loc 1 102 0
 118 0006 1F28     		cmp	r0, #31
 119              		.loc 1 104 0
 120 0008 0D49     		ldr	r1, .L17
 121              		.loc 1 102 0
 122 000a 0AD9     		bls	.L16
 123              	.LVL6:
 124              		.loc 1 116 0
 125 000c D1F80821 		ldr	r2, [r1, #264]
 126              		.loc 1 115 0
 127 0010 2038     		subs	r0, r0, #32
 128              	.LVL7:
 129              		.loc 1 116 0
 130 0012 0123     		movs	r3, #1
 131 0014 8340     		lsls	r3, r3, r0
 132 0016 1A40     		ands	r2, r2, r3
 133 0018 9342     		cmp	r3, r2
 134              		.loc 1 122 0
 135 001a 08BF     		it	eq
 136 001c C1F80431 		streq	r3, [r1, #260]
 137              	.L10:
 138 0020 08BD     		pop	{r3, pc}
 139              	.L16:
 140              		.loc 1 104 0
 141 0022 0123     		movs	r3, #1
 142 0024 8A69     		ldr	r2, [r1, #24]
 143 0026 8340     		lsls	r3, r3, r0
 144 0028 1A40     		ands	r2, r2, r3
 145 002a 9342     		cmp	r3, r2
 146 002c F8D1     		bne	.L10
 147              		.loc 1 110 0
 148 002e 4B61     		str	r3, [r1, #20]
 149 0030 08BD     		pop	{r3, pc}
 150              	.L15:
 151              		.loc 1 100 0 discriminator 1
 152 0032 0448     		ldr	r0, .L17+4
 153              	.LVL8:
 154 0034 6421     		movs	r1, #100
 155 0036 044A     		ldr	r2, .L17+8
 156 0038 044B     		ldr	r3, .L17+12
 157 003a FFF7FEFF 		bl	__assert_func
 158              	.LVL9:
 159              	.L18:
 160 003e 00BF     		.align	2
 161              	.L17:
 162 0040 00040E40 		.word	1074660352
 163 0044 00000000 		.word	.LC0
 164 0048 00000000 		.word	.LANCHOR1
 165 004c 64000000 		.word	.LC1
 166              		.cfi_endproc
 167              	.LFE1:
 168              		.size	PMC_DisablePeripheral, .-PMC_DisablePeripheral
 169              		.section	.text.PMC_EnableAllPeripherals,"ax",%progbits
 170              		.align	2
 171              		.p2align 4,,15
ARM GAS  /tmp/ccZQrU9d.s 			page 4


 172              		.global	PMC_EnableAllPeripherals
 173              		.thumb
 174              		.thumb_func
 175              		.type	PMC_EnableAllPeripherals, %function
 176              	PMC_EnableAllPeripherals:
 177              	.LFB2:
 178              		.loc 1 131 0
 179              		.cfi_startproc
 180              		@ args = 0, pretend = 0, frame = 0
 181              		@ frame_needed = 0, uses_anonymous_args = 0
 182              		@ link register save eliminated.
 183              		.loc 1 132 0
 184 0000 0A4B     		ldr	r3, .L24
 185 0002 6FF00302 		mvn	r2, #3
 186              		.loc 1 133 0
 187 0006 1946     		mov	r1, r3
 188              		.loc 1 132 0
 189 0008 1A61     		str	r2, [r3, #16]
 190              	.L20:
 191              		.loc 1 133 0 discriminator 1
 192 000a 8B69     		ldr	r3, [r1, #24]
 193 000c 074A     		ldr	r2, .L24
 194 000e 23F00303 		bic	r3, r3, #3
 195 0012 0433     		adds	r3, r3, #4
 196 0014 F9D1     		bne	.L20
 197              		.loc 1 136 0
 198 0016 1146     		mov	r1, r2
 199              		.loc 1 135 0
 200 0018 4FF0FF33 		mov	r3, #-1
 201 001c C2F80031 		str	r3, [r2, #256]
 202              	.L21:
 203              		.loc 1 136 0 discriminator 1
 204 0020 D1F80831 		ldr	r3, [r1, #264]
 205 0024 0133     		adds	r3, r3, #1
 206 0026 FBD1     		bne	.L21
 207              		.loc 1 139 0
 208 0028 7047     		bx	lr
 209              	.L25:
 210 002a 00BF     		.align	2
 211              	.L24:
 212 002c 00040E40 		.word	1074660352
 213              		.cfi_endproc
 214              	.LFE2:
 215              		.size	PMC_EnableAllPeripherals, .-PMC_EnableAllPeripherals
 216              		.section	.text.PMC_DisableAllPeripherals,"ax",%progbits
 217              		.align	2
 218              		.p2align 4,,15
 219              		.global	PMC_DisableAllPeripherals
 220              		.thumb
 221              		.thumb_func
 222              		.type	PMC_DisableAllPeripherals, %function
 223              	PMC_DisableAllPeripherals:
 224              	.LFB3:
 225              		.loc 1 145 0
 226              		.cfi_startproc
 227              		@ args = 0, pretend = 0, frame = 0
 228              		@ frame_needed = 0, uses_anonymous_args = 0
ARM GAS  /tmp/ccZQrU9d.s 			page 5


 229              		@ link register save eliminated.
 230              		.loc 1 146 0
 231 0000 094B     		ldr	r3, .L31
 232 0002 6FF00302 		mvn	r2, #3
 233              		.loc 1 147 0
 234 0006 1946     		mov	r1, r3
 235              		.loc 1 146 0
 236 0008 5A61     		str	r2, [r3, #20]
 237              	.L27:
 238              		.loc 1 147 0 discriminator 1
 239 000a 8B69     		ldr	r3, [r1, #24]
 240 000c 064A     		ldr	r2, .L31
 241 000e 33F00303 		bics	r3, r3, #3
 242 0012 FAD1     		bne	.L27
 243              		.loc 1 150 0
 244 0014 1146     		mov	r1, r2
 245              		.loc 1 149 0
 246 0016 4FF0FF33 		mov	r3, #-1
 247 001a C2F80431 		str	r3, [r2, #260]
 248              	.L28:
 249              		.loc 1 150 0 discriminator 1
 250 001e D1F80831 		ldr	r3, [r1, #264]
 251 0022 002B     		cmp	r3, #0
 252 0024 FBD1     		bne	.L28
 253              		.loc 1 153 0
 254 0026 7047     		bx	lr
 255              	.L32:
 256              		.align	2
 257              	.L31:
 258 0028 00040E40 		.word	1074660352
 259              		.cfi_endproc
 260              	.LFE3:
 261              		.size	PMC_DisableAllPeripherals, .-PMC_DisableAllPeripherals
 262              		.section	.text.PMC_IsPeriphEnabled,"ax",%progbits
 263              		.align	2
 264              		.p2align 4,,15
 265              		.global	PMC_IsPeriphEnabled
 266              		.thumb
 267              		.thumb_func
 268              		.type	PMC_IsPeriphEnabled, %function
 269              	PMC_IsPeriphEnabled:
 270              	.LFB4:
 271              		.loc 1 161 0
 272              		.cfi_startproc
 273              		@ args = 0, pretend = 0, frame = 0
 274              		@ frame_needed = 0, uses_anonymous_args = 0
 275              	.LVL10:
 276              		.loc 1 162 0
 277 0000 2228     		cmp	r0, #34
 278              		.loc 1 161 0
 279 0002 08B5     		push	{r3, lr}
 280              		.cfi_def_cfa_offset 8
 281              		.cfi_offset 3, -8
 282              		.cfi_offset 14, -4
 283              		.loc 1 162 0
 284 0004 10D8     		bhi	.L38
 285              		.loc 1 164 0
ARM GAS  /tmp/ccZQrU9d.s 			page 6


 286 0006 1F28     		cmp	r0, #31
 287              		.loc 1 166 0
 288 0008 0A4B     		ldr	r3, .L40
 289              		.loc 1 164 0
 290 000a 07D9     		bls	.L39
 291              		.loc 1 169 0
 292 000c 0122     		movs	r2, #1
 293 000e D3F80831 		ldr	r3, [r3, #264]
 294 0012 2038     		subs	r0, r0, #32
 295              	.LVL11:
 296 0014 02FA00F0 		lsl	r0, r2, r0
 297              	.LVL12:
 298 0018 1840     		ands	r0, r0, r3
 299              		.loc 1 171 0
 300 001a 08BD     		pop	{r3, pc}
 301              	.LVL13:
 302              	.L39:
 303              		.loc 1 166 0
 304 001c 0122     		movs	r2, #1
 305 001e 9B69     		ldr	r3, [r3, #24]
 306 0020 02FA00F0 		lsl	r0, r2, r0
 307              	.LVL14:
 308 0024 1840     		ands	r0, r0, r3
 309 0026 08BD     		pop	{r3, pc}
 310              	.LVL15:
 311              	.L38:
 312              		.loc 1 162 0 discriminator 1
 313 0028 0348     		ldr	r0, .L40+4
 314              	.LVL16:
 315 002a A221     		movs	r1, #162
 316 002c 034A     		ldr	r2, .L40+8
 317 002e 044B     		ldr	r3, .L40+12
 318 0030 FFF7FEFF 		bl	__assert_func
 319              	.LVL17:
 320              	.L41:
 321              		.align	2
 322              	.L40:
 323 0034 00040E40 		.word	1074660352
 324 0038 00000000 		.word	.LC0
 325 003c 00000000 		.word	.LANCHOR2
 326 0040 64000000 		.word	.LC1
 327              		.cfi_endproc
 328              	.LFE4:
 329              		.size	PMC_IsPeriphEnabled, .-PMC_IsPeriphEnabled
 330              		.section	.text.PmcMasterClockSelection,"ax",%progbits
 331              		.align	2
 332              		.p2align 4,,15
 333              		.global	PmcMasterClockSelection
 334              		.thumb
 335              		.thumb_func
 336              		.type	PmcMasterClockSelection, %function
 337              	PmcMasterClockSelection:
 338              	.LFB5:
 339              		.loc 1 175 0
 340              		.cfi_startproc
 341              		@ args = 0, pretend = 0, frame = 0
 342              		@ frame_needed = 0, uses_anonymous_args = 0
ARM GAS  /tmp/ccZQrU9d.s 			page 7


 343              		@ link register save eliminated.
 344              	.LVL18:
 345 0000 30B4     		push	{r4, r5}
 346              		.cfi_def_cfa_offset 8
 347              		.cfi_offset 4, -8
 348              		.cfi_offset 5, -4
 349              		.loc 1 178 0
 350 0002 0328     		cmp	r0, #3
 351 0004 20D8     		bhi	.L42
 352 0006 DFE800F0 		tbb	[pc, r0]
 353              	.L45:
 354 000a 02       		.byte	(.L44-.L45)/2
 355 000b 02       		.byte	(.L44-.L45)/2
 356 000c 21       		.byte	(.L46-.L45)/2
 357 000d 21       		.byte	(.L46-.L45)/2
 358              		.p2align 1
 359              	.L44:
 360              		.loc 1 183 0
 361 000e 1F4D     		ldr	r5, .L65
 362              		.loc 1 176 0
 363 0010 0023     		movs	r3, #0
 364              		.loc 1 183 0
 365 0012 2A6B     		ldr	r2, [r5, #48]
 366              		.loc 1 186 0
 367 0014 2C46     		mov	r4, r5
 368              		.loc 1 183 0
 369 0016 22F00302 		bic	r2, r2, #3
 370 001a 1043     		orrs	r0, r0, r2
 371              	.LVL19:
 372 001c 2863     		str	r0, [r5, #48]
 373              		.loc 1 186 0
 374 001e 01E0     		b	.L48
 375              	.LVL20:
 376              	.L61:
 377              		.loc 1 186 0 is_stmt 0 discriminator 1
 378 0020 0133     		adds	r3, r3, #1
 379              	.LVL21:
 380 0022 02D0     		beq	.L47
 381              	.LVL22:
 382              	.L48:
 383              		.loc 1 186 0 discriminator 2
 384 0024 A26E     		ldr	r2, [r4, #104]
 385 0026 1507     		lsls	r5, r2, #28
 386 0028 FAD5     		bpl	.L61
 387              	.LVL23:
 388              	.L47:
 389              		.loc 1 189 0 is_stmt 1
 390 002a 184C     		ldr	r4, .L65
 391 002c 226B     		ldr	r2, [r4, #48]
 392              		.loc 1 192 0
 393 002e 2046     		mov	r0, r4
 394              		.loc 1 189 0
 395 0030 22F07002 		bic	r2, r2, #112
 396 0034 1143     		orrs	r1, r1, r2
 397              	.LVL24:
 398 0036 2163     		str	r1, [r4, #48]
 399              		.loc 1 192 0
ARM GAS  /tmp/ccZQrU9d.s 			page 8


 400 0038 02E0     		b	.L50
 401              	.LVL25:
 402              	.L62:
 403              		.loc 1 192 0 is_stmt 0 discriminator 1
 404 003a 0133     		adds	r3, r3, #1
 405 003c 04D0     		beq	.L42
 406 003e 0B46     		mov	r3, r1
 407              	.LVL26:
 408              	.L50:
 409              		.loc 1 192 0 discriminator 2
 410 0040 826E     		ldr	r2, [r0, #104]
 411 0042 591C     		adds	r1, r3, #1
 412              	.LVL27:
 413 0044 1407     		lsls	r4, r2, #28
 414 0046 F8D5     		bpl	.L62
 415              	.LVL28:
 416              	.L42:
 417              		.loc 1 210 0 is_stmt 1
 418 0048 30BC     		pop	{r4, r5}
 419              		.cfi_remember_state
 420              		.cfi_restore 5
 421              		.cfi_restore 4
 422              		.cfi_def_cfa_offset 0
 423 004a 7047     		bx	lr
 424              	.LVL29:
 425              	.L46:
 426              		.cfi_restore_state
 427              		.loc 1 198 0
 428 004c 0F4D     		ldr	r5, .L65
 429              		.loc 1 176 0
 430 004e 0023     		movs	r3, #0
 431              		.loc 1 198 0
 432 0050 2A6B     		ldr	r2, [r5, #48]
 433              		.loc 1 201 0
 434 0052 2C46     		mov	r4, r5
 435              		.loc 1 198 0
 436 0054 22F07002 		bic	r2, r2, #112
 437 0058 1143     		orrs	r1, r1, r2
 438              	.LVL30:
 439 005a 2963     		str	r1, [r5, #48]
 440              		.loc 1 201 0
 441 005c 01E0     		b	.L53
 442              	.LVL31:
 443              	.L63:
 444              		.loc 1 201 0 is_stmt 0 discriminator 1
 445 005e 0133     		adds	r3, r3, #1
 446              	.LVL32:
 447 0060 02D0     		beq	.L52
 448              	.LVL33:
 449              	.L53:
 450              		.loc 1 201 0 discriminator 2
 451 0062 A26E     		ldr	r2, [r4, #104]
 452 0064 1107     		lsls	r1, r2, #28
 453 0066 FAD5     		bpl	.L63
 454              	.LVL34:
 455              	.L52:
 456              		.loc 1 204 0 is_stmt 1
ARM GAS  /tmp/ccZQrU9d.s 			page 9


 457 0068 0849     		ldr	r1, .L65
 458 006a 0A6B     		ldr	r2, [r1, #48]
 459              		.loc 1 207 0
 460 006c 0C46     		mov	r4, r1
 461              		.loc 1 204 0
 462 006e 22F00302 		bic	r2, r2, #3
 463 0072 1043     		orrs	r0, r0, r2
 464              	.LVL35:
 465 0074 0863     		str	r0, [r1, #48]
 466              		.loc 1 207 0
 467 0076 02E0     		b	.L54
 468              	.LVL36:
 469              	.L64:
 470              		.loc 1 207 0 is_stmt 0 discriminator 1
 471 0078 0133     		adds	r3, r3, #1
 472 007a E5D0     		beq	.L42
 473 007c 0B46     		mov	r3, r1
 474              	.LVL37:
 475              	.L54:
 476              		.loc 1 207 0 discriminator 2
 477 007e A26E     		ldr	r2, [r4, #104]
 478 0080 591C     		adds	r1, r3, #1
 479              	.LVL38:
 480 0082 1207     		lsls	r2, r2, #28
 481 0084 F8D5     		bpl	.L64
 482              		.loc 1 210 0 is_stmt 1
 483 0086 30BC     		pop	{r4, r5}
 484              		.cfi_restore 4
 485              		.cfi_restore 5
 486              		.cfi_def_cfa_offset 0
 487 0088 7047     		bx	lr
 488              	.L66:
 489 008a 00BF     		.align	2
 490              	.L65:
 491 008c 00040E40 		.word	1074660352
 492              		.cfi_endproc
 493              	.LFE5:
 494              		.size	PmcMasterClockSelection, .-PmcMasterClockSelection
 495              		.section	.text.ConfigurePck,"ax",%progbits
 496              		.align	2
 497              		.p2align 4,,15
 498              		.global	ConfigurePck
 499              		.thumb
 500              		.thumb_func
 501              		.type	ConfigurePck, %function
 502              	ConfigurePck:
 503              	.LFB6:
 504              		.loc 1 213 0
 505              		.cfi_startproc
 506              		@ args = 0, pretend = 0, frame = 0
 507              		@ frame_needed = 0, uses_anonymous_args = 0
 508              		@ link register save eliminated.
 509              	.LVL39:
 510              		.loc 1 215 0
 511 0000 084B     		ldr	r3, .L72
 512              		.loc 1 213 0
 513 0002 30B4     		push	{r4, r5}
ARM GAS  /tmp/ccZQrU9d.s 			page 10


 514              		.cfi_def_cfa_offset 8
 515              		.cfi_offset 4, -8
 516              		.cfi_offset 5, -4
 517              		.loc 1 223 0
 518 0004 1A46     		mov	r2, r3
 519              		.loc 1 215 0
 520 0006 084D     		ldr	r5, .L72+4
 521              		.loc 1 217 0
 522 0008 4FF48064 		mov	r4, #1024
 523              		.loc 1 219 0
 524 000c 0143     		orrs	r1, r1, r0
 525              	.LVL40:
 526              		.loc 1 215 0
 527 000e C3F8E450 		str	r5, [r3, #228]
 528              		.loc 1 217 0
 529 0012 5C60     		str	r4, [r3, #4]
 530              		.loc 1 219 0
 531 0014 9964     		str	r1, [r3, #72]
 532              		.loc 1 221 0
 533 0016 1C60     		str	r4, [r3]
 534              	.L68:
 535              		.loc 1 223 0 discriminator 1
 536 0018 936E     		ldr	r3, [r2, #104]
 537 001a 5B05     		lsls	r3, r3, #21
 538 001c FCD5     		bpl	.L68
 539              		.loc 1 224 0
 540 001e 30BC     		pop	{r4, r5}
 541              		.cfi_restore 5
 542              		.cfi_restore 4
 543              		.cfi_def_cfa_offset 0
 544 0020 7047     		bx	lr
 545              	.L73:
 546 0022 00BF     		.align	2
 547              	.L72:
 548 0024 00040E40 		.word	1074660352
 549 0028 00434D50 		.word	1347240704
 550              		.cfi_endproc
 551              	.LFE6:
 552              		.size	ConfigurePck, .-ConfigurePck
 553              		.section	.text.PmcMainClockSwitchMainOsc,"ax",%progbits
 554              		.align	2
 555              		.p2align 4,,15
 556              		.global	PmcMainClockSwitchMainOsc
 557              		.thumb
 558              		.thumb_func
 559              		.type	PmcMainClockSwitchMainOsc, %function
 560              	PmcMainClockSwitchMainOsc:
 561              	.LFB7:
 562              		.loc 1 228 0
 563              		.cfi_startproc
 564              		@ args = 0, pretend = 0, frame = 0
 565              		@ frame_needed = 0, uses_anonymous_args = 0
 566              		@ link register save eliminated.
 567              		.loc 1 232 0
 568 0000 054B     		ldr	r3, .L79
 569 0002 064A     		ldr	r2, .L79+4
 570              		.loc 1 235 0
ARM GAS  /tmp/ccZQrU9d.s 			page 11


 571 0004 1946     		mov	r1, r3
 572              		.loc 1 232 0
 573 0006 1A62     		str	r2, [r3, #32]
 574              	.LVL41:
 575              		.loc 1 235 0
 576 0008 0023     		movs	r3, #0
 577 000a 01E0     		b	.L76
 578              	.LVL42:
 579              	.L78:
 580              		.loc 1 235 0 is_stmt 0 discriminator 2
 581 000c 013B     		subs	r3, r3, #1
 582              	.LVL43:
 583 000e 02D0     		beq	.L74
 584              	.LVL44:
 585              	.L76:
 586              		.loc 1 235 0 discriminator 3
 587 0010 8A6E     		ldr	r2, [r1, #104]
 588 0012 D203     		lsls	r2, r2, #15
 589 0014 FAD5     		bpl	.L78
 590              	.LVL45:
 591              	.L74:
 592 0016 7047     		bx	lr
 593              	.L80:
 594              		.align	2
 595              	.L79:
 596 0018 00040E40 		.word	1074660352
 597 001c 09083701 		.word	20383753
 598              		.cfi_endproc
 599              	.LFE7:
 600              		.size	PmcMainClockSwitchMainOsc, .-PmcMainClockSwitchMainOsc
 601              		.section	.text.PmcConfigurePllClock,"ax",%progbits
 602              		.align	2
 603              		.p2align 4,,15
 604              		.global	PmcConfigurePllClock
 605              		.thumb
 606              		.thumb_func
 607              		.type	PmcConfigurePllClock, %function
 608              	PmcConfigurePllClock:
 609              	.LFB8:
 610              		.loc 1 240 0 is_stmt 1
 611              		.cfi_startproc
 612              		@ args = 0, pretend = 0, frame = 0
 613              		@ frame_needed = 0, uses_anonymous_args = 0
 614              		@ link register save eliminated.
 615              		.loc 1 243 0
 616 0000 A0B9     		cbnz	r0, .L82
 617              		.loc 1 240 0
 618 0002 10B4     		push	{r4}
 619              		.cfi_def_cfa_offset 4
 620              		.cfi_offset 4, -4
 621              		.loc 1 246 0
 622 0004 144C     		ldr	r4, .L96
 623 0006 42F00053 		orr	r3, r2, #536870912
 624 000a 0A04     		lsls	r2, r1, #16
 625 000c 1440     		ands	r4, r4, r2
 626 000e 43F4F853 		orr	r3, r3, #7936
 627 0012 124A     		ldr	r2, .L96+4
ARM GAS  /tmp/ccZQrU9d.s 			page 12


 628 0014 2343     		orrs	r3, r3, r4
 629 0016 9362     		str	r3, [r2, #40]
 630              		.loc 1 249 0
 631 0018 21B9     		cbnz	r1, .L83
 632              	.L81:
 633              		.loc 1 268 0
 634 001a 5DF8044B 		ldr	r4, [sp], #4
 635              		.cfi_restore 4
 636              		.cfi_def_cfa_offset 0
 637              	.L94:
 638 001e 7047     		bx	lr
 639              	.L95:
 640              		.cfi_def_cfa_offset 4
 641              		.cfi_offset 4, -4
 642              		.loc 1 252 0 discriminator 1
 643 0020 0138     		subs	r0, r0, #1
 644 0022 FAD0     		beq	.L81
 645              	.L83:
 646              		.loc 1 252 0 is_stmt 0 discriminator 2
 647 0024 936E     		ldr	r3, [r2, #104]
 648 0026 9907     		lsls	r1, r3, #30
 649 0028 F7D4     		bmi	.L81
 650 002a F9E7     		b	.L95
 651              	.L82:
 652              		.cfi_def_cfa_offset 0
 653              		.cfi_restore 4
 654              		.loc 1 256 0 is_stmt 1
 655 002c 0128     		cmp	r0, #1
 656 002e F6D1     		bne	.L94
 657              		.loc 1 259 0
 658 0030 094B     		ldr	r3, .L96
 659 0032 0804     		lsls	r0, r1, #16
 660 0034 42F00052 		orr	r2, r2, #536870912
 661 0038 0340     		ands	r3, r3, r0
 662 003a 42F4F852 		orr	r2, r2, #7936
 663 003e 0748     		ldr	r0, .L96+4
 664 0040 1A43     		orrs	r2, r2, r3
 665 0042 C262     		str	r2, [r0, #44]
 666              		.loc 1 262 0
 667 0044 0029     		cmp	r1, #0
 668 0046 EAD0     		beq	.L94
 669              		.loc 1 265 0
 670 0048 0146     		mov	r1, r0
 671 004a 0023     		movs	r3, #0
 672              	.L85:
 673              		.loc 1 265 0 is_stmt 0 discriminator 2
 674 004c 8A6E     		ldr	r2, [r1, #104]
 675 004e 5207     		lsls	r2, r2, #29
 676 0050 E5D4     		bmi	.L94
 677              		.loc 1 265 0 discriminator 1
 678 0052 013B     		subs	r3, r3, #1
 679 0054 FAD1     		bne	.L85
 680 0056 7047     		bx	lr
 681              	.L97:
 682              		.align	2
 683              	.L96:
 684 0058 0000FF07 		.word	134152192
ARM GAS  /tmp/ccZQrU9d.s 			page 13


 685 005c 00040E40 		.word	1074660352
 686              		.cfi_endproc
 687              	.LFE8:
 688              		.size	PmcConfigurePllClock, .-PmcConfigurePllClock
 689              		.section	.rodata.__func__.4818,"a",%progbits
 690              		.align	2
 691              		.set	.LANCHOR2,. + 0
 692              		.type	__func__.4818, %object
 693              		.size	__func__.4818, 20
 694              	__func__.4818:
 695 0000 504D435F 		.ascii	"PMC_IsPeriphEnabled\000"
 695      49735065 
 695      72697068 
 695      456E6162 
 695      6C656400 
 696              		.section	.rodata.__func__.4792,"a",%progbits
 697              		.align	2
 698              		.set	.LANCHOR0,. + 0
 699              		.type	__func__.4792, %object
 700              		.size	__func__.4792, 21
 701              	__func__.4792:
 702 0000 504D435F 		.ascii	"PMC_EnablePeripheral\000"
 702      456E6162 
 702      6C655065 
 702      72697068 
 702      6572616C 
 703              		.section	.rodata.__func__.4796,"a",%progbits
 704              		.align	2
 705              		.set	.LANCHOR1,. + 0
 706              		.type	__func__.4796, %object
 707              		.size	__func__.4796, 22
 708              	__func__.4796:
 709 0000 504D435F 		.ascii	"PMC_DisablePeripheral\000"
 709      44697361 
 709      626C6550 
 709      65726970 
 709      68657261 
 710              		.section	.rodata.str1.4,"aMS",%progbits,1
 711              		.align	2
 712              	.LC0:
 713 0000 2F686F6D 		.ascii	"/home/diana/Documentos/Embebidos/stamp_repo/files/c"
 713      652F6469 
 713      616E612F 
 713      446F6375 
 713      6D656E74 
 714 0033 6F64652F 		.ascii	"ode/ext/ChibiOS/os/hal/platforms/AT91SAM3S/pmc.c\000"
 714      6578742F 
 714      43686962 
 714      694F532F 
 714      6F732F68 
 715              	.LC1:
 716 0064 64774964 		.ascii	"dwId < 35\000"
 716      203C2033 
 716      3500
 717              		.text
 718              	.Letext0:
 719              		.file 2 "/media/diana/ACER/Diana/Documents/College/VIII/Embebidos/gcc-arm-none-eabi-4_9-2015q3/arm
ARM GAS  /tmp/ccZQrU9d.s 			page 14


 720              		.file 3 "/media/diana/ACER/Diana/Documents/College/VIII/Embebidos/gcc-arm-none-eabi-4_9-2015q3/arm
 721              		.file 4 "/home/diana/Documentos/Embebidos/stamp_repo/files/code/ext/ChibiOS/os/hal/platforms/AT91S
 722              		.file 5 "/media/diana/ACER/Diana/Documents/College/VIII/Embebidos/gcc-arm-none-eabi-4_9-2015q3/arm