ARM GAS  /tmp/ccaPyqmh.s 			page 1


   1              		.syntax unified
   2              		.cpu cortex-m3
   3              		.fpu softvfp
   4              		.eabi_attribute 20, 1
   5              		.eabi_attribute 21, 1
   6              		.eabi_attribute 23, 3
   7              		.eabi_attribute 24, 1
   8              		.eabi_attribute 25, 1
   9              		.eabi_attribute 26, 1
  10              		.eabi_attribute 30, 2
  11              		.eabi_attribute 34, 1
  12              		.eabi_attribute 18, 4
  13              		.thumb
  14              		.file	"serial.c"
  15              		.text
  16              	.Ltext0:
  17              		.cfi_sections	.debug_frame
  18              		.section	.text.putwouldblock,"ax",%progbits
  19              		.align	2
  20              		.p2align 4,,15
  21              		.thumb
  22              		.thumb_func
  23              		.type	putwouldblock, %function
  24              	putwouldblock:
  25              	.LFB38:
  26              		.file 1 "/home/nicolas/Escritorio/Embebidos/stamp_repo/files/code/ext/ChibiOS/os/hal/src/serial.c"
  27              		.loc 1 74 0
  28              		.cfi_startproc
  29              		@ args = 0, pretend = 0, frame = 0
  30              		@ frame_needed = 0, uses_anonymous_args = 0
  31              		@ link register save eliminated.
  32              	.LVL0:
  33              		.loc 1 76 0
  34 0000 806B     		ldr	r0, [r0, #56]
  35              	.LVL1:
  36              		.loc 1 77 0
  37 0002 B0FA80F0 		clz	r0, r0
  38 0006 4009     		lsrs	r0, r0, #5
  39 0008 7047     		bx	lr
  40              		.cfi_endproc
  41              	.LFE38:
  42              		.size	putwouldblock, .-putwouldblock
  43 000a 00BF     		.section	.text.getwouldblock,"ax",%progbits
  44              		.align	2
  45              		.p2align 4,,15
  46              		.thumb
  47              		.thumb_func
  48              		.type	getwouldblock, %function
  49              	getwouldblock:
  50              	.LFB39:
  51              		.loc 1 79 0
  52              		.cfi_startproc
  53              		@ args = 0, pretend = 0, frame = 0
  54              		@ frame_needed = 0, uses_anonymous_args = 0
  55              		@ link register save eliminated.
  56              	.LVL2:
  57              		.loc 1 81 0
ARM GAS  /tmp/ccaPyqmh.s 			page 2


  58 0000 8069     		ldr	r0, [r0, #24]
  59              	.LVL3:
  60              		.loc 1 82 0
  61 0002 B0FA80F0 		clz	r0, r0
  62 0006 4009     		lsrs	r0, r0, #5
  63 0008 7047     		bx	lr
  64              		.cfi_endproc
  65              	.LFE39:
  66              		.size	getwouldblock, .-getwouldblock
  67 000a 00BF     		.section	.text.getflags,"ax",%progbits
  68              		.align	2
  69              		.p2align 4,,15
  70              		.thumb
  71              		.thumb_func
  72              		.type	getflags, %function
  73              	getflags:
  74              	.LFB44:
  75              		.loc 1 104 0
  76              		.cfi_startproc
  77              		@ args = 0, pretend = 0, frame = 0
  78              		@ frame_needed = 0, uses_anonymous_args = 0
  79              		@ link register save eliminated.
  80              	.LVL4:
  81              		.loc 1 104 0
  82 0000 0246     		mov	r2, r0
  83              	.LBB2:
  84              		.loc 1 105 0
  85 0002 2023     		movs	r3, #32
  86              	@ 105 "/home/nicolas/Escritorio/Embebidos/stamp_repo/files/code/ext/ChibiOS/os/hal/src/serial.c" 1
  87 0004 83F31188 		msr     BASEPRI, r3
  88              	@ 0 "" 2
  89              		.thumb
  90              	.LBE2:
  91 0008 0021     		movs	r1, #0
  92 000a 8068     		ldr	r0, [r0, #8]
  93              	.LVL5:
  94              	.LBB3:
  95 000c 0B46     		mov	r3, r1
  96              	.LBE3:
  97 000e 9160     		str	r1, [r2, #8]
  98              	.LBB4:
  99              	@ 105 "/home/nicolas/Escritorio/Embebidos/stamp_repo/files/code/ext/ChibiOS/os/hal/src/serial.c" 1
 100 0010 83F31188 		msr     BASEPRI, r3
 101              	@ 0 "" 2
 102              		.thumb
 103              	.LBE4:
 104              		.loc 1 106 0
 105 0014 7047     		bx	lr
 106              		.cfi_endproc
 107              	.LFE44:
 108              		.size	getflags, .-getflags
 109 0016 00BF     		.section	.text.readt,"ax",%progbits
 110              		.align	2
 111              		.p2align 4,,15
 112              		.thumb
 113              		.thumb_func
 114              		.type	readt, %function
ARM GAS  /tmp/ccaPyqmh.s 			page 3


 115              	readt:
 116              	.LFB43:
 117              		.loc 1 99 0
 118              		.cfi_startproc
 119              		@ args = 0, pretend = 0, frame = 0
 120              		@ frame_needed = 0, uses_anonymous_args = 0
 121              		@ link register save eliminated.
 122              	.LVL6:
 123              		.loc 1 101 0
 124 0000 1030     		adds	r0, r0, #16
 125              	.LVL7:
 126 0002 FFF7FEBF 		b	chIQReadTimeout
 127              	.LVL8:
 128              		.cfi_endproc
 129              	.LFE43:
 130              		.size	readt, .-readt
 131 0006 00BF     		.section	.text.reads,"ax",%progbits
 132              		.align	2
 133              		.p2align 4,,15
 134              		.thumb
 135              		.thumb_func
 136              		.type	reads, %function
 137              	reads:
 138              	.LFB37:
 139              		.loc 1 68 0
 140              		.cfi_startproc
 141              		@ args = 0, pretend = 0, frame = 0
 142              		@ frame_needed = 0, uses_anonymous_args = 0
 143              		@ link register save eliminated.
 144              	.LVL9:
 145              		.loc 1 70 0
 146 0000 1030     		adds	r0, r0, #16
 147              	.LVL10:
 148 0002 4FF0FF33 		mov	r3, #-1
 149 0006 FFF7FEBF 		b	chIQReadTimeout
 150              	.LVL11:
 151              		.cfi_endproc
 152              	.LFE37:
 153              		.size	reads, .-reads
 154 000a 00BF     		.section	.text.writet,"ax",%progbits
 155              		.align	2
 156              		.p2align 4,,15
 157              		.thumb
 158              		.thumb_func
 159              		.type	writet, %function
 160              	writet:
 161              	.LFB42:
 162              		.loc 1 94 0
 163              		.cfi_startproc
 164              		@ args = 0, pretend = 0, frame = 0
 165              		@ frame_needed = 0, uses_anonymous_args = 0
 166              		@ link register save eliminated.
 167              	.LVL12:
 168              		.loc 1 96 0
 169 0000 3030     		adds	r0, r0, #48
 170              	.LVL13:
 171 0002 FFF7FEBF 		b	chOQWriteTimeout
ARM GAS  /tmp/ccaPyqmh.s 			page 4


 172              	.LVL14:
 173              		.cfi_endproc
 174              	.LFE42:
 175              		.size	writet, .-writet
 176 0006 00BF     		.section	.text.writes,"ax",%progbits
 177              		.align	2
 178              		.p2align 4,,15
 179              		.thumb
 180              		.thumb_func
 181              		.type	writes, %function
 182              	writes:
 183              	.LFB36:
 184              		.loc 1 62 0
 185              		.cfi_startproc
 186              		@ args = 0, pretend = 0, frame = 0
 187              		@ frame_needed = 0, uses_anonymous_args = 0
 188              		@ link register save eliminated.
 189              	.LVL15:
 190              		.loc 1 64 0
 191 0000 3030     		adds	r0, r0, #48
 192              	.LVL16:
 193 0002 4FF0FF33 		mov	r3, #-1
 194 0006 FFF7FEBF 		b	chOQWriteTimeout
 195              	.LVL17:
 196              		.cfi_endproc
 197              	.LFE36:
 198              		.size	writes, .-writes
 199 000a 00BF     		.section	.text.gett,"ax",%progbits
 200              		.align	2
 201              		.p2align 4,,15
 202              		.thumb
 203              		.thumb_func
 204              		.type	gett, %function
 205              	gett:
 206              	.LFB41:
 207              		.loc 1 89 0
 208              		.cfi_startproc
 209              		@ args = 0, pretend = 0, frame = 0
 210              		@ frame_needed = 0, uses_anonymous_args = 0
 211              		@ link register save eliminated.
 212              	.LVL18:
 213              		.loc 1 91 0
 214 0000 1030     		adds	r0, r0, #16
 215              	.LVL19:
 216 0002 FFF7FEBF 		b	chIQGetTimeout
 217              	.LVL20:
 218              		.cfi_endproc
 219              	.LFE41:
 220              		.size	gett, .-gett
 221 0006 00BF     		.section	.text.putt,"ax",%progbits
 222              		.align	2
 223              		.p2align 4,,15
 224              		.thumb
 225              		.thumb_func
 226              		.type	putt, %function
 227              	putt:
 228              	.LFB40:
ARM GAS  /tmp/ccaPyqmh.s 			page 5


 229              		.loc 1 84 0
 230              		.cfi_startproc
 231              		@ args = 0, pretend = 0, frame = 0
 232              		@ frame_needed = 0, uses_anonymous_args = 0
 233              		@ link register save eliminated.
 234              	.LVL21:
 235              		.loc 1 86 0
 236 0000 3030     		adds	r0, r0, #48
 237              	.LVL22:
 238 0002 FFF7FEBF 		b	chOQPutTimeout
 239              	.LVL23:
 240              		.cfi_endproc
 241              	.LFE40:
 242              		.size	putt, .-putt
 243 0006 00BF     		.section	.text.sdInit,"ax",%progbits
 244              		.align	2
 245              		.p2align 4,,15
 246              		.global	sdInit
 247              		.thumb
 248              		.thumb_func
 249              		.type	sdInit, %function
 250              	sdInit:
 251              	.LFB45:
 252              		.loc 1 125 0
 253              		.cfi_startproc
 254              		@ args = 0, pretend = 0, frame = 0
 255              		@ frame_needed = 0, uses_anonymous_args = 0
 256              		@ link register save eliminated.
 257              		.loc 1 127 0
 258 0000 FFF7FEBF 		b	sd_lld_init
 259              	.LVL24:
 260              		.cfi_endproc
 261              	.LFE45:
 262              		.size	sdInit, .-sdInit
 263              		.section	.text.sdObjectInit,"ax",%progbits
 264              		.align	2
 265              		.p2align 4,,15
 266              		.global	sdObjectInit
 267              		.thumb
 268              		.thumb_func
 269              		.type	sdObjectInit, %function
 270              	sdObjectInit:
 271              	.LFB46:
 272              		.loc 1 145 0
 273              		.cfi_startproc
 274              		@ args = 0, pretend = 0, frame = 0
 275              		@ frame_needed = 0, uses_anonymous_args = 0
 276              	.LVL25:
 277 0000 70B5     		push	{r4, r5, r6, lr}
 278              		.cfi_def_cfa_offset 16
 279              		.cfi_offset 4, -16
 280              		.cfi_offset 5, -12
 281              		.cfi_offset 6, -8
 282              		.cfi_offset 14, -4
 283              		.loc 1 145 0
 284 0002 0446     		mov	r4, r0
 285 0004 1546     		mov	r5, r2
ARM GAS  /tmp/ccaPyqmh.s 			page 6


 286              		.loc 1 147 0
 287 0006 0D4A     		ldr	r2, .L13
 288              	.LVL26:
 289              		.loc 1 149 0
 290 0008 0026     		movs	r6, #0
 291              		.loc 1 147 0
 292 000a 40F8042B 		str	r2, [r0], #4
 293              	.LVL27:
 294              		.loc 1 150 0
 295 000e 0122     		movs	r2, #1
 296              		.loc 1 145 0
 297 0010 0B46     		mov	r3, r1
 298              		.loc 1 148 0
 299 0012 6060     		str	r0, [r4, #4]
 300              		.loc 1 150 0
 301 0014 2273     		strb	r2, [r4, #12]
 302              		.loc 1 151 0
 303 0016 04F11000 		add	r0, r4, #16
 304 001a 04F15001 		add	r1, r4, #80
 305              	.LVL28:
 306              		.loc 1 149 0
 307 001e A660     		str	r6, [r4, #8]
 308              		.loc 1 151 0
 309 0020 1022     		movs	r2, #16
 310 0022 FFF7FEFF 		bl	chIQInit
 311              	.LVL29:
 312              		.loc 1 152 0
 313 0026 2B46     		mov	r3, r5
 314 0028 04F13000 		add	r0, r4, #48
 315 002c 04F16001 		add	r1, r4, #96
 316 0030 1022     		movs	r2, #16
 317              		.loc 1 153 0
 318 0032 BDE87040 		pop	{r4, r5, r6, lr}
 319              		.cfi_restore 14
 320              		.cfi_restore 6
 321              		.cfi_restore 5
 322              		.cfi_restore 4
 323              		.cfi_def_cfa_offset 0
 324              	.LVL30:
 325              		.loc 1 152 0
 326 0036 FFF7FEBF 		b	chOQInit
 327              	.LVL31:
 328              	.L14:
 329 003a 00BF     		.align	2
 330              	.L13:
 331 003c 00000000 		.word	.LANCHOR0
 332              		.cfi_endproc
 333              	.LFE46:
 334              		.size	sdObjectInit, .-sdObjectInit
 335              		.section	.text.sdStart,"ax",%progbits
 336              		.align	2
 337              		.p2align 4,,15
 338              		.global	sdStart
 339              		.thumb
 340              		.thumb_func
 341              		.type	sdStart, %function
 342              	sdStart:
ARM GAS  /tmp/ccaPyqmh.s 			page 7


 343              	.LFB47:
 344              		.loc 1 165 0
 345              		.cfi_startproc
 346              		@ args = 0, pretend = 0, frame = 0
 347              		@ frame_needed = 0, uses_anonymous_args = 0
 348              	.LVL32:
 349 0000 10B5     		push	{r4, lr}
 350              		.cfi_def_cfa_offset 8
 351              		.cfi_offset 4, -8
 352              		.cfi_offset 14, -4
 353              	.LBB5:
 354              		.loc 1 169 0
 355 0002 2023     		movs	r3, #32
 356              	.LBE5:
 357              		.loc 1 165 0
 358 0004 0446     		mov	r4, r0
 359              	.LBB6:
 360              		.loc 1 169 0
 361              	@ 169 "/home/nicolas/Escritorio/Embebidos/stamp_repo/files/code/ext/ChibiOS/os/hal/src/serial.c" 1
 362 0006 83F31188 		msr     BASEPRI, r3
 363              	@ 0 "" 2
 364              		.thumb
 365              	.LBE6:
 366              		.loc 1 173 0
 367 000a FFF7FEFF 		bl	sd_lld_start
 368              	.LVL33:
 369              		.loc 1 174 0
 370 000e 0223     		movs	r3, #2
 371 0010 2373     		strb	r3, [r4, #12]
 372              	.LBB7:
 373              		.loc 1 175 0
 374 0012 0023     		movs	r3, #0
 375              	@ 175 "/home/nicolas/Escritorio/Embebidos/stamp_repo/files/code/ext/ChibiOS/os/hal/src/serial.c" 1
 376 0014 83F31188 		msr     BASEPRI, r3
 377              	@ 0 "" 2
 378              		.thumb
 379 0018 10BD     		pop	{r4, pc}
 380              	.LBE7:
 381              		.cfi_endproc
 382              	.LFE47:
 383              		.size	sdStart, .-sdStart
 384 001a 00BF     		.section	.text.sdStop,"ax",%progbits
 385              		.align	2
 386              		.p2align 4,,15
 387              		.global	sdStop
 388              		.thumb
 389              		.thumb_func
 390              		.type	sdStop, %function
 391              	sdStop:
 392              	.LFB48:
 393              		.loc 1 187 0
 394              		.cfi_startproc
 395              		@ args = 0, pretend = 0, frame = 0
 396              		@ frame_needed = 0, uses_anonymous_args = 0
 397              	.LVL34:
 398 0000 10B5     		push	{r4, lr}
 399              		.cfi_def_cfa_offset 8
ARM GAS  /tmp/ccaPyqmh.s 			page 8


 400              		.cfi_offset 4, -8
 401              		.cfi_offset 14, -4
 402              	.LBB8:
 403              		.loc 1 191 0
 404 0002 2023     		movs	r3, #32
 405              	.LBE8:
 406              		.loc 1 187 0
 407 0004 0446     		mov	r4, r0
 408              	.LBB9:
 409              		.loc 1 191 0
 410              	@ 191 "/home/nicolas/Escritorio/Embebidos/stamp_repo/files/code/ext/ChibiOS/os/hal/src/serial.c" 1
 411 0006 83F31188 		msr     BASEPRI, r3
 412              	@ 0 "" 2
 413              		.thumb
 414              	.LBE9:
 415              		.loc 1 195 0
 416 000a FFF7FEFF 		bl	sd_lld_stop
 417              	.LVL35:
 418              		.loc 1 196 0
 419 000e 0123     		movs	r3, #1
 420 0010 2373     		strb	r3, [r4, #12]
 421              		.loc 1 197 0
 422 0012 04F13000 		add	r0, r4, #48
 423 0016 FFF7FEFF 		bl	chOQResetI
 424              	.LVL36:
 425              		.loc 1 198 0
 426 001a 04F11000 		add	r0, r4, #16
 427 001e FFF7FEFF 		bl	chIQResetI
 428              	.LVL37:
 429              		.loc 1 199 0
 430 0022 FFF7FEFF 		bl	chSchRescheduleS
 431              	.LVL38:
 432              	.LBB10:
 433              		.loc 1 200 0
 434 0026 0023     		movs	r3, #0
 435              	@ 200 "/home/nicolas/Escritorio/Embebidos/stamp_repo/files/code/ext/ChibiOS/os/hal/src/serial.c" 1
 436 0028 83F31188 		msr     BASEPRI, r3
 437              	@ 0 "" 2
 438              		.thumb
 439 002c 10BD     		pop	{r4, pc}
 440              	.LBE10:
 441              		.cfi_endproc
 442              	.LFE48:
 443              		.size	sdStop, .-sdStop
 444 002e 00BF     		.section	.text.sdIncomingDataI,"ax",%progbits
 445              		.align	2
 446              		.p2align 4,,15
 447              		.global	sdIncomingDataI
 448              		.thumb
 449              		.thumb_func
 450              		.type	sdIncomingDataI, %function
 451              	sdIncomingDataI:
 452              	.LFB49:
 453              		.loc 1 219 0
 454              		.cfi_startproc
 455              		@ args = 0, pretend = 0, frame = 0
 456              		@ frame_needed = 0, uses_anonymous_args = 0
ARM GAS  /tmp/ccaPyqmh.s 			page 9


 457              	.LVL39:
 458 0000 38B5     		push	{r3, r4, r5, lr}
 459              		.cfi_def_cfa_offset 16
 460              		.cfi_offset 3, -16
 461              		.cfi_offset 4, -12
 462              		.cfi_offset 5, -8
 463              		.cfi_offset 14, -4
 464              		.loc 1 224 0
 465 0002 8369     		ldr	r3, [r0, #24]
 466              		.loc 1 219 0
 467 0004 0446     		mov	r4, r0
 468 0006 0D46     		mov	r5, r1
 469              		.loc 1 224 0
 470 0008 3BB1     		cbz	r3, .L24
 471              		.loc 1 226 0
 472 000a 2946     		mov	r1, r5
 473              	.LVL40:
 474 000c 04F11000 		add	r0, r4, #16
 475              	.LVL41:
 476 0010 FFF7FEFF 		bl	chIQPutI
 477              	.LVL42:
 478 0014 0028     		cmp	r0, #0
 479 0016 0FDB     		blt	.L25
 480              	.L19:
 481 0018 38BD     		pop	{r3, r4, r5, pc}
 482              	.LVL43:
 483              	.L24:
 484              		.loc 1 225 0
 485 001a 8268     		ldr	r2, [r0, #8]
 486 001c 1946     		mov	r1, r3
 487              	.LVL44:
 488 001e 42F00402 		orr	r2, r2, #4
 489 0022 8260     		str	r2, [r0, #8]
 490 0024 0430     		adds	r0, r0, #4
 491              	.LVL45:
 492 0026 FFF7FEFF 		bl	chEvtBroadcastFlagsI
 493              	.LVL46:
 494              		.loc 1 226 0
 495 002a 2946     		mov	r1, r5
 496 002c 04F11000 		add	r0, r4, #16
 497 0030 FFF7FEFF 		bl	chIQPutI
 498              	.LVL47:
 499 0034 0028     		cmp	r0, #0
 500 0036 EFDA     		bge	.L19
 501              	.L25:
 502              		.loc 1 227 0
 503 0038 A368     		ldr	r3, [r4, #8]
 504 003a 201D     		adds	r0, r4, #4
 505 003c 43F08003 		orr	r3, r3, #128
 506 0040 A360     		str	r3, [r4, #8]
 507 0042 0021     		movs	r1, #0
 508              		.loc 1 228 0
 509 0044 BDE83840 		pop	{r3, r4, r5, lr}
 510              		.cfi_restore 14
 511              		.cfi_restore 5
 512              		.cfi_restore 4
 513              		.cfi_restore 3
ARM GAS  /tmp/ccaPyqmh.s 			page 10


 514              		.cfi_def_cfa_offset 0
 515              	.LVL48:
 516              		.loc 1 227 0
 517 0048 FFF7FEBF 		b	chEvtBroadcastFlagsI
 518              	.LVL49:
 519              		.cfi_endproc
 520              	.LFE49:
 521              		.size	sdIncomingDataI, .-sdIncomingDataI
 522              		.section	.text.sdRequestDataI,"ax",%progbits
 523              		.align	2
 524              		.p2align 4,,15
 525              		.global	sdRequestDataI
 526              		.thumb
 527              		.thumb_func
 528              		.type	sdRequestDataI, %function
 529              	sdRequestDataI:
 530              	.LFB50:
 531              		.loc 1 245 0
 532              		.cfi_startproc
 533              		@ args = 0, pretend = 0, frame = 0
 534              		@ frame_needed = 0, uses_anonymous_args = 0
 535              	.LVL50:
 536 0000 38B5     		push	{r3, r4, r5, lr}
 537              		.cfi_def_cfa_offset 16
 538              		.cfi_offset 3, -16
 539              		.cfi_offset 4, -12
 540              		.cfi_offset 5, -8
 541              		.cfi_offset 14, -4
 542              		.loc 1 245 0
 543 0002 0446     		mov	r4, r0
 544              		.loc 1 251 0
 545 0004 3030     		adds	r0, r0, #48
 546              	.LVL51:
 547 0006 FFF7FEFF 		bl	chOQGetI
 548              	.LVL52:
 549              		.loc 1 252 0
 550 000a 051E     		subs	r5, r0, #0
 551 000c 01DB     		blt	.L29
 552              		.loc 1 255 0
 553 000e 2846     		mov	r0, r5
 554 0010 38BD     		pop	{r3, r4, r5, pc}
 555              	.LVL53:
 556              	.L29:
 557              		.loc 1 253 0
 558 0012 A368     		ldr	r3, [r4, #8]
 559 0014 201D     		adds	r0, r4, #4
 560              	.LVL54:
 561 0016 43F00803 		orr	r3, r3, #8
 562 001a A360     		str	r3, [r4, #8]
 563 001c 0021     		movs	r1, #0
 564 001e FFF7FEFF 		bl	chEvtBroadcastFlagsI
 565              	.LVL55:
 566              		.loc 1 255 0
 567 0022 2846     		mov	r0, r5
 568 0024 38BD     		pop	{r3, r4, r5, pc}
 569              		.cfi_endproc
 570              	.LFE50:
ARM GAS  /tmp/ccaPyqmh.s 			page 11


 571              		.size	sdRequestDataI, .-sdRequestDataI
 572 0026 00BF     		.section	.rodata.vmt,"a",%progbits
 573              		.align	2
 574              		.set	.LANCHOR0,. + 0
 575              		.type	vmt, %object
 576              		.size	vmt, 36
 577              	vmt:
 578 0000 00000000 		.word	writes
 579 0004 00000000 		.word	reads
 580 0008 00000000 		.word	putwouldblock
 581 000c 00000000 		.word	getwouldblock
 582 0010 00000000 		.word	putt
 583 0014 00000000 		.word	gett
 584 0018 00000000 		.word	writet
 585 001c 00000000 		.word	readt
 586 0020 00000000 		.word	getflags
 587              		.text
 588              	.Letext0:
 589              		.file 2 "/opt/gcc-arm-none-eabi-4_9-2015q3/lib/gcc/arm-none-eabi/4.9.3/include/stddef.h"
 590              		.file 3 "/opt/gcc-arm-none-eabi-4_9-2015q3/arm-none-eabi/include/machine/_default_types.h"
 591              		.file 4 "/opt/gcc-arm-none-eabi-4_9-2015q3/arm-none-eabi/include/sys/_stdint.h"
 592              		.file 5 "/opt/gcc-arm-none-eabi-4_9-2015q3/arm-none-eabi/include/stdint.h"
 593              		.file 6 "/home/nicolas/Escritorio/Embebidos/stamp_repo/files/code/ext/ChibiOS/os/ports/GCC/ARMCMx/
 594              		.file 7 "/home/nicolas/Escritorio/Embebidos/stamp_repo/files/code/ext/ChibiOS/os/kernel/include/ch
 595              		.file 8 "/home/nicolas/Escritorio/Embebidos/stamp_repo/files/code/ext/ChibiOS/os/kernel/include/ch
 596              		.file 9 "/home/nicolas/Escritorio/Embebidos/stamp_repo/files/code/ext/ChibiOS/os/ports/GCC/ARMCMx/
 597              		.file 10 "/home/nicolas/Escritorio/Embebidos/stamp_repo/files/code/ext/ChibiOS/os/kernel/include/c
 598              		.file 11 "/home/nicolas/Escritorio/Embebidos/stamp_repo/files/code/ext/ChibiOS/os/kernel/include/c
 599              		.file 12 "/home/nicolas/Escritorio/Embebidos/stamp_repo/files/code/ext/ChibiOS/os/kernel/include/c
 600              		.file 13 "/home/nicolas/Escritorio/Embebidos/stamp_repo/files/code/ext/ChibiOS/os/kernel/include/c
 601              		.file 14 "/home/nicolas/Escritorio/Embebidos/stamp_repo/files/code/ext/ChibiOS/os/hal/platforms/AT
 602              		.file 15 "/home/nicolas/Escritorio/Embebidos/stamp_repo/files/code/ext/ChibiOS/os/hal/include/seri
 603              		.file 16 "/home/nicolas/Escritorio/Embebidos/stamp_repo/files/code/ext/ChibiOS/os/hal/platforms/AT
 604              		.file 17 "/home/nicolas/Escritorio/Embebidos/stamp_repo/files/code/ext/ChibiOS/os/kernel/include/c
 605              		.file 18 "/home/nicolas/Escritorio/Embebidos/stamp_repo/files/code/ext/ChibiOS/os/hal/platforms/AT