ARM GAS  /tmp/ccaPyqmh.s 			page 1


   1              		.syntax unified
   2              		.cpu cortex-m3
   3              		.fpu softvfp
   4              		.eabi_attribute 20, 1
   5              		.eabi_attribute 21, 1
   6              		.eabi_attribute 23, 3
   7              		.eabi_attribute 24, 1
   8              		.eabi_attribute 25, 1
   9              		.eabi_attribute 26, 1
  10              		.eabi_attribute 30, 2
  11              		.eabi_attribute 34, 1
  12              		.eabi_attribute 18, 4
  13              		.thumb
  14              		.file	"serial.c"
  15              		.text
  16              	.Ltext0:
  17              		.cfi_sections	.debug_frame
  18              		.section	.text.putwouldblock,"ax",%progbits
  19              		.align	2
  20              		.p2align 4,,15
  21              		.thumb
  22              		.thumb_func
  23              		.type	putwouldblock, %function
  24              	putwouldblock:
  25              	.LFB38:
  26              		.file 1 "/home/nicolas/Escritorio/Embebidos/stamp_repo/files/code/ext/ChibiOS/os/hal/src/serial.c"
  27              		.loc 1 74 0
  28              		.cfi_startproc
  29              		@ args = 0, pretend = 0, frame = 0
  30              		@ frame_needed = 0, uses_anonymous_args = 0
  31              		@ link register save eliminated.
  32              	.LVL0:
  33              		.loc 1 76 0
  34 0000 806B     		ldr	r0, [r0, #56]
  35              	.LVL1:
  36              		.loc 1 77 0
  37 0002 B0FA80F0 		clz	r0, r0
  38 0006 4009     		lsrs	r0, r0, #5
  39 0008 7047     		bx	lr
  40              		.cfi_endproc
  41              	.LFE38:
  42              		.size	putwouldblock, .-putwouldblock
  43 000a 00BF     		.section	.text.getwouldblock,"ax",%progbits
  44              		.align	2
  45              		.p2align 4,,15
  46              		.thumb
  47              		.thumb_func
  48              		.type	getwouldblock, %function
  49              	getwouldblock:
  50              	.LFB39:
  51              		.loc 1 79 0
  52              		.cfi_startproc
  53              		@ args = 0, pretend = 0, frame = 0
  54              		@ frame_needed = 0, uses_anonymous_args = 0
  55              		@ link register save eliminated.
  56              	.LVL2:
  57              		.loc 1 81 0
ARM GAS  /tmp/ccaPyqmh.s 			page 2


  58 0000 8069     		ldr	r0, [r0, #24]
  59              	.LVL3:
  60              		.loc 1 82 0
  61 0002 B0FA80F0 		clz	r0, r0
  62 0006 4009     		lsrs	r0, r0, #5
  63 0008 7047     		bx	lr
  64              		.cfi_endproc
  65              	.LFE39:
  66              		.size	getwouldblock, .-getwouldblock
  67 000a 00BF     		.section	.text.getflags,"ax",%progbits
  68              		.align	2
  69              		.p2align 4,,15
  70              		.thumb
  71              		.thumb_func
  72              		.type	getflags, %function
  73              	getflags:
  74              	.LFB44:
  75              		.loc 1 104 0
  76              		.cfi_startproc
  77              		@ args = 0, pretend = 0, frame = 0
  78              		@ frame_needed = 0, uses_anonymous_args = 0
  79              		@ link register save eliminated.
  80              	.LVL4:
  81              		.loc 1 104 0
  82 0000 0246     		mov	r2, r0
  83              	.LBB2:
  84              		.loc 1 105 0
  85 0002 2023     		movs	r3, #32
  86              	@ 105 "/home/nicolas/Escritorio/Embebidos/stamp_repo/files/code/ext/ChibiOS/os/hal/src/serial.c" 1
  87 0004 83F31188 		msr     BASEPRI, r3
  88              	@ 0 "" 2
  89              		.thumb
  90              	.LBE2:
  91 0008 0021     		movs	r1, #0
  92 000a 8068     		ldr	r0, [r0, #8]
  93              	.LVL5:
  94              	.LBB3:
  95 000c 0B46     		mov	r3, r1
  96              	.LBE3:
  97 000e 9160     		str	r1, [r2, #8]
  98              	.LBB4:
  99              	@ 105 "/home/nicolas/Escritorio/Embebidos/stamp_repo/files/code/ext/ChibiOS/os/hal/src/serial.c" 1
 100 0010 83F31188 		msr     BASEPRI, r3
 101              	@ 0 "" 2
 102              		.thumb
 103              	.LBE4:
 104              		.loc 1 106 0
 105 0014 7047     		bx	lr
 106              		.cfi_endproc
 107              	.LFE44:
 108              		.size	getflags, .-getflags
 109 0016 00BF     		.section	.text.readt,"ax",%progbits
 110              		.align	2
 111              		.p2align 4,,15
 112              		.thumb
 113              		.thumb_func
 114              		.type	readt, %function
ARM GAS  /tmp/ccaPyqmh.s 			page 3


 115              	readt:
 116              	.LFB43:
 117              		.loc 1 99 0
 118              		.cfi_startproc
 119              		@ args = 0, pretend = 0, frame = 0
 120              		@ frame_needed = 0, uses_anonymous_args = 0
 121              		@ link register save eliminated.
 122              	.LVL6:
 123              		.loc 1 101 0
 124 0000 1030     		adds	r0, r0, #16
 125              	.LVL7:
 126 0002 FFF7FEBF 		b	chIQReadTimeout
 127              	.LVL8:
 128              		.cfi_endproc
 129              	.LFE43:
 130              		.size	readt, .-readt
 131 0006 00BF     		.section	.text.reads,"ax",%progbits
 132              		.align	2
 133              		.p2align 4,,15
 134              		.thumb
 135              		.thumb_func
 136              		.type	reads, %function
 137              	reads:
 138              	.LFB37:
 139              		.loc 1 68 0
 140              		.cfi_startproc
 141              		@ args = 0, pretend = 0, frame = 0
 142              		@ frame_needed = 0, uses_anonymous_args = 0
 143              		@ link register save eliminated.
 144              	.LVL9:
 145              		.loc 1 70 0
 146 0000 1030     		adds	r0, r0, #16
 147              	.LVL10:
 148 0002 4FF0FF33 		mov	r3, #-1
 149 0006 FFF7FEBF 		b	chIQReadTimeout
 150              	.LVL11:
 151              		.cfi_endproc
 152              	.LFE37:
 153              		.size	reads, .-reads
 154 000a 00BF     		.section	.text.writet,"ax",%progbits
 155              		.align	2
 156              		.p2align 4,,15
 157              		.thumb
 158              		.thumb_func
 159              		.type	writet, %function
 160              	writet:
 161              	.LFB42:
 162              		.loc 1 94 0
 163              		.cfi_startproc
 164              		@ args = 0, pretend = 0, frame = 0
 165              		@ frame_needed = 0, uses_anonymous_args = 0
 166              		@ link register save eliminated.
 167              	.LVL12:
 168              		.loc 1 96 0
 169 0000 3030     		adds	r0, r0, #48
 170              	.LVL13:
 171 0002 FFF7FEBF 		b	chOQWriteTimeout
ARM GAS  /tmp/ccaPyqmh.s 			page 4


 172              	.LVL14:
 173              		.cfi_endproc
 174              	.LFE42:
 175              		.size	writet, .-writet
 176 0006 00BF     		.section	.text.writes,"ax",%progbits
 177              		.align	2
 178              		.p2align 4,,15
 179              		.thumb
 180              		.thumb_func
 181              		.type	writes, %function
 182              	writes:
 183              	.LFB36:
 184              		.loc 1 62 0
 185              		.cfi_startproc
 186              		@ args = 0, pretend = 0, frame = 0
 187              		@ frame_needed = 0, uses_anonymous_args = 0
 188              		@ link register save eliminated.
 189              	.LVL15:
 190              		.loc 1 64 0
 191 0000 3030     		adds	r0, r0, #48
 192              	.LVL16:
 193 0002 4FF0FF33 		mov	r3, #-1
 194 0006 FFF7FEBF 		b	chOQWriteTimeout
 195              	.LVL17:
 196              		.cfi_endproc
 197              	.LFE36:
 198              		.size	writes, .-writes
 199 000a 00BF     		.section	.text.gett,"ax",%progbits
 200              		.align	2
 201              		.p2align 4,,15
 202              		.thumb
 203              		.thumb_func
 204              		.type	gett, %function
 205              	gett:
 206              	.LFB41:
 207              		.loc 1 89 0
 208              		.cfi_startproc
 209              		@ args = 0, pretend = 0, frame = 0
 210              		@ frame_needed = 0, uses_anonymous_args = 0
 211              		@ link register save eliminated.
 212              	.LVL18:
 213              		.loc 1 91 0
 214 0000 1030     		adds	r0, r0, #16
 215              	.LVL19:
 216 0002 FFF7FEBF 		b	chIQGetTimeout
 217              	.LVL20:
 218              		.cfi_endproc
 219              	.LFE41:
 220              		.size	gett, .-gett
 221 0006 00BF     		.section	.text.putt,"ax",%progbits
 222              		.align	2
 223              		.p2align 4,,15
 224              		.thumb
 225              		.thumb_func
 226              		.type	putt, %function
 227              	putt:
 228              	.LFB40:
ARM GAS  /tmp/ccaPyqmh.s 			page 5


 229              		.loc 1 84 0
 230              		.cfi_startproc
 231              		@ args = 0, pretend = 0, frame = 0
 232              		@ frame_needed = 0, uses_anonymous_args = 0
 233              		@ link register save eliminated.
 234              	.LVL21:
 235              		.loc 1 86 0
 236 0000 3030     		adds	r0, r0, #48
 237              	.LVL22:
 238 0002 FFF7FEBF 		b	chOQPutTimeout
 239              	.LVL23:
 240              		.cfi_endproc
 241              	.LFE40:
 242              		.size	putt, .-putt
 243 0006 00BF     		.section	.text.sdInit,"ax",%progbits
 244              		.align	2
 245              		.p2align 4,,15
 246              		.global	sdInit
 247              		.thumb
 248              		.thumb_func
 249              		.type	sdInit, %function
 250              	sdInit:
 251              	.LFB45:
 252              		.loc 1 125 0
 253              		.cfi_startproc
 254              		@ args = 0, pretend = 0, frame = 0
 255              		@ frame_needed = 0, uses_anonymous_args = 0
 256              		@ link register save eliminated.
 257              		.loc 1 127 0
 258 0000 FFF7FEBF 		b	sd_lld_init
 259              	.LVL24:
 260              		.cfi_endproc
 261              	.LFE45:
 262              		.size	sdInit, .-sdInit
 263              		.section	.text.sdObjectInit,"ax",%progbits
 264              		.align	2
 265              		.p2align 4,,15
 266              		.global	sdObjectInit
 267              		.thumb
 268              		.thumb_func
 269              		.type	sdObjectInit, %function
 270              	sdObjectInit:
 271              	.LFB46:
 272              		.loc 1 145 0
 273              		.cfi_startproc
 274              		@ args = 0, pretend = 0, frame = 0
 275              		@ frame_needed = 0, uses_anonymous_args = 0
 276              	.LVL25:
 277 0000 70B5     		push	{r4, r5, r6, lr}
 278              		.cfi_def_cfa_offset 16
 279              		.cfi_offset 4, -16
 280              		.cfi_offset 5, -12
 281              		.cfi_offset 6, -8
 282              		.cfi_offset 14, -4
 283              		.loc 1 145 0
 284 0002 0446     		mov	r4, r0
 285 0004 1546     		mov	r5, r2
ARM GAS  /tmp/ccaPyqmh.s 			page 6


 286              		.loc 1 147 0
 287 0006 0D4A     		ldr	r2, .L13
 288              	.LVL26:
 289              		.loc 1 149 0
 290 0008 0026     		movs	r6, #0
 291              		.loc 1 147 0
 292 000a 40F8042B 		str	r2, [r0], #4
 293              	.LVL27:
 294              		.loc 1 150 0
 295 000e 0122     		movs	r2, #1
 296              		.loc 1 145 0
 297 0010 0B46     		mov	r3, r1
 298              		.loc 1 148 0
 299 0012 6060     		str	r0, [r4, #4]
 300              		.loc 1 150 0
 301 0014 2273     		strb	r2, [r4, #12]
 302              		.loc 1 151 0
 303 0016 04F11000 		add	r0, r4, #16
 304 001a 04F15001 		add	r1, r4, #80
 305              	.LVL28:
 306              		.loc 1 149 0
 307 001e A660     		str	r6, [r4, #8]
 308              		.loc 1 151 0
 309 0020 1022     		movs	r2, #16
 310 0022 FFF7FEFF 		bl	chIQInit
 311              	.LVL29:
 312              		.loc 1 152 0
 313 0026 2B46     		mov	r3, r5
 314 0028 04F13000 		add	r0, r4, #48
 315 002c 04F16001 		add	r1, r4, #96
 316 0030 1022     		movs	r2, #16
 317              		.loc 1 153 0
 318 0032 BDE87040 		pop	{r4, r5, r6, lr}
 319              		.cfi_restore 14
 320              		.cfi_restore 6
 321              		.cfi_restore 5
 322              		.cfi_restore 4
 323              		.cfi_def_cfa_offset 0
 324              	.LVL30:
 325              		.loc 1 152 0
 326 0036 FFF7FEBF 		b	chOQInit
 327              	.LVL31:
 328              	.L14:
 329 003a 00BF     		.align	2
 330              	.L13:
 331 003c 00000000 		.word	.LANCHOR0
 332              		.cfi_endproc
 333              	.LFE46:
 334              		.size	sdObjectInit, .-sdObjectInit
 335              		.section	.text.sdStart,"ax",%progbits
 336              		.align	2
 337              		.p2align 4,,15
 338              		.global	sdStart
 339              		.thumb
 340              		.thumb_func
 341              		.type	sdStart, %function
 342              	sdStart:
ARM GAS  /tmp/ccaPyqmh.s 			page 7


 343              	.LFB47:
 344              		.loc 1 165 0
 345              		.cfi_startproc
 346              		@ args = 0, pretend = 0, frame = 0
 347              		@ frame_needed = 0, uses_anonymous_args = 0
 348              	.LVL32:
 349 0000 10B5     		push	{r4, lr}
 350              		.cfi_def_cfa_offset 8
 351              		.cfi_offset 4, -8
 352              		.cfi_offset 14, -4
 353              	.LBB5:
 354              		.loc 1 169 0
 355 0002 2023     		movs	r3, #32
 356              	.LBE5:
 357              		.loc 1 165 0
 358 0004 0446     		mov	r4, r0
 359              	.LBB6:
 360              		.loc 1 169 0
 361              	@ 169 "/home/nicolas/Escritorio/Embebidos/stamp_repo/files/code/ext/ChibiOS/os/hal/src/serial.c" 1
 362 0006 83F31188 		msr     BASEPRI, r3
 363              	@ 0 "" 2
 364              		.thumb
 365              	.LBE6:
 366              		.loc 1 173 0
 367 000a FFF7FEFF 		bl	sd_lld_start
 368              	.LVL33:
 369              		.loc 1 174 0
 370 000e 0223     		movs	r3, #2
 371 0010 2373     		strb	r3, [r4, #12]
 372              	.LBB7:
 373              		.loc 1 175 0
 374 0012 0023     		movs	r3, #0
 375              	@ 175 "/home/nicolas/Escritorio/Embebidos/stamp_repo/files/code/ext/ChibiOS/os/hal/src/serial.c" 1
 376 0014 83F31188 		msr     BASEPRI, r3
 377              	@ 0 "" 2
 378              		.thumb
 379 0018 10BD     		pop	{r4, pc}
 380              	.LBE7:
 381              		.cfi_endproc
 382              	.LFE47:
 383              		.size	sdStart, .-sdStart
 384 001a 00BF     		.section	.text.sdStop,"ax",%progbits
 385              		.align	2
 386              		.p2align 4,,15
 387              		.global	sdStop
 388              		.thumb
 389              		.thumb_func
 390              		.type	sdStop, %function
 391              	sdStop:
 392              	.LFB48:
 393              		.loc 1 187 0
 394              		.cfi_startproc
 395              		@ args = 0, pretend = 0, frame = 0
 396              		@ frame_needed = 0, uses_anonymous_args = 0
 397              	.LVL34:
 398 0000 10B5     		push	{r4, lr}
 399              		.cfi_def_cfa_offset 8
ARM GAS  /tmp/ccaPyqmh.s 			page 8


 400              		.cfi_offset 4, -8
 401              		.cfi_offset 14, -4
 402              	.LBB8:
 403              		.loc 1 191 0
 404 0002 2023     		movs	r3, #32
 405              	.LBE8:
 406              		.loc 1 187 0
 407 0004 0446     		mov	r4, r0
 408              	.LBB9:
 409              		.loc 1 191 0
 410              	@ 191 "/home/nicolas/Escritorio/Embebidos/stamp_repo/files/code/ext/ChibiOS/os/hal/src/serial.c" 1
 411 0006 83F31188 		msr     BASEPRI, r3
 412              	@ 0 "" 2
 413              		.thumb
 414              	.LBE9:
 415              		.loc 1 195 0
 416 000a FFF7FEFF 		bl	sd_lld_stop
 417              	.LVL35:
 418              		.loc 1 196 0
 419 000e 0123     		movs	r3, #1
 420 0010 2373     		strb	r3, [r4, #12]
 421              		.loc 1 197 0
 422 0012 04F13000 		add	r0, r4, #48
 423 0016 FFF7FEFF 		bl	chOQResetI
 424              	.LVL36:
 425              		.loc 1 198 0
 426 001a 04F11000 		add	r0, r4, #16
 427 001e FFF7FEFF 		bl	chIQResetI
 428              	.LVL37:
 429              		.loc 1 199 0
 430 0022 FFF7FEFF 		bl	chSchRescheduleS
 431              	.LVL38:
 432              	.LBB10:
 433              		.loc 1 200 0
 434 0026 0023     		movs	r3, #0
 435              	@ 200 "/home/nicolas/Escritorio/Embebidos/stamp_repo/files/code/ext/ChibiOS/os/hal/src/serial.c" 1
 436 0028 83F31188 		msr     BASEPRI, r3
 437              	@ 0 "" 2
 438              		.thumb
 439 002c 10BD     		pop	{r4, pc}
 440              	.LBE10:
 441              		.cfi_endproc
 442              	.LFE48:
 443              		.size	sdStop, .-sdStop
 444 002e 00BF     		.section	.text.sdIncomingDataI,"ax",%progbits
 445              		.align	2
 446              		.p2align 4,,15
 447              		.global	sdIncomingDataI
 448              		.thumb
 449              		.thumb_func
 450              		.type	sdIncomingDataI, %function
 451              	sdIncomingDataI:
 452              	.LFB49:
 453              		.loc 1 219 0
 454              		.cfi_startproc
 455              		@ args = 0, pretend = 0, frame = 0
 456              		@ frame_needed = 0, uses_anonymous_args = 0
ARM GAS  /tmp/ccaPyqmh.s 			page 9


 457              	.LVL39:
 458 0000 38B5     		push	{r3, r4, r5, lr}
 459              		.cfi_def_cfa_offset 16
 460              		.cfi_offset 3, -16
 461              		.cfi_offset 4, -12
 462              		.cfi_offset 5, -8
 463              		.cfi_offset 14, -4
 464              		.loc 1 224 0
 465 0002 8369     		ldr	r3, [r0, #24]
 466              		.loc 1 219 0
 467 0004 0446     		mov	r4, r0
 468 0006 0D46     		mov	r5, r1
 469              		.loc 1 224 0
 470 0008 3BB1     		cbz	r3, .L24
 471              		.loc 1 226 0
 472 000a 2946     		mov	r1, r5
 473              	.LVL40:
 474 000c 04F11000 		add	r0, r4, #16
 475              	.LVL41:
 476 0010 FFF7FEFF 		bl	chIQPutI
 477              	.LVL42:
 478 0014 0028     		cmp	r0, #0
 479 0016 0FDB     		blt	.L25
 480              	.L19:
 481 0018 38BD     		pop	{r3, r4, r5, pc}
 482              	.LVL43:
 483              	.L24:
 484              		.loc 1 225 0
 485 001a 8268     		ldr	r2, [r0, #8]
 486 001c 1946     		mov	r1, r3
 487              	.LVL44:
 488 001e 42F00402 		orr	r2, r2, #4
 489 0022 8260     		str	r2, [r0, #8]
 490 0024 0430     		adds	r0, r0, #4
 491              	.LVL45:
 492 0026 FFF7FEFF 		bl	chEvtBroadcastFlagsI
 493              	.LVL46:
 494              		.loc 1 226 0
 495 002a 2946     		mov	r1, r5
 496 002c 04F11000 		add	r0, r4, #16
 497 0030 FFF7FEFF 		bl	chIQPutI
 498              	.LVL47:
 499 0034 0028     		cmp	r0, #0
 500 0036 EFDA     		bge	.L19
 501              	.L25:
 502              		.loc 1 227 0
 503 0038 A368     		ldr	r3, [r4, #8]
 504 003a 201D     		adds	r0, r4, #4
 505 003c 43F08003 		orr	r3, r3, #128
 506 0040 A360     		str	r3, [r4, #8]
 507 0042 0021     		movs	r1, #0
 508              		.loc 1 228 0
 509 0044 BDE83840 		pop	{r3, r4, r5, lr}
 510              		.cfi_restore 14
 511              		.cfi_restore 5
 512              		.cfi_restore 4
 513              		.cfi_restore 3
ARM GAS  /tmp/ccaPyqmh.s 			page 10


 514              		.cfi_def_cfa_offset 0
 515              	.LVL48:
 516              		.loc 1 227 0
 517 0048 FFF7FEBF 		b	chEvtBroadcastFlagsI
 518              	.LVL49:
 519              		.cfi_endproc
 520              	.LFE49:
 521              		.size	sdIncomingDataI, .-sdIncomingDataI
 522              		.section	.text.sdRequestDataI,"ax",%progbits
 523              		.align	2
 524              		.p2align 4,,15
 525              		.global	sdRequestDataI
 526              		.thumb
 527              		.thumb_func
 528              		.type	sdRequestDataI, %function
 529              	sdRequestDataI:
 530              	.LFB50:
 531              		.loc 1 245 0
 532              		.cfi_startproc
 533              		@ args = 0, pretend = 0, frame = 0
 534              		@ frame_needed = 0, uses_anonymous_args = 0
 535              	.LVL50:
 536 0000 38B5     		push	{r3, r4, r5, lr}
 537              		.cfi_def_cfa_offset 16
 538              		.cfi_offset 3, -16
 539              		.cfi_offset 4, -12
 540              		.cfi_offset 5, -8
 541              		.cfi_offset 14, -4
 542              		.loc 1 245 0
 543 0002 0446     		mov	r4, r0
 544              		.loc 1 251 0
 545 0004 3030     		adds	r0, r0, #48
 546              	.LVL51:
 547 0006 FFF7FEFF 		bl	chOQGetI
 548              	.LVL52:
 549              		.loc 1 252 0
 550 000a 051E     		subs	r5, r0, #0
 551 000c 01DB     		blt	.L29
 552              		.loc 1 255 0
 553 000e 2846     		mov	r0, r5
 554 0010 38BD     		pop	{r3, r4, r5, pc}
 555              	.LVL53:
 556              	.L29:
 557              		.loc 1 253 0
 558 0012 A368     		ldr	r3, [r4, #8]
 559 0014 201D     		adds	r0, r4, #4
 560              	.LVL54:
 561 0016 43F00803 		orr	r3, r3, #8
 562 001a A360     		str	r3, [r4, #8]
 563 001c 0021     		movs	r1, #0
 564 001e FFF7FEFF 		bl	chEvtBroadcastFlagsI
 565              	.LVL55:
 566              		.loc 1 255 0
 567 0022 2846     		mov	r0, r5
 568 0024 38BD     		pop	{r3, r4, r5, pc}
 569              		.cfi_endproc
 570              	.LFE50:
ARM GAS  /tmp/ccaPyqmh.s 			page 11


 571              		.size	sdRequestDataI, .-sdRequestDataI
 572 0026 00BF     		.section	.rodata.vmt,"a",%progbits
 573              		.align	2
 574              		.set	.LANCHOR0,. + 0
 575              		.type	vmt, %object
 576              		.size	vmt, 36
 577              	vmt:
 578 0000 00000000 		.word	writes
 579 0004 00000000 		.word	reads
 580 0008 00000000 		.word	putwouldblock
 581 000c 00000000 		.word	getwouldblock
 582 0010 00000000 		.word	putt
 583 0014 00000000 		.word	gett
 584 0018 00000000 		.word	writet
 585 001c 00000000 		.word	readt
 586 0020 00000000 		.word	getflags
 587              		.text
 588              	.Letext0:
 589              		.file 2 "/opt/gcc-arm-none-eabi-4_9-2015q3/lib/gcc/arm-none-eabi/4.9.3/include/stddef.h"
 590              		.file 3 "/opt/gcc-arm-none-eabi-4_9-2015q3/arm-none-eabi/include/machine/_default_types.h"
 591              		.file 4 "/opt/gcc-arm-none-eabi-4_9-2015q3/arm-none-eabi/include/sys/_stdint.h"
 592              		.file 5 "/opt/gcc-arm-none-eabi-4_9-2015q3/arm-none-eabi/include/stdint.h"
 593              		.file 6 "/home/nicolas/Escritorio/Embebidos/stamp_repo/files/code/ext/ChibiOS/os/ports/GCC/ARMCMx/
 594              		.file 7 "/home/nicolas/Escritorio/Embebidos/stamp_repo/files/code/ext/ChibiOS/os/kernel/include/ch
 595              		.file 8 "/home/nicolas/Escritorio/Embebidos/stamp_repo/files/code/ext/ChibiOS/os/kernel/include/ch
 596              		.file 9 "/home/nicolas/Escritorio/Embebidos/stamp_repo/files/code/ext/ChibiOS/os/ports/GCC/ARMCMx/
 597              		.file 10 "/home/nicolas/Escritorio/Embebidos/stamp_repo/files/code/ext/ChibiOS/os/kernel/include/c
 598              		.file 11 "/home/nicolas/Escritorio/Embebidos/stamp_repo/files/code/ext/ChibiOS/os/kernel/include/c
 599              		.file 12 "/home/nicolas/Escritorio/Embebidos/stamp_repo/files/code/ext/ChibiOS/os/kernel/include/c
 600              		.file 13 "/home/nicolas/Escritorio/Embebidos/stamp_repo/files/code/ext/ChibiOS/os/kernel/include/c
 601              		.file 14 "/home/nicolas/Escritorio/Embebidos/stamp_repo/files/code/ext/ChibiOS/os/hal/platforms/AT
 602              		.file 15 "/home/nicolas/Escritorio/Embebidos/stamp_repo/files/code/ext/ChibiOS/os/hal/include/seri
 603              		.file 16 "/home/nicolas/Escritorio/Embebidos/stamp_repo/files/code/ext/ChibiOS/os/hal/platforms/AT
 604              		.file 17 "/home/nicolas/Escritorio/Embebidos/stamp_repo/files/code/ext/ChibiOS/os/kernel/include/c
 605              		.file 18 "/home/nicolas/Escritorio/Embebidos/stamp_repo/files/code/ext/ChibiOS/os/hal/platforms/AT
 606              		.section	.debug_info,"",%progbits
 607              	.Ldebug_info0:
 608 0000 E1100000 		.4byte	0x10e1
 609 0004 0400     		.2byte	0x4
 610 0006 00000000 		.4byte	.Ldebug_abbrev0
 611 000a 04       		.byte	0x4
 612 000b 01       		.uleb128 0x1
 613 000c 55000000 		.4byte	.LASF155
 614 0010 01       		.byte	0x1
 615 0011 A4050000 		.4byte	.LASF156
 616 0015 48000000 		.4byte	.Ldebug_ranges0+0x48
 617 0019 00000000 		.4byte	0
 618 001d 00000000 		.4byte	.Ldebug_line0
 619 0021 02       		.uleb128 0x2
 620 0022 04       		.byte	0x4
 621 0023 05       		.byte	0x5
 622 0024 696E7400 		.ascii	"int\000"
 623 0028 03       		.uleb128 0x3
 624 0029 18000000 		.4byte	.LASF2
 625 002d 02       		.byte	0x2
 626 002e D4       		.byte	0xd4
 627 002f 33000000 		.4byte	0x33
ARM GAS  /tmp/ccaPyqmh.s 			page 12


 628 0033 04       		.uleb128 0x4
 629 0034 04       		.byte	0x4
 630 0035 07       		.byte	0x7
 631 0036 9D020000 		.4byte	.LASF0
 632 003a 04       		.uleb128 0x4
 633 003b 01       		.byte	0x1
 634 003c 06       		.byte	0x6
 635 003d A1010000 		.4byte	.LASF1
 636 0041 03       		.uleb128 0x3
 637 0042 32000000 		.4byte	.LASF3
 638 0046 03       		.byte	0x3
 639 0047 1D       		.byte	0x1d
 640 0048 4C000000 		.4byte	0x4c
 641 004c 04       		.uleb128 0x4
 642 004d 01       		.byte	0x1
 643 004e 08       		.byte	0x8
 644 004f 98040000 		.4byte	.LASF4
 645 0053 04       		.uleb128 0x4
 646 0054 02       		.byte	0x2
 647 0055 05       		.byte	0x5
 648 0056 D1040000 		.4byte	.LASF5
 649 005a 04       		.uleb128 0x4
 650 005b 02       		.byte	0x2
 651 005c 07       		.byte	0x7
 652 005d 09030000 		.4byte	.LASF6
 653 0061 03       		.uleb128 0x3
 654 0062 19060000 		.4byte	.LASF7
 655 0066 03       		.byte	0x3
 656 0067 3F       		.byte	0x3f
 657 0068 6C000000 		.4byte	0x6c
 658 006c 04       		.uleb128 0x4
 659 006d 04       		.byte	0x4
 660 006e 05       		.byte	0x5
 661 006f D4010000 		.4byte	.LASF8
 662 0073 03       		.uleb128 0x3
 663 0074 54020000 		.4byte	.LASF9
 664 0078 03       		.byte	0x3
 665 0079 41       		.byte	0x41
 666 007a 7E000000 		.4byte	0x7e
 667 007e 04       		.uleb128 0x4
 668 007f 04       		.byte	0x4
 669 0080 07       		.byte	0x7
 670 0081 69050000 		.4byte	.LASF10
 671 0085 04       		.uleb128 0x4
 672 0086 08       		.byte	0x8
 673 0087 05       		.byte	0x5
 674 0088 93010000 		.4byte	.LASF11
 675 008c 04       		.uleb128 0x4
 676 008d 08       		.byte	0x8
 677 008e 07       		.byte	0x7
 678 008f 3A010000 		.4byte	.LASF12
 679 0093 03       		.uleb128 0x3
 680 0094 A7060000 		.4byte	.LASF13
 681 0098 04       		.byte	0x4
 682 0099 14       		.byte	0x14
 683 009a 41000000 		.4byte	0x41
 684 009e 03       		.uleb128 0x3
ARM GAS  /tmp/ccaPyqmh.s 			page 13


 685 009f 90040000 		.4byte	.LASF14
 686 00a3 04       		.byte	0x4
 687 00a4 1F       		.byte	0x1f
 688 00a5 61000000 		.4byte	0x61
 689 00a9 03       		.uleb128 0x3
 690 00aa 38050000 		.4byte	.LASF15
 691 00ae 04       		.byte	0x4
 692 00af 20       		.byte	0x20
 693 00b0 73000000 		.4byte	0x73
 694 00b4 03       		.uleb128 0x3
 695 00b5 6B040000 		.4byte	.LASF16
 696 00b9 05       		.byte	0x5
 697 00ba 3E       		.byte	0x3e
 698 00bb 33000000 		.4byte	0x33
 699 00bf 03       		.uleb128 0x3
 700 00c0 BF010000 		.4byte	.LASF17
 701 00c4 06       		.byte	0x6
 702 00c5 2E       		.byte	0x2e
 703 00c6 9E000000 		.4byte	0x9e
 704 00ca 03       		.uleb128 0x3
 705 00cb F1040000 		.4byte	.LASF18
 706 00cf 06       		.byte	0x6
 707 00d0 2F       		.byte	0x2f
 708 00d1 93000000 		.4byte	0x93
 709 00d5 03       		.uleb128 0x3
 710 00d6 DD010000 		.4byte	.LASF19
 711 00da 06       		.byte	0x6
 712 00db 30       		.byte	0x30
 713 00dc 93000000 		.4byte	0x93
 714 00e0 03       		.uleb128 0x3
 715 00e1 63040000 		.4byte	.LASF20
 716 00e5 06       		.byte	0x6
 717 00e6 31       		.byte	0x31
 718 00e7 93000000 		.4byte	0x93
 719 00eb 03       		.uleb128 0x3
 720 00ec 80040000 		.4byte	.LASF21
 721 00f0 06       		.byte	0x6
 722 00f1 32       		.byte	0x32
 723 00f2 A9000000 		.4byte	0xa9
 724 00f6 03       		.uleb128 0x3
 725 00f7 1C030000 		.4byte	.LASF22
 726 00fb 06       		.byte	0x6
 727 00fc 33       		.byte	0x33
 728 00fd 9E000000 		.4byte	0x9e
 729 0101 03       		.uleb128 0x3
 730 0102 62030000 		.4byte	.LASF23
 731 0106 06       		.byte	0x6
 732 0107 35       		.byte	0x35
 733 0108 A9000000 		.4byte	0xa9
 734 010c 03       		.uleb128 0x3
 735 010d 04060000 		.4byte	.LASF24
 736 0111 06       		.byte	0x6
 737 0112 36       		.byte	0x36
 738 0113 A9000000 		.4byte	0xa9
 739 0117 03       		.uleb128 0x3
 740 0118 13050000 		.4byte	.LASF25
 741 011c 07       		.byte	0x7
ARM GAS  /tmp/ccaPyqmh.s 			page 14


 742 011d 2A       		.byte	0x2a
 743 011e 22010000 		.4byte	0x122
 744 0122 05       		.uleb128 0x5
 745 0123 13050000 		.4byte	.LASF25
 746 0127 48       		.byte	0x48
 747 0128 08       		.byte	0x8
 748 0129 5E       		.byte	0x5e
 749 012a 13020000 		.4byte	0x213
 750 012e 06       		.uleb128 0x6
 751 012f EA040000 		.4byte	.LASF26
 752 0133 08       		.byte	0x8
 753 0134 5F       		.byte	0x5f
 754 0135 34020000 		.4byte	0x234
 755 0139 00       		.byte	0
 756 013a 06       		.uleb128 0x6
 757 013b 79040000 		.4byte	.LASF27
 758 013f 08       		.byte	0x8
 759 0140 61       		.byte	0x61
 760 0141 34020000 		.4byte	0x234
 761 0145 04       		.byte	0x4
 762 0146 06       		.uleb128 0x6
 763 0147 BD060000 		.4byte	.LASF28
 764 014b 08       		.byte	0x8
 765 014c 63       		.byte	0x63
 766 014d EB000000 		.4byte	0xeb
 767 0151 08       		.byte	0x8
 768 0152 06       		.uleb128 0x6
 769 0153 10070000 		.4byte	.LASF29
 770 0157 08       		.byte	0x8
 771 0158 64       		.byte	0x64
 772 0159 ED020000 		.4byte	0x2ed
 773 015d 0C       		.byte	0xc
 774 015e 06       		.uleb128 0x6
 775 015f 23020000 		.4byte	.LASF30
 776 0163 08       		.byte	0x8
 777 0164 66       		.byte	0x66
 778 0165 34020000 		.4byte	0x234
 779 0169 10       		.byte	0x10
 780 016a 06       		.uleb128 0x6
 781 016b DB040000 		.4byte	.LASF31
 782 016f 08       		.byte	0x8
 783 0170 67       		.byte	0x67
 784 0171 34020000 		.4byte	0x234
 785 0175 14       		.byte	0x14
 786 0176 06       		.uleb128 0x6
 787 0177 7A060000 		.4byte	.LASF32
 788 017b 08       		.byte	0x8
 789 017c 6E       		.byte	0x6e
 790 017d FC030000 		.4byte	0x3fc
 791 0181 18       		.byte	0x18
 792 0182 06       		.uleb128 0x6
 793 0183 BF040000 		.4byte	.LASF33
 794 0187 08       		.byte	0x8
 795 0188 79       		.byte	0x79
 796 0189 D5000000 		.4byte	0xd5
 797 018d 1C       		.byte	0x1c
 798 018e 06       		.uleb128 0x6
ARM GAS  /tmp/ccaPyqmh.s 			page 15


 799 018f F9040000 		.4byte	.LASF34
 800 0193 08       		.byte	0x8
 801 0194 7D       		.byte	0x7d
 802 0195 CA000000 		.4byte	0xca
 803 0199 1D       		.byte	0x1d
 804 019a 06       		.uleb128 0x6
 805 019b EF010000 		.4byte	.LASF35
 806 019f 08       		.byte	0x8
 807 01a0 82       		.byte	0x82
 808 01a1 E0000000 		.4byte	0xe0
 809 01a5 1E       		.byte	0x1e
 810 01a6 06       		.uleb128 0x6
 811 01a7 07020000 		.4byte	.LASF36
 812 01ab 08       		.byte	0x8
 813 01ac 89       		.byte	0x89
 814 01ad 1A030000 		.4byte	0x31a
 815 01b1 20       		.byte	0x20
 816 01b2 07       		.uleb128 0x7
 817 01b3 705F7500 		.ascii	"p_u\000"
 818 01b7 08       		.byte	0x8
 819 01b8 AE       		.byte	0xae
 820 01b9 C7030000 		.4byte	0x3c7
 821 01bd 24       		.byte	0x24
 822 01be 06       		.uleb128 0x6
 823 01bf 16070000 		.4byte	.LASF37
 824 01c3 08       		.byte	0x8
 825 01c4 B3       		.byte	0xb3
 826 01c5 5A020000 		.4byte	0x25a
 827 01c9 28       		.byte	0x28
 828 01ca 06       		.uleb128 0x6
 829 01cb D4020000 		.4byte	.LASF38
 830 01cf 08       		.byte	0x8
 831 01d0 B9       		.byte	0xb9
 832 01d1 3A020000 		.4byte	0x23a
 833 01d5 2C       		.byte	0x2c
 834 01d6 06       		.uleb128 0x6
 835 01d7 92060000 		.4byte	.LASF39
 836 01db 08       		.byte	0x8
 837 01dc BD       		.byte	0xbd
 838 01dd F6000000 		.4byte	0xf6
 839 01e1 34       		.byte	0x34
 840 01e2 06       		.uleb128 0x6
 841 01e3 23050000 		.4byte	.LASF40
 842 01e7 08       		.byte	0x8
 843 01e8 C3       		.byte	0xc3
 844 01e9 01010000 		.4byte	0x101
 845 01ed 38       		.byte	0x38
 846 01ee 06       		.uleb128 0x6
 847 01ef C7040000 		.4byte	.LASF41
 848 01f3 08       		.byte	0x8
 849 01f4 CA       		.byte	0xca
 850 01f5 0E040000 		.4byte	0x40e
 851 01f9 3C       		.byte	0x3c
 852 01fa 06       		.uleb128 0x6
 853 01fb 0E060000 		.4byte	.LASF42
 854 01ff 08       		.byte	0x8
 855 0200 CE       		.byte	0xce
ARM GAS  /tmp/ccaPyqmh.s 			page 16


 856 0201 EB000000 		.4byte	0xeb
 857 0205 40       		.byte	0x40
 858 0206 06       		.uleb128 0x6
 859 0207 B7010000 		.4byte	.LASF43
 860 020b 08       		.byte	0x8
 861 020c D4       		.byte	0xd4
 862 020d 70020000 		.4byte	0x270
 863 0211 44       		.byte	0x44
 864 0212 00       		.byte	0
 865 0213 08       		.uleb128 0x8
 866 0214 08       		.byte	0x8
 867 0215 07       		.byte	0x7
 868 0216 61       		.byte	0x61
 869 0217 34020000 		.4byte	0x234
 870 021b 06       		.uleb128 0x6
 871 021c EA040000 		.4byte	.LASF26
 872 0220 07       		.byte	0x7
 873 0221 62       		.byte	0x62
 874 0222 34020000 		.4byte	0x234
 875 0226 00       		.byte	0
 876 0227 06       		.uleb128 0x6
 877 0228 79040000 		.4byte	.LASF27
 878 022c 07       		.byte	0x7
 879 022d 64       		.byte	0x64
 880 022e 34020000 		.4byte	0x234
 881 0232 04       		.byte	0x4
 882 0233 00       		.byte	0
 883 0234 09       		.uleb128 0x9
 884 0235 04       		.byte	0x4
 885 0236 17010000 		.4byte	0x117
 886 023a 03       		.uleb128 0x3
 887 023b A1030000 		.4byte	.LASF44
 888 023f 07       		.byte	0x7
 889 0240 66       		.byte	0x66
 890 0241 13020000 		.4byte	0x213
 891 0245 08       		.uleb128 0x8
 892 0246 04       		.byte	0x4
 893 0247 07       		.byte	0x7
 894 0248 6B       		.byte	0x6b
 895 0249 5A020000 		.4byte	0x25a
 896 024d 06       		.uleb128 0x6
 897 024e EA040000 		.4byte	.LASF26
 898 0252 07       		.byte	0x7
 899 0253 6D       		.byte	0x6d
 900 0254 34020000 		.4byte	0x234
 901 0258 00       		.byte	0
 902 0259 00       		.byte	0
 903 025a 03       		.uleb128 0x3
 904 025b 56030000 		.4byte	.LASF45
 905 025f 07       		.byte	0x7
 906 0260 70       		.byte	0x70
 907 0261 45020000 		.4byte	0x245
 908 0265 03       		.uleb128 0x3
 909 0266 64020000 		.4byte	.LASF46
 910 026a 09       		.byte	0x9
 911 026b D7       		.byte	0xd7
 912 026c 70020000 		.4byte	0x270
ARM GAS  /tmp/ccaPyqmh.s 			page 17


 913 0270 0A       		.uleb128 0xa
 914 0271 04       		.byte	0x4
 915 0272 05       		.uleb128 0x5
 916 0273 68060000 		.4byte	.LASF47
 917 0277 24       		.byte	0x24
 918 0278 09       		.byte	0x9
 919 0279 FE       		.byte	0xfe
 920 027a ED020000 		.4byte	0x2ed
 921 027e 0B       		.uleb128 0xb
 922 027f 723400   		.ascii	"r4\000"
 923 0282 09       		.byte	0x9
 924 0283 1101     		.2byte	0x111
 925 0285 65020000 		.4byte	0x265
 926 0289 00       		.byte	0
 927 028a 0B       		.uleb128 0xb
 928 028b 723500   		.ascii	"r5\000"
 929 028e 09       		.byte	0x9
 930 028f 1201     		.2byte	0x112
 931 0291 65020000 		.4byte	0x265
 932 0295 04       		.byte	0x4
 933 0296 0B       		.uleb128 0xb
 934 0297 723600   		.ascii	"r6\000"
 935 029a 09       		.byte	0x9
 936 029b 1301     		.2byte	0x113
 937 029d 65020000 		.4byte	0x265
 938 02a1 08       		.byte	0x8
 939 02a2 0B       		.uleb128 0xb
 940 02a3 723700   		.ascii	"r7\000"
 941 02a6 09       		.byte	0x9
 942 02a7 1401     		.2byte	0x114
 943 02a9 65020000 		.4byte	0x265
 944 02ad 0C       		.byte	0xc
 945 02ae 0B       		.uleb128 0xb
 946 02af 723800   		.ascii	"r8\000"
 947 02b2 09       		.byte	0x9
 948 02b3 1501     		.2byte	0x115
 949 02b5 65020000 		.4byte	0x265
 950 02b9 10       		.byte	0x10
 951 02ba 0B       		.uleb128 0xb
 952 02bb 723900   		.ascii	"r9\000"
 953 02be 09       		.byte	0x9
 954 02bf 1601     		.2byte	0x116
 955 02c1 65020000 		.4byte	0x265
 956 02c5 14       		.byte	0x14
 957 02c6 0B       		.uleb128 0xb
 958 02c7 72313000 		.ascii	"r10\000"
 959 02cb 09       		.byte	0x9
 960 02cc 1701     		.2byte	0x117
 961 02ce 65020000 		.4byte	0x265
 962 02d2 18       		.byte	0x18
 963 02d3 0B       		.uleb128 0xb
 964 02d4 72313100 		.ascii	"r11\000"
 965 02d8 09       		.byte	0x9
 966 02d9 1801     		.2byte	0x118
 967 02db 65020000 		.4byte	0x265
 968 02df 1C       		.byte	0x1c
 969 02e0 0B       		.uleb128 0xb
ARM GAS  /tmp/ccaPyqmh.s 			page 18


 970 02e1 6C7200   		.ascii	"lr\000"
 971 02e4 09       		.byte	0x9
 972 02e5 1901     		.2byte	0x119
 973 02e7 65020000 		.4byte	0x265
 974 02eb 20       		.byte	0x20
 975 02ec 00       		.byte	0
 976 02ed 0C       		.uleb128 0xc
 977 02ee 49060000 		.4byte	.LASF48
 978 02f2 04       		.byte	0x4
 979 02f3 09       		.byte	0x9
 980 02f4 2301     		.2byte	0x123
 981 02f6 08030000 		.4byte	0x308
 982 02fa 0B       		.uleb128 0xb
 983 02fb 72313300 		.ascii	"r13\000"
 984 02ff 09       		.byte	0x9
 985 0300 2401     		.2byte	0x124
 986 0302 08030000 		.4byte	0x308
 987 0306 00       		.byte	0
 988 0307 00       		.byte	0
 989 0308 09       		.uleb128 0x9
 990 0309 04       		.byte	0x4
 991 030a 72020000 		.4byte	0x272
 992 030e 0D       		.uleb128 0xd
 993 030f A9000000 		.4byte	0xa9
 994 0313 04       		.uleb128 0x4
 995 0314 04       		.byte	0x4
 996 0315 07       		.byte	0x7
 997 0316 CB030000 		.4byte	.LASF49
 998 031a 0D       		.uleb128 0xd
 999 031b 0C010000 		.4byte	0x10c
 1000 031f 05       		.uleb128 0x5
 1001 0320 E8030000 		.4byte	.LASF50
 1002 0324 10       		.byte	0x10
 1003 0325 0A       		.byte	0xa
 1004 0326 2C       		.byte	0x2c
 1005 0327 50030000 		.4byte	0x350
 1006 032b 06       		.uleb128 0x6
 1007 032c C6010000 		.4byte	.LASF51
 1008 0330 0A       		.byte	0xa
 1009 0331 2D       		.byte	0x2d
 1010 0332 3A020000 		.4byte	0x23a
 1011 0336 00       		.byte	0
 1012 0337 06       		.uleb128 0x6
 1013 0338 08070000 		.4byte	.LASF52
 1014 033c 0A       		.byte	0xa
 1015 033d 2F       		.byte	0x2f
 1016 033e 34020000 		.4byte	0x234
 1017 0342 08       		.byte	0x8
 1018 0343 06       		.uleb128 0x6
 1019 0344 FD050000 		.4byte	.LASF53
 1020 0348 0A       		.byte	0xa
 1021 0349 31       		.byte	0x31
 1022 034a 50030000 		.4byte	0x350
 1023 034e 0C       		.byte	0xc
 1024 034f 00       		.byte	0
 1025 0350 09       		.uleb128 0x9
 1026 0351 04       		.byte	0x4
ARM GAS  /tmp/ccaPyqmh.s 			page 19


 1027 0352 1F030000 		.4byte	0x31f
 1028 0356 03       		.uleb128 0x3
 1029 0357 E8030000 		.4byte	.LASF50
 1030 035b 0A       		.byte	0xa
 1031 035c 33       		.byte	0x33
 1032 035d 1F030000 		.4byte	0x31f
 1033 0361 03       		.uleb128 0x3
 1034 0362 51060000 		.4byte	.LASF54
 1035 0366 0B       		.byte	0xb
 1036 0367 29       		.byte	0x29
 1037 0368 6C030000 		.4byte	0x36c
 1038 036c 05       		.uleb128 0x5
 1039 036d 51060000 		.4byte	.LASF54
 1040 0371 0C       		.byte	0xc
 1041 0372 0B       		.byte	0xb
 1042 0373 2E       		.byte	0x2e
 1043 0374 9D030000 		.4byte	0x39d
 1044 0378 06       		.uleb128 0x6
 1045 0379 29030000 		.4byte	.LASF55
 1046 037d 0B       		.byte	0xb
 1047 037e 2F       		.byte	0x2f
 1048 037f 9D030000 		.4byte	0x39d
 1049 0383 00       		.byte	0
 1050 0384 06       		.uleb128 0x6
 1051 0385 B3040000 		.4byte	.LASF56
 1052 0389 0B       		.byte	0xb
 1053 038a 32       		.byte	0x32
 1054 038b 34020000 		.4byte	0x234
 1055 038f 04       		.byte	0x4
 1056 0390 06       		.uleb128 0x6
 1057 0391 B9030000 		.4byte	.LASF57
 1058 0395 0B       		.byte	0xb
 1059 0396 34       		.byte	0x34
 1060 0397 01010000 		.4byte	0x101
 1061 039b 08       		.byte	0x8
 1062 039c 00       		.byte	0
 1063 039d 09       		.uleb128 0x9
 1064 039e 04       		.byte	0x4
 1065 039f 61030000 		.4byte	0x361
 1066 03a3 05       		.uleb128 0x5
 1067 03a4 76020000 		.4byte	.LASF58
 1068 03a8 04       		.byte	0x4
 1069 03a9 0B       		.byte	0xb
 1070 03aa 3C       		.byte	0x3c
 1071 03ab BC030000 		.4byte	0x3bc
 1072 03af 06       		.uleb128 0x6
 1073 03b0 81060000 		.4byte	.LASF59
 1074 03b4 0B       		.byte	0xb
 1075 03b5 3D       		.byte	0x3d
 1076 03b6 9D030000 		.4byte	0x39d
 1077 03ba 00       		.byte	0
 1078 03bb 00       		.byte	0
 1079 03bc 03       		.uleb128 0x3
 1080 03bd 76020000 		.4byte	.LASF58
 1081 03c1 0B       		.byte	0xb
 1082 03c2 40       		.byte	0x40
 1083 03c3 A3030000 		.4byte	0x3a3
ARM GAS  /tmp/ccaPyqmh.s 			page 20


 1084 03c7 0E       		.uleb128 0xe
 1085 03c8 04       		.byte	0x4
 1086 03c9 08       		.byte	0x8
 1087 03ca 90       		.byte	0x90
 1088 03cb FC030000 		.4byte	0x3fc
 1089 03cf 0F       		.uleb128 0xf
 1090 03d0 1F000000 		.4byte	.LASF60
 1091 03d4 08       		.byte	0x8
 1092 03d5 97       		.byte	0x97
 1093 03d6 F6000000 		.4byte	0xf6
 1094 03da 0F       		.uleb128 0xf
 1095 03db 5A010000 		.4byte	.LASF61
 1096 03df 08       		.byte	0x8
 1097 03e0 9E       		.byte	0x9e
 1098 03e1 F6000000 		.4byte	0xf6
 1099 03e5 0F       		.uleb128 0xf
 1100 03e6 CF060000 		.4byte	.LASF62
 1101 03ea 08       		.byte	0x8
 1102 03eb A5       		.byte	0xa5
 1103 03ec 70020000 		.4byte	0x270
 1104 03f0 0F       		.uleb128 0xf
 1105 03f1 E3040000 		.4byte	.LASF63
 1106 03f5 08       		.byte	0x8
 1107 03f6 AC       		.byte	0xac
 1108 03f7 01010000 		.4byte	0x101
 1109 03fb 00       		.byte	0
 1110 03fc 09       		.uleb128 0x9
 1111 03fd 04       		.byte	0x4
 1112 03fe 02040000 		.4byte	0x402
 1113 0402 10       		.uleb128 0x10
 1114 0403 07040000 		.4byte	0x407
 1115 0407 04       		.uleb128 0x4
 1116 0408 01       		.byte	0x1
 1117 0409 08       		.byte	0x8
 1118 040a 80050000 		.4byte	.LASF64
 1119 040e 09       		.uleb128 0x9
 1120 040f 04       		.byte	0x4
 1121 0410 56030000 		.4byte	0x356
 1122 0414 03       		.uleb128 0x3
 1123 0415 83030000 		.4byte	.LASF65
 1124 0419 0C       		.byte	0xc
 1125 041a 37       		.byte	0x37
 1126 041b 1F040000 		.4byte	0x41f
 1127 041f 05       		.uleb128 0x5
 1128 0420 83030000 		.4byte	.LASF65
 1129 0424 20       		.byte	0x20
 1130 0425 0C       		.byte	0xc
 1131 0426 45       		.byte	0x45
 1132 0427 80040000 		.4byte	0x480
 1133 042b 06       		.uleb128 0x6
 1134 042c 89010000 		.4byte	.LASF66
 1135 0430 0C       		.byte	0xc
 1136 0431 46       		.byte	0x46
 1137 0432 3A020000 		.4byte	0x23a
 1138 0436 00       		.byte	0
 1139 0437 06       		.uleb128 0x6
 1140 0438 DE030000 		.4byte	.LASF67
ARM GAS  /tmp/ccaPyqmh.s 			page 21


 1141 043c 0C       		.byte	0xc
 1142 043d 47       		.byte	0x47
 1143 043e 28000000 		.4byte	0x28
 1144 0442 08       		.byte	0x8
 1145 0443 06       		.uleb128 0x6
 1146 0444 F6010000 		.4byte	.LASF68
 1147 0448 0C       		.byte	0xc
 1148 0449 48       		.byte	0x48
 1149 044a A2040000 		.4byte	0x4a2
 1150 044e 0C       		.byte	0xc
 1151 044f 06       		.uleb128 0x6
 1152 0450 74060000 		.4byte	.LASF69
 1153 0454 0C       		.byte	0xc
 1154 0455 49       		.byte	0x49
 1155 0456 A2040000 		.4byte	0x4a2
 1156 045a 10       		.byte	0x10
 1157 045b 06       		.uleb128 0x6
 1158 045c FF010000 		.4byte	.LASF70
 1159 0460 0C       		.byte	0xc
 1160 0461 4B       		.byte	0x4b
 1161 0462 A2040000 		.4byte	0x4a2
 1162 0466 14       		.byte	0x14
 1163 0467 06       		.uleb128 0x6
 1164 0468 88040000 		.4byte	.LASF71
 1165 046c 0C       		.byte	0xc
 1166 046d 4C       		.byte	0x4c
 1167 046e A2040000 		.4byte	0x4a2
 1168 0472 18       		.byte	0x18
 1169 0473 06       		.uleb128 0x6
 1170 0474 89060000 		.4byte	.LASF72
 1171 0478 0C       		.byte	0xc
 1172 0479 4D       		.byte	0x4d
 1173 047a 80040000 		.4byte	0x480
 1174 047e 1C       		.byte	0x1c
 1175 047f 00       		.byte	0
 1176 0480 03       		.uleb128 0x3
 1177 0481 79030000 		.4byte	.LASF73
 1178 0485 0C       		.byte	0xc
 1179 0486 3A       		.byte	0x3a
 1180 0487 8B040000 		.4byte	0x48b
 1181 048b 09       		.uleb128 0x9
 1182 048c 04       		.byte	0x4
 1183 048d 91040000 		.4byte	0x491
 1184 0491 11       		.uleb128 0x11
 1185 0492 9C040000 		.4byte	0x49c
 1186 0496 12       		.uleb128 0x12
 1187 0497 9C040000 		.4byte	0x49c
 1188 049b 00       		.byte	0
 1189 049c 09       		.uleb128 0x9
 1190 049d 04       		.byte	0x4
 1191 049e 14040000 		.4byte	0x414
 1192 04a2 09       		.uleb128 0x9
 1193 04a3 04       		.byte	0x4
 1194 04a4 93000000 		.4byte	0x93
 1195 04a8 03       		.uleb128 0x3
 1196 04a9 6E030000 		.4byte	.LASF74
 1197 04ad 0C       		.byte	0xc
ARM GAS  /tmp/ccaPyqmh.s 			page 22


 1198 04ae 76       		.byte	0x76
 1199 04af 14040000 		.4byte	0x414
 1200 04b3 03       		.uleb128 0x3
 1201 04b4 26000000 		.4byte	.LASF75
 1202 04b8 0C       		.byte	0xc
 1203 04b9 E6       		.byte	0xe6
 1204 04ba 14040000 		.4byte	0x414
 1205 04be 13       		.uleb128 0x13
 1206 04bf 28000000 		.4byte	0x28
 1207 04c3 D7040000 		.4byte	0x4d7
 1208 04c7 12       		.uleb128 0x12
 1209 04c8 70020000 		.4byte	0x270
 1210 04cc 12       		.uleb128 0x12
 1211 04cd D7040000 		.4byte	0x4d7
 1212 04d1 12       		.uleb128 0x12
 1213 04d2 28000000 		.4byte	0x28
 1214 04d6 00       		.byte	0
 1215 04d7 09       		.uleb128 0x9
 1216 04d8 04       		.byte	0x4
 1217 04d9 DD040000 		.4byte	0x4dd
 1218 04dd 10       		.uleb128 0x10
 1219 04de 93000000 		.4byte	0x93
 1220 04e2 09       		.uleb128 0x9
 1221 04e3 04       		.byte	0x4
 1222 04e4 BE040000 		.4byte	0x4be
 1223 04e8 13       		.uleb128 0x13
 1224 04e9 28000000 		.4byte	0x28
 1225 04ed 01050000 		.4byte	0x501
 1226 04f1 12       		.uleb128 0x12
 1227 04f2 70020000 		.4byte	0x270
 1228 04f6 12       		.uleb128 0x12
 1229 04f7 A2040000 		.4byte	0x4a2
 1230 04fb 12       		.uleb128 0x12
 1231 04fc 28000000 		.4byte	0x28
 1232 0500 00       		.byte	0
 1233 0501 09       		.uleb128 0x9
 1234 0502 04       		.byte	0x4
 1235 0503 E8040000 		.4byte	0x4e8
 1236 0507 13       		.uleb128 0x13
 1237 0508 BF000000 		.4byte	0xbf
 1238 050c 16050000 		.4byte	0x516
 1239 0510 12       		.uleb128 0x12
 1240 0511 70020000 		.4byte	0x270
 1241 0515 00       		.byte	0
 1242 0516 09       		.uleb128 0x9
 1243 0517 04       		.byte	0x4
 1244 0518 07050000 		.4byte	0x507
 1245 051c 13       		.uleb128 0x13
 1246 051d F6000000 		.4byte	0xf6
 1247 0521 35050000 		.4byte	0x535
 1248 0525 12       		.uleb128 0x12
 1249 0526 70020000 		.4byte	0x270
 1250 052a 12       		.uleb128 0x12
 1251 052b 93000000 		.4byte	0x93
 1252 052f 12       		.uleb128 0x12
 1253 0530 0C010000 		.4byte	0x10c
 1254 0534 00       		.byte	0
ARM GAS  /tmp/ccaPyqmh.s 			page 23


 1255 0535 09       		.uleb128 0x9
 1256 0536 04       		.byte	0x4
 1257 0537 1C050000 		.4byte	0x51c
 1258 053b 13       		.uleb128 0x13
 1259 053c F6000000 		.4byte	0xf6
 1260 0540 4F050000 		.4byte	0x54f
 1261 0544 12       		.uleb128 0x12
 1262 0545 70020000 		.4byte	0x270
 1263 0549 12       		.uleb128 0x12
 1264 054a 0C010000 		.4byte	0x10c
 1265 054e 00       		.byte	0
 1266 054f 09       		.uleb128 0x9
 1267 0550 04       		.byte	0x4
 1268 0551 3B050000 		.4byte	0x53b
 1269 0555 13       		.uleb128 0x13
 1270 0556 28000000 		.4byte	0x28
 1271 055a 73050000 		.4byte	0x573
 1272 055e 12       		.uleb128 0x12
 1273 055f 70020000 		.4byte	0x270
 1274 0563 12       		.uleb128 0x12
 1275 0564 D7040000 		.4byte	0x4d7
 1276 0568 12       		.uleb128 0x12
 1277 0569 28000000 		.4byte	0x28
 1278 056d 12       		.uleb128 0x12
 1279 056e 0C010000 		.4byte	0x10c
 1280 0572 00       		.byte	0
 1281 0573 09       		.uleb128 0x9
 1282 0574 04       		.byte	0x4
 1283 0575 55050000 		.4byte	0x555
 1284 0579 13       		.uleb128 0x13
 1285 057a 28000000 		.4byte	0x28
 1286 057e 97050000 		.4byte	0x597
 1287 0582 12       		.uleb128 0x12
 1288 0583 70020000 		.4byte	0x270
 1289 0587 12       		.uleb128 0x12
 1290 0588 A2040000 		.4byte	0x4a2
 1291 058c 12       		.uleb128 0x12
 1292 058d 28000000 		.4byte	0x28
 1293 0591 12       		.uleb128 0x12
 1294 0592 0C010000 		.4byte	0x10c
 1295 0596 00       		.byte	0
 1296 0597 09       		.uleb128 0x9
 1297 0598 04       		.byte	0x4
 1298 0599 79050000 		.4byte	0x579
 1299 059d 14       		.uleb128 0x14
 1300 059e 0F040000 		.4byte	.LASF76
 1301 05a2 0D       		.byte	0xd
 1302 05a3 0B01     		.2byte	0x10b
 1303 05a5 B4000000 		.4byte	0xb4
 1304 05a9 0C       		.uleb128 0xc
 1305 05aa 82020000 		.4byte	.LASF77
 1306 05ae 24       		.byte	0x24
 1307 05af 0D       		.byte	0xd
 1308 05b0 2401     		.2byte	0x124
 1309 05b2 2C060000 		.4byte	0x62c
 1310 05b6 15       		.uleb128 0x15
 1311 05b7 AE030000 		.4byte	.LASF78
ARM GAS  /tmp/ccaPyqmh.s 			page 24


 1312 05bb 0D       		.byte	0xd
 1313 05bc 2501     		.2byte	0x125
 1314 05be E2040000 		.4byte	0x4e2
 1315 05c2 00       		.byte	0
 1316 05c3 15       		.uleb128 0x15
 1317 05c4 7B050000 		.4byte	.LASF79
 1318 05c8 0D       		.byte	0xd
 1319 05c9 2501     		.2byte	0x125
 1320 05cb 01050000 		.4byte	0x501
 1321 05cf 04       		.byte	0x4
 1322 05d0 15       		.uleb128 0x15
 1323 05d1 2B020000 		.4byte	.LASF80
 1324 05d5 0D       		.byte	0xd
 1325 05d6 2501     		.2byte	0x125
 1326 05d8 16050000 		.4byte	0x516
 1327 05dc 08       		.byte	0x8
 1328 05dd 15       		.uleb128 0x15
 1329 05de D6060000 		.4byte	.LASF81
 1330 05e2 0D       		.byte	0xd
 1331 05e3 2501     		.2byte	0x125
 1332 05e5 16050000 		.4byte	0x516
 1333 05e9 0C       		.byte	0xc
 1334 05ea 0B       		.uleb128 0xb
 1335 05eb 70757400 		.ascii	"put\000"
 1336 05ef 0D       		.byte	0xd
 1337 05f0 2501     		.2byte	0x125
 1338 05f2 35050000 		.4byte	0x535
 1339 05f6 10       		.byte	0x10
 1340 05f7 0B       		.uleb128 0xb
 1341 05f8 67657400 		.ascii	"get\000"
 1342 05fc 0D       		.byte	0xd
 1343 05fd 2501     		.2byte	0x125
 1344 05ff 4F050000 		.4byte	0x54f
 1345 0603 14       		.byte	0x14
 1346 0604 15       		.uleb128 0x15
 1347 0605 38030000 		.4byte	.LASF82
 1348 0609 0D       		.byte	0xd
 1349 060a 2501     		.2byte	0x125
 1350 060c 73050000 		.4byte	0x573
 1351 0610 18       		.byte	0x18
 1352 0611 15       		.uleb128 0x15
 1353 0612 83010000 		.4byte	.LASF83
 1354 0616 0D       		.byte	0xd
 1355 0617 2501     		.2byte	0x125
 1356 0619 97050000 		.4byte	0x597
 1357 061d 1C       		.byte	0x1c
 1358 061e 15       		.uleb128 0x15
 1359 061f 06040000 		.4byte	.LASF84
 1360 0623 0D       		.byte	0xd
 1361 0624 2501     		.2byte	0x125
 1362 0626 3B060000 		.4byte	0x63b
 1363 062a 20       		.byte	0x20
 1364 062b 00       		.byte	0
 1365 062c 13       		.uleb128 0x13
 1366 062d 9D050000 		.4byte	0x59d
 1367 0631 3B060000 		.4byte	0x63b
 1368 0635 12       		.uleb128 0x12
ARM GAS  /tmp/ccaPyqmh.s 			page 25


 1369 0636 70020000 		.4byte	0x270
 1370 063a 00       		.byte	0
 1371 063b 09       		.uleb128 0x9
 1372 063c 04       		.byte	0x4
 1373 063d 2C060000 		.4byte	0x62c
 1374 0641 16       		.uleb128 0x16
 1375 0642 0C       		.byte	0xc
 1376 0643 0D       		.byte	0xd
 1377 0644 2F01     		.2byte	0x12f
 1378 0646 72060000 		.4byte	0x672
 1379 064a 0B       		.uleb128 0xb
 1380 064b 766D7400 		.ascii	"vmt\000"
 1381 064f 0D       		.byte	0xd
 1382 0650 3101     		.2byte	0x131
 1383 0652 72060000 		.4byte	0x672
 1384 0656 00       		.byte	0
 1385 0657 15       		.uleb128 0x15
 1386 0658 03030000 		.4byte	.LASF85
 1387 065c 0D       		.byte	0xd
 1388 065d 3201     		.2byte	0x132
 1389 065f BC030000 		.4byte	0x3bc
 1390 0663 04       		.byte	0x4
 1391 0664 15       		.uleb128 0x15
 1392 0665 AF060000 		.4byte	.LASF86
 1393 0669 0D       		.byte	0xd
 1394 066a 3201     		.2byte	0x132
 1395 066c 9D050000 		.4byte	0x59d
 1396 0670 08       		.byte	0x8
 1397 0671 00       		.byte	0
 1398 0672 09       		.uleb128 0x9
 1399 0673 04       		.byte	0x4
 1400 0674 78060000 		.4byte	0x678
 1401 0678 10       		.uleb128 0x10
 1402 0679 A9050000 		.4byte	0x5a9
 1403 067d 14       		.uleb128 0x14
 1404 067e 31060000 		.4byte	.LASF87
 1405 0682 0D       		.byte	0xd
 1406 0683 3301     		.2byte	0x133
 1407 0685 41060000 		.4byte	0x641
 1408 0689 03       		.uleb128 0x3
 1409 068a 48030000 		.4byte	.LASF88
 1410 068e 0E       		.byte	0xe
 1411 068f 35       		.byte	0x35
 1412 0690 94060000 		.4byte	0x694
 1413 0694 10       		.uleb128 0x10
 1414 0695 0E030000 		.4byte	0x30e
 1415 0699 03       		.uleb128 0x3
 1416 069a 2F040000 		.4byte	.LASF89
 1417 069e 0E       		.byte	0xe
 1418 069f 39       		.byte	0x39
 1419 06a0 0E030000 		.4byte	0x30e
 1420 06a4 03       		.uleb128 0x3
 1421 06a5 19040000 		.4byte	.LASF90
 1422 06a9 0E       		.byte	0xe
 1423 06aa 3A       		.byte	0x3a
 1424 06ab 0E030000 		.4byte	0x30e
 1425 06af 17       		.uleb128 0x17
ARM GAS  /tmp/ccaPyqmh.s 			page 26


 1426 06b0 2801     		.2byte	0x128
 1427 06b2 0E       		.byte	0xe
 1428 06b3 0817     		.2byte	0x1708
 1429 06b5 C8070000 		.4byte	0x7c8
 1430 06b9 15       		.uleb128 0x15
 1431 06ba 4E030000 		.4byte	.LASF91
 1432 06be 0E       		.byte	0xe
 1433 06bf 0917     		.2byte	0x1709
 1434 06c1 99060000 		.4byte	0x699
 1435 06c5 00       		.byte	0
 1436 06c6 15       		.uleb128 0x15
 1437 06c7 61050000 		.4byte	.LASF92
 1438 06cb 0E       		.byte	0xe
 1439 06cc 0A17     		.2byte	0x170a
 1440 06ce A4060000 		.4byte	0x6a4
 1441 06d2 04       		.byte	0x4
 1442 06d3 15       		.uleb128 0x15
 1443 06d4 5A040000 		.4byte	.LASF93
 1444 06d8 0E       		.byte	0xe
 1445 06d9 0B17     		.2byte	0x170b
 1446 06db 99060000 		.4byte	0x699
 1447 06df 08       		.byte	0x8
 1448 06e0 15       		.uleb128 0x15
 1449 06e1 5F060000 		.4byte	.LASF94
 1450 06e5 0E       		.byte	0xe
 1451 06e6 0C17     		.2byte	0x170c
 1452 06e8 99060000 		.4byte	0x699
 1453 06ec 0C       		.byte	0xc
 1454 06ed 15       		.uleb128 0x15
 1455 06ee 0F000000 		.4byte	.LASF95
 1456 06f2 0E       		.byte	0xe
 1457 06f3 0D17     		.2byte	0x170d
 1458 06f5 89060000 		.4byte	0x689
 1459 06f9 10       		.byte	0x10
 1460 06fa 15       		.uleb128 0x15
 1461 06fb FE030000 		.4byte	.LASF96
 1462 06ff 0E       		.byte	0xe
 1463 0700 0E17     		.2byte	0x170e
 1464 0702 89060000 		.4byte	0x689
 1465 0706 14       		.byte	0x14
 1466 0707 15       		.uleb128 0x15
 1467 0708 41050000 		.4byte	.LASF97
 1468 070c 0E       		.byte	0xe
 1469 070d 0F17     		.2byte	0x170f
 1470 070f 89060000 		.4byte	0x689
 1471 0713 18       		.byte	0x18
 1472 0714 15       		.uleb128 0x15
 1473 0715 FA020000 		.4byte	.LASF98
 1474 0719 0E       		.byte	0xe
 1475 071a 1017     		.2byte	0x1710
 1476 071c 99060000 		.4byte	0x699
 1477 0720 1C       		.byte	0x1c
 1478 0721 15       		.uleb128 0x15
 1479 0722 35040000 		.4byte	.LASF99
 1480 0726 0E       		.byte	0xe
 1481 0727 1117     		.2byte	0x1711
 1482 0729 A4060000 		.4byte	0x6a4
ARM GAS  /tmp/ccaPyqmh.s 			page 27


 1483 072d 20       		.byte	0x20
 1484 072e 15       		.uleb128 0x15
 1485 072f EB020000 		.4byte	.LASF100
 1486 0733 0E       		.byte	0xe
 1487 0734 1217     		.2byte	0x1712
 1488 0736 D8070000 		.4byte	0x7d8
 1489 073a 24       		.byte	0x24
 1490 073b 18       		.uleb128 0x18
 1491 073c 26040000 		.4byte	.LASF101
 1492 0740 0E       		.byte	0xe
 1493 0741 1317     		.2byte	0x1713
 1494 0743 A4060000 		.4byte	0x6a4
 1495 0747 0001     		.2byte	0x100
 1496 0749 18       		.uleb128 0x18
 1497 074a 4C000000 		.4byte	.LASF102
 1498 074e 0E       		.byte	0xe
 1499 074f 1417     		.2byte	0x1714
 1500 0751 A4060000 		.4byte	0x6a4
 1501 0755 0401     		.2byte	0x104
 1502 0757 18       		.uleb128 0x18
 1503 0758 3F030000 		.4byte	.LASF103
 1504 075c 0E       		.byte	0xe
 1505 075d 1517     		.2byte	0x1715
 1506 075f A4060000 		.4byte	0x6a4
 1507 0763 0801     		.2byte	0x108
 1508 0765 18       		.uleb128 0x18
 1509 0766 1A050000 		.4byte	.LASF104
 1510 076a 0E       		.byte	0xe
 1511 076b 1617     		.2byte	0x1716
 1512 076d A4060000 		.4byte	0x6a4
 1513 0771 0C01     		.2byte	0x10c
 1514 0773 18       		.uleb128 0x18
 1515 0774 01050000 		.4byte	.LASF105
 1516 0778 0E       		.byte	0xe
 1517 0779 1717     		.2byte	0x1717
 1518 077b A4060000 		.4byte	0x6a4
 1519 077f 1001     		.2byte	0x110
 1520 0781 18       		.uleb128 0x18
 1521 0782 F4030000 		.4byte	.LASF106
 1522 0786 0E       		.byte	0xe
 1523 0787 1817     		.2byte	0x1718
 1524 0789 A4060000 		.4byte	0x6a4
 1525 078d 1401     		.2byte	0x114
 1526 078f 18       		.uleb128 0x18
 1527 0790 D4030000 		.4byte	.LASF107
 1528 0794 0E       		.byte	0xe
 1529 0795 1917     		.2byte	0x1719
 1530 0797 A4060000 		.4byte	0x6a4
 1531 079b 1801     		.2byte	0x118
 1532 079d 18       		.uleb128 0x18
 1533 079e C1030000 		.4byte	.LASF108
 1534 07a2 0E       		.byte	0xe
 1535 07a3 1A17     		.2byte	0x171a
 1536 07a5 A4060000 		.4byte	0x6a4
 1537 07a9 1C01     		.2byte	0x11c
 1538 07ab 18       		.uleb128 0x18
 1539 07ac AD010000 		.4byte	.LASF109
ARM GAS  /tmp/ccaPyqmh.s 			page 28


 1540 07b0 0E       		.byte	0xe
 1541 07b1 1B17     		.2byte	0x171b
 1542 07b3 99060000 		.4byte	0x699
 1543 07b7 2001     		.2byte	0x120
 1544 07b9 18       		.uleb128 0x18
 1545 07ba 39020000 		.4byte	.LASF110
 1546 07be 0E       		.byte	0xe
 1547 07bf 1C17     		.2byte	0x171c
 1548 07c1 89060000 		.4byte	0x689
 1549 07c5 2401     		.2byte	0x124
 1550 07c7 00       		.byte	0
 1551 07c8 19       		.uleb128 0x19
 1552 07c9 A4060000 		.4byte	0x6a4
 1553 07cd D8070000 		.4byte	0x7d8
 1554 07d1 1A       		.uleb128 0x1a
 1555 07d2 13030000 		.4byte	0x313
 1556 07d6 36       		.byte	0x36
 1557 07d7 00       		.byte	0
 1558 07d8 0D       		.uleb128 0xd
 1559 07d9 C8070000 		.4byte	0x7c8
 1560 07dd 14       		.uleb128 0x14
 1561 07de 23060000 		.4byte	.LASF111
 1562 07e2 0E       		.byte	0xe
 1563 07e3 1D17     		.2byte	0x171d
 1564 07e5 AF060000 		.4byte	0x6af
 1565 07e9 1B       		.uleb128 0x1b
 1566 07ea 01       		.byte	0x1
 1567 07eb 0F       		.byte	0xf
 1568 07ec 64       		.byte	0x64
 1569 07ed 04080000 		.4byte	0x804
 1570 07f1 1C       		.uleb128 0x1c
 1571 07f2 2E050000 		.4byte	.LASF112
 1572 07f6 00       		.sleb128 0
 1573 07f7 1C       		.uleb128 0x1c
 1574 07f8 0B050000 		.4byte	.LASF113
 1575 07fc 01       		.sleb128 1
 1576 07fd 1C       		.uleb128 0x1c
 1577 07fe 51040000 		.4byte	.LASF114
 1578 0802 02       		.sleb128 2
 1579 0803 00       		.byte	0
 1580 0804 03       		.uleb128 0x3
 1581 0805 4A050000 		.4byte	.LASF115
 1582 0809 0F       		.byte	0xf
 1583 080a 68       		.byte	0x68
 1584 080b E9070000 		.4byte	0x7e9
 1585 080f 03       		.uleb128 0x3
 1586 0810 54050000 		.4byte	.LASF116
 1587 0814 0F       		.byte	0xf
 1588 0815 6D       		.byte	0x6d
 1589 0816 1A080000 		.4byte	0x81a
 1590 081a 05       		.uleb128 0x5
 1591 081b 54050000 		.4byte	.LASF116
 1592 081f 74       		.byte	0x74
 1593 0820 0F       		.byte	0xf
 1594 0821 87       		.byte	0x87
 1595 0822 91080000 		.4byte	0x891
 1596 0826 07       		.uleb128 0x7
ARM GAS  /tmp/ccaPyqmh.s 			page 29


 1597 0827 766D7400 		.ascii	"vmt\000"
 1598 082b 0F       		.byte	0xf
 1599 082c 89       		.byte	0x89
 1600 082d 36090000 		.4byte	0x936
 1601 0831 00       		.byte	0
 1602 0832 06       		.uleb128 0x6
 1603 0833 03030000 		.4byte	.LASF85
 1604 0837 0F       		.byte	0xf
 1605 0838 8A       		.byte	0x8a
 1606 0839 BC030000 		.4byte	0x3bc
 1607 083d 04       		.byte	0x4
 1608 083e 06       		.uleb128 0x6
 1609 083f AF060000 		.4byte	.LASF86
 1610 0843 0F       		.byte	0xf
 1611 0844 8A       		.byte	0x8a
 1612 0845 9D050000 		.4byte	0x59d
 1613 0849 08       		.byte	0x8
 1614 084a 06       		.uleb128 0x6
 1615 084b CE010000 		.4byte	.LASF117
 1616 084f 0F       		.byte	0xf
 1617 0850 8A       		.byte	0x8a
 1618 0851 04080000 		.4byte	0x804
 1619 0855 0C       		.byte	0xc
 1620 0856 06       		.uleb128 0x6
 1621 0857 CD020000 		.4byte	.LASF118
 1622 085b 0F       		.byte	0xf
 1623 085c 8A       		.byte	0x8a
 1624 085d A8040000 		.4byte	0x4a8
 1625 0861 10       		.byte	0x10
 1626 0862 06       		.uleb128 0x6
 1627 0863 22030000 		.4byte	.LASF119
 1628 0867 0F       		.byte	0xf
 1629 0868 8A       		.byte	0x8a
 1630 0869 B3040000 		.4byte	0x4b3
 1631 086d 30       		.byte	0x30
 1632 086e 07       		.uleb128 0x7
 1633 086f 696200   		.ascii	"ib\000"
 1634 0872 0F       		.byte	0xf
 1635 0873 8A       		.byte	0x8a
 1636 0874 41090000 		.4byte	0x941
 1637 0878 50       		.byte	0x50
 1638 0879 07       		.uleb128 0x7
 1639 087a 6F6200   		.ascii	"ob\000"
 1640 087d 0F       		.byte	0xf
 1641 087e 8A       		.byte	0x8a
 1642 087f 41090000 		.4byte	0x941
 1643 0883 60       		.byte	0x60
 1644 0884 06       		.uleb128 0x6
 1645 0885 4C040000 		.4byte	.LASF120
 1646 0889 0F       		.byte	0xf
 1647 088a 8A       		.byte	0x8a
 1648 088b 51090000 		.4byte	0x951
 1649 088f 70       		.byte	0x70
 1650 0890 00       		.byte	0
 1651 0891 08       		.uleb128 0x8
 1652 0892 08       		.byte	0x8
 1653 0893 10       		.byte	0x10
ARM GAS  /tmp/ccaPyqmh.s 			page 30


 1654 0894 58       		.byte	0x58
 1655 0895 B2080000 		.4byte	0x8b2
 1656 0899 06       		.uleb128 0x6
 1657 089a 28060000 		.4byte	.LASF121
 1658 089e 10       		.byte	0x10
 1659 089f 5D       		.byte	0x5d
 1660 08a0 A9000000 		.4byte	0xa9
 1661 08a4 00       		.byte	0
 1662 08a5 06       		.uleb128 0x6
 1663 08a6 EE030000 		.4byte	.LASF122
 1664 08aa 10       		.byte	0x10
 1665 08ab 62       		.byte	0x62
 1666 08ac A9000000 		.4byte	0xa9
 1667 08b0 04       		.byte	0x4
 1668 08b1 00       		.byte	0
 1669 08b2 03       		.uleb128 0x3
 1670 08b3 3F040000 		.4byte	.LASF123
 1671 08b7 10       		.byte	0x10
 1672 08b8 63       		.byte	0x63
 1673 08b9 91080000 		.4byte	0x891
 1674 08bd 05       		.uleb128 0x5
 1675 08be AA020000 		.4byte	.LASF124
 1676 08c2 24       		.byte	0x24
 1677 08c3 0F       		.byte	0xf
 1678 08c4 7C       		.byte	0x7c
 1679 08c5 36090000 		.4byte	0x936
 1680 08c9 06       		.uleb128 0x6
 1681 08ca AE030000 		.4byte	.LASF78
 1682 08ce 0F       		.byte	0xf
 1683 08cf 7D       		.byte	0x7d
 1684 08d0 E2040000 		.4byte	0x4e2
 1685 08d4 00       		.byte	0
 1686 08d5 06       		.uleb128 0x6
 1687 08d6 7B050000 		.4byte	.LASF79
 1688 08da 0F       		.byte	0xf
 1689 08db 7D       		.byte	0x7d
 1690 08dc 01050000 		.4byte	0x501
 1691 08e0 04       		.byte	0x4
 1692 08e1 06       		.uleb128 0x6
 1693 08e2 2B020000 		.4byte	.LASF80
 1694 08e6 0F       		.byte	0xf
 1695 08e7 7D       		.byte	0x7d
 1696 08e8 16050000 		.4byte	0x516
 1697 08ec 08       		.byte	0x8
 1698 08ed 06       		.uleb128 0x6
 1699 08ee D6060000 		.4byte	.LASF81
 1700 08f2 0F       		.byte	0xf
 1701 08f3 7D       		.byte	0x7d
 1702 08f4 16050000 		.4byte	0x516
 1703 08f8 0C       		.byte	0xc
 1704 08f9 07       		.uleb128 0x7
 1705 08fa 70757400 		.ascii	"put\000"
 1706 08fe 0F       		.byte	0xf
 1707 08ff 7D       		.byte	0x7d
 1708 0900 35050000 		.4byte	0x535
 1709 0904 10       		.byte	0x10
 1710 0905 07       		.uleb128 0x7
ARM GAS  /tmp/ccaPyqmh.s 			page 31


 1711 0906 67657400 		.ascii	"get\000"
 1712 090a 0F       		.byte	0xf
 1713 090b 7D       		.byte	0x7d
 1714 090c 4F050000 		.4byte	0x54f
 1715 0910 14       		.byte	0x14
 1716 0911 06       		.uleb128 0x6
 1717 0912 38030000 		.4byte	.LASF82
 1718 0916 0F       		.byte	0xf
 1719 0917 7D       		.byte	0x7d
 1720 0918 73050000 		.4byte	0x573
 1721 091c 18       		.byte	0x18
 1722 091d 06       		.uleb128 0x6
 1723 091e 83010000 		.4byte	.LASF83
 1724 0922 0F       		.byte	0xf
 1725 0923 7D       		.byte	0x7d
 1726 0924 97050000 		.4byte	0x597
 1727 0928 1C       		.byte	0x1c
 1728 0929 06       		.uleb128 0x6
 1729 092a 06040000 		.4byte	.LASF84
 1730 092e 0F       		.byte	0xf
 1731 092f 7D       		.byte	0x7d
 1732 0930 3B060000 		.4byte	0x63b
 1733 0934 20       		.byte	0x20
 1734 0935 00       		.byte	0
 1735 0936 09       		.uleb128 0x9
 1736 0937 04       		.byte	0x4
 1737 0938 3C090000 		.4byte	0x93c
 1738 093c 10       		.uleb128 0x10
 1739 093d BD080000 		.4byte	0x8bd
 1740 0941 19       		.uleb128 0x19
 1741 0942 93000000 		.4byte	0x93
 1742 0946 51090000 		.4byte	0x951
 1743 094a 1A       		.uleb128 0x1a
 1744 094b 13030000 		.4byte	0x313
 1745 094f 0F       		.byte	0xf
 1746 0950 00       		.byte	0
 1747 0951 09       		.uleb128 0x9
 1748 0952 04       		.byte	0x4
 1749 0953 DD070000 		.4byte	0x7dd
 1750 0957 1D       		.uleb128 0x1d
 1751 0958 2B020000 		.4byte	.LASF80
 1752 095c 01       		.byte	0x1
 1753 095d 4A       		.byte	0x4a
 1754 095e BF000000 		.4byte	0xbf
 1755 0962 00000000 		.4byte	.LFB38
 1756 0966 0A000000 		.4byte	.LFE38-.LFB38
 1757 096a 01       		.uleb128 0x1
 1758 096b 9C       		.byte	0x9c
 1759 096c 7F090000 		.4byte	0x97f
 1760 0970 1E       		.uleb128 0x1e
 1761 0971 697000   		.ascii	"ip\000"
 1762 0974 01       		.byte	0x1
 1763 0975 4A       		.byte	0x4a
 1764 0976 70020000 		.4byte	0x270
 1765 097a 00000000 		.4byte	.LLST0
 1766 097e 00       		.byte	0
 1767 097f 1D       		.uleb128 0x1d
ARM GAS  /tmp/ccaPyqmh.s 			page 32


 1768 0980 D6060000 		.4byte	.LASF81
 1769 0984 01       		.byte	0x1
 1770 0985 4F       		.byte	0x4f
 1771 0986 BF000000 		.4byte	0xbf
 1772 098a 00000000 		.4byte	.LFB39
 1773 098e 0A000000 		.4byte	.LFE39-.LFB39
 1774 0992 01       		.uleb128 0x1
 1775 0993 9C       		.byte	0x9c
 1776 0994 A7090000 		.4byte	0x9a7
 1777 0998 1E       		.uleb128 0x1e
 1778 0999 697000   		.ascii	"ip\000"
 1779 099c 01       		.byte	0x1
 1780 099d 4F       		.byte	0x4f
 1781 099e 70020000 		.4byte	0x270
 1782 09a2 21000000 		.4byte	.LLST1
 1783 09a6 00       		.byte	0
 1784 09a7 1D       		.uleb128 0x1d
 1785 09a8 06040000 		.4byte	.LASF84
 1786 09ac 01       		.byte	0x1
 1787 09ad 68       		.byte	0x68
 1788 09ae 9D050000 		.4byte	0x59d
 1789 09b2 00000000 		.4byte	.LFB44
 1790 09b6 16000000 		.4byte	.LFE44-.LFB44
 1791 09ba 01       		.uleb128 0x1
 1792 09bb 9C       		.byte	0x9c
 1793 09bc 0A0A0000 		.4byte	0xa0a
 1794 09c0 1E       		.uleb128 0x1e
 1795 09c1 697000   		.ascii	"ip\000"
 1796 09c4 01       		.byte	0x1
 1797 09c5 68       		.byte	0x68
 1798 09c6 70020000 		.4byte	0x270
 1799 09ca 42000000 		.4byte	.LLST2
 1800 09ce 1F       		.uleb128 0x1f
 1801 09cf 5F020000 		.4byte	.LASF125
 1802 09d3 01       		.byte	0x1
 1803 09d4 69       		.byte	0x69
 1804 09d5 9D050000 		.4byte	0x59d
 1805 09d9 01       		.uleb128 0x1
 1806 09da 50       		.byte	0x50
 1807 09db 20       		.uleb128 0x20
 1808 09dc 02000000 		.4byte	.LBB2
 1809 09e0 06000000 		.4byte	.LBE2-.LBB2
 1810 09e4 F6090000 		.4byte	0x9f6
 1811 09e8 21       		.uleb128 0x21
 1812 09e9 746D7000 		.ascii	"tmp\000"
 1813 09ed 01       		.byte	0x1
 1814 09ee 69       		.byte	0x69
 1815 09ef A9000000 		.4byte	0xa9
 1816 09f3 01       		.uleb128 0x1
 1817 09f4 53       		.byte	0x53
 1818 09f5 00       		.byte	0
 1819 09f6 22       		.uleb128 0x22
 1820 09f7 00000000 		.4byte	.Ldebug_ranges0+0
 1821 09fb 21       		.uleb128 0x21
 1822 09fc 746D7000 		.ascii	"tmp\000"
 1823 0a00 01       		.byte	0x1
 1824 0a01 69       		.byte	0x69
ARM GAS  /tmp/ccaPyqmh.s 			page 33


 1825 0a02 A9000000 		.4byte	0xa9
 1826 0a06 01       		.uleb128 0x1
 1827 0a07 53       		.byte	0x53
 1828 0a08 00       		.byte	0
 1829 0a09 00       		.byte	0
 1830 0a0a 1D       		.uleb128 0x1d
 1831 0a0b 83010000 		.4byte	.LASF83
 1832 0a0f 01       		.byte	0x1
 1833 0a10 63       		.byte	0x63
 1834 0a11 28000000 		.4byte	0x28
 1835 0a15 00000000 		.4byte	.LFB43
 1836 0a19 06000000 		.4byte	.LFE43-.LFB43
 1837 0a1d 01       		.uleb128 0x1
 1838 0a1e 9C       		.byte	0x9c
 1839 0a1f 840A0000 		.4byte	0xa84
 1840 0a23 1E       		.uleb128 0x1e
 1841 0a24 697000   		.ascii	"ip\000"
 1842 0a27 01       		.byte	0x1
 1843 0a28 63       		.byte	0x63
 1844 0a29 70020000 		.4byte	0x270
 1845 0a2d 60000000 		.4byte	.LLST3
 1846 0a31 1E       		.uleb128 0x1e
 1847 0a32 627000   		.ascii	"bp\000"
 1848 0a35 01       		.byte	0x1
 1849 0a36 63       		.byte	0x63
 1850 0a37 A2040000 		.4byte	0x4a2
 1851 0a3b 8E000000 		.4byte	.LLST4
 1852 0a3f 1E       		.uleb128 0x1e
 1853 0a40 6E00     		.ascii	"n\000"
 1854 0a42 01       		.byte	0x1
 1855 0a43 63       		.byte	0x63
 1856 0a44 28000000 		.4byte	0x28
 1857 0a48 AF000000 		.4byte	.LLST5
 1858 0a4c 23       		.uleb128 0x23
 1859 0a4d 6F060000 		.4byte	.LASF126
 1860 0a51 01       		.byte	0x1
 1861 0a52 63       		.byte	0x63
 1862 0a53 0C010000 		.4byte	0x10c
 1863 0a57 D0000000 		.4byte	.LLST6
 1864 0a5b 24       		.uleb128 0x24
 1865 0a5c 06000000 		.4byte	.LVL8
 1866 0a60 6F0F0000 		.4byte	0xf6f
 1867 0a64 25       		.uleb128 0x25
 1868 0a65 01       		.uleb128 0x1
 1869 0a66 53       		.byte	0x53
 1870 0a67 03       		.uleb128 0x3
 1871 0a68 F3       		.byte	0xf3
 1872 0a69 01       		.uleb128 0x1
 1873 0a6a 53       		.byte	0x53
 1874 0a6b 25       		.uleb128 0x25
 1875 0a6c 01       		.uleb128 0x1
 1876 0a6d 52       		.byte	0x52
 1877 0a6e 03       		.uleb128 0x3
 1878 0a6f F3       		.byte	0xf3
 1879 0a70 01       		.uleb128 0x1
 1880 0a71 52       		.byte	0x52
 1881 0a72 25       		.uleb128 0x25
ARM GAS  /tmp/ccaPyqmh.s 			page 34


 1882 0a73 01       		.uleb128 0x1
 1883 0a74 51       		.byte	0x51
 1884 0a75 03       		.uleb128 0x3
 1885 0a76 F3       		.byte	0xf3
 1886 0a77 01       		.uleb128 0x1
 1887 0a78 51       		.byte	0x51
 1888 0a79 25       		.uleb128 0x25
 1889 0a7a 01       		.uleb128 0x1
 1890 0a7b 50       		.byte	0x50
 1891 0a7c 05       		.uleb128 0x5
 1892 0a7d F3       		.byte	0xf3
 1893 0a7e 01       		.uleb128 0x1
 1894 0a7f 50       		.byte	0x50
 1895 0a80 23       		.byte	0x23
 1896 0a81 10       		.uleb128 0x10
 1897 0a82 00       		.byte	0
 1898 0a83 00       		.byte	0
 1899 0a84 1D       		.uleb128 0x1d
 1900 0a85 7D010000 		.4byte	.LASF127
 1901 0a89 01       		.byte	0x1
 1902 0a8a 44       		.byte	0x44
 1903 0a8b 28000000 		.4byte	0x28
 1904 0a8f 00000000 		.4byte	.LFB37
 1905 0a93 0A000000 		.4byte	.LFE37-.LFB37
 1906 0a97 01       		.uleb128 0x1
 1907 0a98 9C       		.byte	0x9c
 1908 0a99 EE0A0000 		.4byte	0xaee
 1909 0a9d 1E       		.uleb128 0x1e
 1910 0a9e 697000   		.ascii	"ip\000"
 1911 0aa1 01       		.byte	0x1
 1912 0aa2 44       		.byte	0x44
 1913 0aa3 70020000 		.4byte	0x270
 1914 0aa7 F1000000 		.4byte	.LLST7
 1915 0aab 1E       		.uleb128 0x1e
 1916 0aac 627000   		.ascii	"bp\000"
 1917 0aaf 01       		.byte	0x1
 1918 0ab0 44       		.byte	0x44
 1919 0ab1 A2040000 		.4byte	0x4a2
 1920 0ab5 1F010000 		.4byte	.LLST8
 1921 0ab9 1E       		.uleb128 0x1e
 1922 0aba 6E00     		.ascii	"n\000"
 1923 0abc 01       		.byte	0x1
 1924 0abd 44       		.byte	0x44
 1925 0abe 28000000 		.4byte	0x28
 1926 0ac2 40010000 		.4byte	.LLST9
 1927 0ac6 24       		.uleb128 0x24
 1928 0ac7 0A000000 		.4byte	.LVL11
 1929 0acb 6F0F0000 		.4byte	0xf6f
 1930 0acf 25       		.uleb128 0x25
 1931 0ad0 01       		.uleb128 0x1
 1932 0ad1 53       		.byte	0x53
 1933 0ad2 02       		.uleb128 0x2
 1934 0ad3 09       		.byte	0x9
 1935 0ad4 FF       		.byte	0xff
 1936 0ad5 25       		.uleb128 0x25
 1937 0ad6 01       		.uleb128 0x1
 1938 0ad7 52       		.byte	0x52
ARM GAS  /tmp/ccaPyqmh.s 			page 35


 1939 0ad8 03       		.uleb128 0x3
 1940 0ad9 F3       		.byte	0xf3
 1941 0ada 01       		.uleb128 0x1
 1942 0adb 52       		.byte	0x52
 1943 0adc 25       		.uleb128 0x25
 1944 0add 01       		.uleb128 0x1
 1945 0ade 51       		.byte	0x51
 1946 0adf 03       		.uleb128 0x3
 1947 0ae0 F3       		.byte	0xf3
 1948 0ae1 01       		.uleb128 0x1
 1949 0ae2 51       		.byte	0x51
 1950 0ae3 25       		.uleb128 0x25
 1951 0ae4 01       		.uleb128 0x1
 1952 0ae5 50       		.byte	0x50
 1953 0ae6 05       		.uleb128 0x5
 1954 0ae7 F3       		.byte	0xf3
 1955 0ae8 01       		.uleb128 0x1
 1956 0ae9 50       		.byte	0x50
 1957 0aea 23       		.byte	0x23
 1958 0aeb 10       		.uleb128 0x10
 1959 0aec 00       		.byte	0
 1960 0aed 00       		.byte	0
 1961 0aee 1D       		.uleb128 0x1d
 1962 0aef 38030000 		.4byte	.LASF82
 1963 0af3 01       		.byte	0x1
 1964 0af4 5E       		.byte	0x5e
 1965 0af5 28000000 		.4byte	0x28
 1966 0af9 00000000 		.4byte	.LFB42
 1967 0afd 06000000 		.4byte	.LFE42-.LFB42
 1968 0b01 01       		.uleb128 0x1
 1969 0b02 9C       		.byte	0x9c
 1970 0b03 680B0000 		.4byte	0xb68
 1971 0b07 1E       		.uleb128 0x1e
 1972 0b08 697000   		.ascii	"ip\000"
 1973 0b0b 01       		.byte	0x1
 1974 0b0c 5E       		.byte	0x5e
 1975 0b0d 70020000 		.4byte	0x270
 1976 0b11 61010000 		.4byte	.LLST10
 1977 0b15 1E       		.uleb128 0x1e
 1978 0b16 627000   		.ascii	"bp\000"
 1979 0b19 01       		.byte	0x1
 1980 0b1a 5E       		.byte	0x5e
 1981 0b1b D7040000 		.4byte	0x4d7
 1982 0b1f 8F010000 		.4byte	.LLST11
 1983 0b23 1E       		.uleb128 0x1e
 1984 0b24 6E00     		.ascii	"n\000"
 1985 0b26 01       		.byte	0x1
 1986 0b27 5E       		.byte	0x5e
 1987 0b28 28000000 		.4byte	0x28
 1988 0b2c B0010000 		.4byte	.LLST12
 1989 0b30 23       		.uleb128 0x23
 1990 0b31 6F060000 		.4byte	.LASF126
 1991 0b35 01       		.byte	0x1
 1992 0b36 5E       		.byte	0x5e
 1993 0b37 0C010000 		.4byte	0x10c
 1994 0b3b D1010000 		.4byte	.LLST13
 1995 0b3f 24       		.uleb128 0x24
ARM GAS  /tmp/ccaPyqmh.s 			page 36


 1996 0b40 06000000 		.4byte	.LVL14
 1997 0b44 9A0F0000 		.4byte	0xf9a
 1998 0b48 25       		.uleb128 0x25
 1999 0b49 01       		.uleb128 0x1
 2000 0b4a 53       		.byte	0x53
 2001 0b4b 03       		.uleb128 0x3
 2002 0b4c F3       		.byte	0xf3
 2003 0b4d 01       		.uleb128 0x1
 2004 0b4e 53       		.byte	0x53
 2005 0b4f 25       		.uleb128 0x25
 2006 0b50 01       		.uleb128 0x1
 2007 0b51 52       		.byte	0x52
 2008 0b52 03       		.uleb128 0x3
 2009 0b53 F3       		.byte	0xf3
 2010 0b54 01       		.uleb128 0x1
 2011 0b55 52       		.byte	0x52
 2012 0b56 25       		.uleb128 0x25
 2013 0b57 01       		.uleb128 0x1
 2014 0b58 51       		.byte	0x51
 2015 0b59 03       		.uleb128 0x3
 2016 0b5a F3       		.byte	0xf3
 2017 0b5b 01       		.uleb128 0x1
 2018 0b5c 51       		.byte	0x51
 2019 0b5d 25       		.uleb128 0x25
 2020 0b5e 01       		.uleb128 0x1
 2021 0b5f 50       		.byte	0x50
 2022 0b60 05       		.uleb128 0x5
 2023 0b61 F3       		.byte	0xf3
 2024 0b62 01       		.uleb128 0x1
 2025 0b63 50       		.byte	0x50
 2026 0b64 23       		.byte	0x23
 2027 0b65 30       		.uleb128 0x30
 2028 0b66 00       		.byte	0
 2029 0b67 00       		.byte	0
 2030 0b68 1D       		.uleb128 0x1d
 2031 0b69 31030000 		.4byte	.LASF128
 2032 0b6d 01       		.byte	0x1
 2033 0b6e 3E       		.byte	0x3e
 2034 0b6f 28000000 		.4byte	0x28
 2035 0b73 00000000 		.4byte	.LFB36
 2036 0b77 0A000000 		.4byte	.LFE36-.LFB36
 2037 0b7b 01       		.uleb128 0x1
 2038 0b7c 9C       		.byte	0x9c
 2039 0b7d D20B0000 		.4byte	0xbd2
 2040 0b81 1E       		.uleb128 0x1e
 2041 0b82 697000   		.ascii	"ip\000"
 2042 0b85 01       		.byte	0x1
 2043 0b86 3E       		.byte	0x3e
 2044 0b87 70020000 		.4byte	0x270
 2045 0b8b F2010000 		.4byte	.LLST14
 2046 0b8f 1E       		.uleb128 0x1e
 2047 0b90 627000   		.ascii	"bp\000"
 2048 0b93 01       		.byte	0x1
 2049 0b94 3E       		.byte	0x3e
 2050 0b95 D7040000 		.4byte	0x4d7
 2051 0b99 20020000 		.4byte	.LLST15
 2052 0b9d 1E       		.uleb128 0x1e
ARM GAS  /tmp/ccaPyqmh.s 			page 37


 2053 0b9e 6E00     		.ascii	"n\000"
 2054 0ba0 01       		.byte	0x1
 2055 0ba1 3E       		.byte	0x3e
 2056 0ba2 28000000 		.4byte	0x28
 2057 0ba6 41020000 		.4byte	.LLST16
 2058 0baa 24       		.uleb128 0x24
 2059 0bab 0A000000 		.4byte	.LVL17
 2060 0baf 9A0F0000 		.4byte	0xf9a
 2061 0bb3 25       		.uleb128 0x25
 2062 0bb4 01       		.uleb128 0x1
 2063 0bb5 53       		.byte	0x53
 2064 0bb6 02       		.uleb128 0x2
 2065 0bb7 09       		.byte	0x9
 2066 0bb8 FF       		.byte	0xff
 2067 0bb9 25       		.uleb128 0x25
 2068 0bba 01       		.uleb128 0x1
 2069 0bbb 52       		.byte	0x52
 2070 0bbc 03       		.uleb128 0x3
 2071 0bbd F3       		.byte	0xf3
 2072 0bbe 01       		.uleb128 0x1
 2073 0bbf 52       		.byte	0x52
 2074 0bc0 25       		.uleb128 0x25
 2075 0bc1 01       		.uleb128 0x1
 2076 0bc2 51       		.byte	0x51
 2077 0bc3 03       		.uleb128 0x3
 2078 0bc4 F3       		.byte	0xf3
 2079 0bc5 01       		.uleb128 0x1
 2080 0bc6 51       		.byte	0x51
 2081 0bc7 25       		.uleb128 0x25
 2082 0bc8 01       		.uleb128 0x1
 2083 0bc9 50       		.byte	0x50
 2084 0bca 05       		.uleb128 0x5
 2085 0bcb F3       		.byte	0xf3
 2086 0bcc 01       		.uleb128 0x1
 2087 0bcd 50       		.byte	0x50
 2088 0bce 23       		.byte	0x23
 2089 0bcf 30       		.uleb128 0x30
 2090 0bd0 00       		.byte	0
 2091 0bd1 00       		.byte	0
 2092 0bd2 1D       		.uleb128 0x1d
 2093 0bd3 F5020000 		.4byte	.LASF129
 2094 0bd7 01       		.byte	0x1
 2095 0bd8 59       		.byte	0x59
 2096 0bd9 F6000000 		.4byte	0xf6
 2097 0bdd 00000000 		.4byte	.LFB41
 2098 0be1 06000000 		.4byte	.LFE41-.LFB41
 2099 0be5 01       		.uleb128 0x1
 2100 0be6 9C       		.byte	0x9c
 2101 0be7 230C0000 		.4byte	0xc23
 2102 0beb 1E       		.uleb128 0x1e
 2103 0bec 697000   		.ascii	"ip\000"
 2104 0bef 01       		.byte	0x1
 2105 0bf0 59       		.byte	0x59
 2106 0bf1 70020000 		.4byte	0x270
 2107 0bf5 62020000 		.4byte	.LLST17
 2108 0bf9 23       		.uleb128 0x23
 2109 0bfa F0060000 		.4byte	.LASF130
ARM GAS  /tmp/ccaPyqmh.s 			page 38


 2110 0bfe 01       		.byte	0x1
 2111 0bff 59       		.byte	0x59
 2112 0c00 0C010000 		.4byte	0x10c
 2113 0c04 90020000 		.4byte	.LLST18
 2114 0c08 24       		.uleb128 0x24
 2115 0c09 06000000 		.4byte	.LVL20
 2116 0c0d C50F0000 		.4byte	0xfc5
 2117 0c11 25       		.uleb128 0x25
 2118 0c12 01       		.uleb128 0x1
 2119 0c13 51       		.byte	0x51
 2120 0c14 03       		.uleb128 0x3
 2121 0c15 F3       		.byte	0xf3
 2122 0c16 01       		.uleb128 0x1
 2123 0c17 51       		.byte	0x51
 2124 0c18 25       		.uleb128 0x25
 2125 0c19 01       		.uleb128 0x1
 2126 0c1a 50       		.byte	0x50
 2127 0c1b 05       		.uleb128 0x5
 2128 0c1c F3       		.byte	0xf3
 2129 0c1d 01       		.uleb128 0x1
 2130 0c1e 50       		.byte	0x50
 2131 0c1f 23       		.byte	0x23
 2132 0c20 10       		.uleb128 0x10
 2133 0c21 00       		.byte	0
 2134 0c22 00       		.byte	0
 2135 0c23 1D       		.uleb128 0x1d
 2136 0c24 B4030000 		.4byte	.LASF131
 2137 0c28 01       		.byte	0x1
 2138 0c29 54       		.byte	0x54
 2139 0c2a F6000000 		.4byte	0xf6
 2140 0c2e 00000000 		.4byte	.LFB40
 2141 0c32 06000000 		.4byte	.LFE40-.LFB40
 2142 0c36 01       		.uleb128 0x1
 2143 0c37 9C       		.byte	0x9c
 2144 0c38 810C0000 		.4byte	0xc81
 2145 0c3c 1E       		.uleb128 0x1e
 2146 0c3d 697000   		.ascii	"ip\000"
 2147 0c40 01       		.byte	0x1
 2148 0c41 54       		.byte	0x54
 2149 0c42 70020000 		.4byte	0x270
 2150 0c46 B1020000 		.4byte	.LLST19
 2151 0c4a 1E       		.uleb128 0x1e
 2152 0c4b 6200     		.ascii	"b\000"
 2153 0c4d 01       		.byte	0x1
 2154 0c4e 54       		.byte	0x54
 2155 0c4f 93000000 		.4byte	0x93
 2156 0c53 DF020000 		.4byte	.LLST20
 2157 0c57 23       		.uleb128 0x23
 2158 0c58 F0060000 		.4byte	.LASF130
 2159 0c5c 01       		.byte	0x1
 2160 0c5d 54       		.byte	0x54
 2161 0c5e 0C010000 		.4byte	0x10c
 2162 0c62 00030000 		.4byte	.LLST21
 2163 0c66 24       		.uleb128 0x24
 2164 0c67 06000000 		.4byte	.LVL23
 2165 0c6b E00F0000 		.4byte	0xfe0
 2166 0c6f 25       		.uleb128 0x25
ARM GAS  /tmp/ccaPyqmh.s 			page 39


 2167 0c70 01       		.uleb128 0x1
 2168 0c71 52       		.byte	0x52
 2169 0c72 03       		.uleb128 0x3
 2170 0c73 F3       		.byte	0xf3
 2171 0c74 01       		.uleb128 0x1
 2172 0c75 52       		.byte	0x52
 2173 0c76 25       		.uleb128 0x25
 2174 0c77 01       		.uleb128 0x1
 2175 0c78 50       		.byte	0x50
 2176 0c79 05       		.uleb128 0x5
 2177 0c7a F3       		.byte	0xf3
 2178 0c7b 01       		.uleb128 0x1
 2179 0c7c 50       		.byte	0x50
 2180 0c7d 23       		.byte	0x23
 2181 0c7e 30       		.uleb128 0x30
 2182 0c7f 00       		.byte	0
 2183 0c80 00       		.byte	0
 2184 0c81 26       		.uleb128 0x26
 2185 0c82 F8060000 		.4byte	.LASF132
 2186 0c86 01       		.byte	0x1
 2187 0c87 7D       		.byte	0x7d
 2188 0c88 00000000 		.4byte	.LFB45
 2189 0c8c 04000000 		.4byte	.LFE45-.LFB45
 2190 0c90 01       		.uleb128 0x1
 2191 0c91 9C       		.byte	0x9c
 2192 0c92 A00C0000 		.4byte	0xca0
 2193 0c96 27       		.uleb128 0x27
 2194 0c97 04000000 		.4byte	.LVL24
 2195 0c9b 00100000 		.4byte	0x1000
 2196 0c9f 00       		.byte	0
 2197 0ca0 26       		.uleb128 0x26
 2198 0ca1 70010000 		.4byte	.LASF133
 2199 0ca5 01       		.byte	0x1
 2200 0ca6 91       		.byte	0x91
 2201 0ca7 00000000 		.4byte	.LFB46
 2202 0cab 40000000 		.4byte	.LFE46-.LFB46
 2203 0caf 01       		.uleb128 0x1
 2204 0cb0 9C       		.byte	0x9c
 2205 0cb1 320D0000 		.4byte	0xd32
 2206 0cb5 1E       		.uleb128 0x1e
 2207 0cb6 73647000 		.ascii	"sdp\000"
 2208 0cba 01       		.byte	0x1
 2209 0cbb 91       		.byte	0x91
 2210 0cbc 320D0000 		.4byte	0xd32
 2211 0cc0 21030000 		.4byte	.LLST22
 2212 0cc4 23       		.uleb128 0x23
 2213 0cc5 C5020000 		.4byte	.LASF134
 2214 0cc9 01       		.byte	0x1
 2215 0cca 91       		.byte	0x91
 2216 0ccb 80040000 		.4byte	0x480
 2217 0ccf 5B030000 		.4byte	.LLST23
 2218 0cd3 23       		.uleb128 0x23
 2219 0cd4 B5060000 		.4byte	.LASF135
 2220 0cd8 01       		.byte	0x1
 2221 0cd9 91       		.byte	0x91
 2222 0cda 80040000 		.4byte	0x480
 2223 0cde 87030000 		.4byte	.LLST24
ARM GAS  /tmp/ccaPyqmh.s 			page 40


 2224 0ce2 28       		.uleb128 0x28
 2225 0ce3 26000000 		.4byte	.LVL29
 2226 0ce7 07100000 		.4byte	0x1007
 2227 0ceb 090D0000 		.4byte	0xd09
 2228 0cef 25       		.uleb128 0x25
 2229 0cf0 01       		.uleb128 0x1
 2230 0cf1 53       		.byte	0x53
 2231 0cf2 03       		.uleb128 0x3
 2232 0cf3 F3       		.byte	0xf3
 2233 0cf4 01       		.uleb128 0x1
 2234 0cf5 51       		.byte	0x51
 2235 0cf6 25       		.uleb128 0x25
 2236 0cf7 01       		.uleb128 0x1
 2237 0cf8 52       		.byte	0x52
 2238 0cf9 01       		.uleb128 0x1
 2239 0cfa 40       		.byte	0x40
 2240 0cfb 25       		.uleb128 0x25
 2241 0cfc 01       		.uleb128 0x1
 2242 0cfd 51       		.byte	0x51
 2243 0cfe 03       		.uleb128 0x3
 2244 0cff 74       		.byte	0x74
 2245 0d00 D000     		.sleb128 80
 2246 0d02 25       		.uleb128 0x25
 2247 0d03 01       		.uleb128 0x1
 2248 0d04 50       		.byte	0x50
 2249 0d05 02       		.uleb128 0x2
 2250 0d06 74       		.byte	0x74
 2251 0d07 10       		.sleb128 16
 2252 0d08 00       		.byte	0
 2253 0d09 24       		.uleb128 0x24
 2254 0d0a 3A000000 		.4byte	.LVL31
 2255 0d0e 28100000 		.4byte	0x1028
 2256 0d12 25       		.uleb128 0x25
 2257 0d13 01       		.uleb128 0x1
 2258 0d14 53       		.byte	0x53
 2259 0d15 03       		.uleb128 0x3
 2260 0d16 F3       		.byte	0xf3
 2261 0d17 01       		.uleb128 0x1
 2262 0d18 52       		.byte	0x52
 2263 0d19 25       		.uleb128 0x25
 2264 0d1a 01       		.uleb128 0x1
 2265 0d1b 52       		.byte	0x52
 2266 0d1c 01       		.uleb128 0x1
 2267 0d1d 40       		.byte	0x40
 2268 0d1e 25       		.uleb128 0x25
 2269 0d1f 01       		.uleb128 0x1
 2270 0d20 51       		.byte	0x51
 2271 0d21 05       		.uleb128 0x5
 2272 0d22 F3       		.byte	0xf3
 2273 0d23 01       		.uleb128 0x1
 2274 0d24 50       		.byte	0x50
 2275 0d25 23       		.byte	0x23
 2276 0d26 60       		.uleb128 0x60
 2277 0d27 25       		.uleb128 0x25
 2278 0d28 01       		.uleb128 0x1
 2279 0d29 50       		.byte	0x50
 2280 0d2a 05       		.uleb128 0x5
ARM GAS  /tmp/ccaPyqmh.s 			page 41


 2281 0d2b F3       		.byte	0xf3
 2282 0d2c 01       		.uleb128 0x1
 2283 0d2d 50       		.byte	0x50
 2284 0d2e 23       		.byte	0x23
 2285 0d2f 30       		.uleb128 0x30
 2286 0d30 00       		.byte	0
 2287 0d31 00       		.byte	0
 2288 0d32 09       		.uleb128 0x9
 2289 0d33 04       		.byte	0x4
 2290 0d34 0F080000 		.4byte	0x80f
 2291 0d38 26       		.uleb128 0x26
 2292 0d39 9C050000 		.4byte	.LASF136
 2293 0d3d 01       		.byte	0x1
 2294 0d3e A5       		.byte	0xa5
 2295 0d3f 00000000 		.4byte	.LFB47
 2296 0d43 1A000000 		.4byte	.LFE47-.LFB47
 2297 0d47 01       		.uleb128 0x1
 2298 0d48 9C       		.byte	0x9c
 2299 0d49 B50D0000 		.4byte	0xdb5
 2300 0d4d 1E       		.uleb128 0x1e
 2301 0d4e 73647000 		.ascii	"sdp\000"
 2302 0d52 01       		.byte	0x1
 2303 0d53 A5       		.byte	0xa5
 2304 0d54 320D0000 		.4byte	0xd32
 2305 0d58 BE030000 		.4byte	.LLST25
 2306 0d5c 23       		.uleb128 0x23
 2307 0d5d 95050000 		.4byte	.LASF137
 2308 0d61 01       		.byte	0x1
 2309 0d62 A5       		.byte	0xa5
 2310 0d63 B50D0000 		.4byte	0xdb5
 2311 0d67 DC030000 		.4byte	.LLST26
 2312 0d6b 29       		.uleb128 0x29
 2313 0d6c 18000000 		.4byte	.Ldebug_ranges0+0x18
 2314 0d70 820D0000 		.4byte	0xd82
 2315 0d74 21       		.uleb128 0x21
 2316 0d75 746D7000 		.ascii	"tmp\000"
 2317 0d79 01       		.byte	0x1
 2318 0d7a A9       		.byte	0xa9
 2319 0d7b A9000000 		.4byte	0xa9
 2320 0d7f 01       		.uleb128 0x1
 2321 0d80 53       		.byte	0x53
 2322 0d81 00       		.byte	0
 2323 0d82 20       		.uleb128 0x20
 2324 0d83 12000000 		.4byte	.LBB7
 2325 0d87 08000000 		.4byte	.LBE7-.LBB7
 2326 0d8b 9D0D0000 		.4byte	0xd9d
 2327 0d8f 21       		.uleb128 0x21
 2328 0d90 746D7000 		.ascii	"tmp\000"
 2329 0d94 01       		.byte	0x1
 2330 0d95 AF       		.byte	0xaf
 2331 0d96 A9000000 		.4byte	0xa9
 2332 0d9a 01       		.uleb128 0x1
 2333 0d9b 53       		.byte	0x53
 2334 0d9c 00       		.byte	0
 2335 0d9d 2A       		.uleb128 0x2a
 2336 0d9e 0E000000 		.4byte	.LVL33
 2337 0da2 49100000 		.4byte	0x1049
ARM GAS  /tmp/ccaPyqmh.s 			page 42


 2338 0da6 25       		.uleb128 0x25
 2339 0da7 01       		.uleb128 0x1
 2340 0da8 51       		.byte	0x51
 2341 0da9 03       		.uleb128 0x3
 2342 0daa F3       		.byte	0xf3
 2343 0dab 01       		.uleb128 0x1
 2344 0dac 51       		.byte	0x51
 2345 0dad 25       		.uleb128 0x25
 2346 0dae 01       		.uleb128 0x1
 2347 0daf 50       		.byte	0x50
 2348 0db0 02       		.uleb128 0x2
 2349 0db1 74       		.byte	0x74
 2350 0db2 00       		.sleb128 0
 2351 0db3 00       		.byte	0
 2352 0db4 00       		.byte	0
 2353 0db5 09       		.uleb128 0x9
 2354 0db6 04       		.byte	0x4
 2355 0db7 BB0D0000 		.4byte	0xdbb
 2356 0dbb 10       		.uleb128 0x10
 2357 0dbc B2080000 		.4byte	0x8b2
 2358 0dc0 26       		.uleb128 0x26
 2359 0dc1 1F040000 		.4byte	.LASF138
 2360 0dc5 01       		.byte	0x1
 2361 0dc6 BB       		.byte	0xbb
 2362 0dc7 00000000 		.4byte	.LFB48
 2363 0dcb 2E000000 		.4byte	.LFE48-.LFB48
 2364 0dcf 01       		.uleb128 0x1
 2365 0dd0 9C       		.byte	0x9c
 2366 0dd1 5C0E0000 		.4byte	0xe5c
 2367 0dd5 1E       		.uleb128 0x1e
 2368 0dd6 73647000 		.ascii	"sdp\000"
 2369 0dda 01       		.byte	0x1
 2370 0ddb BB       		.byte	0xbb
 2371 0ddc 320D0000 		.4byte	0xd32
 2372 0de0 FD030000 		.4byte	.LLST27
 2373 0de4 29       		.uleb128 0x29
 2374 0de5 30000000 		.4byte	.Ldebug_ranges0+0x30
 2375 0de9 FB0D0000 		.4byte	0xdfb
 2376 0ded 21       		.uleb128 0x21
 2377 0dee 746D7000 		.ascii	"tmp\000"
 2378 0df2 01       		.byte	0x1
 2379 0df3 BF       		.byte	0xbf
 2380 0df4 A9000000 		.4byte	0xa9
 2381 0df8 01       		.uleb128 0x1
 2382 0df9 53       		.byte	0x53
 2383 0dfa 00       		.byte	0
 2384 0dfb 20       		.uleb128 0x20
 2385 0dfc 26000000 		.4byte	.LBB10
 2386 0e00 08000000 		.4byte	.LBE10-.LBB10
 2387 0e04 160E0000 		.4byte	0xe16
 2388 0e08 21       		.uleb128 0x21
 2389 0e09 746D7000 		.ascii	"tmp\000"
 2390 0e0d 01       		.byte	0x1
 2391 0e0e C8       		.byte	0xc8
 2392 0e0f A9000000 		.4byte	0xa9
 2393 0e13 01       		.uleb128 0x1
 2394 0e14 53       		.byte	0x53
ARM GAS  /tmp/ccaPyqmh.s 			page 43


 2395 0e15 00       		.byte	0
 2396 0e16 28       		.uleb128 0x28
 2397 0e17 0E000000 		.4byte	.LVL35
 2398 0e1b 5F100000 		.4byte	0x105f
 2399 0e1f 2A0E0000 		.4byte	0xe2a
 2400 0e23 25       		.uleb128 0x25
 2401 0e24 01       		.uleb128 0x1
 2402 0e25 50       		.byte	0x50
 2403 0e26 02       		.uleb128 0x2
 2404 0e27 74       		.byte	0x74
 2405 0e28 00       		.sleb128 0
 2406 0e29 00       		.byte	0
 2407 0e2a 28       		.uleb128 0x28
 2408 0e2b 1A000000 		.4byte	.LVL36
 2409 0e2f 70100000 		.4byte	0x1070
 2410 0e33 3E0E0000 		.4byte	0xe3e
 2411 0e37 25       		.uleb128 0x25
 2412 0e38 01       		.uleb128 0x1
 2413 0e39 50       		.byte	0x50
 2414 0e3a 02       		.uleb128 0x2
 2415 0e3b 74       		.byte	0x74
 2416 0e3c 30       		.sleb128 48
 2417 0e3d 00       		.byte	0
 2418 0e3e 28       		.uleb128 0x28
 2419 0e3f 22000000 		.4byte	.LVL37
 2420 0e43 82100000 		.4byte	0x1082
 2421 0e47 520E0000 		.4byte	0xe52
 2422 0e4b 25       		.uleb128 0x25
 2423 0e4c 01       		.uleb128 0x1
 2424 0e4d 50       		.byte	0x50
 2425 0e4e 02       		.uleb128 0x2
 2426 0e4f 74       		.byte	0x74
 2427 0e50 10       		.sleb128 16
 2428 0e51 00       		.byte	0
 2429 0e52 2B       		.uleb128 0x2b
 2430 0e53 26000000 		.4byte	.LVL38
 2431 0e57 94100000 		.4byte	0x1094
 2432 0e5b 00       		.byte	0
 2433 0e5c 26       		.uleb128 0x26
 2434 0e5d 85050000 		.4byte	.LASF139
 2435 0e61 01       		.byte	0x1
 2436 0e62 DB       		.byte	0xdb
 2437 0e63 00000000 		.4byte	.LFB49
 2438 0e67 4C000000 		.4byte	.LFE49-.LFB49
 2439 0e6b 01       		.uleb128 0x1
 2440 0e6c 9C       		.byte	0x9c
 2441 0e6d EE0E0000 		.4byte	0xeee
 2442 0e71 1E       		.uleb128 0x1e
 2443 0e72 73647000 		.ascii	"sdp\000"
 2444 0e76 01       		.byte	0x1
 2445 0e77 DB       		.byte	0xdb
 2446 0e78 320D0000 		.4byte	0xd32
 2447 0e7c 1B040000 		.4byte	.LLST28
 2448 0e80 1E       		.uleb128 0x1e
 2449 0e81 6200     		.ascii	"b\000"
 2450 0e83 01       		.byte	0x1
 2451 0e84 DB       		.byte	0xdb
ARM GAS  /tmp/ccaPyqmh.s 			page 44


 2452 0e85 93000000 		.4byte	0x93
 2453 0e89 6A040000 		.4byte	.LLST29
 2454 0e8d 28       		.uleb128 0x28
 2455 0e8e 14000000 		.4byte	.LVL42
 2456 0e92 9B100000 		.4byte	0x109b
 2457 0e96 A70E0000 		.4byte	0xea7
 2458 0e9a 25       		.uleb128 0x25
 2459 0e9b 01       		.uleb128 0x1
 2460 0e9c 51       		.byte	0x51
 2461 0e9d 02       		.uleb128 0x2
 2462 0e9e 75       		.byte	0x75
 2463 0e9f 00       		.sleb128 0
 2464 0ea0 25       		.uleb128 0x25
 2465 0ea1 01       		.uleb128 0x1
 2466 0ea2 50       		.byte	0x50
 2467 0ea3 02       		.uleb128 0x2
 2468 0ea4 74       		.byte	0x74
 2469 0ea5 10       		.sleb128 16
 2470 0ea6 00       		.byte	0
 2471 0ea7 28       		.uleb128 0x28
 2472 0ea8 2A000000 		.4byte	.LVL46
 2473 0eac B6100000 		.4byte	0x10b6
 2474 0eb0 BB0E0000 		.4byte	0xebb
 2475 0eb4 25       		.uleb128 0x25
 2476 0eb5 01       		.uleb128 0x1
 2477 0eb6 50       		.byte	0x50
 2478 0eb7 02       		.uleb128 0x2
 2479 0eb8 74       		.byte	0x74
 2480 0eb9 04       		.sleb128 4
 2481 0eba 00       		.byte	0
 2482 0ebb 28       		.uleb128 0x28
 2483 0ebc 34000000 		.4byte	.LVL47
 2484 0ec0 9B100000 		.4byte	0x109b
 2485 0ec4 D50E0000 		.4byte	0xed5
 2486 0ec8 25       		.uleb128 0x25
 2487 0ec9 01       		.uleb128 0x1
 2488 0eca 51       		.byte	0x51
 2489 0ecb 02       		.uleb128 0x2
 2490 0ecc 75       		.byte	0x75
 2491 0ecd 00       		.sleb128 0
 2492 0ece 25       		.uleb128 0x25
 2493 0ecf 01       		.uleb128 0x1
 2494 0ed0 50       		.byte	0x50
 2495 0ed1 02       		.uleb128 0x2
 2496 0ed2 74       		.byte	0x74
 2497 0ed3 10       		.sleb128 16
 2498 0ed4 00       		.byte	0
 2499 0ed5 24       		.uleb128 0x24
 2500 0ed6 4C000000 		.4byte	.LVL49
 2501 0eda B6100000 		.4byte	0x10b6
 2502 0ede 25       		.uleb128 0x25
 2503 0edf 01       		.uleb128 0x1
 2504 0ee0 51       		.byte	0x51
 2505 0ee1 01       		.uleb128 0x1
 2506 0ee2 30       		.byte	0x30
 2507 0ee3 25       		.uleb128 0x25
 2508 0ee4 01       		.uleb128 0x1
ARM GAS  /tmp/ccaPyqmh.s 			page 45


 2509 0ee5 50       		.byte	0x50
 2510 0ee6 05       		.uleb128 0x5
 2511 0ee7 F3       		.byte	0xf3
 2512 0ee8 01       		.uleb128 0x1
 2513 0ee9 50       		.byte	0x50
 2514 0eea 23       		.byte	0x23
 2515 0eeb 04       		.uleb128 0x4
 2516 0eec 00       		.byte	0
 2517 0eed 00       		.byte	0
 2518 0eee 2C       		.uleb128 0x2c
 2519 0eef 98060000 		.4byte	.LASF157
 2520 0ef3 01       		.byte	0x1
 2521 0ef4 F5       		.byte	0xf5
 2522 0ef5 F6000000 		.4byte	0xf6
 2523 0ef9 00000000 		.4byte	.LFB50
 2524 0efd 26000000 		.4byte	.LFE50-.LFB50
 2525 0f01 01       		.uleb128 0x1
 2526 0f02 9C       		.byte	0x9c
 2527 0f03 4D0F0000 		.4byte	0xf4d
 2528 0f07 1E       		.uleb128 0x1e
 2529 0f08 73647000 		.ascii	"sdp\000"
 2530 0f0c 01       		.byte	0x1
 2531 0f0d F5       		.byte	0xf5
 2532 0f0e 320D0000 		.4byte	0xd32
 2533 0f12 A4040000 		.4byte	.LLST30
 2534 0f16 2D       		.uleb128 0x2d
 2535 0f17 6200     		.ascii	"b\000"
 2536 0f19 01       		.byte	0x1
 2537 0f1a F6       		.byte	0xf6
 2538 0f1b F6000000 		.4byte	0xf6
 2539 0f1f C2040000 		.4byte	.LLST31
 2540 0f23 28       		.uleb128 0x28
 2541 0f24 0A000000 		.4byte	.LVL52
 2542 0f28 D2100000 		.4byte	0x10d2
 2543 0f2c 370F0000 		.4byte	0xf37
 2544 0f30 25       		.uleb128 0x25
 2545 0f31 01       		.uleb128 0x1
 2546 0f32 50       		.byte	0x50
 2547 0f33 02       		.uleb128 0x2
 2548 0f34 74       		.byte	0x74
 2549 0f35 30       		.sleb128 48
 2550 0f36 00       		.byte	0
 2551 0f37 2A       		.uleb128 0x2a
 2552 0f38 22000000 		.4byte	.LVL55
 2553 0f3c B6100000 		.4byte	0x10b6
 2554 0f40 25       		.uleb128 0x25
 2555 0f41 01       		.uleb128 0x1
 2556 0f42 51       		.byte	0x51
 2557 0f43 01       		.uleb128 0x1
 2558 0f44 30       		.byte	0x30
 2559 0f45 25       		.uleb128 0x25
 2560 0f46 01       		.uleb128 0x1
 2561 0f47 50       		.byte	0x50
 2562 0f48 02       		.uleb128 0x2
 2563 0f49 74       		.byte	0x74
 2564 0f4a 04       		.sleb128 4
 2565 0f4b 00       		.byte	0
ARM GAS  /tmp/ccaPyqmh.s 			page 46


 2566 0f4c 00       		.byte	0
 2567 0f4d 21       		.uleb128 0x21
 2568 0f4e 766D7400 		.ascii	"vmt\000"
 2569 0f52 01       		.byte	0x1
 2570 0f53 6C       		.byte	0x6c
 2571 0f54 3C090000 		.4byte	0x93c
 2572 0f58 05       		.uleb128 0x5
 2573 0f59 03       		.byte	0x3
 2574 0f5a 00000000 		.4byte	vmt
 2575 0f5e 2E       		.uleb128 0x2e
 2576 0f5f 63010000 		.4byte	.LASF158
 2577 0f63 12       		.byte	0x12
 2578 0f64 CE06     		.2byte	0x6ce
 2579 0f66 6A0F0000 		.4byte	0xf6a
 2580 0f6a 0D       		.uleb128 0xd
 2581 0f6b 21000000 		.4byte	0x21
 2582 0f6f 2F       		.uleb128 0x2f
 2583 0f70 3C000000 		.4byte	.LASF140
 2584 0f74 0C       		.byte	0xc
 2585 0f75 5401     		.2byte	0x154
 2586 0f77 28000000 		.4byte	0x28
 2587 0f7b 940F0000 		.4byte	0xf94
 2588 0f7f 12       		.uleb128 0x12
 2589 0f80 940F0000 		.4byte	0xf94
 2590 0f84 12       		.uleb128 0x12
 2591 0f85 A2040000 		.4byte	0x4a2
 2592 0f89 12       		.uleb128 0x12
 2593 0f8a 28000000 		.4byte	0x28
 2594 0f8e 12       		.uleb128 0x12
 2595 0f8f 0C010000 		.4byte	0x10c
 2596 0f93 00       		.byte	0
 2597 0f94 09       		.uleb128 0x9
 2598 0f95 04       		.byte	0x4
 2599 0f96 A8040000 		.4byte	0x4a8
 2600 0f9a 2F       		.uleb128 0x2f
 2601 0f9b 90030000 		.4byte	.LASF141
 2602 0f9f 0C       		.byte	0xc
 2603 0fa0 5B01     		.2byte	0x15b
 2604 0fa2 28000000 		.4byte	0x28
 2605 0fa6 BF0F0000 		.4byte	0xfbf
 2606 0faa 12       		.uleb128 0x12
 2607 0fab BF0F0000 		.4byte	0xfbf
 2608 0faf 12       		.uleb128 0x12
 2609 0fb0 D7040000 		.4byte	0x4d7
 2610 0fb4 12       		.uleb128 0x12
 2611 0fb5 28000000 		.4byte	0x28
 2612 0fb9 12       		.uleb128 0x12
 2613 0fba 0C010000 		.4byte	0x10c
 2614 0fbe 00       		.byte	0
 2615 0fbf 09       		.uleb128 0x9
 2616 0fc0 04       		.byte	0x4
 2617 0fc1 B3040000 		.4byte	0x4b3
 2618 0fc5 2F       		.uleb128 0x2f
 2619 0fc6 20070000 		.4byte	.LASF142
 2620 0fca 0C       		.byte	0xc
 2621 0fcb 5301     		.2byte	0x153
 2622 0fcd F6000000 		.4byte	0xf6
ARM GAS  /tmp/ccaPyqmh.s 			page 47


 2623 0fd1 E00F0000 		.4byte	0xfe0
 2624 0fd5 12       		.uleb128 0x12
 2625 0fd6 940F0000 		.4byte	0xf94
 2626 0fda 12       		.uleb128 0x12
 2627 0fdb 0C010000 		.4byte	0x10c
 2628 0fdf 00       		.byte	0
 2629 0fe0 2F       		.uleb128 0x2f
 2630 0fe1 00000000 		.4byte	.LASF143
 2631 0fe5 0C       		.byte	0xc
 2632 0fe6 5901     		.2byte	0x159
 2633 0fe8 F6000000 		.4byte	0xf6
 2634 0fec 00100000 		.4byte	0x1000
 2635 0ff0 12       		.uleb128 0x12
 2636 0ff1 BF0F0000 		.4byte	0xfbf
 2637 0ff5 12       		.uleb128 0x12
 2638 0ff6 93000000 		.4byte	0x93
 2639 0ffa 12       		.uleb128 0x12
 2640 0ffb 0C010000 		.4byte	0x10c
 2641 0fff 00       		.byte	0
 2642 1000 30       		.uleb128 0x30
 2643 1001 DF020000 		.4byte	.LASF150
 2644 1005 10       		.byte	0x10
 2645 1006 8C       		.byte	0x8c
 2646 1007 31       		.uleb128 0x31
 2647 1008 FF060000 		.4byte	.LASF144
 2648 100c 0C       		.byte	0xc
 2649 100d 5001     		.2byte	0x150
 2650 100f 28100000 		.4byte	0x1028
 2651 1013 12       		.uleb128 0x12
 2652 1014 940F0000 		.4byte	0xf94
 2653 1018 12       		.uleb128 0x12
 2654 1019 A2040000 		.4byte	0x4a2
 2655 101d 12       		.uleb128 0x12
 2656 101e 28000000 		.4byte	0x28
 2657 1022 12       		.uleb128 0x12
 2658 1023 80040000 		.4byte	0x480
 2659 1027 00       		.byte	0
 2660 1028 31       		.uleb128 0x31
 2661 1029 51010000 		.4byte	.LASF145
 2662 102d 0C       		.byte	0xc
 2663 102e 5701     		.2byte	0x157
 2664 1030 49100000 		.4byte	0x1049
 2665 1034 12       		.uleb128 0x12
 2666 1035 BF0F0000 		.4byte	0xfbf
 2667 1039 12       		.uleb128 0x12
 2668 103a A2040000 		.4byte	0x4a2
 2669 103e 12       		.uleb128 0x12
 2670 103f 28000000 		.4byte	0x28
 2671 1043 12       		.uleb128 0x12
 2672 1044 80040000 		.4byte	0x480
 2673 1048 00       		.byte	0
 2674 1049 32       		.uleb128 0x32
 2675 104a A6040000 		.4byte	.LASF146
 2676 104e 10       		.byte	0x10
 2677 104f 8D       		.byte	0x8d
 2678 1050 5F100000 		.4byte	0x105f
 2679 1054 12       		.uleb128 0x12
ARM GAS  /tmp/ccaPyqmh.s 			page 48


 2680 1055 320D0000 		.4byte	0xd32
 2681 1059 12       		.uleb128 0x12
 2682 105a B50D0000 		.4byte	0xdb5
 2683 105e 00       		.byte	0
 2684 105f 32       		.uleb128 0x32
 2685 1060 E4060000 		.4byte	.LASF147
 2686 1064 10       		.byte	0x10
 2687 1065 8E       		.byte	0x8e
 2688 1066 70100000 		.4byte	0x1070
 2689 106a 12       		.uleb128 0x12
 2690 106b 320D0000 		.4byte	0xd32
 2691 106f 00       		.byte	0
 2692 1070 31       		.uleb128 0x31
 2693 1071 C4060000 		.4byte	.LASF148
 2694 1075 0C       		.byte	0xc
 2695 1076 5801     		.2byte	0x158
 2696 1078 82100000 		.4byte	0x1082
 2697 107c 12       		.uleb128 0x12
 2698 107d BF0F0000 		.4byte	0xfbf
 2699 1081 00       		.byte	0
 2700 1082 31       		.uleb128 0x31
 2701 1083 BA020000 		.4byte	.LASF149
 2702 1087 0C       		.byte	0xc
 2703 1088 5101     		.2byte	0x151
 2704 108a 94100000 		.4byte	0x1094
 2705 108e 12       		.uleb128 0x12
 2706 108f 940F0000 		.4byte	0xf94
 2707 1093 00       		.byte	0
 2708 1094 30       		.uleb128 0x30
 2709 1095 43020000 		.4byte	.LASF151
 2710 1099 11       		.byte	0x11
 2711 109a 9F       		.byte	0x9f
 2712 109b 2F       		.uleb128 0x2f
 2713 109c 6D020000 		.4byte	.LASF152
 2714 10a0 0C       		.byte	0xc
 2715 10a1 5201     		.2byte	0x152
 2716 10a3 F6000000 		.4byte	0xf6
 2717 10a7 B6100000 		.4byte	0x10b6
 2718 10ab 12       		.uleb128 0x12
 2719 10ac 940F0000 		.4byte	0xf94
 2720 10b0 12       		.uleb128 0x12
 2721 10b1 93000000 		.4byte	0x93
 2722 10b5 00       		.byte	0
 2723 10b6 32       		.uleb128 0x32
 2724 10b7 0E020000 		.4byte	.LASF153
 2725 10bb 0B       		.byte	0xb
 2726 10bc B3       		.byte	0xb3
 2727 10bd CC100000 		.4byte	0x10cc
 2728 10c1 12       		.uleb128 0x12
 2729 10c2 CC100000 		.4byte	0x10cc
 2730 10c6 12       		.uleb128 0x12
 2731 10c7 01010000 		.4byte	0x101
 2732 10cb 00       		.byte	0
 2733 10cc 09       		.uleb128 0x9
 2734 10cd 04       		.byte	0x4
 2735 10ce BC030000 		.4byte	0x3bc
 2736 10d2 33       		.uleb128 0x33
ARM GAS  /tmp/ccaPyqmh.s 			page 49


 2737 10d3 E6010000 		.4byte	.LASF154
 2738 10d7 0C       		.byte	0xc
 2739 10d8 5A01     		.2byte	0x15a
 2740 10da F6000000 		.4byte	0xf6
 2741 10de 12       		.uleb128 0x12
 2742 10df BF0F0000 		.4byte	0xfbf
 2743 10e3 00       		.byte	0
 2744 10e4 00       		.byte	0
 2745              		.section	.debug_abbrev,"",%progbits
 2746              	.Ldebug_abbrev0:
 2747 0000 01       		.uleb128 0x1
 2748 0001 11       		.uleb128 0x11
 2749 0002 01       		.byte	0x1
 2750 0003 25       		.uleb128 0x25
 2751 0004 0E       		.uleb128 0xe
 2752 0005 13       		.uleb128 0x13
 2753 0006 0B       		.uleb128 0xb
 2754 0007 03       		.uleb128 0x3
 2755 0008 0E       		.uleb128 0xe
 2756 0009 55       		.uleb128 0x55
 2757 000a 17       		.uleb128 0x17
 2758 000b 11       		.uleb128 0x11
 2759 000c 01       		.uleb128 0x1
 2760 000d 10       		.uleb128 0x10
 2761 000e 17       		.uleb128 0x17
 2762 000f 00       		.byte	0
 2763 0010 00       		.byte	0
 2764 0011 02       		.uleb128 0x2
 2765 0012 24       		.uleb128 0x24
 2766 0013 00       		.byte	0
 2767 0014 0B       		.uleb128 0xb
 2768 0015 0B       		.uleb128 0xb
 2769 0016 3E       		.uleb128 0x3e
 2770 0017 0B       		.uleb128 0xb
 2771 0018 03       		.uleb128 0x3
 2772 0019 08       		.uleb128 0x8
 2773 001a 00       		.byte	0
 2774 001b 00       		.byte	0
 2775 001c 03       		.uleb128 0x3
 2776 001d 16       		.uleb128 0x16
 2777 001e 00       		.byte	0
 2778 001f 03       		.uleb128 0x3
 2779 0020 0E       		.uleb128 0xe
 2780 0021 3A       		.uleb128 0x3a
 2781 0022 0B       		.uleb128 0xb
 2782 0023 3B       		.uleb128 0x3b
 2783 0024 0B       		.uleb128 0xb
 2784 0025 49       		.uleb128 0x49
 2785 0026 13       		.uleb128 0x13
 2786 0027 00       		.byte	0
 2787 0028 00       		.byte	0
 2788 0029 04       		.uleb128 0x4
 2789 002a 24       		.uleb128 0x24
 2790 002b 00       		.byte	0
 2791 002c 0B       		.uleb128 0xb
 2792 002d 0B       		.uleb128 0xb
 2793 002e 3E       		.uleb128 0x3e
ARM GAS  /tmp/ccaPyqmh.s 			page 50


 2794 002f 0B       		.uleb128 0xb
 2795 0030 03       		.uleb128 0x3
 2796 0031 0E       		.uleb128 0xe
 2797 0032 00       		.byte	0
 2798 0033 00       		.byte	0
 2799 0034 05       		.uleb128 0x5
 2800 0035 13       		.uleb128 0x13
 2801 0036 01       		.byte	0x1
 2802 0037 03       		.uleb128 0x3
 2803 0038 0E       		.uleb128 0xe
 2804 0039 0B       		.uleb128 0xb
 2805 003a 0B       		.uleb128 0xb
 2806 003b 3A       		.uleb128 0x3a
 2807 003c 0B       		.uleb128 0xb
 2808 003d 3B       		.uleb128 0x3b
 2809 003e 0B       		.uleb128 0xb
 2810 003f 01       		.uleb128 0x1
 2811 0040 13       		.uleb128 0x13
 2812 0041 00       		.byte	0
 2813 0042 00       		.byte	0
 2814 0043 06       		.uleb128 0x6
 2815 0044 0D       		.uleb128 0xd
 2816 0045 00       		.byte	0
 2817 0046 03       		.uleb128 0x3
 2818 0047 0E       		.uleb128 0xe
 2819 0048 3A       		.uleb128 0x3a
 2820 0049 0B       		.uleb128 0xb
 2821 004a 3B       		.uleb128 0x3b
 2822 004b 0B       		.uleb128 0xb
 2823 004c 49       		.uleb128 0x49
 2824 004d 13       		.uleb128 0x13
 2825 004e 38       		.uleb128 0x38
 2826 004f 0B       		.uleb128 0xb
 2827 0050 00       		.byte	0
 2828 0051 00       		.byte	0
 2829 0052 07       		.uleb128 0x7
 2830 0053 0D       		.uleb128 0xd
 2831 0054 00       		.byte	0
 2832 0055 03       		.uleb128 0x3
 2833 0056 08       		.uleb128 0x8
 2834 0057 3A       		.uleb128 0x3a
 2835 0058 0B       		.uleb128 0xb
 2836 0059 3B       		.uleb128 0x3b
 2837 005a 0B       		.uleb128 0xb
 2838 005b 49       		.uleb128 0x49
 2839 005c 13       		.uleb128 0x13
 2840 005d 38       		.uleb128 0x38
 2841 005e 0B       		.uleb128 0xb
 2842 005f 00       		.byte	0
 2843 0060 00       		.byte	0
 2844 0061 08       		.uleb128 0x8
 2845 0062 13       		.uleb128 0x13
 2846 0063 01       		.byte	0x1
 2847 0064 0B       		.uleb128 0xb
 2848 0065 0B       		.uleb128 0xb
 2849 0066 3A       		.uleb128 0x3a
 2850 0067 0B       		.uleb128 0xb
ARM GAS  /tmp/ccaPyqmh.s 			page 51


 2851 0068 3B       		.uleb128 0x3b
 2852 0069 0B       		.uleb128 0xb
 2853 006a 01       		.uleb128 0x1
 2854 006b 13       		.uleb128 0x13
 2855 006c 00       		.byte	0
 2856 006d 00       		.byte	0
 2857 006e 09       		.uleb128 0x9
 2858 006f 0F       		.uleb128 0xf
 2859 0070 00       		.byte	0
 2860 0071 0B       		.uleb128 0xb
 2861 0072 0B       		.uleb128 0xb
 2862 0073 49       		.uleb128 0x49
 2863 0074 13       		.uleb128 0x13
 2864 0075 00       		.byte	0
 2865 0076 00       		.byte	0
 2866 0077 0A       		.uleb128 0xa
 2867 0078 0F       		.uleb128 0xf
 2868 0079 00       		.byte	0
 2869 007a 0B       		.uleb128 0xb
 2870 007b 0B       		.uleb128 0xb
 2871 007c 00       		.byte	0
 2872 007d 00       		.byte	0
 2873 007e 0B       		.uleb128 0xb
 2874 007f 0D       		.uleb128 0xd
 2875 0080 00       		.byte	0
 2876 0081 03       		.uleb128 0x3
 2877 0082 08       		.uleb128 0x8
 2878 0083 3A       		.uleb128 0x3a
 2879 0084 0B       		.uleb128 0xb
 2880 0085 3B       		.uleb128 0x3b
 2881 0086 05       		.uleb128 0x5
 2882 0087 49       		.uleb128 0x49
 2883 0088 13       		.uleb128 0x13
 2884 0089 38       		.uleb128 0x38
 2885 008a 0B       		.uleb128 0xb
 2886 008b 00       		.byte	0
 2887 008c 00       		.byte	0
 2888 008d 0C       		.uleb128 0xc
 2889 008e 13       		.uleb128 0x13
 2890 008f 01       		.byte	0x1
 2891 0090 03       		.uleb128 0x3
 2892 0091 0E       		.uleb128 0xe
 2893 0092 0B       		.uleb128 0xb
 2894 0093 0B       		.uleb128 0xb
 2895 0094 3A       		.uleb128 0x3a
 2896 0095 0B       		.uleb128 0xb
 2897 0096 3B       		.uleb128 0x3b
 2898 0097 05       		.uleb128 0x5
 2899 0098 01       		.uleb128 0x1
 2900 0099 13       		.uleb128 0x13
 2901 009a 00       		.byte	0
 2902 009b 00       		.byte	0
 2903 009c 0D       		.uleb128 0xd
 2904 009d 35       		.uleb128 0x35
 2905 009e 00       		.byte	0
 2906 009f 49       		.uleb128 0x49
 2907 00a0 13       		.uleb128 0x13
ARM GAS  /tmp/ccaPyqmh.s 			page 52


 2908 00a1 00       		.byte	0
 2909 00a2 00       		.byte	0
 2910 00a3 0E       		.uleb128 0xe
 2911 00a4 17       		.uleb128 0x17
 2912 00a5 01       		.byte	0x1
 2913 00a6 0B       		.uleb128 0xb
 2914 00a7 0B       		.uleb128 0xb
 2915 00a8 3A       		.uleb128 0x3a
 2916 00a9 0B       		.uleb128 0xb
 2917 00aa 3B       		.uleb128 0x3b
 2918 00ab 0B       		.uleb128 0xb
 2919 00ac 01       		.uleb128 0x1
 2920 00ad 13       		.uleb128 0x13
 2921 00ae 00       		.byte	0
 2922 00af 00       		.byte	0
 2923 00b0 0F       		.uleb128 0xf
 2924 00b1 0D       		.uleb128 0xd
 2925 00b2 00       		.byte	0
 2926 00b3 03       		.uleb128 0x3
 2927 00b4 0E       		.uleb128 0xe
 2928 00b5 3A       		.uleb128 0x3a
 2929 00b6 0B       		.uleb128 0xb
 2930 00b7 3B       		.uleb128 0x3b
 2931 00b8 0B       		.uleb128 0xb
 2932 00b9 49       		.uleb128 0x49
 2933 00ba 13       		.uleb128 0x13
 2934 00bb 00       		.byte	0
 2935 00bc 00       		.byte	0
 2936 00bd 10       		.uleb128 0x10
 2937 00be 26       		.uleb128 0x26
 2938 00bf 00       		.byte	0
 2939 00c0 49       		.uleb128 0x49
 2940 00c1 13       		.uleb128 0x13
 2941 00c2 00       		.byte	0
 2942 00c3 00       		.byte	0
 2943 00c4 11       		.uleb128 0x11
 2944 00c5 15       		.uleb128 0x15
 2945 00c6 01       		.byte	0x1
 2946 00c7 27       		.uleb128 0x27
 2947 00c8 19       		.uleb128 0x19
 2948 00c9 01       		.uleb128 0x1
 2949 00ca 13       		.uleb128 0x13
 2950 00cb 00       		.byte	0
 2951 00cc 00       		.byte	0
 2952 00cd 12       		.uleb128 0x12
 2953 00ce 05       		.uleb128 0x5
 2954 00cf 00       		.byte	0
 2955 00d0 49       		.uleb128 0x49
 2956 00d1 13       		.uleb128 0x13
 2957 00d2 00       		.byte	0
 2958 00d3 00       		.byte	0
 2959 00d4 13       		.uleb128 0x13
 2960 00d5 15       		.uleb128 0x15
 2961 00d6 01       		.byte	0x1
 2962 00d7 27       		.uleb128 0x27
 2963 00d8 19       		.uleb128 0x19
 2964 00d9 49       		.uleb128 0x49
ARM GAS  /tmp/ccaPyqmh.s 			page 53


 2965 00da 13       		.uleb128 0x13
 2966 00db 01       		.uleb128 0x1
 2967 00dc 13       		.uleb128 0x13
 2968 00dd 00       		.byte	0
 2969 00de 00       		.byte	0
 2970 00df 14       		.uleb128 0x14
 2971 00e0 16       		.uleb128 0x16
 2972 00e1 00       		.byte	0
 2973 00e2 03       		.uleb128 0x3
 2974 00e3 0E       		.uleb128 0xe
 2975 00e4 3A       		.uleb128 0x3a
 2976 00e5 0B       		.uleb128 0xb
 2977 00e6 3B       		.uleb128 0x3b
 2978 00e7 05       		.uleb128 0x5
 2979 00e8 49       		.uleb128 0x49
 2980 00e9 13       		.uleb128 0x13
 2981 00ea 00       		.byte	0
 2982 00eb 00       		.byte	0
 2983 00ec 15       		.uleb128 0x15
 2984 00ed 0D       		.uleb128 0xd
 2985 00ee 00       		.byte	0
 2986 00ef 03       		.uleb128 0x3
 2987 00f0 0E       		.uleb128 0xe
 2988 00f1 3A       		.uleb128 0x3a
 2989 00f2 0B       		.uleb128 0xb
 2990 00f3 3B       		.uleb128 0x3b
 2991 00f4 05       		.uleb128 0x5
 2992 00f5 49       		.uleb128 0x49
 2993 00f6 13       		.uleb128 0x13
 2994 00f7 38       		.uleb128 0x38
 2995 00f8 0B       		.uleb128 0xb
 2996 00f9 00       		.byte	0
 2997 00fa 00       		.byte	0
 2998 00fb 16       		.uleb128 0x16
 2999 00fc 13       		.uleb128 0x13
 3000 00fd 01       		.byte	0x1
 3001 00fe 0B       		.uleb128 0xb
 3002 00ff 0B       		.uleb128 0xb
 3003 0100 3A       		.uleb128 0x3a
 3004 0101 0B       		.uleb128 0xb
 3005 0102 3B       		.uleb128 0x3b
 3006 0103 05       		.uleb128 0x5
 3007 0104 01       		.uleb128 0x1
 3008 0105 13       		.uleb128 0x13
 3009 0106 00       		.byte	0
 3010 0107 00       		.byte	0
 3011 0108 17       		.uleb128 0x17
 3012 0109 13       		.uleb128 0x13
 3013 010a 01       		.byte	0x1
 3014 010b 0B       		.uleb128 0xb
 3015 010c 05       		.uleb128 0x5
 3016 010d 3A       		.uleb128 0x3a
 3017 010e 0B       		.uleb128 0xb
 3018 010f 3B       		.uleb128 0x3b
 3019 0110 05       		.uleb128 0x5
 3020 0111 01       		.uleb128 0x1
 3021 0112 13       		.uleb128 0x13
ARM GAS  /tmp/ccaPyqmh.s 			page 54


 3022 0113 00       		.byte	0
 3023 0114 00       		.byte	0
 3024 0115 18       		.uleb128 0x18
 3025 0116 0D       		.uleb128 0xd
 3026 0117 00       		.byte	0
 3027 0118 03       		.uleb128 0x3
 3028 0119 0E       		.uleb128 0xe
 3029 011a 3A       		.uleb128 0x3a
 3030 011b 0B       		.uleb128 0xb
 3031 011c 3B       		.uleb128 0x3b
 3032 011d 05       		.uleb128 0x5
 3033 011e 49       		.uleb128 0x49
 3034 011f 13       		.uleb128 0x13
 3035 0120 38       		.uleb128 0x38
 3036 0121 05       		.uleb128 0x5
 3037 0122 00       		.byte	0
 3038 0123 00       		.byte	0
 3039 0124 19       		.uleb128 0x19
 3040 0125 01       		.uleb128 0x1
 3041 0126 01       		.byte	0x1
 3042 0127 49       		.uleb128 0x49
 3043 0128 13       		.uleb128 0x13
 3044 0129 01       		.uleb128 0x1
 3045 012a 13       		.uleb128 0x13
 3046 012b 00       		.byte	0
 3047 012c 00       		.byte	0
 3048 012d 1A       		.uleb128 0x1a
 3049 012e 21       		.uleb128 0x21
 3050 012f 00       		.byte	0
 3051 0130 49       		.uleb128 0x49
 3052 0131 13       		.uleb128 0x13
 3053 0132 2F       		.uleb128 0x2f
 3054 0133 0B       		.uleb128 0xb
 3055 0134 00       		.byte	0
 3056 0135 00       		.byte	0
 3057 0136 1B       		.uleb128 0x1b
 3058 0137 04       		.uleb128 0x4
 3059 0138 01       		.byte	0x1
 3060 0139 0B       		.uleb128 0xb
 3061 013a 0B       		.uleb128 0xb
 3062 013b 3A       		.uleb128 0x3a
 3063 013c 0B       		.uleb128 0xb
 3064 013d 3B       		.uleb128 0x3b
 3065 013e 0B       		.uleb128 0xb
 3066 013f 01       		.uleb128 0x1
 3067 0140 13       		.uleb128 0x13
 3068 0141 00       		.byte	0
 3069 0142 00       		.byte	0
 3070 0143 1C       		.uleb128 0x1c
 3071 0144 28       		.uleb128 0x28
 3072 0145 00       		.byte	0
 3073 0146 03       		.uleb128 0x3
 3074 0147 0E       		.uleb128 0xe
 3075 0148 1C       		.uleb128 0x1c
 3076 0149 0D       		.uleb128 0xd
 3077 014a 00       		.byte	0
 3078 014b 00       		.byte	0
ARM GAS  /tmp/ccaPyqmh.s 			page 55


 3079 014c 1D       		.uleb128 0x1d
 3080 014d 2E       		.uleb128 0x2e
 3081 014e 01       		.byte	0x1
 3082 014f 03       		.uleb128 0x3
 3083 0150 0E       		.uleb128 0xe
 3084 0151 3A       		.uleb128 0x3a
 3085 0152 0B       		.uleb128 0xb
 3086 0153 3B       		.uleb128 0x3b
 3087 0154 0B       		.uleb128 0xb
 3088 0155 27       		.uleb128 0x27
 3089 0156 19       		.uleb128 0x19
 3090 0157 49       		.uleb128 0x49
 3091 0158 13       		.uleb128 0x13
 3092 0159 11       		.uleb128 0x11
 3093 015a 01       		.uleb128 0x1
 3094 015b 12       		.uleb128 0x12
 3095 015c 06       		.uleb128 0x6
 3096 015d 40       		.uleb128 0x40
 3097 015e 18       		.uleb128 0x18
 3098 015f 9742     		.uleb128 0x2117
 3099 0161 19       		.uleb128 0x19
 3100 0162 01       		.uleb128 0x1
 3101 0163 13       		.uleb128 0x13
 3102 0164 00       		.byte	0
 3103 0165 00       		.byte	0
 3104 0166 1E       		.uleb128 0x1e
 3105 0167 05       		.uleb128 0x5
 3106 0168 00       		.byte	0
 3107 0169 03       		.uleb128 0x3
 3108 016a 08       		.uleb128 0x8
 3109 016b 3A       		.uleb128 0x3a
 3110 016c 0B       		.uleb128 0xb
 3111 016d 3B       		.uleb128 0x3b
 3112 016e 0B       		.uleb128 0xb
 3113 016f 49       		.uleb128 0x49
 3114 0170 13       		.uleb128 0x13
 3115 0171 02       		.uleb128 0x2
 3116 0172 17       		.uleb128 0x17
 3117 0173 00       		.byte	0
 3118 0174 00       		.byte	0
 3119 0175 1F       		.uleb128 0x1f
 3120 0176 34       		.uleb128 0x34
 3121 0177 00       		.byte	0
 3122 0178 03       		.uleb128 0x3
 3123 0179 0E       		.uleb128 0xe
 3124 017a 3A       		.uleb128 0x3a
 3125 017b 0B       		.uleb128 0xb
 3126 017c 3B       		.uleb128 0x3b
 3127 017d 0B       		.uleb128 0xb
 3128 017e 49       		.uleb128 0x49
 3129 017f 13       		.uleb128 0x13
 3130 0180 02       		.uleb128 0x2
 3131 0181 18       		.uleb128 0x18
 3132 0182 00       		.byte	0
 3133 0183 00       		.byte	0
 3134 0184 20       		.uleb128 0x20
 3135 0185 0B       		.uleb128 0xb
ARM GAS  /tmp/ccaPyqmh.s 			page 56


 3136 0186 01       		.byte	0x1
 3137 0187 11       		.uleb128 0x11
 3138 0188 01       		.uleb128 0x1
 3139 0189 12       		.uleb128 0x12
 3140 018a 06       		.uleb128 0x6
 3141 018b 01       		.uleb128 0x1
 3142 018c 13       		.uleb128 0x13
 3143 018d 00       		.byte	0
 3144 018e 00       		.byte	0
 3145 018f 21       		.uleb128 0x21
 3146 0190 34       		.uleb128 0x34
 3147 0191 00       		.byte	0
 3148 0192 03       		.uleb128 0x3
 3149 0193 08       		.uleb128 0x8
 3150 0194 3A       		.uleb128 0x3a
 3151 0195 0B       		.uleb128 0xb
 3152 0196 3B       		.uleb128 0x3b
 3153 0197 0B       		.uleb128 0xb
 3154 0198 49       		.uleb128 0x49
 3155 0199 13       		.uleb128 0x13
 3156 019a 02       		.uleb128 0x2
 3157 019b 18       		.uleb128 0x18
 3158 019c 00       		.byte	0
 3159 019d 00       		.byte	0
 3160 019e 22       		.uleb128 0x22
 3161 019f 0B       		.uleb128 0xb
 3162 01a0 01       		.byte	0x1
 3163 01a1 55       		.uleb128 0x55
 3164 01a2 17       		.uleb128 0x17
 3165 01a3 00       		.byte	0
 3166 01a4 00       		.byte	0
 3167 01a5 23       		.uleb128 0x23
 3168 01a6 05       		.uleb128 0x5
 3169 01a7 00       		.byte	0
 3170 01a8 03       		.uleb128 0x3
 3171 01a9 0E       		.uleb128 0xe
 3172 01aa 3A       		.uleb128 0x3a
 3173 01ab 0B       		.uleb128 0xb
 3174 01ac 3B       		.uleb128 0x3b
 3175 01ad 0B       		.uleb128 0xb
 3176 01ae 49       		.uleb128 0x49
 3177 01af 13       		.uleb128 0x13
 3178 01b0 02       		.uleb128 0x2
 3179 01b1 17       		.uleb128 0x17
 3180 01b2 00       		.byte	0
 3181 01b3 00       		.byte	0
 3182 01b4 24       		.uleb128 0x24
 3183 01b5 898201   		.uleb128 0x4109
 3184 01b8 01       		.byte	0x1
 3185 01b9 11       		.uleb128 0x11
 3186 01ba 01       		.uleb128 0x1
 3187 01bb 9542     		.uleb128 0x2115
 3188 01bd 19       		.uleb128 0x19
 3189 01be 31       		.uleb128 0x31
 3190 01bf 13       		.uleb128 0x13
 3191 01c0 00       		.byte	0
 3192 01c1 00       		.byte	0
ARM GAS  /tmp/ccaPyqmh.s 			page 57


 3193 01c2 25       		.uleb128 0x25
 3194 01c3 8A8201   		.uleb128 0x410a
 3195 01c6 00       		.byte	0
 3196 01c7 02       		.uleb128 0x2
 3197 01c8 18       		.uleb128 0x18
 3198 01c9 9142     		.uleb128 0x2111
 3199 01cb 18       		.uleb128 0x18
 3200 01cc 00       		.byte	0
 3201 01cd 00       		.byte	0
 3202 01ce 26       		.uleb128 0x26
 3203 01cf 2E       		.uleb128 0x2e
 3204 01d0 01       		.byte	0x1
 3205 01d1 3F       		.uleb128 0x3f
 3206 01d2 19       		.uleb128 0x19
 3207 01d3 03       		.uleb128 0x3
 3208 01d4 0E       		.uleb128 0xe
 3209 01d5 3A       		.uleb128 0x3a
 3210 01d6 0B       		.uleb128 0xb
 3211 01d7 3B       		.uleb128 0x3b
 3212 01d8 0B       		.uleb128 0xb
 3213 01d9 27       		.uleb128 0x27
 3214 01da 19       		.uleb128 0x19
 3215 01db 11       		.uleb128 0x11
 3216 01dc 01       		.uleb128 0x1
 3217 01dd 12       		.uleb128 0x12
 3218 01de 06       		.uleb128 0x6
 3219 01df 40       		.uleb128 0x40
 3220 01e0 18       		.uleb128 0x18
 3221 01e1 9742     		.uleb128 0x2117
 3222 01e3 19       		.uleb128 0x19
 3223 01e4 01       		.uleb128 0x1
 3224 01e5 13       		.uleb128 0x13
 3225 01e6 00       		.byte	0
 3226 01e7 00       		.byte	0
 3227 01e8 27       		.uleb128 0x27
 3228 01e9 898201   		.uleb128 0x4109
 3229 01ec 00       		.byte	0
 3230 01ed 11       		.uleb128 0x11
 3231 01ee 01       		.uleb128 0x1
 3232 01ef 9542     		.uleb128 0x2115
 3233 01f1 19       		.uleb128 0x19
 3234 01f2 31       		.uleb128 0x31
 3235 01f3 13       		.uleb128 0x13
 3236 01f4 00       		.byte	0
 3237 01f5 00       		.byte	0
 3238 01f6 28       		.uleb128 0x28
 3239 01f7 898201   		.uleb128 0x4109
 3240 01fa 01       		.byte	0x1
 3241 01fb 11       		.uleb128 0x11
 3242 01fc 01       		.uleb128 0x1
 3243 01fd 31       		.uleb128 0x31
 3244 01fe 13       		.uleb128 0x13
 3245 01ff 01       		.uleb128 0x1
 3246 0200 13       		.uleb128 0x13
 3247 0201 00       		.byte	0
 3248 0202 00       		.byte	0
 3249 0203 29       		.uleb128 0x29
ARM GAS  /tmp/ccaPyqmh.s 			page 58


 3250 0204 0B       		.uleb128 0xb
 3251 0205 01       		.byte	0x1
 3252 0206 55       		.uleb128 0x55
 3253 0207 17       		.uleb128 0x17
 3254 0208 01       		.uleb128 0x1
 3255 0209 13       		.uleb128 0x13
 3256 020a 00       		.byte	0
 3257 020b 00       		.byte	0
 3258 020c 2A       		.uleb128 0x2a
 3259 020d 898201   		.uleb128 0x4109
 3260 0210 01       		.byte	0x1
 3261 0211 11       		.uleb128 0x11
 3262 0212 01       		.uleb128 0x1
 3263 0213 31       		.uleb128 0x31
 3264 0214 13       		.uleb128 0x13
 3265 0215 00       		.byte	0
 3266 0216 00       		.byte	0
 3267 0217 2B       		.uleb128 0x2b
 3268 0218 898201   		.uleb128 0x4109
 3269 021b 00       		.byte	0
 3270 021c 11       		.uleb128 0x11
 3271 021d 01       		.uleb128 0x1
 3272 021e 31       		.uleb128 0x31
 3273 021f 13       		.uleb128 0x13
 3274 0220 00       		.byte	0
 3275 0221 00       		.byte	0
 3276 0222 2C       		.uleb128 0x2c
 3277 0223 2E       		.uleb128 0x2e
 3278 0224 01       		.byte	0x1
 3279 0225 3F       		.uleb128 0x3f
 3280 0226 19       		.uleb128 0x19
 3281 0227 03       		.uleb128 0x3
 3282 0228 0E       		.uleb128 0xe
 3283 0229 3A       		.uleb128 0x3a
 3284 022a 0B       		.uleb128 0xb
 3285 022b 3B       		.uleb128 0x3b
 3286 022c 0B       		.uleb128 0xb
 3287 022d 27       		.uleb128 0x27
 3288 022e 19       		.uleb128 0x19
 3289 022f 49       		.uleb128 0x49
 3290 0230 13       		.uleb128 0x13
 3291 0231 11       		.uleb128 0x11
 3292 0232 01       		.uleb128 0x1
 3293 0233 12       		.uleb128 0x12
 3294 0234 06       		.uleb128 0x6
 3295 0235 40       		.uleb128 0x40
 3296 0236 18       		.uleb128 0x18
 3297 0237 9742     		.uleb128 0x2117
 3298 0239 19       		.uleb128 0x19
 3299 023a 01       		.uleb128 0x1
 3300 023b 13       		.uleb128 0x13
 3301 023c 00       		.byte	0
 3302 023d 00       		.byte	0
 3303 023e 2D       		.uleb128 0x2d
 3304 023f 34       		.uleb128 0x34
 3305 0240 00       		.byte	0
 3306 0241 03       		.uleb128 0x3
ARM GAS  /tmp/ccaPyqmh.s 			page 59


 3307 0242 08       		.uleb128 0x8
 3308 0243 3A       		.uleb128 0x3a
 3309 0244 0B       		.uleb128 0xb
 3310 0245 3B       		.uleb128 0x3b
 3311 0246 0B       		.uleb128 0xb
 3312 0247 49       		.uleb128 0x49
 3313 0248 13       		.uleb128 0x13
 3314 0249 02       		.uleb128 0x2
 3315 024a 17       		.uleb128 0x17
 3316 024b 00       		.byte	0
 3317 024c 00       		.byte	0
 3318 024d 2E       		.uleb128 0x2e
 3319 024e 34       		.uleb128 0x34
 3320 024f 00       		.byte	0
 3321 0250 03       		.uleb128 0x3
 3322 0251 0E       		.uleb128 0xe
 3323 0252 3A       		.uleb128 0x3a
 3324 0253 0B       		.uleb128 0xb
 3325 0254 3B       		.uleb128 0x3b
 3326 0255 05       		.uleb128 0x5
 3327 0256 49       		.uleb128 0x49
 3328 0257 13       		.uleb128 0x13
 3329 0258 3F       		.uleb128 0x3f
 3330 0259 19       		.uleb128 0x19
 3331 025a 3C       		.uleb128 0x3c
 3332 025b 19       		.uleb128 0x19
 3333 025c 00       		.byte	0
 3334 025d 00       		.byte	0
 3335 025e 2F       		.uleb128 0x2f
 3336 025f 2E       		.uleb128 0x2e
 3337 0260 01       		.byte	0x1
 3338 0261 3F       		.uleb128 0x3f
 3339 0262 19       		.uleb128 0x19
 3340 0263 03       		.uleb128 0x3
 3341 0264 0E       		.uleb128 0xe
 3342 0265 3A       		.uleb128 0x3a
 3343 0266 0B       		.uleb128 0xb
 3344 0267 3B       		.uleb128 0x3b
 3345 0268 05       		.uleb128 0x5
 3346 0269 27       		.uleb128 0x27
 3347 026a 19       		.uleb128 0x19
 3348 026b 49       		.uleb128 0x49
 3349 026c 13       		.uleb128 0x13
 3350 026d 3C       		.uleb128 0x3c
 3351 026e 19       		.uleb128 0x19
 3352 026f 01       		.uleb128 0x1
 3353 0270 13       		.uleb128 0x13
 3354 0271 00       		.byte	0
 3355 0272 00       		.byte	0
 3356 0273 30       		.uleb128 0x30
 3357 0274 2E       		.uleb128 0x2e
 3358 0275 00       		.byte	0
 3359 0276 3F       		.uleb128 0x3f
 3360 0277 19       		.uleb128 0x19
 3361 0278 03       		.uleb128 0x3
 3362 0279 0E       		.uleb128 0xe
 3363 027a 3A       		.uleb128 0x3a
ARM GAS  /tmp/ccaPyqmh.s 			page 60


 3364 027b 0B       		.uleb128 0xb
 3365 027c 3B       		.uleb128 0x3b
 3366 027d 0B       		.uleb128 0xb
 3367 027e 27       		.uleb128 0x27
 3368 027f 19       		.uleb128 0x19
 3369 0280 3C       		.uleb128 0x3c
 3370 0281 19       		.uleb128 0x19
 3371 0282 00       		.byte	0
 3372 0283 00       		.byte	0
 3373 0284 31       		.uleb128 0x31
 3374 0285 2E       		.uleb128 0x2e
 3375 0286 01       		.byte	0x1
 3376 0287 3F       		.uleb128 0x3f
 3377 0288 19       		.uleb128 0x19
 3378 0289 03       		.uleb128 0x3
 3379 028a 0E       		.uleb128 0xe
 3380 028b 3A       		.uleb128 0x3a
 3381 028c 0B       		.uleb128 0xb
 3382 028d 3B       		.uleb128 0x3b
 3383 028e 05       		.uleb128 0x5
 3384 028f 27       		.uleb128 0x27
 3385 0290 19       		.uleb128 0x19
 3386 0291 3C       		.uleb128 0x3c
 3387 0292 19       		.uleb128 0x19
 3388 0293 01       		.uleb128 0x1
 3389 0294 13       		.uleb128 0x13
 3390 0295 00       		.byte	0
 3391 0296 00       		.byte	0
 3392 0297 32       		.uleb128 0x32
 3393 0298 2E       		.uleb128 0x2e
 3394 0299 01       		.byte	0x1
 3395 029a 3F       		.uleb128 0x3f
 3396 029b 19       		.uleb128 0x19
 3397 029c 03       		.uleb128 0x3
 3398 029d 0E       		.uleb128 0xe
 3399 029e 3A       		.uleb128 0x3a
 3400 029f 0B       		.uleb128 0xb
 3401 02a0 3B       		.uleb128 0x3b
 3402 02a1 0B       		.uleb128 0xb
 3403 02a2 27       		.uleb128 0x27
 3404 02a3 19       		.uleb128 0x19
 3405 02a4 3C       		.uleb128 0x3c
 3406 02a5 19       		.uleb128 0x19
 3407 02a6 01       		.uleb128 0x1
 3408 02a7 13       		.uleb128 0x13
 3409 02a8 00       		.byte	0
 3410 02a9 00       		.byte	0
 3411 02aa 33       		.uleb128 0x33
 3412 02ab 2E       		.uleb128 0x2e
 3413 02ac 01       		.byte	0x1
 3414 02ad 3F       		.uleb128 0x3f
 3415 02ae 19       		.uleb128 0x19
 3416 02af 03       		.uleb128 0x3
 3417 02b0 0E       		.uleb128 0xe
 3418 02b1 3A       		.uleb128 0x3a
 3419 02b2 0B       		.uleb128 0xb
 3420 02b3 3B       		.uleb128 0x3b
ARM GAS  /tmp/ccaPyqmh.s 			page 61


 3421 02b4 05       		.uleb128 0x5
 3422 02b5 27       		.uleb128 0x27
 3423 02b6 19       		.uleb128 0x19
 3424 02b7 49       		.uleb128 0x49
 3425 02b8 13       		.uleb128 0x13
 3426 02b9 3C       		.uleb128 0x3c
 3427 02ba 19       		.uleb128 0x19
 3428 02bb 00       		.byte	0
 3429 02bc 00       		.byte	0
 3430 02bd 00       		.byte	0
 3431              		.section	.debug_loc,"",%progbits
 3432              	.Ldebug_loc0:
 3433              	.LLST0:
 3434 0000 00000000 		.4byte	.LVL0
 3435 0004 02000000 		.4byte	.LVL1
 3436 0008 0100     		.2byte	0x1
 3437 000a 50       		.byte	0x50
 3438 000b 02000000 		.4byte	.LVL1
 3439 000f 0A000000 		.4byte	.LFE38
 3440 0013 0400     		.2byte	0x4
 3441 0015 F3       		.byte	0xf3
 3442 0016 01       		.uleb128 0x1
 3443 0017 50       		.byte	0x50
 3444 0018 9F       		.byte	0x9f
 3445 0019 00000000 		.4byte	0
 3446 001d 00000000 		.4byte	0
 3447              	.LLST1:
 3448 0021 00000000 		.4byte	.LVL2
 3449 0025 02000000 		.4byte	.LVL3
 3450 0029 0100     		.2byte	0x1
 3451 002b 50       		.byte	0x50
 3452 002c 02000000 		.4byte	.LVL3
 3453 0030 0A000000 		.4byte	.LFE39
 3454 0034 0400     		.2byte	0x4
 3455 0036 F3       		.byte	0xf3
 3456 0037 01       		.uleb128 0x1
 3457 0038 50       		.byte	0x50
 3458 0039 9F       		.byte	0x9f
 3459 003a 00000000 		.4byte	0
 3460 003e 00000000 		.4byte	0
 3461              	.LLST2:
 3462 0042 00000000 		.4byte	.LVL4
 3463 0046 0C000000 		.4byte	.LVL5
 3464 004a 0100     		.2byte	0x1
 3465 004c 50       		.byte	0x50
 3466 004d 0C000000 		.4byte	.LVL5
 3467 0051 16000000 		.4byte	.LFE44
 3468 0055 0100     		.2byte	0x1
 3469 0057 52       		.byte	0x52
 3470 0058 00000000 		.4byte	0
 3471 005c 00000000 		.4byte	0
 3472              	.LLST3:
 3473 0060 00000000 		.4byte	.LVL6
 3474 0064 02000000 		.4byte	.LVL7
 3475 0068 0100     		.2byte	0x1
 3476 006a 50       		.byte	0x50
 3477 006b 02000000 		.4byte	.LVL7
ARM GAS  /tmp/ccaPyqmh.s 			page 62


 3478 006f 05000000 		.4byte	.LVL8-1
 3479 0073 0300     		.2byte	0x3
 3480 0075 70       		.byte	0x70
 3481 0076 70       		.sleb128 -16
 3482 0077 9F       		.byte	0x9f
 3483 0078 05000000 		.4byte	.LVL8-1
 3484 007c 06000000 		.4byte	.LFE43
 3485 0080 0400     		.2byte	0x4
 3486 0082 F3       		.byte	0xf3
 3487 0083 01       		.uleb128 0x1
 3488 0084 50       		.byte	0x50
 3489 0085 9F       		.byte	0x9f
 3490 0086 00000000 		.4byte	0
 3491 008a 00000000 		.4byte	0
 3492              	.LLST4:
 3493 008e 00000000 		.4byte	.LVL6
 3494 0092 05000000 		.4byte	.LVL8-1
 3495 0096 0100     		.2byte	0x1
 3496 0098 51       		.byte	0x51
 3497 0099 05000000 		.4byte	.LVL8-1
 3498 009d 06000000 		.4byte	.LFE43
 3499 00a1 0400     		.2byte	0x4
 3500 00a3 F3       		.byte	0xf3
 3501 00a4 01       		.uleb128 0x1
 3502 00a5 51       		.byte	0x51
 3503 00a6 9F       		.byte	0x9f
 3504 00a7 00000000 		.4byte	0
 3505 00ab 00000000 		.4byte	0
 3506              	.LLST5:
 3507 00af 00000000 		.4byte	.LVL6
 3508 00b3 05000000 		.4byte	.LVL8-1
 3509 00b7 0100     		.2byte	0x1
 3510 00b9 52       		.byte	0x52
 3511 00ba 05000000 		.4byte	.LVL8-1
 3512 00be 06000000 		.4byte	.LFE43
 3513 00c2 0400     		.2byte	0x4
 3514 00c4 F3       		.byte	0xf3
 3515 00c5 01       		.uleb128 0x1
 3516 00c6 52       		.byte	0x52
 3517 00c7 9F       		.byte	0x9f
 3518 00c8 00000000 		.4byte	0
 3519 00cc 00000000 		.4byte	0
 3520              	.LLST6:
 3521 00d0 00000000 		.4byte	.LVL6
 3522 00d4 05000000 		.4byte	.LVL8-1
 3523 00d8 0100     		.2byte	0x1
 3524 00da 53       		.byte	0x53
 3525 00db 05000000 		.4byte	.LVL8-1
 3526 00df 06000000 		.4byte	.LFE43
 3527 00e3 0400     		.2byte	0x4
 3528 00e5 F3       		.byte	0xf3
 3529 00e6 01       		.uleb128 0x1
 3530 00e7 53       		.byte	0x53
 3531 00e8 9F       		.byte	0x9f
 3532 00e9 00000000 		.4byte	0
 3533 00ed 00000000 		.4byte	0
 3534              	.LLST7:
ARM GAS  /tmp/ccaPyqmh.s 			page 63


 3535 00f1 00000000 		.4byte	.LVL9
 3536 00f5 02000000 		.4byte	.LVL10
 3537 00f9 0100     		.2byte	0x1
 3538 00fb 50       		.byte	0x50
 3539 00fc 02000000 		.4byte	.LVL10
 3540 0100 09000000 		.4byte	.LVL11-1
 3541 0104 0300     		.2byte	0x3
 3542 0106 70       		.byte	0x70
 3543 0107 70       		.sleb128 -16
 3544 0108 9F       		.byte	0x9f
 3545 0109 09000000 		.4byte	.LVL11-1
 3546 010d 0A000000 		.4byte	.LFE37
 3547 0111 0400     		.2byte	0x4
 3548 0113 F3       		.byte	0xf3
 3549 0114 01       		.uleb128 0x1
 3550 0115 50       		.byte	0x50
 3551 0116 9F       		.byte	0x9f
 3552 0117 00000000 		.4byte	0
 3553 011b 00000000 		.4byte	0
 3554              	.LLST8:
 3555 011f 00000000 		.4byte	.LVL9
 3556 0123 09000000 		.4byte	.LVL11-1
 3557 0127 0100     		.2byte	0x1
 3558 0129 51       		.byte	0x51
 3559 012a 09000000 		.4byte	.LVL11-1
 3560 012e 0A000000 		.4byte	.LFE37
 3561 0132 0400     		.2byte	0x4
 3562 0134 F3       		.byte	0xf3
 3563 0135 01       		.uleb128 0x1
 3564 0136 51       		.byte	0x51
 3565 0137 9F       		.byte	0x9f
 3566 0138 00000000 		.4byte	0
 3567 013c 00000000 		.4byte	0
 3568              	.LLST9:
 3569 0140 00000000 		.4byte	.LVL9
 3570 0144 09000000 		.4byte	.LVL11-1
 3571 0148 0100     		.2byte	0x1
 3572 014a 52       		.byte	0x52
 3573 014b 09000000 		.4byte	.LVL11-1
 3574 014f 0A000000 		.4byte	.LFE37
 3575 0153 0400     		.2byte	0x4
 3576 0155 F3       		.byte	0xf3
 3577 0156 01       		.uleb128 0x1
 3578 0157 52       		.byte	0x52
 3579 0158 9F       		.byte	0x9f
 3580 0159 00000000 		.4byte	0
 3581 015d 00000000 		.4byte	0
 3582              	.LLST10:
 3583 0161 00000000 		.4byte	.LVL12
 3584 0165 02000000 		.4byte	.LVL13
 3585 0169 0100     		.2byte	0x1
 3586 016b 50       		.byte	0x50
 3587 016c 02000000 		.4byte	.LVL13
 3588 0170 05000000 		.4byte	.LVL14-1
 3589 0174 0300     		.2byte	0x3
 3590 0176 70       		.byte	0x70
 3591 0177 50       		.sleb128 -48
ARM GAS  /tmp/ccaPyqmh.s 			page 64


 3592 0178 9F       		.byte	0x9f
 3593 0179 05000000 		.4byte	.LVL14-1
 3594 017d 06000000 		.4byte	.LFE42
 3595 0181 0400     		.2byte	0x4
 3596 0183 F3       		.byte	0xf3
 3597 0184 01       		.uleb128 0x1
 3598 0185 50       		.byte	0x50
 3599 0186 9F       		.byte	0x9f
 3600 0187 00000000 		.4byte	0
 3601 018b 00000000 		.4byte	0
 3602              	.LLST11:
 3603 018f 00000000 		.4byte	.LVL12
 3604 0193 05000000 		.4byte	.LVL14-1
 3605 0197 0100     		.2byte	0x1
 3606 0199 51       		.byte	0x51
 3607 019a 05000000 		.4byte	.LVL14-1
 3608 019e 06000000 		.4byte	.LFE42
 3609 01a2 0400     		.2byte	0x4
 3610 01a4 F3       		.byte	0xf3
 3611 01a5 01       		.uleb128 0x1
 3612 01a6 51       		.byte	0x51
 3613 01a7 9F       		.byte	0x9f
 3614 01a8 00000000 		.4byte	0
 3615 01ac 00000000 		.4byte	0
 3616              	.LLST12:
 3617 01b0 00000000 		.4byte	.LVL12
 3618 01b4 05000000 		.4byte	.LVL14-1
 3619 01b8 0100     		.2byte	0x1
 3620 01ba 52       		.byte	0x52
 3621 01bb 05000000 		.4byte	.LVL14-1
 3622 01bf 06000000 		.4byte	.LFE42
 3623 01c3 0400     		.2byte	0x4
 3624 01c5 F3       		.byte	0xf3
 3625 01c6 01       		.uleb128 0x1
 3626 01c7 52       		.byte	0x52
 3627 01c8 9F       		.byte	0x9f
 3628 01c9 00000000 		.4byte	0
 3629 01cd 00000000 		.4byte	0
 3630              	.LLST13:
 3631 01d1 00000000 		.4byte	.LVL12
 3632 01d5 05000000 		.4byte	.LVL14-1
 3633 01d9 0100     		.2byte	0x1
 3634 01db 53       		.byte	0x53
 3635 01dc 05000000 		.4byte	.LVL14-1
 3636 01e0 06000000 		.4byte	.LFE42
 3637 01e4 0400     		.2byte	0x4
 3638 01e6 F3       		.byte	0xf3
 3639 01e7 01       		.uleb128 0x1
 3640 01e8 53       		.byte	0x53
 3641 01e9 9F       		.byte	0x9f
 3642 01ea 00000000 		.4byte	0
 3643 01ee 00000000 		.4byte	0
 3644              	.LLST14:
 3645 01f2 00000000 		.4byte	.LVL15
 3646 01f6 02000000 		.4byte	.LVL16
 3647 01fa 0100     		.2byte	0x1
 3648 01fc 50       		.byte	0x50
ARM GAS  /tmp/ccaPyqmh.s 			page 65


 3649 01fd 02000000 		.4byte	.LVL16
 3650 0201 09000000 		.4byte	.LVL17-1
 3651 0205 0300     		.2byte	0x3
 3652 0207 70       		.byte	0x70
 3653 0208 50       		.sleb128 -48
 3654 0209 9F       		.byte	0x9f
 3655 020a 09000000 		.4byte	.LVL17-1
 3656 020e 0A000000 		.4byte	.LFE36
 3657 0212 0400     		.2byte	0x4
 3658 0214 F3       		.byte	0xf3
 3659 0215 01       		.uleb128 0x1
 3660 0216 50       		.byte	0x50
 3661 0217 9F       		.byte	0x9f
 3662 0218 00000000 		.4byte	0
 3663 021c 00000000 		.4byte	0
 3664              	.LLST15:
 3665 0220 00000000 		.4byte	.LVL15
 3666 0224 09000000 		.4byte	.LVL17-1
 3667 0228 0100     		.2byte	0x1
 3668 022a 51       		.byte	0x51
 3669 022b 09000000 		.4byte	.LVL17-1
 3670 022f 0A000000 		.4byte	.LFE36
 3671 0233 0400     		.2byte	0x4
 3672 0235 F3       		.byte	0xf3
 3673 0236 01       		.uleb128 0x1
 3674 0237 51       		.byte	0x51
 3675 0238 9F       		.byte	0x9f
 3676 0239 00000000 		.4byte	0
 3677 023d 00000000 		.4byte	0
 3678              	.LLST16:
 3679 0241 00000000 		.4byte	.LVL15
 3680 0245 09000000 		.4byte	.LVL17-1
 3681 0249 0100     		.2byte	0x1
 3682 024b 52       		.byte	0x52
 3683 024c 09000000 		.4byte	.LVL17-1
 3684 0250 0A000000 		.4byte	.LFE36
 3685 0254 0400     		.2byte	0x4
 3686 0256 F3       		.byte	0xf3
 3687 0257 01       		.uleb128 0x1
 3688 0258 52       		.byte	0x52
 3689 0259 9F       		.byte	0x9f
 3690 025a 00000000 		.4byte	0
 3691 025e 00000000 		.4byte	0
 3692              	.LLST17:
 3693 0262 00000000 		.4byte	.LVL18
 3694 0266 02000000 		.4byte	.LVL19
 3695 026a 0100     		.2byte	0x1
 3696 026c 50       		.byte	0x50
 3697 026d 02000000 		.4byte	.LVL19
 3698 0271 05000000 		.4byte	.LVL20-1
 3699 0275 0300     		.2byte	0x3
 3700 0277 70       		.byte	0x70
 3701 0278 70       		.sleb128 -16
 3702 0279 9F       		.byte	0x9f
 3703 027a 05000000 		.4byte	.LVL20-1
 3704 027e 06000000 		.4byte	.LFE41
 3705 0282 0400     		.2byte	0x4
ARM GAS  /tmp/ccaPyqmh.s 			page 66


 3706 0284 F3       		.byte	0xf3
 3707 0285 01       		.uleb128 0x1
 3708 0286 50       		.byte	0x50
 3709 0287 9F       		.byte	0x9f
 3710 0288 00000000 		.4byte	0
 3711 028c 00000000 		.4byte	0
 3712              	.LLST18:
 3713 0290 00000000 		.4byte	.LVL18
 3714 0294 05000000 		.4byte	.LVL20-1
 3715 0298 0100     		.2byte	0x1
 3716 029a 51       		.byte	0x51
 3717 029b 05000000 		.4byte	.LVL20-1
 3718 029f 06000000 		.4byte	.LFE41
 3719 02a3 0400     		.2byte	0x4
 3720 02a5 F3       		.byte	0xf3
 3721 02a6 01       		.uleb128 0x1
 3722 02a7 51       		.byte	0x51
 3723 02a8 9F       		.byte	0x9f
 3724 02a9 00000000 		.4byte	0
 3725 02ad 00000000 		.4byte	0
 3726              	.LLST19:
 3727 02b1 00000000 		.4byte	.LVL21
 3728 02b5 02000000 		.4byte	.LVL22
 3729 02b9 0100     		.2byte	0x1
 3730 02bb 50       		.byte	0x50
 3731 02bc 02000000 		.4byte	.LVL22
 3732 02c0 05000000 		.4byte	.LVL23-1
 3733 02c4 0300     		.2byte	0x3
 3734 02c6 70       		.byte	0x70
 3735 02c7 50       		.sleb128 -48
 3736 02c8 9F       		.byte	0x9f
 3737 02c9 05000000 		.4byte	.LVL23-1
 3738 02cd 06000000 		.4byte	.LFE40
 3739 02d1 0400     		.2byte	0x4
 3740 02d3 F3       		.byte	0xf3
 3741 02d4 01       		.uleb128 0x1
 3742 02d5 50       		.byte	0x50
 3743 02d6 9F       		.byte	0x9f
 3744 02d7 00000000 		.4byte	0
 3745 02db 00000000 		.4byte	0
 3746              	.LLST20:
 3747 02df 00000000 		.4byte	.LVL21
 3748 02e3 05000000 		.4byte	.LVL23-1
 3749 02e7 0100     		.2byte	0x1
 3750 02e9 51       		.byte	0x51
 3751 02ea 05000000 		.4byte	.LVL23-1
 3752 02ee 06000000 		.4byte	.LFE40
 3753 02f2 0400     		.2byte	0x4
 3754 02f4 F3       		.byte	0xf3
 3755 02f5 01       		.uleb128 0x1
 3756 02f6 51       		.byte	0x51
 3757 02f7 9F       		.byte	0x9f
 3758 02f8 00000000 		.4byte	0
 3759 02fc 00000000 		.4byte	0
 3760              	.LLST21:
 3761 0300 00000000 		.4byte	.LVL21
 3762 0304 05000000 		.4byte	.LVL23-1
ARM GAS  /tmp/ccaPyqmh.s 			page 67


 3763 0308 0100     		.2byte	0x1
 3764 030a 52       		.byte	0x52
 3765 030b 05000000 		.4byte	.LVL23-1
 3766 030f 06000000 		.4byte	.LFE40
 3767 0313 0400     		.2byte	0x4
 3768 0315 F3       		.byte	0xf3
 3769 0316 01       		.uleb128 0x1
 3770 0317 52       		.byte	0x52
 3771 0318 9F       		.byte	0x9f
 3772 0319 00000000 		.4byte	0
 3773 031d 00000000 		.4byte	0
 3774              	.LLST22:
 3775 0321 00000000 		.4byte	.LVL25
 3776 0325 0E000000 		.4byte	.LVL27
 3777 0329 0100     		.2byte	0x1
 3778 032b 50       		.byte	0x50
 3779 032c 0E000000 		.4byte	.LVL27
 3780 0330 36000000 		.4byte	.LVL30
 3781 0334 0100     		.2byte	0x1
 3782 0336 54       		.byte	0x54
 3783 0337 36000000 		.4byte	.LVL30
 3784 033b 39000000 		.4byte	.LVL31-1
 3785 033f 0400     		.2byte	0x4
 3786 0341 71       		.byte	0x71
 3787 0342 A07F     		.sleb128 -96
 3788 0344 9F       		.byte	0x9f
 3789 0345 39000000 		.4byte	.LVL31-1
 3790 0349 40000000 		.4byte	.LFE46
 3791 034d 0400     		.2byte	0x4
 3792 034f F3       		.byte	0xf3
 3793 0350 01       		.uleb128 0x1
 3794 0351 50       		.byte	0x50
 3795 0352 9F       		.byte	0x9f
 3796 0353 00000000 		.4byte	0
 3797 0357 00000000 		.4byte	0
 3798              	.LLST23:
 3799 035b 00000000 		.4byte	.LVL25
 3800 035f 1E000000 		.4byte	.LVL28
 3801 0363 0100     		.2byte	0x1
 3802 0365 51       		.byte	0x51
 3803 0366 1E000000 		.4byte	.LVL28
 3804 036a 25000000 		.4byte	.LVL29-1
 3805 036e 0100     		.2byte	0x1
 3806 0370 53       		.byte	0x53
 3807 0371 25000000 		.4byte	.LVL29-1
 3808 0375 40000000 		.4byte	.LFE46
 3809 0379 0400     		.2byte	0x4
 3810 037b F3       		.byte	0xf3
 3811 037c 01       		.uleb128 0x1
 3812 037d 51       		.byte	0x51
 3813 037e 9F       		.byte	0x9f
 3814 037f 00000000 		.4byte	0
 3815 0383 00000000 		.4byte	0
 3816              	.LLST24:
 3817 0387 00000000 		.4byte	.LVL25
 3818 038b 08000000 		.4byte	.LVL26
 3819 038f 0100     		.2byte	0x1
ARM GAS  /tmp/ccaPyqmh.s 			page 68


 3820 0391 52       		.byte	0x52
 3821 0392 08000000 		.4byte	.LVL26
 3822 0396 36000000 		.4byte	.LVL30
 3823 039a 0100     		.2byte	0x1
 3824 039c 55       		.byte	0x55
 3825 039d 36000000 		.4byte	.LVL30
 3826 03a1 39000000 		.4byte	.LVL31-1
 3827 03a5 0100     		.2byte	0x1
 3828 03a7 53       		.byte	0x53
 3829 03a8 39000000 		.4byte	.LVL31-1
 3830 03ac 40000000 		.4byte	.LFE46
 3831 03b0 0400     		.2byte	0x4
 3832 03b2 F3       		.byte	0xf3
 3833 03b3 01       		.uleb128 0x1
 3834 03b4 52       		.byte	0x52
 3835 03b5 9F       		.byte	0x9f
 3836 03b6 00000000 		.4byte	0
 3837 03ba 00000000 		.4byte	0
 3838              	.LLST25:
 3839 03be 00000000 		.4byte	.LVL32
 3840 03c2 0D000000 		.4byte	.LVL33-1
 3841 03c6 0100     		.2byte	0x1
 3842 03c8 50       		.byte	0x50
 3843 03c9 0D000000 		.4byte	.LVL33-1
 3844 03cd 1A000000 		.4byte	.LFE47
 3845 03d1 0100     		.2byte	0x1
 3846 03d3 54       		.byte	0x54
 3847 03d4 00000000 		.4byte	0
 3848 03d8 00000000 		.4byte	0
 3849              	.LLST26:
 3850 03dc 00000000 		.4byte	.LVL32
 3851 03e0 0D000000 		.4byte	.LVL33-1
 3852 03e4 0100     		.2byte	0x1
 3853 03e6 51       		.byte	0x51
 3854 03e7 0D000000 		.4byte	.LVL33-1
 3855 03eb 1A000000 		.4byte	.LFE47
 3856 03ef 0400     		.2byte	0x4
 3857 03f1 F3       		.byte	0xf3
 3858 03f2 01       		.uleb128 0x1
 3859 03f3 51       		.byte	0x51
 3860 03f4 9F       		.byte	0x9f
 3861 03f5 00000000 		.4byte	0
 3862 03f9 00000000 		.4byte	0
 3863              	.LLST27:
 3864 03fd 00000000 		.4byte	.LVL34
 3865 0401 0D000000 		.4byte	.LVL35-1
 3866 0405 0100     		.2byte	0x1
 3867 0407 50       		.byte	0x50
 3868 0408 0D000000 		.4byte	.LVL35-1
 3869 040c 2E000000 		.4byte	.LFE48
 3870 0410 0100     		.2byte	0x1
 3871 0412 54       		.byte	0x54
 3872 0413 00000000 		.4byte	0
 3873 0417 00000000 		.4byte	0
 3874              	.LLST28:
 3875 041b 00000000 		.4byte	.LVL39
 3876 041f 10000000 		.4byte	.LVL41
ARM GAS  /tmp/ccaPyqmh.s 			page 69


 3877 0423 0100     		.2byte	0x1
 3878 0425 50       		.byte	0x50
 3879 0426 10000000 		.4byte	.LVL41
 3880 042a 1A000000 		.4byte	.LVL43
 3881 042e 0100     		.2byte	0x1
 3882 0430 54       		.byte	0x54
 3883 0431 1A000000 		.4byte	.LVL43
 3884 0435 26000000 		.4byte	.LVL45
 3885 0439 0100     		.2byte	0x1
 3886 043b 50       		.byte	0x50
 3887 043c 26000000 		.4byte	.LVL45
 3888 0440 48000000 		.4byte	.LVL48
 3889 0444 0100     		.2byte	0x1
 3890 0446 54       		.byte	0x54
 3891 0447 48000000 		.4byte	.LVL48
 3892 044b 4B000000 		.4byte	.LVL49-1
 3893 044f 0300     		.2byte	0x3
 3894 0451 70       		.byte	0x70
 3895 0452 7C       		.sleb128 -4
 3896 0453 9F       		.byte	0x9f
 3897 0454 4B000000 		.4byte	.LVL49-1
 3898 0458 4C000000 		.4byte	.LFE49
 3899 045c 0400     		.2byte	0x4
 3900 045e F3       		.byte	0xf3
 3901 045f 01       		.uleb128 0x1
 3902 0460 50       		.byte	0x50
 3903 0461 9F       		.byte	0x9f
 3904 0462 00000000 		.4byte	0
 3905 0466 00000000 		.4byte	0
 3906              	.LLST29:
 3907 046a 00000000 		.4byte	.LVL39
 3908 046e 0C000000 		.4byte	.LVL40
 3909 0472 0100     		.2byte	0x1
 3910 0474 51       		.byte	0x51
 3911 0475 0C000000 		.4byte	.LVL40
 3912 0479 1A000000 		.4byte	.LVL43
 3913 047d 0400     		.2byte	0x4
 3914 047f F3       		.byte	0xf3
 3915 0480 01       		.uleb128 0x1
 3916 0481 51       		.byte	0x51
 3917 0482 9F       		.byte	0x9f
 3918 0483 1A000000 		.4byte	.LVL43
 3919 0487 1E000000 		.4byte	.LVL44
 3920 048b 0100     		.2byte	0x1
 3921 048d 51       		.byte	0x51
 3922 048e 1E000000 		.4byte	.LVL44
 3923 0492 4C000000 		.4byte	.LFE49
 3924 0496 0400     		.2byte	0x4
 3925 0498 F3       		.byte	0xf3
 3926 0499 01       		.uleb128 0x1
 3927 049a 51       		.byte	0x51
 3928 049b 9F       		.byte	0x9f
 3929 049c 00000000 		.4byte	0
 3930 04a0 00000000 		.4byte	0
 3931              	.LLST30:
 3932 04a4 00000000 		.4byte	.LVL50
 3933 04a8 06000000 		.4byte	.LVL51
ARM GAS  /tmp/ccaPyqmh.s 			page 70


 3934 04ac 0100     		.2byte	0x1
 3935 04ae 50       		.byte	0x50
 3936 04af 06000000 		.4byte	.LVL51
 3937 04b3 26000000 		.4byte	.LFE50
 3938 04b7 0100     		.2byte	0x1
 3939 04b9 54       		.byte	0x54
 3940 04ba 00000000 		.4byte	0
 3941 04be 00000000 		.4byte	0
 3942              	.LLST31:
 3943 04c2 0A000000 		.4byte	.LVL52
 3944 04c6 16000000 		.4byte	.LVL54
 3945 04ca 0100     		.2byte	0x1
 3946 04cc 50       		.byte	0x50
 3947 04cd 16000000 		.4byte	.LVL54
 3948 04d1 26000000 		.4byte	.LFE50
 3949 04d5 0100     		.2byte	0x1
 3950 04d7 55       		.byte	0x55
 3951 04d8 00000000 		.4byte	0
 3952 04dc 00000000 		.4byte	0
 3953              		.section	.debug_aranges,"",%progbits
 3954 0000 8C000000 		.4byte	0x8c
 3955 0004 0200     		.2byte	0x2
 3956 0006 00000000 		.4byte	.Ldebug_info0
 3957 000a 04       		.byte	0x4
 3958 000b 00       		.byte	0
 3959 000c 0000     		.2byte	0
 3960 000e 0000     		.2byte	0
 3961 0010 00000000 		.4byte	.LFB38
 3962 0014 0A000000 		.4byte	.LFE38-.LFB38
 3963 0018 00000000 		.4byte	.LFB39
 3964 001c 0A000000 		.4byte	.LFE39-.LFB39
 3965 0020 00000000 		.4byte	.LFB44
 3966 0024 16000000 		.4byte	.LFE44-.LFB44
 3967 0028 00000000 		.4byte	.LFB43
 3968 002c 06000000 		.4byte	.LFE43-.LFB43
 3969 0030 00000000 		.4byte	.LFB37
 3970 0034 0A000000 		.4byte	.LFE37-.LFB37
 3971 0038 00000000 		.4byte	.LFB42
 3972 003c 06000000 		.4byte	.LFE42-.LFB42
 3973 0040 00000000 		.4byte	.LFB36
 3974 0044 0A000000 		.4byte	.LFE36-.LFB36
 3975 0048 00000000 		.4byte	.LFB41
 3976 004c 06000000 		.4byte	.LFE41-.LFB41
 3977 0050 00000000 		.4byte	.LFB40
 3978 0054 06000000 		.4byte	.LFE40-.LFB40
 3979 0058 00000000 		.4byte	.LFB45
 3980 005c 04000000 		.4byte	.LFE45-.LFB45
 3981 0060 00000000 		.4byte	.LFB46
 3982 0064 40000000 		.4byte	.LFE46-.LFB46
 3983 0068 00000000 		.4byte	.LFB47
 3984 006c 1A000000 		.4byte	.LFE47-.LFB47
 3985 0070 00000000 		.4byte	.LFB48
 3986 0074 2E000000 		.4byte	.LFE48-.LFB48
 3987 0078 00000000 		.4byte	.LFB49
 3988 007c 4C000000 		.4byte	.LFE49-.LFB49
 3989 0080 00000000 		.4byte	.LFB50
 3990 0084 26000000 		.4byte	.LFE50-.LFB50
ARM GAS  /tmp/ccaPyqmh.s 			page 71


 3991 0088 00000000 		.4byte	0
 3992 008c 00000000 		.4byte	0
 3993              		.section	.debug_ranges,"",%progbits
 3994              	.Ldebug_ranges0:
 3995 0000 0C000000 		.4byte	.LBB3
 3996 0004 0E000000 		.4byte	.LBE3
 3997 0008 10000000 		.4byte	.LBB4
 3998 000c 14000000 		.4byte	.LBE4
 3999 0010 00000000 		.4byte	0
 4000 0014 00000000 		.4byte	0
 4001 0018 02000000 		.4byte	.LBB5
 4002 001c 04000000 		.4byte	.LBE5
 4003 0020 06000000 		.4byte	.LBB6
 4004 0024 0A000000 		.4byte	.LBE6
 4005 0028 00000000 		.4byte	0
 4006 002c 00000000 		.4byte	0
 4007 0030 02000000 		.4byte	.LBB8
 4008 0034 04000000 		.4byte	.LBE8
 4009 0038 06000000 		.4byte	.LBB9
 4010 003c 0A000000 		.4byte	.LBE9
 4011 0040 00000000 		.4byte	0
 4012 0044 00000000 		.4byte	0
 4013 0048 00000000 		.4byte	.LFB38
 4014 004c 0A000000 		.4byte	.LFE38
 4015 0050 00000000 		.4byte	.LFB39
 4016 0054 0A000000 		.4byte	.LFE39
 4017 0058 00000000 		.4byte	.LFB44
 4018 005c 16000000 		.4byte	.LFE44
 4019 0060 00000000 		.4byte	.LFB43
 4020 0064 06000000 		.4byte	.LFE43
 4021 0068 00000000 		.4byte	.LFB37
 4022 006c 0A000000 		.4byte	.LFE37
 4023 0070 00000000 		.4byte	.LFB42
 4024 0074 06000000 		.4byte	.LFE42
 4025 0078 00000000 		.4byte	.LFB36
 4026 007c 0A000000 		.4byte	.LFE36
 4027 0080 00000000 		.4byte	.LFB41
 4028 0084 06000000 		.4byte	.LFE41
 4029 0088 00000000 		.4byte	.LFB40
 4030 008c 06000000 		.4byte	.LFE40
 4031 0090 00000000 		.4byte	.LFB45
 4032 0094 04000000 		.4byte	.LFE45
 4033 0098 00000000 		.4byte	.LFB46
 4034 009c 40000000 		.4byte	.LFE46
 4035 00a0 00000000 		.4byte	.LFB47
 4036 00a4 1A000000 		.4byte	.LFE47
 4037 00a8 00000000 		.4byte	.LFB48
 4038 00ac 2E000000 		.4byte	.LFE48
 4039 00b0 00000000 		.4byte	.LFB49
 4040 00b4 4C000000 		.4byte	.LFE49
 4041 00b8 00000000 		.4byte	.LFB50
 4042 00bc 26000000 		.4byte	.LFE50
 4043 00c0 00000000 		.4byte	0
 4044 00c4 00000000 		.4byte	0
 4045              		.section	.debug_line,"",%progbits
 4046              	.Ldebug_line0:
 4047 0000 4A050000 		.section	.debug_str,"MS",%progbits,1
ARM GAS  /tmp/ccaPyqmh.s 			page 72


 4047      02001B04 
 4047      00000201 
 4047      FB0E0D00 
 4047      01010101 
 4048              	.LASF143:
 4049 0000 63684F51 		.ascii	"chOQPutTimeout\000"
 4049      50757454 
 4049      696D656F 
 4049      757400
 4050              	.LASF95:
 4051 000f 55415254 		.ascii	"UART_IMR\000"
 4051      5F494D52 
 4051      00
 4052              	.LASF2:
 4053 0018 73697A65 		.ascii	"size_t\000"
 4053      5F7400
 4054              	.LASF60:
 4055 001f 7264796D 		.ascii	"rdymsg\000"
 4055      736700
 4056              	.LASF75:
 4057 0026 4F757470 		.ascii	"OutputQueue\000"
 4057      75745175 
 4057      65756500 
 4058              	.LASF3:
 4059 0032 5F5F7569 		.ascii	"__uint8_t\000"
 4059      6E74385F 
 4059      7400
 4060              	.LASF140:
 4061 003c 63684951 		.ascii	"chIQReadTimeout\000"
 4061      52656164 
 4061      54696D65 
 4061      6F757400 
 4062              	.LASF102:
 4063 004c 55415254 		.ascii	"UART_RCR\000"
 4063      5F524352 
 4063      00
 4064              	.LASF155:
 4065 0055 474E5520 		.ascii	"GNU C 4.9.3 20150529 (release) [ARM/embedded-4_9-br"
 4065      4320342E 
 4065      392E3320 
 4065      32303135 
 4065      30353239 
 4066 0088 616E6368 		.ascii	"anch revision 227977] -mcpu=cortex-m3 -mno-thumb-in"
 4066      20726576 
 4066      6973696F 
 4066      6E203232 
 4066      37393737 
 4067 00bb 74657277 		.ascii	"terwork -mthumb -ggdb -O2 -std=gnu99 -fomit-frame-p"
 4067      6F726B20 
 4067      2D6D7468 
 4067      756D6220 
 4067      2D676764 
 4068 00ee 6F696E74 		.ascii	"ointer -falign-functions=16 -ffunction-sections -fd"
 4068      6572202D 
 4068      66616C69 
 4068      676E2D66 
 4068      756E6374 
ARM GAS  /tmp/ccaPyqmh.s 			page 73


 4069 0121 6174612D 		.ascii	"ata-sections -fno-common\000"
 4069      73656374 
 4069      696F6E73 
 4069      202D666E 
 4069      6F2D636F 
 4070              	.LASF12:
 4071 013a 6C6F6E67 		.ascii	"long long unsigned int\000"
 4071      206C6F6E 
 4071      6720756E 
 4071      7369676E 
 4071      65642069 
 4072              	.LASF145:
 4073 0151 63684F51 		.ascii	"chOQInit\000"
 4073      496E6974 
 4073      00
 4074              	.LASF61:
 4075 015a 65786974 		.ascii	"exitcode\000"
 4075      636F6465 
 4075      00
 4076              	.LASF158:
 4077 0163 49544D5F 		.ascii	"ITM_RxBuffer\000"
 4077      52784275 
 4077      66666572 
 4077      00
 4078              	.LASF133:
 4079 0170 73644F62 		.ascii	"sdObjectInit\000"
 4079      6A656374 
 4079      496E6974 
 4079      00
 4080              	.LASF127:
 4081 017d 72656164 		.ascii	"reads\000"
 4081      7300
 4082              	.LASF83:
 4083 0183 72656164 		.ascii	"readt\000"
 4083      7400
 4084              	.LASF66:
 4085 0189 715F7761 		.ascii	"q_waiting\000"
 4085      6974696E 
 4085      6700
 4086              	.LASF11:
 4087 0193 6C6F6E67 		.ascii	"long long int\000"
 4087      206C6F6E 
 4087      6720696E 
 4087      7400
 4088              	.LASF1:
 4089 01a1 7369676E 		.ascii	"signed char\000"
 4089      65642063 
 4089      68617200 
 4090              	.LASF109:
 4091 01ad 55415254 		.ascii	"UART_PTCR\000"
 4091      5F505443 
 4091      5200
 4092              	.LASF43:
 4093 01b7 705F6D70 		.ascii	"p_mpool\000"
 4093      6F6F6C00 
 4094              	.LASF17:
 4095 01bf 626F6F6C 		.ascii	"bool_t\000"
ARM GAS  /tmp/ccaPyqmh.s 			page 74


 4095      5F7400
 4096              	.LASF51:
 4097 01c6 6D5F7175 		.ascii	"m_queue\000"
 4097      65756500 
 4098              	.LASF117:
 4099 01ce 73746174 		.ascii	"state\000"
 4099      6500
 4100              	.LASF8:
 4101 01d4 6C6F6E67 		.ascii	"long int\000"
 4101      20696E74 
 4101      00
 4102              	.LASF19:
 4103 01dd 74737461 		.ascii	"tstate_t\000"
 4103      74655F74 
 4103      00
 4104              	.LASF154:
 4105 01e6 63684F51 		.ascii	"chOQGetI\000"
 4105      47657449 
 4105      00
 4106              	.LASF35:
 4107 01ef 705F7265 		.ascii	"p_refs\000"
 4107      667300
 4108              	.LASF68:
 4109 01f6 715F6275 		.ascii	"q_buffer\000"
 4109      66666572 
 4109      00
 4110              	.LASF70:
 4111 01ff 715F7772 		.ascii	"q_wrptr\000"
 4111      70747200 
 4112              	.LASF36:
 4113 0207 705F7469 		.ascii	"p_time\000"
 4113      6D6500
 4114              	.LASF153:
 4115 020e 63684576 		.ascii	"chEvtBroadcastFlagsI\000"
 4115      7442726F 
 4115      61646361 
 4115      7374466C 
 4115      61677349 
 4116              	.LASF30:
 4117 0223 705F6E65 		.ascii	"p_newer\000"
 4117      77657200 
 4118              	.LASF80:
 4119 022b 70757477 		.ascii	"putwouldblock\000"
 4119      6F756C64 
 4119      626C6F63 
 4119      6B00
 4120              	.LASF110:
 4121 0239 55415254 		.ascii	"UART_PTSR\000"
 4121      5F505453 
 4121      5200
 4122              	.LASF151:
 4123 0243 63685363 		.ascii	"chSchRescheduleS\000"
 4123      68526573 
 4123      63686564 
 4123      756C6553 
 4123      00
 4124              	.LASF9:
ARM GAS  /tmp/ccaPyqmh.s 			page 75


 4125 0254 5F5F7569 		.ascii	"__uint32_t\000"
 4125      6E743332 
 4125      5F7400
 4126              	.LASF125:
 4127 025f 6D61736B 		.ascii	"mask\000"
 4127      00
 4128              	.LASF46:
 4129 0264 72656761 		.ascii	"regarm_t\000"
 4129      726D5F74 
 4129      00
 4130              	.LASF152:
 4131 026d 63684951 		.ascii	"chIQPutI\000"
 4131      50757449 
 4131      00
 4132              	.LASF58:
 4133 0276 4576656E 		.ascii	"EventSource\000"
 4133      74536F75 
 4133      72636500 
 4134              	.LASF77:
 4135 0282 42617365 		.ascii	"BaseAsynchronousChannelVMT\000"
 4135      4173796E 
 4135      6368726F 
 4135      6E6F7573 
 4135      4368616E 
 4136              	.LASF0:
 4137 029d 756E7369 		.ascii	"unsigned int\000"
 4137      676E6564 
 4137      20696E74 
 4137      00
 4138              	.LASF124:
 4139 02aa 53657269 		.ascii	"SerialDriverVMT\000"
 4139      616C4472 
 4139      69766572 
 4139      564D5400 
 4140              	.LASF149:
 4141 02ba 63684951 		.ascii	"chIQResetI\000"
 4141      52657365 
 4141      744900
 4142              	.LASF134:
 4143 02c5 696E6F74 		.ascii	"inotify\000"
 4143      69667900 
 4144              	.LASF118:
 4145 02cd 69717565 		.ascii	"iqueue\000"
 4145      756500
 4146              	.LASF38:
 4147 02d4 705F6D73 		.ascii	"p_msgqueue\000"
 4147      67717565 
 4147      756500
 4148              	.LASF150:
 4149 02df 73645F6C 		.ascii	"sd_lld_init\000"
 4149      6C645F69 
 4149      6E697400 
 4150              	.LASF100:
 4151 02eb 52657365 		.ascii	"Reserved1\000"
 4151      72766564 
 4151      3100
 4152              	.LASF129:
ARM GAS  /tmp/ccaPyqmh.s 			page 76


 4153 02f5 67657474 		.ascii	"gett\000"
 4153      00
 4154              	.LASF98:
 4155 02fa 55415254 		.ascii	"UART_THR\000"
 4155      5F544852 
 4155      00
 4156              	.LASF85:
 4157 0303 6576656E 		.ascii	"event\000"
 4157      7400
 4158              	.LASF6:
 4159 0309 73686F72 		.ascii	"short unsigned int\000"
 4159      7420756E 
 4159      7369676E 
 4159      65642069 
 4159      6E7400
 4160              	.LASF22:
 4161 031c 6D73675F 		.ascii	"msg_t\000"
 4161      7400
 4162              	.LASF119:
 4163 0322 6F717565 		.ascii	"oqueue\000"
 4163      756500
 4164              	.LASF55:
 4165 0329 656C5F6E 		.ascii	"el_next\000"
 4165      65787400 
 4166              	.LASF128:
 4167 0331 77726974 		.ascii	"writes\000"
 4167      657300
 4168              	.LASF82:
 4169 0338 77726974 		.ascii	"writet\000"
 4169      657400
 4170              	.LASF103:
 4171 033f 55415254 		.ascii	"UART_TPR\000"
 4171      5F545052 
 4171      00
 4172              	.LASF88:
 4173 0348 526F5265 		.ascii	"RoReg\000"
 4173      6700
 4174              	.LASF91:
 4175 034e 55415254 		.ascii	"UART_CR\000"
 4175      5F435200 
 4176              	.LASF45:
 4177 0356 54687265 		.ascii	"ThreadsList\000"
 4177      6164734C 
 4177      69737400 
 4178              	.LASF23:
 4179 0362 6576656E 		.ascii	"eventmask_t\000"
 4179      746D6173 
 4179      6B5F7400 
 4180              	.LASF74:
 4181 036e 496E7075 		.ascii	"InputQueue\000"
 4181      74517565 
 4181      756500
 4182              	.LASF73:
 4183 0379 716E6F74 		.ascii	"qnotify_t\000"
 4183      6966795F 
 4183      7400
 4184              	.LASF65:
ARM GAS  /tmp/ccaPyqmh.s 			page 77


 4185 0383 47656E65 		.ascii	"GenericQueue\000"
 4185      72696351 
 4185      75657565 
 4185      00
 4186              	.LASF141:
 4187 0390 63684F51 		.ascii	"chOQWriteTimeout\000"
 4187      57726974 
 4187      6554696D 
 4187      656F7574 
 4187      00
 4188              	.LASF44:
 4189 03a1 54687265 		.ascii	"ThreadsQueue\000"
 4189      61647351 
 4189      75657565 
 4189      00
 4190              	.LASF78:
 4191 03ae 77726974 		.ascii	"write\000"
 4191      6500
 4192              	.LASF131:
 4193 03b4 70757474 		.ascii	"putt\000"
 4193      00
 4194              	.LASF57:
 4195 03b9 656C5F6D 		.ascii	"el_mask\000"
 4195      61736B00 
 4196              	.LASF108:
 4197 03c1 55415254 		.ascii	"UART_TNCR\000"
 4197      5F544E43 
 4197      5200
 4198              	.LASF49:
 4199 03cb 73697A65 		.ascii	"sizetype\000"
 4199      74797065 
 4199      00
 4200              	.LASF107:
 4201 03d4 55415254 		.ascii	"UART_TNPR\000"
 4201      5F544E50 
 4201      5200
 4202              	.LASF67:
 4203 03de 715F636F 		.ascii	"q_counter\000"
 4203      756E7465 
 4203      7200
 4204              	.LASF50:
 4205 03e8 4D757465 		.ascii	"Mutex\000"
 4205      7800
 4206              	.LASF122:
 4207 03ee 73635F6D 		.ascii	"sc_mr\000"
 4207      7200
 4208              	.LASF106:
 4209 03f4 55415254 		.ascii	"UART_RNCR\000"
 4209      5F524E43 
 4209      5200
 4210              	.LASF96:
 4211 03fe 55415254 		.ascii	"UART_SR\000"
 4211      5F535200 
 4212              	.LASF84:
 4213 0406 67657466 		.ascii	"getflags\000"
 4213      6C616773 
 4213      00
ARM GAS  /tmp/ccaPyqmh.s 			page 78


 4214              	.LASF76:
 4215 040f 696F666C 		.ascii	"ioflags_t\000"
 4215      6167735F 
 4215      7400
 4216              	.LASF90:
 4217 0419 52775265 		.ascii	"RwReg\000"
 4217      6700
 4218              	.LASF138:
 4219 041f 73645374 		.ascii	"sdStop\000"
 4219      6F7000
 4220              	.LASF101:
 4221 0426 55415254 		.ascii	"UART_RPR\000"
 4221      5F525052 
 4221      00
 4222              	.LASF89:
 4223 042f 576F5265 		.ascii	"WoReg\000"
 4223      6700
 4224              	.LASF99:
 4225 0435 55415254 		.ascii	"UART_BRGR\000"
 4225      5F425247 
 4225      5200
 4226              	.LASF123:
 4227 043f 53657269 		.ascii	"SerialConfig\000"
 4227      616C436F 
 4227      6E666967 
 4227      00
 4228              	.LASF120:
 4229 044c 75617274 		.ascii	"uart\000"
 4229      00
 4230              	.LASF114:
 4231 0451 53445F52 		.ascii	"SD_READY\000"
 4231      45414459 
 4231      00
 4232              	.LASF93:
 4233 045a 55415254 		.ascii	"UART_IER\000"
 4233      5F494552 
 4233      00
 4234              	.LASF20:
 4235 0463 74726566 		.ascii	"trefs_t\000"
 4235      735F7400 
 4236              	.LASF16:
 4237 046b 75696E74 		.ascii	"uint_fast16_t\000"
 4237      5F666173 
 4237      7431365F 
 4237      7400
 4238              	.LASF27:
 4239 0479 705F7072 		.ascii	"p_prev\000"
 4239      657600
 4240              	.LASF21:
 4241 0480 74707269 		.ascii	"tprio_t\000"
 4241      6F5F7400 
 4242              	.LASF71:
 4243 0488 715F7264 		.ascii	"q_rdptr\000"
 4243      70747200 
 4244              	.LASF14:
 4245 0490 696E7433 		.ascii	"int32_t\000"
 4245      325F7400 
ARM GAS  /tmp/ccaPyqmh.s 			page 79


 4246              	.LASF4:
 4247 0498 756E7369 		.ascii	"unsigned char\000"
 4247      676E6564 
 4247      20636861 
 4247      7200
 4248              	.LASF146:
 4249 04a6 73645F6C 		.ascii	"sd_lld_start\000"
 4249      6C645F73 
 4249      74617274 
 4249      00
 4250              	.LASF56:
 4251 04b3 656C5F6C 		.ascii	"el_listener\000"
 4251      69737465 
 4251      6E657200 
 4252              	.LASF33:
 4253 04bf 705F7374 		.ascii	"p_state\000"
 4253      61746500 
 4254              	.LASF41:
 4255 04c7 705F6D74 		.ascii	"p_mtxlist\000"
 4255      786C6973 
 4255      7400
 4256              	.LASF5:
 4257 04d1 73686F72 		.ascii	"short int\000"
 4257      7420696E 
 4257      7400
 4258              	.LASF31:
 4259 04db 705F6F6C 		.ascii	"p_older\000"
 4259      64657200 
 4260              	.LASF63:
 4261 04e3 65776D61 		.ascii	"ewmask\000"
 4261      736B00
 4262              	.LASF26:
 4263 04ea 705F6E65 		.ascii	"p_next\000"
 4263      787400
 4264              	.LASF18:
 4265 04f1 746D6F64 		.ascii	"tmode_t\000"
 4265      655F7400 
 4266              	.LASF34:
 4267 04f9 705F666C 		.ascii	"p_flags\000"
 4267      61677300 
 4268              	.LASF105:
 4269 0501 55415254 		.ascii	"UART_RNPR\000"
 4269      5F524E50 
 4269      5200
 4270              	.LASF113:
 4271 050b 53445F53 		.ascii	"SD_STOP\000"
 4271      544F5000 
 4272              	.LASF25:
 4273 0513 54687265 		.ascii	"Thread\000"
 4273      616400
 4274              	.LASF104:
 4275 051a 55415254 		.ascii	"UART_TCR\000"
 4275      5F544352 
 4275      00
 4276              	.LASF40:
 4277 0523 705F6570 		.ascii	"p_epending\000"
 4277      656E6469 
ARM GAS  /tmp/ccaPyqmh.s 			page 80


 4277      6E6700
 4278              	.LASF112:
 4279 052e 53445F55 		.ascii	"SD_UNINIT\000"
 4279      4E494E49 
 4279      5400
 4280              	.LASF15:
 4281 0538 75696E74 		.ascii	"uint32_t\000"
 4281      33325F74 
 4281      00
 4282              	.LASF97:
 4283 0541 55415254 		.ascii	"UART_RHR\000"
 4283      5F524852 
 4283      00
 4284              	.LASF115:
 4285 054a 73647374 		.ascii	"sdstate_t\000"
 4285      6174655F 
 4285      7400
 4286              	.LASF116:
 4287 0554 53657269 		.ascii	"SerialDriver\000"
 4287      616C4472 
 4287      69766572 
 4287      00
 4288              	.LASF92:
 4289 0561 55415254 		.ascii	"UART_MR\000"
 4289      5F4D5200 
 4290              	.LASF10:
 4291 0569 6C6F6E67 		.ascii	"long unsigned int\000"
 4291      20756E73 
 4291      69676E65 
 4291      6420696E 
 4291      7400
 4292              	.LASF79:
 4293 057b 72656164 		.ascii	"read\000"
 4293      00
 4294              	.LASF64:
 4295 0580 63686172 		.ascii	"char\000"
 4295      00
 4296              	.LASF139:
 4297 0585 7364496E 		.ascii	"sdIncomingDataI\000"
 4297      636F6D69 
 4297      6E674461 
 4297      74614900 
 4298              	.LASF137:
 4299 0595 636F6E66 		.ascii	"config\000"
 4299      696700
 4300              	.LASF136:
 4301 059c 73645374 		.ascii	"sdStart\000"
 4301      61727400 
 4302              	.LASF156:
 4303 05a4 2F686F6D 		.ascii	"/home/nicolas/Escritorio/Embebidos/stamp_repo/files"
 4303      652F6E69 
 4303      636F6C61 
 4303      732F4573 
 4303      63726974 
 4304 05d7 2F636F64 		.ascii	"/code/ext/ChibiOS/os/hal/src/serial.c\000"
 4304      652F6578 
 4304      742F4368 
ARM GAS  /tmp/ccaPyqmh.s 			page 81


 4304      6962694F 
 4304      532F6F73 
 4305              	.LASF53:
 4306 05fd 6D5F6E65 		.ascii	"m_next\000"
 4306      787400
 4307              	.LASF24:
 4308 0604 73797374 		.ascii	"systime_t\000"
 4308      696D655F 
 4308      7400
 4309              	.LASF42:
 4310 060e 705F7265 		.ascii	"p_realprio\000"
 4310      616C7072 
 4310      696F00
 4311              	.LASF7:
 4312 0619 5F5F696E 		.ascii	"__int32_t\000"
 4312      7433325F 
 4312      7400
 4313              	.LASF111:
 4314 0623 55617274 		.ascii	"Uart\000"
 4314      00
 4315              	.LASF121:
 4316 0628 73635F73 		.ascii	"sc_speed\000"
 4316      70656564 
 4316      00
 4317              	.LASF87:
 4318 0631 42617365 		.ascii	"BaseAsynchronousChannel\000"
 4318      4173796E 
 4318      6368726F 
 4318      6E6F7573 
 4318      4368616E 
 4319              	.LASF48:
 4320 0649 636F6E74 		.ascii	"context\000"
 4320      65787400 
 4321              	.LASF54:
 4322 0651 4576656E 		.ascii	"EventListener\000"
 4322      744C6973 
 4322      74656E65 
 4322      7200
 4323              	.LASF94:
 4324 065f 55415254 		.ascii	"UART_IDR\000"
 4324      5F494452 
 4324      00
 4325              	.LASF47:
 4326 0668 696E7463 		.ascii	"intctx\000"
 4326      747800
 4327              	.LASF126:
 4328 066f 74696D65 		.ascii	"time\000"
 4328      00
 4329              	.LASF69:
 4330 0674 715F746F 		.ascii	"q_top\000"
 4330      7000
 4331              	.LASF32:
 4332 067a 705F6E61 		.ascii	"p_name\000"
 4332      6D6500
 4333              	.LASF59:
 4334 0681 65735F6E 		.ascii	"es_next\000"
 4334      65787400 
ARM GAS  /tmp/ccaPyqmh.s 			page 82


 4335              	.LASF72:
 4336 0689 715F6E6F 		.ascii	"q_notify\000"
 4336      74696679 
 4336      00
 4337              	.LASF39:
 4338 0692 705F6D73 		.ascii	"p_msg\000"
 4338      6700
 4339              	.LASF157:
 4340 0698 73645265 		.ascii	"sdRequestDataI\000"
 4340      71756573 
 4340      74446174 
 4340      614900
 4341              	.LASF13:
 4342 06a7 75696E74 		.ascii	"uint8_t\000"
 4342      385F7400 
 4343              	.LASF86:
 4344 06af 666C6167 		.ascii	"flags\000"
 4344      7300
 4345              	.LASF135:
 4346 06b5 6F6E6F74 		.ascii	"onotify\000"
 4346      69667900 
 4347              	.LASF28:
 4348 06bd 705F7072 		.ascii	"p_prio\000"
 4348      696F00
 4349              	.LASF148:
 4350 06c4 63684F51 		.ascii	"chOQResetI\000"
 4350      52657365 
 4350      744900
 4351              	.LASF62:
 4352 06cf 77746F62 		.ascii	"wtobjp\000"
 4352      6A7000
 4353              	.LASF81:
 4354 06d6 67657477 		.ascii	"getwouldblock\000"
 4354      6F756C64 
 4354      626C6F63 
 4354      6B00
 4355              	.LASF147:
 4356 06e4 73645F6C 		.ascii	"sd_lld_stop\000"
 4356      6C645F73 
 4356      746F7000 
 4357              	.LASF130:
 4358 06f0 74696D65 		.ascii	"timeout\000"
 4358      6F757400 
 4359              	.LASF132:
 4360 06f8 7364496E 		.ascii	"sdInit\000"
 4360      697400
 4361              	.LASF144:
 4362 06ff 63684951 		.ascii	"chIQInit\000"
 4362      496E6974 
 4362      00
 4363              	.LASF52:
 4364 0708 6D5F6F77 		.ascii	"m_owner\000"
 4364      6E657200 
 4365              	.LASF29:
 4366 0710 705F6374 		.ascii	"p_ctx\000"
 4366      7800
 4367              	.LASF37:
ARM GAS  /tmp/ccaPyqmh.s 			page 83


 4368 0716 705F7761 		.ascii	"p_waiting\000"
 4368      6974696E 
 4368      6700
 4369              	.LASF142:
 4370 0720 63684951 		.ascii	"chIQGetTimeout\000"
 4370      47657454 
 4370      696D656F 
 4370      757400
 4371              		.ident	"GCC: (GNU Tools for ARM Embedded Processors) 4.9.3 20150529 (release) [ARM/embedded-4_9-br
ARM GAS  /tmp/ccaPyqmh.s 			page 84


DEFINED SYMBOLS
                            *ABS*:00000000 serial.c
     /tmp/ccaPyqmh.s:19     .text.putwouldblock:00000000 $t
     /tmp/ccaPyqmh.s:24     .text.putwouldblock:00000000 putwouldblock
     /tmp/ccaPyqmh.s:44     .text.getwouldblock:00000000 $t
     /tmp/ccaPyqmh.s:49     .text.getwouldblock:00000000 getwouldblock
     /tmp/ccaPyqmh.s:68     .text.getflags:00000000 $t
     /tmp/ccaPyqmh.s:73     .text.getflags:00000000 getflags
     /tmp/ccaPyqmh.s:110    .text.readt:00000000 $t
     /tmp/ccaPyqmh.s:115    .text.readt:00000000 readt
     /tmp/ccaPyqmh.s:132    .text.reads:00000000 $t
     /tmp/ccaPyqmh.s:137    .text.reads:00000000 reads
     /tmp/ccaPyqmh.s:155    .text.writet:00000000 $t
     /tmp/ccaPyqmh.s:160    .text.writet:00000000 writet
     /tmp/ccaPyqmh.s:177    .text.writes:00000000 $t
     /tmp/ccaPyqmh.s:182    .text.writes:00000000 writes
     /tmp/ccaPyqmh.s:200    .text.gett:00000000 $t
     /tmp/ccaPyqmh.s:205    .text.gett:00000000 gett
     /tmp/ccaPyqmh.s:222    .text.putt:00000000 $t
     /tmp/ccaPyqmh.s:227    .text.putt:00000000 putt
     /tmp/ccaPyqmh.s:244    .text.sdInit:00000000 $t
     /tmp/ccaPyqmh.s:250    .text.sdInit:00000000 sdInit
     /tmp/ccaPyqmh.s:264    .text.sdObjectInit:00000000 $t
     /tmp/ccaPyqmh.s:270    .text.sdObjectInit:00000000 sdObjectInit
     /tmp/ccaPyqmh.s:331    .text.sdObjectInit:0000003c $d
     /tmp/ccaPyqmh.s:336    .text.sdStart:00000000 $t
     /tmp/ccaPyqmh.s:342    .text.sdStart:00000000 sdStart
     /tmp/ccaPyqmh.s:385    .text.sdStop:00000000 $t
     /tmp/ccaPyqmh.s:391    .text.sdStop:00000000 sdStop
     /tmp/ccaPyqmh.s:445    .text.sdIncomingDataI:00000000 $t
     /tmp/ccaPyqmh.s:451    .text.sdIncomingDataI:00000000 sdIncomingDataI
     /tmp/ccaPyqmh.s:523    .text.sdRequestDataI:00000000 $t
     /tmp/ccaPyqmh.s:529    .text.sdRequestDataI:00000000 sdRequestDataI
     /tmp/ccaPyqmh.s:573    .rodata.vmt:00000000 $d
     /tmp/ccaPyqmh.s:577    .rodata.vmt:00000000 vmt
                     .debug_frame:00000010 $d

UNDEFINED SYMBOLS
chIQReadTimeout
chOQWriteTimeout
chIQGetTimeout
chOQPutTimeout
sd_lld_init
chIQInit
chOQInit
sd_lld_start
sd_lld_stop
chOQResetI
chIQResetI
chSchRescheduleS
chIQPutI
chEvtBroadcastFlagsI
chOQGetI
