ARM GAS  /tmp/cc7ISspg.s 			page 1


   1              		.syntax unified
   2              		.cpu cortex-m3
   3              		.fpu softvfp
   4              		.eabi_attribute 20, 1
   5              		.eabi_attribute 21, 1
   6              		.eabi_attribute 23, 3
   7              		.eabi_attribute 24, 1
   8              		.eabi_attribute 25, 1
   9              		.eabi_attribute 26, 1
  10              		.eabi_attribute 30, 2
  11              		.eabi_attribute 34, 1
  12              		.eabi_attribute 18, 4
  13              		.thumb
  14              		.file	"testmsg.c"
  15              		.text
  16              	.Ltext0:
  17              		.cfi_sections	.debug_frame
  18              		.section	.text.msg1_execute,"ax",%progbits
  19              		.align	2
  20              		.p2align 4,,15
  21              		.thumb
  22              		.thumb_func
  23              		.type	msg1_execute, %function
  24              	msg1_execute:
  25              	.LFB8:
  26              		.file 1 "/home/leoperez/Documents/acuerol-stamp_repo-9ea99115aa86/files/code/ext/ChibiOS/test/test
  27              		.loc 1 78 0
  28              		.cfi_startproc
  29              		@ args = 0, pretend = 0, frame = 0
  30              		@ frame_needed = 0, uses_anonymous_args = 0
  31 0000 10B5     		push	{r4, lr}
  32              		.cfi_def_cfa_offset 8
  33              		.cfi_offset 4, -8
  34              		.cfi_offset 14, -4
  35              		.loc 1 85 0
  36 0002 184B     		ldr	r3, .L3
  37 0004 184A     		ldr	r2, .L3+4
  38 0006 DB69     		ldr	r3, [r3, #28]
  39 0008 1068     		ldr	r0, [r2]
  40 000a 9A68     		ldr	r2, [r3, #8]
  41              		.loc 1 78 0
  42 000c 82B0     		sub	sp, sp, #8
  43              		.cfi_def_cfa_offset 16
  44              		.loc 1 85 0
  45 000e 0132     		adds	r2, r2, #1
  46 0010 0093     		str	r3, [sp]
  47 0012 4FF49871 		mov	r1, #304
  48 0016 154B     		ldr	r3, .L3+8
  49 0018 FFF7FEFF 		bl	chThdCreateStatic
  50              	.LVL0:
  51 001c 144B     		ldr	r3, .L3+12
  52 001e 1860     		str	r0, [r3]
  53              		.loc 1 87 0
  54 0020 FFF7FEFF 		bl	chMsgWait
  55              	.LVL1:
  56              		.loc 1 88 0
  57 0024 446B     		ldr	r4, [r0, #52]
ARM GAS  /tmp/cc7ISspg.s 			page 2


  58              	.LVL2:
  59              		.loc 1 89 0
  60 0026 2146     		mov	r1, r4
  61 0028 FFF7FEFF 		bl	chMsgRelease
  62              	.LVL3:
  63              		.loc 1 90 0
  64 002c E0B2     		uxtb	r0, r4
  65 002e FFF7FEFF 		bl	test_emit_token
  66              	.LVL4:
  67              		.loc 1 91 0
  68 0032 FFF7FEFF 		bl	chMsgWait
  69              	.LVL5:
  70              		.loc 1 92 0
  71 0036 446B     		ldr	r4, [r0, #52]
  72              	.LVL6:
  73              		.loc 1 93 0
  74 0038 2146     		mov	r1, r4
  75 003a FFF7FEFF 		bl	chMsgRelease
  76              	.LVL7:
  77              		.loc 1 94 0
  78 003e E0B2     		uxtb	r0, r4
  79 0040 FFF7FEFF 		bl	test_emit_token
  80              	.LVL8:
  81              		.loc 1 95 0
  82 0044 FFF7FEFF 		bl	chMsgWait
  83              	.LVL9:
  84              		.loc 1 96 0
  85 0048 446B     		ldr	r4, [r0, #52]
  86              	.LVL10:
  87              		.loc 1 97 0
  88 004a 2146     		mov	r1, r4
  89 004c FFF7FEFF 		bl	chMsgRelease
  90              	.LVL11:
  91              		.loc 1 98 0
  92 0050 E0B2     		uxtb	r0, r4
  93 0052 FFF7FEFF 		bl	test_emit_token
  94              	.LVL12:
  95              		.loc 1 99 0
  96 0056 0749     		ldr	r1, .L3+16
  97 0058 0120     		movs	r0, #1
  98              		.loc 1 100 0
  99 005a 02B0     		add	sp, sp, #8
 100              		.cfi_def_cfa_offset 8
 101              		@ sp needed
 102 005c BDE81040 		pop	{r4, lr}
 103              		.cfi_restore 14
 104              		.cfi_restore 4
 105              		.cfi_def_cfa_offset 0
 106              	.LVL13:
 107              		.loc 1 99 0
 108 0060 FFF7FEBF 		b	_test_assert_sequence
 109              	.LVL14:
 110              	.L4:
 111              		.align	2
 112              	.L3:
 113 0064 00000000 		.word	rlist
 114 0068 00000000 		.word	wa
ARM GAS  /tmp/cc7ISspg.s 			page 3


 115 006c 00000000 		.word	thread
 116 0070 00000000 		.word	threads
 117 0074 00000000 		.word	.LC0
 118              		.cfi_endproc
 119              	.LFE8:
 120              		.size	msg1_execute, .-msg1_execute
 121              		.section	.text.thread,"ax",%progbits
 122              		.align	2
 123              		.p2align 4,,15
 124              		.thumb
 125              		.thumb_func
 126              		.type	thread, %function
 127              	thread:
 128              	.LFB7:
 129              		.loc 1 70 0
 130              		.cfi_startproc
 131              		@ args = 0, pretend = 0, frame = 0
 132              		@ frame_needed = 0, uses_anonymous_args = 0
 133              	.LVL15:
 134 0000 10B5     		push	{r4, lr}
 135              		.cfi_def_cfa_offset 8
 136              		.cfi_offset 4, -8
 137              		.cfi_offset 14, -4
 138              		.loc 1 70 0
 139 0002 0446     		mov	r4, r0
 140              		.loc 1 72 0
 141 0004 4121     		movs	r1, #65
 142 0006 FFF7FEFF 		bl	chMsgSend
 143              	.LVL16:
 144              		.loc 1 73 0
 145 000a 2046     		mov	r0, r4
 146 000c 4221     		movs	r1, #66
 147 000e FFF7FEFF 		bl	chMsgSend
 148              	.LVL17:
 149              		.loc 1 74 0
 150 0012 2046     		mov	r0, r4
 151 0014 4321     		movs	r1, #67
 152 0016 FFF7FEFF 		bl	chMsgSend
 153              	.LVL18:
 154              		.loc 1 76 0
 155 001a 0020     		movs	r0, #0
 156 001c 10BD     		pop	{r4, pc}
 157              		.cfi_endproc
 158              	.LFE7:
 159              		.size	thread, .-thread
 160              		.global	patternmsg
 161              		.global	testmsg1
 162 001e 00BF     		.section	.rodata.testmsg1,"a",%progbits
 163              		.align	2
 164              		.type	testmsg1, %object
 165              		.size	testmsg1, 16
 166              	testmsg1:
 167 0000 04000000 		.word	.LC1
 168 0004 00000000 		.word	0
 169 0008 00000000 		.word	0
 170 000c 00000000 		.word	msg1_execute
 171              		.section	.rodata.str1.4,"aMS",%progbits,1
ARM GAS  /tmp/cc7ISspg.s 			page 4


 172              		.align	2
 173              	.LC0:
 174 0000 41424300 		.ascii	"ABC\000"
 175              	.LC1:
 176 0004 4D657373 		.ascii	"Messages, loop\000"
 176      61676573 
 176      2C206C6F 
 176      6F7000
 177              		.section	.rodata.patternmsg,"a",%progbits
 178              		.align	2
 179              		.type	patternmsg, %object
 180              		.size	patternmsg, 8
 181              	patternmsg:
 182 0000 00000000 		.word	testmsg1
 183 0004 00000000 		.word	0
 184              		.text
 185              	.Letext0:
 186              		.file 2 "/home/leoperez/Documents/acuerol-stamp_repo-9ea99115aa86/gcc-arm-none-eabi-4_9-2015q3/lib
 187              		.file 3 "/home/leoperez/Documents/acuerol-stamp_repo-9ea99115aa86/gcc-arm-none-eabi-4_9-2015q3/arm
 188              		.file 4 "/home/leoperez/Documents/acuerol-stamp_repo-9ea99115aa86/gcc-arm-none-eabi-4_9-2015q3/arm
 189              		.file 5 "/home/leoperez/Documents/acuerol-stamp_repo-9ea99115aa86/files/code/ext/ChibiOS/os/ports/
 190              		.file 6 "/home/leoperez/Documents/acuerol-stamp_repo-9ea99115aa86/files/code/ext/ChibiOS/os/kernel
 191              		.file 7 "/home/leoperez/Documents/acuerol-stamp_repo-9ea99115aa86/files/code/ext/ChibiOS/os/kernel
 192              		.file 8 "/home/leoperez/Documents/acuerol-stamp_repo-9ea99115aa86/files/code/ext/ChibiOS/os/ports/
 193              		.file 9 "/home/leoperez/Documents/acuerol-stamp_repo-9ea99115aa86/files/code/ext/ChibiOS/os/kernel
 194              		.file 10 "/home/leoperez/Documents/acuerol-stamp_repo-9ea99115aa86/files/code/ext/ChibiOS/os/kerne
 195              		.file 11 "/home/leoperez/Documents/acuerol-stamp_repo-9ea99115aa86/files/code/ext/ChibiOS/test/tes
 196              		.file 12 "/home/leoperez/Documents/acuerol-stamp_repo-9ea99115aa86/files/code/ext/ChibiOS/os/kerne