ARM GAS  /tmp/cc8tOftm.s 			page 1


   1              		.syntax unified
   2              		.cpu cortex-m3
   3              		.fpu softvfp
   4              		.eabi_attribute 20, 1
   5              		.eabi_attribute 21, 1
   6              		.eabi_attribute 23, 3
   7              		.eabi_attribute 24, 1
   8              		.eabi_attribute 25, 1
   9              		.eabi_attribute 26, 1
  10              		.eabi_attribute 30, 2
  11              		.eabi_attribute 34, 1
  12              		.eabi_attribute 18, 4
  13              		.thumb
  14              		.file	"testevt.c"
  15              		.text
  16              	.Ltext0:
  17              		.cfi_sections	.debug_frame
  18              		.section	.text.evt1_execute,"ax",%progbits
  19              		.align	2
  20              		.p2align 4,,15
  21              		.thumb
  22              		.thumb_func
  23              		.type	evt1_execute, %function
  24              	evt1_execute:
  25              	.LFB11:
  26              		.file 1 "/home/leoperez/Documents/acuerol-stamp_repo-9ea99115aa86/files/code/ext/ChibiOS/test/test
  27              		.loc 1 96 0
  28              		.cfi_startproc
  29              		@ args = 0, pretend = 0, frame = 24
  30              		@ frame_needed = 0, uses_anonymous_args = 0
  31 0000 10B5     		push	{r4, lr}
  32              		.cfi_def_cfa_offset 8
  33              		.cfi_offset 4, -8
  34              		.cfi_offset 14, -4
  35              		.loc 1 102 0
  36 0002 1D4C     		ldr	r4, .L7
  37              		.loc 1 96 0
  38 0004 86B0     		sub	sp, sp, #24
  39              		.cfi_def_cfa_offset 32
  40              		.loc 1 103 0
  41 0006 2046     		mov	r0, r4
  42 0008 6946     		mov	r1, sp
  43 000a 0122     		movs	r2, #1
  44              		.loc 1 102 0
  45 000c 2460     		str	r4, [r4]
  46              		.loc 1 103 0
  47 000e FFF7FEFF 		bl	chEvtRegisterMask
  48              	.LVL0:
  49              		.loc 1 104 0
  50 0012 2046     		mov	r0, r4
  51 0014 03A9     		add	r1, sp, #12
  52 0016 0222     		movs	r2, #2
  53 0018 FFF7FEFF 		bl	chEvtRegisterMask
  54              	.LVL1:
  55              		.loc 1 105 0
  56 001c 2168     		ldr	r1, [r4]
  57 001e 0120     		movs	r0, #1
ARM GAS  /tmp/cc8tOftm.s 			page 2


  58 0020 091B     		subs	r1, r1, r4
  59 0022 18BF     		it	ne
  60 0024 0121     		movne	r1, #1
  61 0026 FFF7FEFF 		bl	_test_assert
  62              	.LVL2:
  63 002a 08B1     		cbz	r0, .L6
  64              	.L1:
  65              		.loc 1 116 0
  66 002c 06B0     		add	sp, sp, #24
  67              		.cfi_remember_state
  68              		.cfi_def_cfa_offset 8
  69              		@ sp needed
  70 002e 10BD     		pop	{r4, pc}
  71              	.L6:
  72              		.cfi_restore_state
  73              		.loc 1 106 0
  74 0030 6946     		mov	r1, sp
  75 0032 2046     		mov	r0, r4
  76 0034 FFF7FEFF 		bl	chEvtUnregister
  77              	.LVL3:
  78              		.loc 1 107 0
  79 0038 2168     		ldr	r1, [r4]
  80 003a 0220     		movs	r0, #2
  81 003c 091B     		subs	r1, r1, r4
  82 003e 18BF     		it	ne
  83 0040 0121     		movne	r1, #1
  84 0042 FFF7FEFF 		bl	_test_assert
  85              	.LVL4:
  86 0046 0028     		cmp	r0, #0
  87 0048 F0D1     		bne	.L1
  88              		.loc 1 108 0
  89 004a 03A9     		add	r1, sp, #12
  90 004c 2046     		mov	r0, r4
  91 004e FFF7FEFF 		bl	chEvtUnregister
  92              	.LVL5:
  93              		.loc 1 109 0
  94 0052 2168     		ldr	r1, [r4]
  95 0054 0320     		movs	r0, #3
  96 0056 091B     		subs	r1, r1, r4
  97 0058 B1FA81F1 		clz	r1, r1
  98 005c 4909     		lsrs	r1, r1, #5
  99 005e FFF7FEFF 		bl	_test_assert
 100              	.LVL6:
 101 0062 0028     		cmp	r0, #0
 102 0064 E2D1     		bne	.L1
 103              		.loc 1 114 0
 104 0066 0548     		ldr	r0, .L7+4
 105 0068 0721     		movs	r1, #7
 106 006a FFF7FEFF 		bl	chEvtDispatch
 107              	.LVL7:
 108              		.loc 1 115 0
 109 006e 0449     		ldr	r1, .L7+8
 110 0070 0420     		movs	r0, #4
 111 0072 FFF7FEFF 		bl	_test_assert_sequence
 112              	.LVL8:
 113 0076 D9E7     		b	.L1
 114              	.L8:
ARM GAS  /tmp/cc8tOftm.s 			page 3


 115              		.align	2
 116              	.L7:
 117 0078 00000000 		.word	.LANCHOR0
 118 007c 00000000 		.word	.LANCHOR1
 119 0080 00000000 		.word	.LC0
 120              		.cfi_endproc
 121              	.LFE11:
 122              		.size	evt1_execute, .-evt1_execute
 123              		.section	.text.h3,"ax",%progbits
 124              		.align	2
 125              		.p2align 4,,15
 126              		.thumb
 127              		.thumb_func
 128              		.type	h3, %function
 129              	h3:
 130              	.LFB10:
 131              		.loc 1 93 0
 132              		.cfi_startproc
 133              		@ args = 0, pretend = 0, frame = 0
 134              		@ frame_needed = 0, uses_anonymous_args = 0
 135              		@ link register save eliminated.
 136              	.LVL9:
 137              		.loc 1 93 0
 138 0000 4320     		movs	r0, #67
 139              	.LVL10:
 140 0002 FFF7FEBF 		b	test_emit_token
 141              	.LVL11:
 142              		.cfi_endproc
 143              	.LFE10:
 144              		.size	h3, .-h3
 145 0006 00BF     		.section	.text.h2,"ax",%progbits
 146              		.align	2
 147              		.p2align 4,,15
 148              		.thumb
 149              		.thumb_func
 150              		.type	h2, %function
 151              	h2:
 152              	.LFB9:
 153              		.loc 1 92 0
 154              		.cfi_startproc
 155              		@ args = 0, pretend = 0, frame = 0
 156              		@ frame_needed = 0, uses_anonymous_args = 0
 157              		@ link register save eliminated.
 158              	.LVL12:
 159              		.loc 1 92 0
 160 0000 4220     		movs	r0, #66
 161              	.LVL13:
 162 0002 FFF7FEBF 		b	test_emit_token
 163              	.LVL14:
 164              		.cfi_endproc
 165              	.LFE9:
 166              		.size	h2, .-h2
 167 0006 00BF     		.section	.text.h1,"ax",%progbits
 168              		.align	2
 169              		.p2align 4,,15
 170              		.thumb
 171              		.thumb_func
ARM GAS  /tmp/cc8tOftm.s 			page 4


 172              		.type	h1, %function
 173              	h1:
 174              	.LFB8:
 175              		.loc 1 91 0
 176              		.cfi_startproc
 177              		@ args = 0, pretend = 0, frame = 0
 178              		@ frame_needed = 0, uses_anonymous_args = 0
 179              		@ link register save eliminated.
 180              	.LVL15:
 181              		.loc 1 91 0
 182 0000 4120     		movs	r0, #65
 183              	.LVL16:
 184 0002 FFF7FEBF 		b	test_emit_token
 185              	.LVL17:
 186              		.cfi_endproc
 187              	.LFE8:
 188              		.size	h1, .-h1
 189 0006 00BF     		.section	.text.evt1_setup,"ax",%progbits
 190              		.align	2
 191              		.p2align 4,,15
 192              		.thumb
 193              		.thumb_func
 194              		.type	evt1_setup, %function
 195              	evt1_setup:
 196              	.LFB7:
 197              		.loc 1 86 0
 198              		.cfi_startproc
 199              		@ args = 0, pretend = 0, frame = 0
 200              		@ frame_needed = 0, uses_anonymous_args = 0
 201              		@ link register save eliminated.
 202              		.loc 1 88 0
 203 0000 4FF0FF30 		mov	r0, #-1
 204 0004 FFF7FEBF 		b	chEvtClearFlags
 205              	.LVL18:
 206              		.cfi_endproc
 207              	.LFE7:
 208              		.size	evt1_setup, .-evt1_setup
 209              		.section	.text.evt2_setup,"ax",%progbits
 210              		.align	2
 211              		.p2align 4,,15
 212              		.thumb
 213              		.thumb_func
 214              		.type	evt2_setup, %function
 215              	evt2_setup:
 216              	.LFB12:
 217              		.loc 1 139 0
 218              		.cfi_startproc
 219              		@ args = 0, pretend = 0, frame = 0
 220              		@ frame_needed = 0, uses_anonymous_args = 0
 221              		@ link register save eliminated.
 222              		.loc 1 141 0
 223 0000 4FF0FF30 		mov	r0, #-1
 224 0004 FFF7FEBF 		b	chEvtClearFlags
 225              	.LVL19:
 226              		.cfi_endproc
 227              	.LFE12:
 228              		.size	evt2_setup, .-evt2_setup
ARM GAS  /tmp/cc8tOftm.s 			page 5


 229              		.section	.text.evt3_setup,"ax",%progbits
 230              		.align	2
 231              		.p2align 4,,15
 232              		.thumb
 233              		.thumb_func
 234              		.type	evt3_setup, %function
 235              	evt3_setup:
 236              	.LFB16:
 237              		.loc 1 258 0
 238              		.cfi_startproc
 239              		@ args = 0, pretend = 0, frame = 0
 240              		@ frame_needed = 0, uses_anonymous_args = 0
 241              		@ link register save eliminated.
 242              		.loc 1 260 0
 243 0000 4FF0FF30 		mov	r0, #-1
 244 0004 FFF7FEBF 		b	chEvtClearFlags
 245              	.LVL20:
 246              		.cfi_endproc
 247              	.LFE16:
 248              		.size	evt3_setup, .-evt3_setup
 249              		.section	.text.evt2_execute,"ax",%progbits
 250              		.align	2
 251              		.p2align 4,,15
 252              		.thumb
 253              		.thumb_func
 254              		.type	evt2_execute, %function
 255              	evt2_execute:
 256              	.LFB15:
 257              		.loc 1 160 0
 258              		.cfi_startproc
 259              		@ args = 0, pretend = 0, frame = 32
 260              		@ frame_needed = 0, uses_anonymous_args = 0
 261 0000 2DE9F042 		push	{r4, r5, r6, r7, r9, lr}
 262              		.cfi_def_cfa_offset 24
 263              		.cfi_offset 4, -24
 264              		.cfi_offset 5, -20
 265              		.cfi_offset 6, -16
 266              		.cfi_offset 7, -12
 267              		.cfi_offset 9, -8
 268              		.cfi_offset 14, -4
 269              		.loc 1 168 0
 270 0004 0520     		movs	r0, #5
 271              		.loc 1 160 0
 272 0006 8AB0     		sub	sp, sp, #40
 273              		.cfi_def_cfa_offset 64
 274              		.loc 1 168 0
 275 0008 FFF7FEFF 		bl	chEvtAddFlags
 276              	.LVL21:
 277              		.loc 1 169 0
 278 000c 4FF0FF30 		mov	r0, #-1
 279 0010 FFF7FEFF 		bl	chEvtWaitOne
 280              	.LVL22:
 281              		.loc 1 170 0
 282 0014 A0F10101 		sub	r1, r0, #1
 283 0018 B1FA81F1 		clz	r1, r1
 284 001c 0120     		movs	r0, #1
 285              	.LVL23:
ARM GAS  /tmp/cc8tOftm.s 			page 6


 286 001e 4909     		lsrs	r1, r1, #5
 287 0020 FFF7FEFF 		bl	_test_assert
 288              	.LVL24:
 289 0024 10B1     		cbz	r0, .L19
 290              	.L15:
 291              		.loc 1 233 0
 292 0026 0AB0     		add	sp, sp, #40
 293              		.cfi_remember_state
 294              		.cfi_def_cfa_offset 24
 295              		@ sp needed
 296 0028 BDE8F082 		pop	{r4, r5, r6, r7, r9, pc}
 297              	.L19:
 298              		.cfi_restore_state
 299              		.loc 1 171 0
 300 002c 4FF0FF30 		mov	r0, #-1
 301 0030 FFF7FEFF 		bl	chEvtWaitOne
 302              	.LVL25:
 303              		.loc 1 172 0
 304 0034 A0F10401 		sub	r1, r0, #4
 305 0038 B1FA81F1 		clz	r1, r1
 306 003c 0220     		movs	r0, #2
 307              	.LVL26:
 308 003e 4909     		lsrs	r1, r1, #5
 309 0040 FFF7FEFF 		bl	_test_assert
 310              	.LVL27:
 311 0044 0028     		cmp	r0, #0
 312 0046 EED1     		bne	.L15
 313              		.loc 1 173 0
 314 0048 4FF0FF30 		mov	r0, #-1
 315 004c FFF7FEFF 		bl	chEvtClearFlags
 316              	.LVL28:
 317              		.loc 1 174 0
 318 0050 B0FA80F1 		clz	r1, r0
 319 0054 0320     		movs	r0, #3
 320              	.LVL29:
 321 0056 4909     		lsrs	r1, r1, #5
 322 0058 FFF7FEFF 		bl	_test_assert
 323              	.LVL30:
 324 005c 0028     		cmp	r0, #0
 325 005e E2D1     		bne	.L15
 326              		.loc 1 181 0
 327 0060 704E     		ldr	r6, .L20
 328              		.loc 1 179 0
 329 0062 FFF7FEFF 		bl	test_wait_tick
 330              	.LVL31:
 331              		.loc 1 181 0
 332 0066 F369     		ldr	r3, [r6, #28]
 333 0068 6F49     		ldr	r1, .L20+4
 334 006a 9A68     		ldr	r2, [r3, #8]
 335 006c 0968     		ldr	r1, [r1]
 336              		.loc 1 180 0
 337 006e 6F4F     		ldr	r7, .L20+8
 338              		.loc 1 181 0
 339 0070 013A     		subs	r2, r2, #1
 340 0072 0093     		str	r3, [sp]
 341 0074 0391     		str	r1, [sp, #12]
 342 0076 0846     		mov	r0, r1
ARM GAS  /tmp/cc8tOftm.s 			page 7


 343 0078 6D4B     		ldr	r3, .L20+12
 344 007a 4FF49871 		mov	r1, #304
 345              		.loc 1 180 0
 346 007e FC68     		ldr	r4, [r7, #12]
 347              	.LVL32:
 348              		.loc 1 181 0
 349 0080 FFF7FEFF 		bl	chThdCreateStatic
 350              	.LVL33:
 351 0084 6B4D     		ldr	r5, .L20+16
 352 0086 2860     		str	r0, [r5]
 353              		.loc 1 183 0
 354 0088 4FF0FF30 		mov	r0, #-1
 355 008c FFF7FEFF 		bl	chEvtWaitOne
 356              	.LVL34:
 357              		.loc 1 184 0
 358 0090 04F13201 		add	r1, r4, #50
 359              	.LVL35:
 360              		.loc 1 183 0
 361 0094 8146     		mov	r9, r0
 362              	.LVL36:
 363              		.loc 1 184 0
 364 0096 04F13702 		add	r2, r4, #55
 365 009a 0420     		movs	r0, #4
 366              	.LVL37:
 367 009c FFF7FEFF 		bl	_test_assert_time_window
 368              	.LVL38:
 369 00a0 0028     		cmp	r0, #0
 370 00a2 C0D1     		bne	.L15
 371              		.loc 1 185 0
 372 00a4 A9F10101 		sub	r1, r9, #1
 373 00a8 B1FA81F1 		clz	r1, r1
 374 00ac 0520     		movs	r0, #5
 375 00ae 4909     		lsrs	r1, r1, #5
 376 00b0 FFF7FEFF 		bl	_test_assert
 377              	.LVL39:
 378 00b4 0028     		cmp	r0, #0
 379 00b6 B6D1     		bne	.L15
 380              		.loc 1 186 0
 381 00b8 4FF0FF30 		mov	r0, #-1
 382 00bc FFF7FEFF 		bl	chEvtClearFlags
 383              	.LVL40:
 384              		.loc 1 187 0
 385 00c0 B0FA80F1 		clz	r1, r0
 386 00c4 0620     		movs	r0, #6
 387              	.LVL41:
 388 00c6 4909     		lsrs	r1, r1, #5
 389 00c8 FFF7FEFF 		bl	_test_assert
 390              	.LVL42:
 391 00cc 0028     		cmp	r0, #0
 392 00ce AAD1     		bne	.L15
 393              		.loc 1 188 0
 394 00d0 FFF7FEFF 		bl	test_wait_threads
 395              	.LVL43:
 396              		.loc 1 193 0
 397 00d4 0520     		movs	r0, #5
 398 00d6 FFF7FEFF 		bl	chEvtAddFlags
 399              	.LVL44:
ARM GAS  /tmp/cc8tOftm.s 			page 8


 400              		.loc 1 194 0
 401 00da 4FF0FF30 		mov	r0, #-1
 402 00de FFF7FEFF 		bl	chEvtWaitAny
 403              	.LVL45:
 404              		.loc 1 195 0
 405 00e2 441F     		subs	r4, r0, #5
 406              	.LVL46:
 407 00e4 6142     		rsbs	r1, r4, #0
 408 00e6 6141     		adcs	r1, r1, r4
 409 00e8 0720     		movs	r0, #7
 410              	.LVL47:
 411 00ea FFF7FEFF 		bl	_test_assert
 412              	.LVL48:
 413 00ee 0028     		cmp	r0, #0
 414 00f0 99D1     		bne	.L15
 415              		.loc 1 196 0
 416 00f2 4FF0FF30 		mov	r0, #-1
 417 00f6 FFF7FEFF 		bl	chEvtClearFlags
 418              	.LVL49:
 419              		.loc 1 197 0
 420 00fa B0FA80F1 		clz	r1, r0
 421 00fe 0820     		movs	r0, #8
 422              	.LVL50:
 423 0100 4909     		lsrs	r1, r1, #5
 424 0102 FFF7FEFF 		bl	_test_assert
 425              	.LVL51:
 426 0106 0028     		cmp	r0, #0
 427 0108 8DD1     		bne	.L15
 428              		.loc 1 202 0
 429 010a FFF7FEFF 		bl	test_wait_tick
 430              	.LVL52:
 431              		.loc 1 204 0
 432 010e F369     		ldr	r3, [r6, #28]
 433 0110 4FF49871 		mov	r1, #304
 434 0114 9A68     		ldr	r2, [r3, #8]
 435 0116 0398     		ldr	r0, [sp, #12]
 436 0118 013A     		subs	r2, r2, #1
 437 011a 0093     		str	r3, [sp]
 438 011c 444B     		ldr	r3, .L20+12
 439              		.loc 1 203 0
 440 011e FC68     		ldr	r4, [r7, #12]
 441              	.LVL53:
 442              		.loc 1 204 0
 443 0120 FFF7FEFF 		bl	chThdCreateStatic
 444              	.LVL54:
 445 0124 2860     		str	r0, [r5]
 446              		.loc 1 206 0
 447 0126 4FF0FF30 		mov	r0, #-1
 448 012a FFF7FEFF 		bl	chEvtWaitAny
 449              	.LVL55:
 450              		.loc 1 207 0
 451 012e 04F13201 		add	r1, r4, #50
 452              	.LVL56:
 453              		.loc 1 206 0
 454 0132 8146     		mov	r9, r0
 455              	.LVL57:
 456              		.loc 1 207 0
ARM GAS  /tmp/cc8tOftm.s 			page 9


 457 0134 04F13702 		add	r2, r4, #55
 458 0138 0920     		movs	r0, #9
 459              	.LVL58:
 460 013a FFF7FEFF 		bl	_test_assert_time_window
 461              	.LVL59:
 462 013e 0028     		cmp	r0, #0
 463 0140 7FF471AF 		bne	.L15
 464              		.loc 1 208 0
 465 0144 09F1FF30 		add	r0, r9, #-1
 466 0148 4142     		rsbs	r1, r0, #0
 467 014a 4141     		adcs	r1, r1, r0
 468 014c 0A20     		movs	r0, #10
 469 014e FFF7FEFF 		bl	_test_assert
 470              	.LVL60:
 471 0152 0028     		cmp	r0, #0
 472 0154 7FF467AF 		bne	.L15
 473              		.loc 1 209 0
 474 0158 4FF0FF30 		mov	r0, #-1
 475 015c FFF7FEFF 		bl	chEvtClearFlags
 476              	.LVL61:
 477              		.loc 1 210 0
 478 0160 B0FA80F1 		clz	r1, r0
 479 0164 0B20     		movs	r0, #11
 480              	.LVL62:
 481 0166 4909     		lsrs	r1, r1, #5
 482 0168 FFF7FEFF 		bl	_test_assert
 483              	.LVL63:
 484 016c 0028     		cmp	r0, #0
 485 016e 7FF45AAF 		bne	.L15
 486              		.loc 1 216 0
 487 0172 DFF8D090 		ldr	r9, .L20+32
 488              		.loc 1 217 0
 489 0176 304C     		ldr	r4, .L20+20
 490              	.LVL64:
 491              		.loc 1 211 0
 492 0178 FFF7FEFF 		bl	test_wait_threads
 493              	.LVL65:
 494              		.loc 1 218 0
 495 017c 4846     		mov	r0, r9
 496 017e 04A9     		add	r1, sp, #16
 497 0180 0122     		movs	r2, #1
 498              		.loc 1 216 0
 499 0182 C9F80090 		str	r9, [r9]
 500              		.loc 1 217 0
 501 0186 2460     		str	r4, [r4]
 502              		.loc 1 218 0
 503 0188 FFF7FEFF 		bl	chEvtRegisterMask
 504              	.LVL66:
 505              		.loc 1 219 0
 506 018c 07A9     		add	r1, sp, #28
 507 018e 0422     		movs	r2, #4
 508 0190 2046     		mov	r0, r4
 509 0192 FFF7FEFF 		bl	chEvtRegisterMask
 510              	.LVL67:
 511              		.loc 1 220 0
 512 0196 FFF7FEFF 		bl	test_wait_tick
 513              	.LVL68:
ARM GAS  /tmp/cc8tOftm.s 			page 10


 514              		.loc 1 222 0
 515 019a F269     		ldr	r2, [r6, #28]
 516 019c 274B     		ldr	r3, .L20+24
 517 019e 9268     		ldr	r2, [r2, #8]
 518 01a0 4FF49871 		mov	r1, #304
 519 01a4 013A     		subs	r2, r2, #1
 520 01a6 0093     		str	r3, [sp]
 521 01a8 0398     		ldr	r0, [sp, #12]
 522 01aa 254B     		ldr	r3, .L20+28
 523              		.loc 1 221 0
 524 01ac FE68     		ldr	r6, [r7, #12]
 525              	.LVL69:
 526              		.loc 1 222 0
 527 01ae FFF7FEFF 		bl	chThdCreateStatic
 528              	.LVL70:
 529 01b2 2860     		str	r0, [r5]
 530              		.loc 1 224 0
 531 01b4 0520     		movs	r0, #5
 532 01b6 FFF7FEFF 		bl	chEvtWaitAll
 533              	.LVL71:
 534              		.loc 1 225 0
 535 01ba 06F13201 		add	r1, r6, #50
 536              	.LVL72:
 537 01be 06F13702 		add	r2, r6, #55
 538 01c2 0C20     		movs	r0, #12
 539 01c4 FFF7FEFF 		bl	_test_assert_time_window
 540              	.LVL73:
 541 01c8 0028     		cmp	r0, #0
 542 01ca 7FF42CAF 		bne	.L15
 543              		.loc 1 226 0
 544 01ce 4FF0FF30 		mov	r0, #-1
 545 01d2 FFF7FEFF 		bl	chEvtClearFlags
 546              	.LVL74:
 547              		.loc 1 227 0
 548 01d6 B0FA80F1 		clz	r1, r0
 549 01da 0D20     		movs	r0, #13
 550              	.LVL75:
 551 01dc 4909     		lsrs	r1, r1, #5
 552 01de FFF7FEFF 		bl	_test_assert
 553              	.LVL76:
 554 01e2 0028     		cmp	r0, #0
 555 01e4 7FF41FAF 		bne	.L15
 556              		.loc 1 228 0
 557 01e8 FFF7FEFF 		bl	test_wait_threads
 558              	.LVL77:
 559              		.loc 1 229 0
 560 01ec 4846     		mov	r0, r9
 561 01ee 04A9     		add	r1, sp, #16
 562 01f0 FFF7FEFF 		bl	chEvtUnregister
 563              	.LVL78:
 564              		.loc 1 230 0
 565 01f4 2046     		mov	r0, r4
 566 01f6 07A9     		add	r1, sp, #28
 567 01f8 FFF7FEFF 		bl	chEvtUnregister
 568              	.LVL79:
 569              		.loc 1 231 0
 570 01fc D9F80010 		ldr	r1, [r9]
ARM GAS  /tmp/cc8tOftm.s 			page 11


 571 0200 0E20     		movs	r0, #14
 572 0202 C9EB0102 		rsb	r2, r9, r1
 573 0206 5142     		rsbs	r1, r2, #0
 574 0208 5141     		adcs	r1, r1, r2
 575 020a FFF7FEFF 		bl	_test_assert
 576              	.LVL80:
 577 020e 0028     		cmp	r0, #0
 578 0210 7FF409AF 		bne	.L15
 579              		.loc 1 232 0
 580 0214 2168     		ldr	r1, [r4]
 581 0216 0F20     		movs	r0, #15
 582 0218 0B1B     		subs	r3, r1, r4
 583 021a 5942     		rsbs	r1, r3, #0
 584 021c 5941     		adcs	r1, r1, r3
 585 021e FFF7FEFF 		bl	_test_assert
 586              	.LVL81:
 587 0222 00E7     		b	.L15
 588              	.L21:
 589              		.align	2
 590              	.L20:
 591 0224 00000000 		.word	rlist
 592 0228 00000000 		.word	wa
 593 022c 00000000 		.word	vtlist
 594 0230 00000000 		.word	thread1
 595 0234 00000000 		.word	threads
 596 0238 00000000 		.word	.LANCHOR2
 597 023c 04000000 		.word	.LC1
 598 0240 00000000 		.word	thread2
 599 0244 00000000 		.word	.LANCHOR0
 600              		.cfi_endproc
 601              	.LFE15:
 602              		.size	evt2_execute, .-evt2_execute
 603              		.section	.text.thread2,"ax",%progbits
 604              		.align	2
 605              		.p2align 4,,15
 606              		.thumb
 607              		.thumb_func
 608              		.type	thread2, %function
 609              	thread2:
 610              	.LFB14:
 611              		.loc 1 151 0
 612              		.cfi_startproc
 613              		@ args = 0, pretend = 0, frame = 0
 614              		@ frame_needed = 0, uses_anonymous_args = 0
 615              	.LVL82:
 616 0000 08B5     		push	{r3, lr}
 617              		.cfi_def_cfa_offset 8
 618              		.cfi_offset 3, -8
 619              		.cfi_offset 14, -4
 620              		.loc 1 154 0
 621 0002 0021     		movs	r1, #0
 622 0004 0548     		ldr	r0, .L24
 623              	.LVL83:
 624 0006 FFF7FEFF 		bl	chEvtBroadcastFlags
 625              	.LVL84:
 626              		.loc 1 155 0
 627 000a 3220     		movs	r0, #50
ARM GAS  /tmp/cc8tOftm.s 			page 12


 628 000c FFF7FEFF 		bl	chThdSleep
 629              	.LVL85:
 630              		.loc 1 156 0
 631 0010 0348     		ldr	r0, .L24+4
 632 0012 0021     		movs	r1, #0
 633 0014 FFF7FEFF 		bl	chEvtBroadcastFlags
 634              	.LVL86:
 635              		.loc 1 158 0
 636 0018 0020     		movs	r0, #0
 637 001a 08BD     		pop	{r3, pc}
 638              	.L25:
 639              		.align	2
 640              	.L24:
 641 001c 00000000 		.word	.LANCHOR0
 642 0020 00000000 		.word	.LANCHOR2
 643              		.cfi_endproc
 644              	.LFE14:
 645              		.size	thread2, .-thread2
 646              		.section	.text.thread1,"ax",%progbits
 647              		.align	2
 648              		.p2align 4,,15
 649              		.thumb
 650              		.thumb_func
 651              		.type	thread1, %function
 652              	thread1:
 653              	.LFB13:
 654              		.loc 1 144 0
 655              		.cfi_startproc
 656              		@ args = 0, pretend = 0, frame = 0
 657              		@ frame_needed = 0, uses_anonymous_args = 0
 658              	.LVL87:
 659 0000 10B5     		push	{r4, lr}
 660              		.cfi_def_cfa_offset 8
 661              		.cfi_offset 4, -8
 662              		.cfi_offset 14, -4
 663              		.loc 1 144 0
 664 0002 0446     		mov	r4, r0
 665              		.loc 1 146 0
 666 0004 3220     		movs	r0, #50
 667              	.LVL88:
 668 0006 FFF7FEFF 		bl	chThdSleep
 669              	.LVL89:
 670              		.loc 1 147 0
 671 000a 2046     		mov	r0, r4
 672 000c 0121     		movs	r1, #1
 673 000e FFF7FEFF 		bl	chEvtSignalFlags
 674              	.LVL90:
 675              		.loc 1 149 0
 676 0012 0020     		movs	r0, #0
 677 0014 10BD     		pop	{r4, pc}
 678              		.cfi_endproc
 679              	.LFE13:
 680              		.size	thread1, .-thread1
 681 0016 00BF     		.section	.text.evt3_execute,"ax",%progbits
 682              		.align	2
 683              		.p2align 4,,15
 684              		.thumb
ARM GAS  /tmp/cc8tOftm.s 			page 13


 685              		.thumb_func
 686              		.type	evt3_execute, %function
 687              	evt3_execute:
 688              	.LFB17:
 689              		.loc 1 263 0
 690              		.cfi_startproc
 691              		@ args = 0, pretend = 0, frame = 0
 692              		@ frame_needed = 0, uses_anonymous_args = 0
 693 0000 08B5     		push	{r3, lr}
 694              		.cfi_def_cfa_offset 8
 695              		.cfi_offset 3, -8
 696              		.cfi_offset 14, -4
 697              		.loc 1 269 0
 698 0002 0021     		movs	r1, #0
 699 0004 4FF0FF30 		mov	r0, #-1
 700 0008 FFF7FEFF 		bl	chEvtWaitOneTimeout
 701              	.LVL91:
 702              		.loc 1 270 0
 703 000c B0FA80F1 		clz	r1, r0
 704 0010 0120     		movs	r0, #1
 705              	.LVL92:
 706 0012 4909     		lsrs	r1, r1, #5
 707 0014 FFF7FEFF 		bl	_test_assert
 708              	.LVL93:
 709 0018 00B1     		cbz	r0, .L33
 710              	.L28:
 711 001a 08BD     		pop	{r3, pc}
 712              	.L33:
 713              		.loc 1 271 0
 714 001c 0146     		mov	r1, r0
 715 001e 4FF0FF30 		mov	r0, #-1
 716 0022 FFF7FEFF 		bl	chEvtWaitAnyTimeout
 717              	.LVL94:
 718              		.loc 1 272 0
 719 0026 B0FA80F1 		clz	r1, r0
 720 002a 0220     		movs	r0, #2
 721              	.LVL95:
 722 002c 4909     		lsrs	r1, r1, #5
 723 002e FFF7FEFF 		bl	_test_assert
 724              	.LVL96:
 725 0032 0028     		cmp	r0, #0
 726 0034 F1D1     		bne	.L28
 727              		.loc 1 273 0
 728 0036 0146     		mov	r1, r0
 729 0038 4FF0FF30 		mov	r0, #-1
 730 003c FFF7FEFF 		bl	chEvtWaitAllTimeout
 731              	.LVL97:
 732              		.loc 1 274 0
 733 0040 B0FA80F1 		clz	r1, r0
 734 0044 0320     		movs	r0, #3
 735              	.LVL98:
 736 0046 4909     		lsrs	r1, r1, #5
 737 0048 FFF7FEFF 		bl	_test_assert
 738              	.LVL99:
 739 004c 0028     		cmp	r0, #0
 740 004e E4D1     		bne	.L28
 741              	.LBB4:
ARM GAS  /tmp/cc8tOftm.s 			page 14


 742              	.LBB5:
 743              		.loc 1 275 0
 744 0050 0A21     		movs	r1, #10
 745 0052 4FF0FF30 		mov	r0, #-1
 746 0056 FFF7FEFF 		bl	chEvtWaitOneTimeout
 747              	.LVL100:
 748              		.loc 1 276 0
 749 005a B0FA80F1 		clz	r1, r0
 750 005e 0420     		movs	r0, #4
 751              	.LVL101:
 752 0060 4909     		lsrs	r1, r1, #5
 753 0062 FFF7FEFF 		bl	_test_assert
 754              	.LVL102:
 755 0066 0028     		cmp	r0, #0
 756 0068 D7D1     		bne	.L28
 757              		.loc 1 277 0
 758 006a 0A21     		movs	r1, #10
 759 006c 4FF0FF30 		mov	r0, #-1
 760 0070 FFF7FEFF 		bl	chEvtWaitAnyTimeout
 761              	.LVL103:
 762              		.loc 1 278 0
 763 0074 B0FA80F1 		clz	r1, r0
 764 0078 0520     		movs	r0, #5
 765              	.LVL104:
 766 007a 4909     		lsrs	r1, r1, #5
 767 007c FFF7FEFF 		bl	_test_assert
 768              	.LVL105:
 769 0080 0028     		cmp	r0, #0
 770 0082 CAD1     		bne	.L28
 771              		.loc 1 279 0
 772 0084 0A21     		movs	r1, #10
 773 0086 4FF0FF30 		mov	r0, #-1
 774 008a FFF7FEFF 		bl	chEvtWaitAllTimeout
 775              	.LVL106:
 776              	.LBE5:
 777              	.LBE4:
 778              		.loc 1 281 0
 779 008e BDE80840 		pop	{r3, lr}
 780              		.cfi_restore 14
 781              		.cfi_restore 3
 782              		.cfi_def_cfa_offset 0
 783              	.LBB7:
 784              	.LBB6:
 785              		.loc 1 280 0
 786 0092 B0FA80F1 		clz	r1, r0
 787 0096 0620     		movs	r0, #6
 788              	.LVL107:
 789 0098 4909     		lsrs	r1, r1, #5
 790 009a FFF7FEBF 		b	_test_assert
 791              	.LVL108:
 792              	.LBE6:
 793              	.LBE7:
 794              		.cfi_endproc
 795              	.LFE17:
 796              		.size	evt3_execute, .-evt3_execute
 797              		.global	patternevt
 798              		.global	testevt3
ARM GAS  /tmp/cc8tOftm.s 			page 15


 799              		.global	testevt2
 800              		.global	testevt1
 801              		.section	.rodata.patternevt,"a",%progbits
 802              		.align	2
 803              		.type	patternevt, %object
 804              		.size	patternevt, 16
 805              	patternevt:
 806 0000 00000000 		.word	testevt1
 807 0004 00000000 		.word	testevt2
 808 0008 00000000 		.word	testevt3
 809 000c 00000000 		.word	0
 810              		.section	.rodata.testevt2,"a",%progbits
 811              		.align	2
 812              		.type	testevt2, %object
 813              		.size	testevt2, 16
 814              	testevt2:
 815 0000 1C000000 		.word	.LC3
 816 0004 00000000 		.word	evt2_setup
 817 0008 00000000 		.word	0
 818 000c 00000000 		.word	evt2_execute
 819              		.section	.rodata.str1.4,"aMS",%progbits,1
 820              		.align	2
 821              	.LC0:
 822 0000 41424300 		.ascii	"ABC\000"
 823              	.LC1:
 824 0004 4100     		.ascii	"A\000"
 825 0006 0000     		.space	2
 826              	.LC2:
 827 0008 4576656E 		.ascii	"Events, timeouts\000"
 827      74732C20 
 827      74696D65 
 827      6F757473 
 827      00
 828 0019 000000   		.space	3
 829              	.LC3:
 830 001c 4576656E 		.ascii	"Events, wait and broadcast\000"
 830      74732C20 
 830      77616974 
 830      20616E64 
 830      2062726F 
 831 0037 00       		.space	1
 832              	.LC4:
 833 0038 4576656E 		.ascii	"Events, registration and dispatch\000"
 833      74732C20 
 833      72656769 
 833      73747261 
 833      74696F6E 
 834              		.section	.rodata.testevt1,"a",%progbits
 835              		.align	2
 836              		.type	testevt1, %object
 837              		.size	testevt1, 16
 838              	testevt1:
 839 0000 38000000 		.word	.LC4
 840 0004 00000000 		.word	evt1_setup
 841 0008 00000000 		.word	0
 842 000c 00000000 		.word	evt1_execute
 843              		.section	.rodata.evhndl,"a",%progbits
ARM GAS  /tmp/cc8tOftm.s 			page 16


 844              		.align	2
 845              		.set	.LANCHOR1,. + 0
 846              		.type	evhndl, %object
 847              		.size	evhndl, 12
 848              	evhndl:
 849 0000 00000000 		.word	h1
 850 0004 00000000 		.word	h2
 851 0008 00000000 		.word	h3
 852              		.section	.rodata.testevt3,"a",%progbits
 853              		.align	2
 854              		.type	testevt3, %object
 855              		.size	testevt3, 16
 856              	testevt3:
 857 0000 08000000 		.word	.LC2
 858 0004 00000000 		.word	evt3_setup
 859 0008 00000000 		.word	0
 860 000c 00000000 		.word	evt3_execute
 861              		.section	.data.es1,"aw",%progbits
 862              		.align	2
 863              		.set	.LANCHOR0,. + 0
 864              		.type	es1, %object
 865              		.size	es1, 4
 866              	es1:
 867 0000 00000000 		.word	es1
 868              		.section	.data.es2,"aw",%progbits
 869              		.align	2
 870              		.set	.LANCHOR2,. + 0
 871              		.type	es2, %object
 872              		.size	es2, 4
 873              	es2:
 874 0000 00000000 		.word	es2
 875              		.text
 876              	.Letext0:
 877              		.file 2 "/home/leoperez/Documents/acuerol-stamp_repo-9ea99115aa86/gcc-arm-none-eabi-4_9-2015q3/lib
 878              		.file 3 "/home/leoperez/Documents/acuerol-stamp_repo-9ea99115aa86/gcc-arm-none-eabi-4_9-2015q3/arm
 879              		.file 4 "/home/leoperez/Documents/acuerol-stamp_repo-9ea99115aa86/gcc-arm-none-eabi-4_9-2015q3/arm
 880              		.file 5 "/home/leoperez/Documents/acuerol-stamp_repo-9ea99115aa86/files/code/ext/ChibiOS/os/ports/
 881              		.file 6 "/home/leoperez/Documents/acuerol-stamp_repo-9ea99115aa86/files/code/ext/ChibiOS/os/kernel
 882              		.file 7 "/home/leoperez/Documents/acuerol-stamp_repo-9ea99115aa86/files/code/ext/ChibiOS/os/kernel
 883              		.file 8 "/home/leoperez/Documents/acuerol-stamp_repo-9ea99115aa86/files/code/ext/ChibiOS/os/ports/
 884              		.file 9 "/home/leoperez/Documents/acuerol-stamp_repo-9ea99115aa86/files/code/ext/ChibiOS/os/kernel
 885              		.file 10 "/home/leoperez/Documents/acuerol-stamp_repo-9ea99115aa86/files/code/ext/ChibiOS/os/kerne
 886              		.file 11 "/home/leoperez/Documents/acuerol-stamp_repo-9ea99115aa86/files/code/ext/ChibiOS/os/kerne
 887              		.file 12 "/home/leoperez/Documents/acuerol-stamp_repo-9ea99115aa86/files/code/ext/ChibiOS/os/kerne
 888              		.file 13 "/home/leoperez/Documents/acuerol-stamp_repo-9ea99115aa86/files/code/ext/ChibiOS/test/tes