ARM GAS  /tmp/ccrAilSt.s 			page 1


   1              		.syntax unified
   2              		.cpu cortex-m3
   3              		.fpu softvfp
   4              		.eabi_attribute 20, 1
   5              		.eabi_attribute 21, 1
   6              		.eabi_attribute 23, 3
   7              		.eabi_attribute 24, 1
   8              		.eabi_attribute 25, 1
   9              		.eabi_attribute 26, 1
  10              		.eabi_attribute 30, 2
  11              		.eabi_attribute 34, 1
  12              		.eabi_attribute 18, 4
  13              		.thumb
  14              		.file	"testmtx.c"
  15              		.text
  16              	.Ltext0:
  17              		.cfi_sections	.debug_frame
  18              		.section	.text.mtx1_execute,"ax",%progbits
  19              		.align	2
  20              		.p2align 4,,15
  21              		.thumb
  22              		.thumb_func
  23              		.type	mtx1_execute, %function
  24              	mtx1_execute:
  25              	.LFB9:
  26              		.file 1 "/home/nicolas/Escritorio/Embebidos/stamp_repo/files/code/ext/ChibiOS/test/testmtx.c"
  27              		.loc 1 108 0
  28              		.cfi_startproc
  29              		@ args = 0, pretend = 0, frame = 0
  30              		@ frame_needed = 0, uses_anonymous_args = 0
  31 0000 F0B5     		push	{r4, r5, r6, r7, lr}
  32              		.cfi_def_cfa_offset 20
  33              		.cfi_offset 4, -20
  34              		.cfi_offset 5, -16
  35              		.cfi_offset 6, -12
  36              		.cfi_offset 7, -8
  37              		.cfi_offset 14, -4
  38              		.loc 1 110 0
  39 0002 2B4F     		ldr	r7, .L6
  40              		.loc 1 108 0
  41 0004 83B0     		sub	sp, sp, #12
  42              		.cfi_def_cfa_offset 32
  43              		.loc 1 110 0
  44 0006 FB69     		ldr	r3, [r7, #28]
  45              		.loc 1 111 0
  46 0008 2A48     		ldr	r0, .L6+4
  47              		.loc 1 110 0
  48 000a 9C68     		ldr	r4, [r3, #8]
  49              	.LVL0:
  50              		.loc 1 112 0
  51 000c 2A4E     		ldr	r6, .L6+8
  52              		.loc 1 111 0
  53 000e FFF7FEFF 		bl	chMtxLock
  54              	.LVL1:
  55              		.loc 1 112 0
  56 0012 2A4B     		ldr	r3, .L6+12
  57 0014 621C     		adds	r2, r4, #1
ARM GAS  /tmp/ccrAilSt.s 			page 2


  58 0016 0093     		str	r3, [sp]
  59 0018 4FF49871 		mov	r1, #304
  60 001c 284B     		ldr	r3, .L6+16
  61 001e 3068     		ldr	r0, [r6]
  62 0020 FFF7FEFF 		bl	chThdCreateStatic
  63              	.LVL2:
  64 0024 274D     		ldr	r5, .L6+20
  65              		.loc 1 113 0
  66 0026 7168     		ldr	r1, [r6, #4]
  67 0028 274B     		ldr	r3, .L6+24
  68              		.loc 1 112 0
  69 002a 2860     		str	r0, [r5]
  70              		.loc 1 113 0
  71 002c A21C     		adds	r2, r4, #2
  72 002e 0846     		mov	r0, r1
  73 0030 0093     		str	r3, [sp]
  74 0032 4FF49871 		mov	r1, #304
  75 0036 224B     		ldr	r3, .L6+16
  76 0038 FFF7FEFF 		bl	chThdCreateStatic
  77              	.LVL3:
  78              		.loc 1 114 0
  79 003c B168     		ldr	r1, [r6, #8]
  80 003e 234B     		ldr	r3, .L6+28
  81              		.loc 1 113 0
  82 0040 6860     		str	r0, [r5, #4]
  83              		.loc 1 114 0
  84 0042 E21C     		adds	r2, r4, #3
  85 0044 0846     		mov	r0, r1
  86 0046 0093     		str	r3, [sp]
  87 0048 4FF49871 		mov	r1, #304
  88 004c 1C4B     		ldr	r3, .L6+16
  89 004e FFF7FEFF 		bl	chThdCreateStatic
  90              	.LVL4:
  91              		.loc 1 115 0
  92 0052 F168     		ldr	r1, [r6, #12]
  93 0054 1E4B     		ldr	r3, .L6+32
  94              		.loc 1 114 0
  95 0056 A860     		str	r0, [r5, #8]
  96              		.loc 1 115 0
  97 0058 221D     		adds	r2, r4, #4
  98 005a 0846     		mov	r0, r1
  99 005c 0093     		str	r3, [sp]
 100 005e 4FF49871 		mov	r1, #304
 101 0062 174B     		ldr	r3, .L6+16
 102 0064 FFF7FEFF 		bl	chThdCreateStatic
 103              	.LVL5:
 104              		.loc 1 116 0
 105 0068 3169     		ldr	r1, [r6, #16]
 106 006a 1A4B     		ldr	r3, .L6+36
 107 006c 621D     		adds	r2, r4, #5
 108              		.loc 1 115 0
 109 006e E860     		str	r0, [r5, #12]
 110              		.loc 1 116 0
 111 0070 0093     		str	r3, [sp]
 112 0072 0846     		mov	r0, r1
 113 0074 124B     		ldr	r3, .L6+16
 114 0076 4FF49871 		mov	r1, #304
ARM GAS  /tmp/ccrAilSt.s 			page 3


 115 007a FFF7FEFF 		bl	chThdCreateStatic
 116              	.LVL6:
 117 007e 2861     		str	r0, [r5, #16]
 118              		.loc 1 117 0
 119 0080 FFF7FEFF 		bl	chMtxUnlock
 120              	.LVL7:
 121              		.loc 1 118 0
 122 0084 FFF7FEFF 		bl	test_wait_threads
 123              	.LVL8:
 124              		.loc 1 119 0
 125 0088 FB69     		ldr	r3, [r7, #28]
 126 008a 0120     		movs	r0, #1
 127 008c 9968     		ldr	r1, [r3, #8]
 128 008e 091B     		subs	r1, r1, r4
 129 0090 B1FA81F1 		clz	r1, r1
 130 0094 4909     		lsrs	r1, r1, #5
 131 0096 FFF7FEFF 		bl	_test_assert
 132              	.LVL9:
 133 009a 08B1     		cbz	r0, .L5
 134              		.loc 1 121 0
 135 009c 03B0     		add	sp, sp, #12
 136              		.cfi_remember_state
 137              		.cfi_def_cfa_offset 20
 138              		@ sp needed
 139 009e F0BD     		pop	{r4, r5, r6, r7, pc}
 140              	.LVL10:
 141              	.L5:
 142              		.cfi_restore_state
 143              		.loc 1 120 0
 144 00a0 0D49     		ldr	r1, .L6+40
 145 00a2 0220     		movs	r0, #2
 146              		.loc 1 121 0
 147 00a4 03B0     		add	sp, sp, #12
 148              		.cfi_def_cfa_offset 20
 149              		@ sp needed
 150 00a6 BDE8F040 		pop	{r4, r5, r6, r7, lr}
 151              		.cfi_restore 14
 152              		.cfi_restore 7
 153              		.cfi_restore 6
 154              		.cfi_restore 5
 155              		.cfi_restore 4
 156              		.cfi_def_cfa_offset 0
 157              	.LVL11:
 158              		.loc 1 120 0
 159 00aa FFF7FEBF 		b	_test_assert_sequence
 160              	.LVL12:
 161              	.L7:
 162 00ae 00BF     		.align	2
 163              	.L6:
 164 00b0 00000000 		.word	rlist
 165 00b4 00000000 		.word	.LANCHOR0
 166 00b8 00000000 		.word	wa
 167 00bc 00000000 		.word	.LC0
 168 00c0 00000000 		.word	thread1
 169 00c4 00000000 		.word	threads
 170 00c8 04000000 		.word	.LC1
 171 00cc 08000000 		.word	.LC2
ARM GAS  /tmp/ccrAilSt.s 			page 4


 172 00d0 0C000000 		.word	.LC3
 173 00d4 10000000 		.word	.LC4
 174 00d8 14000000 		.word	.LC5
 175              		.cfi_endproc
 176              	.LFE9:
 177              		.size	mtx1_execute, .-mtx1_execute
 178              		.section	.text.thread1,"ax",%progbits
 179              		.align	2
 180              		.p2align 4,,15
 181              		.thumb
 182              		.thumb_func
 183              		.type	thread1, %function
 184              	thread1:
 185              	.LFB8:
 186              		.loc 1 100 0
 187              		.cfi_startproc
 188              		@ args = 0, pretend = 0, frame = 0
 189              		@ frame_needed = 0, uses_anonymous_args = 0
 190              	.LVL13:
 191 0000 10B5     		push	{r4, lr}
 192              		.cfi_def_cfa_offset 8
 193              		.cfi_offset 4, -8
 194              		.cfi_offset 14, -4
 195              		.loc 1 100 0
 196 0002 0446     		mov	r4, r0
 197              		.loc 1 102 0
 198 0004 0448     		ldr	r0, .L10
 199              	.LVL14:
 200 0006 FFF7FEFF 		bl	chMtxLock
 201              	.LVL15:
 202              		.loc 1 103 0
 203 000a 2078     		ldrb	r0, [r4]	@ zero_extendqisi2
 204 000c FFF7FEFF 		bl	test_emit_token
 205              	.LVL16:
 206              		.loc 1 104 0
 207 0010 FFF7FEFF 		bl	chMtxUnlock
 208              	.LVL17:
 209              		.loc 1 106 0
 210 0014 0020     		movs	r0, #0
 211 0016 10BD     		pop	{r4, pc}
 212              	.LVL18:
 213              	.L11:
 214              		.align	2
 215              	.L10:
 216 0018 00000000 		.word	.LANCHOR0
 217              		.cfi_endproc
 218              	.LFE8:
 219              		.size	thread1, .-thread1
 220              		.section	.text.thread12,"ax",%progbits
 221              		.align	2
 222              		.p2align 4,,15
 223              		.thumb
 224              		.thumb_func
 225              		.type	thread12, %function
 226              	thread12:
 227              	.LFB35:
 228              		.loc 1 598 0
ARM GAS  /tmp/ccrAilSt.s 			page 5


 229              		.cfi_startproc
 230              		@ args = 0, pretend = 0, frame = 0
 231              		@ frame_needed = 0, uses_anonymous_args = 0
 232              	.LVL19:
 233 0000 10B5     		push	{r4, lr}
 234              		.cfi_def_cfa_offset 8
 235              		.cfi_offset 4, -8
 236              		.cfi_offset 14, -4
 237              		.loc 1 598 0
 238 0002 0446     		mov	r4, r0
 239              		.loc 1 600 0
 240 0004 0448     		ldr	r0, .L14
 241              	.LVL20:
 242 0006 FFF7FEFF 		bl	chMtxLock
 243              	.LVL21:
 244              		.loc 1 601 0
 245 000a 2078     		ldrb	r0, [r4]	@ zero_extendqisi2
 246 000c FFF7FEFF 		bl	test_emit_token
 247              	.LVL22:
 248              		.loc 1 602 0
 249 0010 FFF7FEFF 		bl	chMtxUnlock
 250              	.LVL23:
 251              		.loc 1 604 0
 252 0014 0020     		movs	r0, #0
 253 0016 10BD     		pop	{r4, pc}
 254              	.LVL24:
 255              	.L15:
 256              		.align	2
 257              	.L14:
 258 0018 00000000 		.word	.LANCHOR1
 259              		.cfi_endproc
 260              	.LFE35:
 261              		.size	thread12, .-thread12
 262              		.section	.text.mtx1_setup,"ax",%progbits
 263              		.align	2
 264              		.p2align 4,,15
 265              		.thumb
 266              		.thumb_func
 267              		.type	mtx1_setup, %function
 268              	mtx1_setup:
 269              	.LFB7:
 270              		.loc 1 95 0
 271              		.cfi_startproc
 272              		@ args = 0, pretend = 0, frame = 0
 273              		@ frame_needed = 0, uses_anonymous_args = 0
 274              		@ link register save eliminated.
 275              		.loc 1 97 0
 276 0000 0148     		ldr	r0, .L17
 277 0002 FFF7FEBF 		b	chMtxInit
 278              	.LVL25:
 279              	.L18:
 280 0006 00BF     		.align	2
 281              	.L17:
 282 0008 00000000 		.word	.LANCHOR0
 283              		.cfi_endproc
 284              	.LFE7:
 285              		.size	mtx1_setup, .-mtx1_setup
ARM GAS  /tmp/ccrAilSt.s 			page 6


 286              		.section	.text.mtx2_setup,"ax",%progbits
 287              		.align	2
 288              		.p2align 4,,15
 289              		.thumb
 290              		.thumb_func
 291              		.type	mtx2_setup, %function
 292              	mtx2_setup:
 293              	.LFB10:
 294              		.loc 1 162 0
 295              		.cfi_startproc
 296              		@ args = 0, pretend = 0, frame = 0
 297              		@ frame_needed = 0, uses_anonymous_args = 0
 298              		@ link register save eliminated.
 299              		.loc 1 164 0
 300 0000 0148     		ldr	r0, .L20
 301 0002 FFF7FEBF 		b	chMtxInit
 302              	.LVL26:
 303              	.L21:
 304 0006 00BF     		.align	2
 305              	.L20:
 306 0008 00000000 		.word	.LANCHOR0
 307              		.cfi_endproc
 308              	.LFE10:
 309              		.size	mtx2_setup, .-mtx2_setup
 310              		.section	.text.mtx3_setup,"ax",%progbits
 311              		.align	2
 312              		.p2align 4,,15
 313              		.thumb
 314              		.thumb_func
 315              		.type	mtx3_setup, %function
 316              	mtx3_setup:
 317              	.LFB15:
 318              		.loc 1 252 0
 319              		.cfi_startproc
 320              		@ args = 0, pretend = 0, frame = 0
 321              		@ frame_needed = 0, uses_anonymous_args = 0
 322 0000 08B5     		push	{r3, lr}
 323              		.cfi_def_cfa_offset 8
 324              		.cfi_offset 3, -8
 325              		.cfi_offset 14, -4
 326              		.loc 1 254 0
 327 0002 0448     		ldr	r0, .L24
 328 0004 FFF7FEFF 		bl	chMtxInit
 329              	.LVL27:
 330              		.loc 1 256 0
 331 0008 BDE80840 		pop	{r3, lr}
 332              		.cfi_restore 14
 333              		.cfi_restore 3
 334              		.cfi_def_cfa_offset 0
 335              		.loc 1 255 0
 336 000c 0248     		ldr	r0, .L24+4
 337 000e FFF7FEBF 		b	chMtxInit
 338              	.LVL28:
 339              	.L25:
 340 0012 00BF     		.align	2
 341              	.L24:
 342 0014 00000000 		.word	.LANCHOR0
ARM GAS  /tmp/ccrAilSt.s 			page 7


 343 0018 00000000 		.word	.LANCHOR1
 344              		.cfi_endproc
 345              	.LFE15:
 346              		.size	mtx3_setup, .-mtx3_setup
 347              		.section	.text.mtx4_setup,"ax",%progbits
 348              		.align	2
 349              		.p2align 4,,15
 350              		.thumb
 351              		.thumb_func
 352              		.type	mtx4_setup, %function
 353              	mtx4_setup:
 354              	.LFB22:
 355              		.loc 1 352 0
 356              		.cfi_startproc
 357              		@ args = 0, pretend = 0, frame = 0
 358              		@ frame_needed = 0, uses_anonymous_args = 0
 359 0000 08B5     		push	{r3, lr}
 360              		.cfi_def_cfa_offset 8
 361              		.cfi_offset 3, -8
 362              		.cfi_offset 14, -4
 363              		.loc 1 354 0
 364 0002 0448     		ldr	r0, .L28
 365 0004 FFF7FEFF 		bl	chMtxInit
 366              	.LVL29:
 367              		.loc 1 356 0
 368 0008 BDE80840 		pop	{r3, lr}
 369              		.cfi_restore 14
 370              		.cfi_restore 3
 371              		.cfi_def_cfa_offset 0
 372              		.loc 1 355 0
 373 000c 0248     		ldr	r0, .L28+4
 374 000e FFF7FEBF 		b	chMtxInit
 375              	.LVL30:
 376              	.L29:
 377 0012 00BF     		.align	2
 378              	.L28:
 379 0014 00000000 		.word	.LANCHOR0
 380 0018 00000000 		.word	.LANCHOR1
 381              		.cfi_endproc
 382              	.LFE22:
 383              		.size	mtx4_setup, .-mtx4_setup
 384              		.section	.text.mtx5_setup,"ax",%progbits
 385              		.align	2
 386              		.p2align 4,,15
 387              		.thumb
 388              		.thumb_func
 389              		.type	mtx5_setup, %function
 390              	mtx5_setup:
 391              	.LFB26:
 392              		.loc 1 439 0
 393              		.cfi_startproc
 394              		@ args = 0, pretend = 0, frame = 0
 395              		@ frame_needed = 0, uses_anonymous_args = 0
 396              		@ link register save eliminated.
 397              		.loc 1 441 0
 398 0000 0148     		ldr	r0, .L31
 399 0002 FFF7FEBF 		b	chMtxInit
ARM GAS  /tmp/ccrAilSt.s 			page 8


 400              	.LVL31:
 401              	.L32:
 402 0006 00BF     		.align	2
 403              	.L31:
 404 0008 00000000 		.word	.LANCHOR0
 405              		.cfi_endproc
 406              	.LFE26:
 407              		.size	mtx5_setup, .-mtx5_setup
 408              		.section	.text.mtx2_execute,"ax",%progbits
 409              		.align	2
 410              		.p2align 4,,15
 411              		.thumb
 412              		.thumb_func
 413              		.type	mtx2_execute, %function
 414              	mtx2_execute:
 415              	.LFB14:
 416              		.loc 1 201 0
 417              		.cfi_startproc
 418              		@ args = 0, pretend = 0, frame = 0
 419              		@ frame_needed = 0, uses_anonymous_args = 0
 420 0000 2DE9F041 		push	{r4, r5, r6, r7, r8, lr}
 421              		.cfi_def_cfa_offset 24
 422              		.cfi_offset 4, -24
 423              		.cfi_offset 5, -20
 424              		.cfi_offset 6, -16
 425              		.cfi_offset 7, -12
 426              		.cfi_offset 8, -8
 427              		.cfi_offset 14, -4
 428              		.loc 1 206 0
 429 0004 204F     		ldr	r7, .L37
 430              		.loc 1 201 0
 431 0006 82B0     		sub	sp, sp, #8
 432              		.cfi_def_cfa_offset 32
 433              		.loc 1 204 0
 434 0008 FFF7FEFF 		bl	test_wait_tick
 435              	.LVL32:
 436              		.loc 1 206 0
 437 000c FB69     		ldr	r3, [r7, #28]
 438 000e 1F4E     		ldr	r6, .L37+4
 439 0010 9A68     		ldr	r2, [r3, #8]
 440 0012 0025     		movs	r5, #0
 441              		.loc 1 205 0
 442 0014 1E4C     		ldr	r4, .L37+8
 443              		.loc 1 206 0
 444 0016 013A     		subs	r2, r2, #1
 445 0018 0095     		str	r5, [sp]
 446 001a 4FF49871 		mov	r1, #304
 447 001e 1D4B     		ldr	r3, .L37+12
 448 0020 3068     		ldr	r0, [r6]
 449              		.loc 1 205 0
 450 0022 D4F80C80 		ldr	r8, [r4, #12]
 451              	.LVL33:
 452              		.loc 1 206 0
 453 0026 FFF7FEFF 		bl	chThdCreateStatic
 454              	.LVL34:
 455              		.loc 1 207 0
 456 002a FB69     		ldr	r3, [r7, #28]
ARM GAS  /tmp/ccrAilSt.s 			page 9


 457              		.loc 1 206 0
 458 002c 1A4C     		ldr	r4, .L37+16
 459              		.loc 1 207 0
 460 002e 9A68     		ldr	r2, [r3, #8]
 461 0030 7368     		ldr	r3, [r6, #4]
 462              		.loc 1 206 0
 463 0032 2060     		str	r0, [r4]
 464              		.loc 1 207 0
 465 0034 023A     		subs	r2, r2, #2
 466 0036 1846     		mov	r0, r3
 467 0038 4FF49871 		mov	r1, #304
 468 003c 174B     		ldr	r3, .L37+20
 469 003e 0095     		str	r5, [sp]
 470 0040 FFF7FEFF 		bl	chThdCreateStatic
 471              	.LVL35:
 472              		.loc 1 208 0
 473 0044 FA69     		ldr	r2, [r7, #28]
 474 0046 B368     		ldr	r3, [r6, #8]
 475 0048 9268     		ldr	r2, [r2, #8]
 476 004a 4FF49871 		mov	r1, #304
 477              		.loc 1 207 0
 478 004e 6060     		str	r0, [r4, #4]
 479              		.loc 1 208 0
 480 0050 033A     		subs	r2, r2, #3
 481 0052 1846     		mov	r0, r3
 482 0054 0095     		str	r5, [sp]
 483 0056 124B     		ldr	r3, .L37+24
 484 0058 FFF7FEFF 		bl	chThdCreateStatic
 485              	.LVL36:
 486 005c A060     		str	r0, [r4, #8]
 487              		.loc 1 209 0
 488 005e FFF7FEFF 		bl	test_wait_threads
 489              	.LVL37:
 490              		.loc 1 210 0
 491 0062 0120     		movs	r0, #1
 492 0064 0F49     		ldr	r1, .L37+28
 493 0066 FFF7FEFF 		bl	_test_assert_sequence
 494              	.LVL38:
 495 006a 10B1     		cbz	r0, .L36
 496              		.loc 1 212 0
 497 006c 02B0     		add	sp, sp, #8
 498              		.cfi_remember_state
 499              		.cfi_def_cfa_offset 24
 500              		@ sp needed
 501 006e BDE8F081 		pop	{r4, r5, r6, r7, r8, pc}
 502              	.LVL39:
 503              	.L36:
 504              		.cfi_restore_state
 505              		.loc 1 211 0
 506 0072 0220     		movs	r0, #2
 507 0074 08F16401 		add	r1, r8, #100
 508 0078 08F16902 		add	r2, r8, #105
 509              		.loc 1 212 0
 510 007c 02B0     		add	sp, sp, #8
 511              		.cfi_def_cfa_offset 24
 512              		@ sp needed
 513 007e BDE8F041 		pop	{r4, r5, r6, r7, r8, lr}
ARM GAS  /tmp/ccrAilSt.s 			page 10


 514              		.cfi_restore 14
 515              		.cfi_restore 8
 516              		.cfi_restore 7
 517              		.cfi_restore 6
 518              		.cfi_restore 5
 519              		.cfi_restore 4
 520              		.cfi_def_cfa_offset 0
 521              	.LVL40:
 522              		.loc 1 211 0
 523 0082 FFF7FEBF 		b	_test_assert_time_window
 524              	.LVL41:
 525              	.L38:
 526 0086 00BF     		.align	2
 527              	.L37:
 528 0088 00000000 		.word	rlist
 529 008c 00000000 		.word	wa
 530 0090 00000000 		.word	vtlist
 531 0094 00000000 		.word	thread2H
 532 0098 00000000 		.word	threads
 533 009c 00000000 		.word	thread2M
 534 00a0 00000000 		.word	thread2L
 535 00a4 1C000000 		.word	.LC6
 536              		.cfi_endproc
 537              	.LFE14:
 538              		.size	mtx2_execute, .-mtx2_execute
 539              		.section	.text.mtx3_execute,"ax",%progbits
 540              		.align	2
 541              		.p2align 4,,15
 542              		.thumb
 543              		.thumb_func
 544              		.type	mtx3_execute, %function
 545              	mtx3_execute:
 546              	.LFB21:
 547              		.loc 1 319 0
 548              		.cfi_startproc
 549              		@ args = 0, pretend = 0, frame = 0
 550              		@ frame_needed = 0, uses_anonymous_args = 0
 551 0000 2DE9F041 		push	{r4, r5, r6, r7, r8, lr}
 552              		.cfi_def_cfa_offset 24
 553              		.cfi_offset 4, -24
 554              		.cfi_offset 5, -20
 555              		.cfi_offset 6, -16
 556              		.cfi_offset 7, -12
 557              		.cfi_offset 8, -8
 558              		.cfi_offset 14, -4
 559              		.loc 1 324 0
 560 0004 2C4F     		ldr	r7, .L43
 561              		.loc 1 319 0
 562 0006 82B0     		sub	sp, sp, #8
 563              		.cfi_def_cfa_offset 32
 564              		.loc 1 322 0
 565 0008 FFF7FEFF 		bl	test_wait_tick
 566              	.LVL42:
 567              		.loc 1 324 0
 568 000c FB69     		ldr	r3, [r7, #28]
 569 000e 2B4E     		ldr	r6, .L43+4
 570 0010 9A68     		ldr	r2, [r3, #8]
ARM GAS  /tmp/ccrAilSt.s 			page 11


 571 0012 0025     		movs	r5, #0
 572              		.loc 1 323 0
 573 0014 2A4C     		ldr	r4, .L43+8
 574              		.loc 1 324 0
 575 0016 053A     		subs	r2, r2, #5
 576 0018 0095     		str	r5, [sp]
 577 001a 4FF49871 		mov	r1, #304
 578 001e 294B     		ldr	r3, .L43+12
 579 0020 3068     		ldr	r0, [r6]
 580              		.loc 1 323 0
 581 0022 D4F80C80 		ldr	r8, [r4, #12]
 582              	.LVL43:
 583              		.loc 1 324 0
 584 0026 FFF7FEFF 		bl	chThdCreateStatic
 585              	.LVL44:
 586              		.loc 1 325 0
 587 002a FB69     		ldr	r3, [r7, #28]
 588              		.loc 1 324 0
 589 002c 264C     		ldr	r4, .L43+16
 590              		.loc 1 325 0
 591 002e 9A68     		ldr	r2, [r3, #8]
 592 0030 7368     		ldr	r3, [r6, #4]
 593              		.loc 1 324 0
 594 0032 2060     		str	r0, [r4]
 595              		.loc 1 325 0
 596 0034 043A     		subs	r2, r2, #4
 597 0036 1846     		mov	r0, r3
 598 0038 4FF49871 		mov	r1, #304
 599 003c 234B     		ldr	r3, .L43+20
 600 003e 0095     		str	r5, [sp]
 601 0040 FFF7FEFF 		bl	chThdCreateStatic
 602              	.LVL45:
 603              		.loc 1 326 0
 604 0044 FA69     		ldr	r2, [r7, #28]
 605 0046 B368     		ldr	r3, [r6, #8]
 606 0048 9268     		ldr	r2, [r2, #8]
 607 004a 4FF49871 		mov	r1, #304
 608              		.loc 1 325 0
 609 004e 6060     		str	r0, [r4, #4]
 610              		.loc 1 326 0
 611 0050 033A     		subs	r2, r2, #3
 612 0052 1846     		mov	r0, r3
 613 0054 0095     		str	r5, [sp]
 614 0056 1E4B     		ldr	r3, .L43+24
 615 0058 FFF7FEFF 		bl	chThdCreateStatic
 616              	.LVL46:
 617              		.loc 1 327 0
 618 005c FA69     		ldr	r2, [r7, #28]
 619 005e F368     		ldr	r3, [r6, #12]
 620 0060 9268     		ldr	r2, [r2, #8]
 621 0062 4FF49871 		mov	r1, #304
 622              		.loc 1 326 0
 623 0066 A060     		str	r0, [r4, #8]
 624              		.loc 1 327 0
 625 0068 023A     		subs	r2, r2, #2
 626 006a 1846     		mov	r0, r3
 627 006c 0095     		str	r5, [sp]
ARM GAS  /tmp/ccrAilSt.s 			page 12


 628 006e 194B     		ldr	r3, .L43+28
 629 0070 FFF7FEFF 		bl	chThdCreateStatic
 630              	.LVL47:
 631              		.loc 1 328 0
 632 0074 FA69     		ldr	r2, [r7, #28]
 633 0076 3369     		ldr	r3, [r6, #16]
 634 0078 9268     		ldr	r2, [r2, #8]
 635 007a 4FF49871 		mov	r1, #304
 636              		.loc 1 327 0
 637 007e E060     		str	r0, [r4, #12]
 638              		.loc 1 328 0
 639 0080 013A     		subs	r2, r2, #1
 640 0082 1846     		mov	r0, r3
 641 0084 0095     		str	r5, [sp]
 642 0086 144B     		ldr	r3, .L43+32
 643 0088 FFF7FEFF 		bl	chThdCreateStatic
 644              	.LVL48:
 645 008c 2061     		str	r0, [r4, #16]
 646              		.loc 1 329 0
 647 008e FFF7FEFF 		bl	test_wait_threads
 648              	.LVL49:
 649              		.loc 1 330 0
 650 0092 0120     		movs	r0, #1
 651 0094 1149     		ldr	r1, .L43+36
 652 0096 FFF7FEFF 		bl	_test_assert_sequence
 653              	.LVL50:
 654 009a 10B1     		cbz	r0, .L42
 655              		.loc 1 332 0
 656 009c 02B0     		add	sp, sp, #8
 657              		.cfi_remember_state
 658              		.cfi_def_cfa_offset 24
 659              		@ sp needed
 660 009e BDE8F081 		pop	{r4, r5, r6, r7, r8, pc}
 661              	.LVL51:
 662              	.L42:
 663              		.cfi_restore_state
 664              		.loc 1 331 0
 665 00a2 0220     		movs	r0, #2
 666 00a4 08F16E01 		add	r1, r8, #110
 667 00a8 08F17302 		add	r2, r8, #115
 668              		.loc 1 332 0
 669 00ac 02B0     		add	sp, sp, #8
 670              		.cfi_def_cfa_offset 24
 671              		@ sp needed
 672 00ae BDE8F041 		pop	{r4, r5, r6, r7, r8, lr}
 673              		.cfi_restore 14
 674              		.cfi_restore 8
 675              		.cfi_restore 7
 676              		.cfi_restore 6
 677              		.cfi_restore 5
 678              		.cfi_restore 4
 679              		.cfi_def_cfa_offset 0
 680              	.LVL52:
 681              		.loc 1 331 0
 682 00b2 FFF7FEBF 		b	_test_assert_time_window
 683              	.LVL53:
 684              	.L44:
ARM GAS  /tmp/ccrAilSt.s 			page 13


 685 00b6 00BF     		.align	2
 686              	.L43:
 687 00b8 00000000 		.word	rlist
 688 00bc 00000000 		.word	wa
 689 00c0 00000000 		.word	vtlist
 690 00c4 00000000 		.word	thread3LL
 691 00c8 00000000 		.word	threads
 692 00cc 00000000 		.word	thread3L
 693 00d0 00000000 		.word	thread3M
 694 00d4 00000000 		.word	thread3H
 695 00d8 00000000 		.word	thread3HH
 696 00dc 14000000 		.word	.LC5
 697              		.cfi_endproc
 698              	.LFE21:
 699              		.size	mtx3_execute, .-mtx3_execute
 700              		.section	.text.thread2L,"ax",%progbits
 701              		.align	2
 702              		.p2align 4,,15
 703              		.thumb
 704              		.thumb_func
 705              		.type	thread2L, %function
 706              	thread2L:
 707              	.LFB11:
 708              		.loc 1 168 0
 709              		.cfi_startproc
 710              		@ args = 0, pretend = 0, frame = 0
 711              		@ frame_needed = 0, uses_anonymous_args = 0
 712              	.LVL54:
 713 0000 08B5     		push	{r3, lr}
 714              		.cfi_def_cfa_offset 8
 715              		.cfi_offset 3, -8
 716              		.cfi_offset 14, -4
 717              		.loc 1 171 0
 718 0002 0848     		ldr	r0, .L47
 719              	.LVL55:
 720 0004 FFF7FEFF 		bl	chMtxLock
 721              	.LVL56:
 722              		.loc 1 172 0
 723 0008 2820     		movs	r0, #40
 724 000a FFF7FEFF 		bl	test_cpu_pulse
 725              	.LVL57:
 726              		.loc 1 173 0
 727 000e FFF7FEFF 		bl	chMtxUnlock
 728              	.LVL58:
 729              		.loc 1 174 0
 730 0012 0A20     		movs	r0, #10
 731 0014 FFF7FEFF 		bl	test_cpu_pulse
 732              	.LVL59:
 733              		.loc 1 175 0
 734 0018 4320     		movs	r0, #67
 735 001a FFF7FEFF 		bl	test_emit_token
 736              	.LVL60:
 737              		.loc 1 177 0
 738 001e 0020     		movs	r0, #0
 739 0020 08BD     		pop	{r3, pc}
 740              	.L48:
 741 0022 00BF     		.align	2
ARM GAS  /tmp/ccrAilSt.s 			page 14


 742              	.L47:
 743 0024 00000000 		.word	.LANCHOR0
 744              		.cfi_endproc
 745              	.LFE11:
 746              		.size	thread2L, .-thread2L
 747              		.section	.text.thread3LL,"ax",%progbits
 748              		.align	2
 749              		.p2align 4,,15
 750              		.thumb
 751              		.thumb_func
 752              		.type	thread3LL, %function
 753              	thread3LL:
 754              	.LFB16:
 755              		.loc 1 259 0
 756              		.cfi_startproc
 757              		@ args = 0, pretend = 0, frame = 0
 758              		@ frame_needed = 0, uses_anonymous_args = 0
 759              	.LVL61:
 760 0000 08B5     		push	{r3, lr}
 761              		.cfi_def_cfa_offset 8
 762              		.cfi_offset 3, -8
 763              		.cfi_offset 14, -4
 764              		.loc 1 262 0
 765 0002 0648     		ldr	r0, .L51
 766              	.LVL62:
 767 0004 FFF7FEFF 		bl	chMtxLock
 768              	.LVL63:
 769              		.loc 1 263 0
 770 0008 1E20     		movs	r0, #30
 771 000a FFF7FEFF 		bl	test_cpu_pulse
 772              	.LVL64:
 773              		.loc 1 264 0
 774 000e FFF7FEFF 		bl	chMtxUnlock
 775              	.LVL65:
 776              		.loc 1 265 0
 777 0012 4520     		movs	r0, #69
 778 0014 FFF7FEFF 		bl	test_emit_token
 779              	.LVL66:
 780              		.loc 1 267 0
 781 0018 0020     		movs	r0, #0
 782 001a 08BD     		pop	{r3, pc}
 783              	.L52:
 784              		.align	2
 785              	.L51:
 786 001c 00000000 		.word	.LANCHOR0
 787              		.cfi_endproc
 788              	.LFE16:
 789              		.size	thread3LL, .-thread3LL
 790              		.section	.text.thread2M,"ax",%progbits
 791              		.align	2
 792              		.p2align 4,,15
 793              		.thumb
 794              		.thumb_func
 795              		.type	thread2M, %function
 796              	thread2M:
 797              	.LFB12:
 798              		.loc 1 180 0
ARM GAS  /tmp/ccrAilSt.s 			page 15


 799              		.cfi_startproc
 800              		@ args = 0, pretend = 0, frame = 0
 801              		@ frame_needed = 0, uses_anonymous_args = 0
 802              	.LVL67:
 803 0000 08B5     		push	{r3, lr}
 804              		.cfi_def_cfa_offset 8
 805              		.cfi_offset 3, -8
 806              		.cfi_offset 14, -4
 807              		.loc 1 183 0
 808 0002 1420     		movs	r0, #20
 809              	.LVL68:
 810 0004 FFF7FEFF 		bl	chThdSleep
 811              	.LVL69:
 812              		.loc 1 184 0
 813 0008 2820     		movs	r0, #40
 814 000a FFF7FEFF 		bl	test_cpu_pulse
 815              	.LVL70:
 816              		.loc 1 185 0
 817 000e 4220     		movs	r0, #66
 818 0010 FFF7FEFF 		bl	test_emit_token
 819              	.LVL71:
 820              		.loc 1 187 0
 821 0014 0020     		movs	r0, #0
 822 0016 08BD     		pop	{r3, pc}
 823              		.cfi_endproc
 824              	.LFE12:
 825              		.size	thread2M, .-thread2M
 826              		.section	.text.thread2H,"ax",%progbits
 827              		.align	2
 828              		.p2align 4,,15
 829              		.thumb
 830              		.thumb_func
 831              		.type	thread2H, %function
 832              	thread2H:
 833              	.LFB13:
 834              		.loc 1 190 0
 835              		.cfi_startproc
 836              		@ args = 0, pretend = 0, frame = 0
 837              		@ frame_needed = 0, uses_anonymous_args = 0
 838              	.LVL72:
 839 0000 08B5     		push	{r3, lr}
 840              		.cfi_def_cfa_offset 8
 841              		.cfi_offset 3, -8
 842              		.cfi_offset 14, -4
 843              		.loc 1 193 0
 844 0002 2820     		movs	r0, #40
 845              	.LVL73:
 846 0004 FFF7FEFF 		bl	chThdSleep
 847              	.LVL74:
 848              		.loc 1 194 0
 849 0008 0648     		ldr	r0, .L57
 850 000a FFF7FEFF 		bl	chMtxLock
 851              	.LVL75:
 852              		.loc 1 195 0
 853 000e 0A20     		movs	r0, #10
 854 0010 FFF7FEFF 		bl	test_cpu_pulse
 855              	.LVL76:
ARM GAS  /tmp/ccrAilSt.s 			page 16


 856              		.loc 1 196 0
 857 0014 FFF7FEFF 		bl	chMtxUnlock
 858              	.LVL77:
 859              		.loc 1 197 0
 860 0018 4120     		movs	r0, #65
 861 001a FFF7FEFF 		bl	test_emit_token
 862              	.LVL78:
 863              		.loc 1 199 0
 864 001e 0020     		movs	r0, #0
 865 0020 08BD     		pop	{r3, pc}
 866              	.L58:
 867 0022 00BF     		.align	2
 868              	.L57:
 869 0024 00000000 		.word	.LANCHOR0
 870              		.cfi_endproc
 871              	.LFE13:
 872              		.size	thread2H, .-thread2H
 873              		.section	.text.thread3HH,"ax",%progbits
 874              		.align	2
 875              		.p2align 4,,15
 876              		.thumb
 877              		.thumb_func
 878              		.type	thread3HH, %function
 879              	thread3HH:
 880              	.LFB20:
 881              		.loc 1 308 0
 882              		.cfi_startproc
 883              		@ args = 0, pretend = 0, frame = 0
 884              		@ frame_needed = 0, uses_anonymous_args = 0
 885              	.LVL79:
 886 0000 08B5     		push	{r3, lr}
 887              		.cfi_def_cfa_offset 8
 888              		.cfi_offset 3, -8
 889              		.cfi_offset 14, -4
 890              		.loc 1 311 0
 891 0002 3220     		movs	r0, #50
 892              	.LVL80:
 893 0004 FFF7FEFF 		bl	chThdSleep
 894              	.LVL81:
 895              		.loc 1 312 0
 896 0008 0648     		ldr	r0, .L61
 897 000a FFF7FEFF 		bl	chMtxLock
 898              	.LVL82:
 899              		.loc 1 313 0
 900 000e 0A20     		movs	r0, #10
 901 0010 FFF7FEFF 		bl	test_cpu_pulse
 902              	.LVL83:
 903              		.loc 1 314 0
 904 0014 FFF7FEFF 		bl	chMtxUnlock
 905              	.LVL84:
 906              		.loc 1 315 0
 907 0018 4120     		movs	r0, #65
 908 001a FFF7FEFF 		bl	test_emit_token
 909              	.LVL85:
 910              		.loc 1 317 0
 911 001e 0020     		movs	r0, #0
 912 0020 08BD     		pop	{r3, pc}
ARM GAS  /tmp/ccrAilSt.s 			page 17


 913              	.L62:
 914 0022 00BF     		.align	2
 915              	.L61:
 916 0024 00000000 		.word	.LANCHOR1
 917              		.cfi_endproc
 918              	.LFE20:
 919              		.size	thread3HH, .-thread3HH
 920              		.section	.text.thread3H,"ax",%progbits
 921              		.align	2
 922              		.p2align 4,,15
 923              		.thumb
 924              		.thumb_func
 925              		.type	thread3H, %function
 926              	thread3H:
 927              	.LFB19:
 928              		.loc 1 298 0
 929              		.cfi_startproc
 930              		@ args = 0, pretend = 0, frame = 0
 931              		@ frame_needed = 0, uses_anonymous_args = 0
 932              	.LVL86:
 933 0000 08B5     		push	{r3, lr}
 934              		.cfi_def_cfa_offset 8
 935              		.cfi_offset 3, -8
 936              		.cfi_offset 14, -4
 937              		.loc 1 301 0
 938 0002 2820     		movs	r0, #40
 939              	.LVL87:
 940 0004 FFF7FEFF 		bl	chThdSleep
 941              	.LVL88:
 942              		.loc 1 302 0
 943 0008 1420     		movs	r0, #20
 944 000a FFF7FEFF 		bl	test_cpu_pulse
 945              	.LVL89:
 946              		.loc 1 303 0
 947 000e 4220     		movs	r0, #66
 948 0010 FFF7FEFF 		bl	test_emit_token
 949              	.LVL90:
 950              		.loc 1 305 0
 951 0014 0020     		movs	r0, #0
 952 0016 08BD     		pop	{r3, pc}
 953              		.cfi_endproc
 954              	.LFE19:
 955              		.size	thread3H, .-thread3H
 956              		.section	.text.thread3M,"ax",%progbits
 957              		.align	2
 958              		.p2align 4,,15
 959              		.thumb
 960              		.thumb_func
 961              		.type	thread3M, %function
 962              	thread3M:
 963              	.LFB18:
 964              		.loc 1 286 0
 965              		.cfi_startproc
 966              		@ args = 0, pretend = 0, frame = 0
 967              		@ frame_needed = 0, uses_anonymous_args = 0
 968              	.LVL91:
 969 0000 08B5     		push	{r3, lr}
ARM GAS  /tmp/ccrAilSt.s 			page 18


 970              		.cfi_def_cfa_offset 8
 971              		.cfi_offset 3, -8
 972              		.cfi_offset 14, -4
 973              		.loc 1 289 0
 974 0002 1420     		movs	r0, #20
 975              	.LVL92:
 976 0004 FFF7FEFF 		bl	chThdSleep
 977              	.LVL93:
 978              		.loc 1 290 0
 979 0008 0648     		ldr	r0, .L67
 980 000a FFF7FEFF 		bl	chMtxLock
 981              	.LVL94:
 982              		.loc 1 291 0
 983 000e 0A20     		movs	r0, #10
 984 0010 FFF7FEFF 		bl	test_cpu_pulse
 985              	.LVL95:
 986              		.loc 1 292 0
 987 0014 FFF7FEFF 		bl	chMtxUnlock
 988              	.LVL96:
 989              		.loc 1 293 0
 990 0018 4320     		movs	r0, #67
 991 001a FFF7FEFF 		bl	test_emit_token
 992              	.LVL97:
 993              		.loc 1 295 0
 994 001e 0020     		movs	r0, #0
 995 0020 08BD     		pop	{r3, pc}
 996              	.L68:
 997 0022 00BF     		.align	2
 998              	.L67:
 999 0024 00000000 		.word	.LANCHOR1
 1000              		.cfi_endproc
 1001              	.LFE18:
 1002              		.size	thread3M, .-thread3M
 1003              		.section	.text.thread3L,"ax",%progbits
 1004              		.align	2
 1005              		.p2align 4,,15
 1006              		.thumb
 1007              		.thumb_func
 1008              		.type	thread3L, %function
 1009              	thread3L:
 1010              	.LFB17:
 1011              		.loc 1 270 0
 1012              		.cfi_startproc
 1013              		@ args = 0, pretend = 0, frame = 0
 1014              		@ frame_needed = 0, uses_anonymous_args = 0
 1015              	.LVL98:
 1016 0000 08B5     		push	{r3, lr}
 1017              		.cfi_def_cfa_offset 8
 1018              		.cfi_offset 3, -8
 1019              		.cfi_offset 14, -4
 1020              		.loc 1 273 0
 1021 0002 0A20     		movs	r0, #10
 1022              	.LVL99:
 1023 0004 FFF7FEFF 		bl	chThdSleep
 1024              	.LVL100:
 1025              		.loc 1 274 0
 1026 0008 0B48     		ldr	r0, .L71
ARM GAS  /tmp/ccrAilSt.s 			page 19


 1027 000a FFF7FEFF 		bl	chMtxLock
 1028              	.LVL101:
 1029              		.loc 1 275 0
 1030 000e 1420     		movs	r0, #20
 1031 0010 FFF7FEFF 		bl	test_cpu_pulse
 1032              	.LVL102:
 1033              		.loc 1 276 0
 1034 0014 0948     		ldr	r0, .L71+4
 1035 0016 FFF7FEFF 		bl	chMtxLock
 1036              	.LVL103:
 1037              		.loc 1 277 0
 1038 001a 0A20     		movs	r0, #10
 1039 001c FFF7FEFF 		bl	test_cpu_pulse
 1040              	.LVL104:
 1041              		.loc 1 278 0
 1042 0020 FFF7FEFF 		bl	chMtxUnlock
 1043              	.LVL105:
 1044              		.loc 1 279 0
 1045 0024 0A20     		movs	r0, #10
 1046 0026 FFF7FEFF 		bl	test_cpu_pulse
 1047              	.LVL106:
 1048              		.loc 1 280 0
 1049 002a FFF7FEFF 		bl	chMtxUnlock
 1050              	.LVL107:
 1051              		.loc 1 281 0
 1052 002e 4420     		movs	r0, #68
 1053 0030 FFF7FEFF 		bl	test_emit_token
 1054              	.LVL108:
 1055              		.loc 1 283 0
 1056 0034 0020     		movs	r0, #0
 1057 0036 08BD     		pop	{r3, pc}
 1058              	.L72:
 1059              		.align	2
 1060              	.L71:
 1061 0038 00000000 		.word	.LANCHOR1
 1062 003c 00000000 		.word	.LANCHOR0
 1063              		.cfi_endproc
 1064              	.LFE17:
 1065              		.size	thread3L, .-thread3L
 1066              		.section	.text.thread4b,"ax",%progbits
 1067              		.align	2
 1068              		.p2align 4,,15
 1069              		.thumb
 1070              		.thumb_func
 1071              		.type	thread4b, %function
 1072              	thread4b:
 1073              	.LFB24:
 1074              		.loc 1 367 0
 1075              		.cfi_startproc
 1076              		@ args = 0, pretend = 0, frame = 0
 1077              		@ frame_needed = 0, uses_anonymous_args = 0
 1078              	.LVL109:
 1079 0000 08B5     		push	{r3, lr}
 1080              		.cfi_def_cfa_offset 8
 1081              		.cfi_offset 3, -8
 1082              		.cfi_offset 14, -4
 1083              		.loc 1 370 0
ARM GAS  /tmp/ccrAilSt.s 			page 20


 1084 0002 9620     		movs	r0, #150
 1085              	.LVL110:
 1086 0004 FFF7FEFF 		bl	chThdSleep
 1087              	.LVL111:
 1088              		.loc 1 371 0
 1089 0008 0348     		ldr	r0, .L75
 1090 000a FFF7FEFF 		bl	chMtxLock
 1091              	.LVL112:
 1092              		.loc 1 372 0
 1093 000e FFF7FEFF 		bl	chMtxUnlock
 1094              	.LVL113:
 1095              		.loc 1 374 0
 1096 0012 0020     		movs	r0, #0
 1097 0014 08BD     		pop	{r3, pc}
 1098              	.L76:
 1099 0016 00BF     		.align	2
 1100              	.L75:
 1101 0018 00000000 		.word	.LANCHOR0
 1102              		.cfi_endproc
 1103              	.LFE24:
 1104              		.size	thread4b, .-thread4b
 1105              		.section	.text.thread4a,"ax",%progbits
 1106              		.align	2
 1107              		.p2align 4,,15
 1108              		.thumb
 1109              		.thumb_func
 1110              		.type	thread4a, %function
 1111              	thread4a:
 1112              	.LFB23:
 1113              		.loc 1 358 0
 1114              		.cfi_startproc
 1115              		@ args = 0, pretend = 0, frame = 0
 1116              		@ frame_needed = 0, uses_anonymous_args = 0
 1117              	.LVL114:
 1118 0000 08B5     		push	{r3, lr}
 1119              		.cfi_def_cfa_offset 8
 1120              		.cfi_offset 3, -8
 1121              		.cfi_offset 14, -4
 1122              		.loc 1 361 0
 1123 0002 3220     		movs	r0, #50
 1124              	.LVL115:
 1125 0004 FFF7FEFF 		bl	chThdSleep
 1126              	.LVL116:
 1127              		.loc 1 362 0
 1128 0008 0348     		ldr	r0, .L79
 1129 000a FFF7FEFF 		bl	chMtxLock
 1130              	.LVL117:
 1131              		.loc 1 363 0
 1132 000e FFF7FEFF 		bl	chMtxUnlock
 1133              	.LVL118:
 1134              		.loc 1 365 0
 1135 0012 0020     		movs	r0, #0
 1136 0014 08BD     		pop	{r3, pc}
 1137              	.L80:
 1138 0016 00BF     		.align	2
 1139              	.L79:
 1140 0018 00000000 		.word	.LANCHOR1
ARM GAS  /tmp/ccrAilSt.s 			page 21


 1141              		.cfi_endproc
 1142              	.LFE23:
 1143              		.size	thread4a, .-thread4a
 1144              		.section	.text.mtx4_execute,"ax",%progbits
 1145              		.align	2
 1146              		.p2align 4,,15
 1147              		.thumb
 1148              		.thumb_func
 1149              		.type	mtx4_execute, %function
 1150              	mtx4_execute:
 1151              	.LFB25:
 1152              		.loc 1 376 0
 1153              		.cfi_startproc
 1154              		@ args = 0, pretend = 0, frame = 8
 1155              		@ frame_needed = 0, uses_anonymous_args = 0
 1156 0000 2DE9F046 		push	{r4, r5, r6, r7, r9, r10, lr}
 1157              		.cfi_def_cfa_offset 28
 1158              		.cfi_offset 4, -28
 1159              		.cfi_offset 5, -24
 1160              		.cfi_offset 6, -20
 1161              		.cfi_offset 7, -16
 1162              		.cfi_offset 9, -12
 1163              		.cfi_offset 10, -8
 1164              		.cfi_offset 14, -4
 1165              		.loc 1 379 0
 1166 0004 894D     		ldr	r5, .L87
 1167              		.loc 1 382 0
 1168 0006 8A4E     		ldr	r6, .L87+4
 1169              		.loc 1 379 0
 1170 0008 EB69     		ldr	r3, [r5, #28]
 1171              		.loc 1 382 0
 1172 000a 3268     		ldr	r2, [r6]
 1173              		.loc 1 379 0
 1174 000c 9C68     		ldr	r4, [r3, #8]
 1175              	.LVL119:
 1176              		.loc 1 382 0
 1177 000e 894B     		ldr	r3, .L87+8
 1178              		.loc 1 376 0
 1179 0010 85B0     		sub	sp, sp, #20
 1180              		.cfi_def_cfa_offset 48
 1181              		.loc 1 380 0
 1182 0012 04F10109 		add	r9, r4, #1
 1183              	.LVL120:
 1184              		.loc 1 382 0
 1185 0016 1046     		mov	r0, r2
 1186 0018 0392     		str	r2, [sp, #12]
 1187 001a 0093     		str	r3, [sp]
 1188 001c 4A46     		mov	r2, r9
 1189 001e 4FF49871 		mov	r1, #304
 1190 0022 854B     		ldr	r3, .L87+12
 1191 0024 FFF7FEFF 		bl	chThdCreateStatic
 1192              	.LVL121:
 1193 0028 844F     		ldr	r7, .L87+16
 1194              		.loc 1 383 0
 1195 002a 7668     		ldr	r6, [r6, #4]
 1196 002c 844B     		ldr	r3, .L87+20
 1197              		.loc 1 381 0
ARM GAS  /tmp/ccrAilSt.s 			page 22


 1198 002e 04F1020A 		add	r10, r4, #2
 1199              	.LVL122:
 1200              		.loc 1 382 0
 1201 0032 3860     		str	r0, [r7]
 1202              		.loc 1 383 0
 1203 0034 4FF49871 		mov	r1, #304
 1204 0038 5246     		mov	r2, r10
 1205 003a 0093     		str	r3, [sp]
 1206 003c 3046     		mov	r0, r6
 1207 003e 814B     		ldr	r3, .L87+24
 1208 0040 FFF7FEFF 		bl	chThdCreateStatic
 1209              	.LVL123:
 1210 0044 7860     		str	r0, [r7, #4]
 1211              		.loc 1 384 0
 1212 0046 8048     		ldr	r0, .L87+28
 1213 0048 FFF7FEFF 		bl	chMtxLock
 1214              	.LVL124:
 1215              		.loc 1 385 0
 1216 004c EB69     		ldr	r3, [r5, #28]
 1217 004e 0120     		movs	r0, #1
 1218 0050 9968     		ldr	r1, [r3, #8]
 1219 0052 091B     		subs	r1, r1, r4
 1220 0054 B1FA81F1 		clz	r1, r1
 1221 0058 4909     		lsrs	r1, r1, #5
 1222 005a FFF7FEFF 		bl	_test_assert
 1223              	.LVL125:
 1224 005e 10B1     		cbz	r0, .L86
 1225              	.L81:
 1226              		.loc 1 420 0
 1227 0060 05B0     		add	sp, sp, #20
 1228              		.cfi_remember_state
 1229              		.cfi_def_cfa_offset 28
 1230              		@ sp needed
 1231 0062 BDE8F086 		pop	{r4, r5, r6, r7, r9, r10, pc}
 1232              	.LVL126:
 1233              	.L86:
 1234              		.cfi_restore_state
 1235              		.loc 1 386 0
 1236 0066 6420     		movs	r0, #100
 1237 0068 FFF7FEFF 		bl	chThdSleep
 1238              	.LVL127:
 1239              		.loc 1 387 0
 1240 006c EB69     		ldr	r3, [r5, #28]
 1241 006e 0220     		movs	r0, #2
 1242 0070 9968     		ldr	r1, [r3, #8]
 1243 0072 C9EB0101 		rsb	r1, r9, r1
 1244 0076 B1FA81F1 		clz	r1, r1
 1245 007a 4909     		lsrs	r1, r1, #5
 1246 007c FFF7FEFF 		bl	_test_assert
 1247              	.LVL128:
 1248 0080 0028     		cmp	r0, #0
 1249 0082 EDD1     		bne	.L81
 1250              		.loc 1 388 0
 1251 0084 7148     		ldr	r0, .L87+32
 1252 0086 FFF7FEFF 		bl	chMtxLock
 1253              	.LVL129:
 1254              		.loc 1 389 0
ARM GAS  /tmp/ccrAilSt.s 			page 23


 1255 008a EB69     		ldr	r3, [r5, #28]
 1256 008c 0320     		movs	r0, #3
 1257 008e 9968     		ldr	r1, [r3, #8]
 1258 0090 C9EB0101 		rsb	r1, r9, r1
 1259 0094 B1FA81F1 		clz	r1, r1
 1260 0098 4909     		lsrs	r1, r1, #5
 1261 009a FFF7FEFF 		bl	_test_assert
 1262              	.LVL130:
 1263 009e 0028     		cmp	r0, #0
 1264 00a0 DED1     		bne	.L81
 1265              		.loc 1 390 0
 1266 00a2 6420     		movs	r0, #100
 1267 00a4 FFF7FEFF 		bl	chThdSleep
 1268              	.LVL131:
 1269              		.loc 1 391 0
 1270 00a8 EB69     		ldr	r3, [r5, #28]
 1271 00aa 0420     		movs	r0, #4
 1272 00ac 9968     		ldr	r1, [r3, #8]
 1273 00ae CAEB0101 		rsb	r1, r10, r1
 1274 00b2 B1FA81F1 		clz	r1, r1
 1275 00b6 4909     		lsrs	r1, r1, #5
 1276 00b8 FFF7FEFF 		bl	_test_assert
 1277              	.LVL132:
 1278 00bc 0028     		cmp	r0, #0
 1279 00be CFD1     		bne	.L81
 1280              		.loc 1 392 0
 1281 00c0 FFF7FEFF 		bl	chMtxUnlock
 1282              	.LVL133:
 1283              		.loc 1 393 0
 1284 00c4 EB69     		ldr	r3, [r5, #28]
 1285 00c6 0520     		movs	r0, #5
 1286 00c8 9968     		ldr	r1, [r3, #8]
 1287 00ca C9EB0101 		rsb	r1, r9, r1
 1288 00ce B1FA81F1 		clz	r1, r1
 1289 00d2 4909     		lsrs	r1, r1, #5
 1290 00d4 FFF7FEFF 		bl	_test_assert
 1291              	.LVL134:
 1292 00d8 0028     		cmp	r0, #0
 1293 00da C1D1     		bne	.L81
 1294              		.loc 1 394 0
 1295 00dc 6420     		movs	r0, #100
 1296 00de FFF7FEFF 		bl	chThdSleep
 1297              	.LVL135:
 1298              		.loc 1 395 0
 1299 00e2 EB69     		ldr	r3, [r5, #28]
 1300 00e4 0620     		movs	r0, #6
 1301 00e6 9968     		ldr	r1, [r3, #8]
 1302 00e8 C9EB0101 		rsb	r1, r9, r1
 1303 00ec B1FA81F1 		clz	r1, r1
 1304 00f0 4909     		lsrs	r1, r1, #5
 1305 00f2 FFF7FEFF 		bl	_test_assert
 1306              	.LVL136:
 1307 00f6 0028     		cmp	r0, #0
 1308 00f8 B2D1     		bne	.L81
 1309              		.loc 1 396 0
 1310 00fa FFF7FEFF 		bl	chMtxUnlockAll
 1311              	.LVL137:
ARM GAS  /tmp/ccrAilSt.s 			page 24


 1312              		.loc 1 397 0
 1313 00fe EB69     		ldr	r3, [r5, #28]
 1314 0100 0720     		movs	r0, #7
 1315 0102 9968     		ldr	r1, [r3, #8]
 1316 0104 091B     		subs	r1, r1, r4
 1317 0106 B1FA81F1 		clz	r1, r1
 1318 010a 4909     		lsrs	r1, r1, #5
 1319 010c FFF7FEFF 		bl	_test_assert
 1320              	.LVL138:
 1321 0110 0028     		cmp	r0, #0
 1322 0112 A5D1     		bne	.L81
 1323              		.loc 1 398 0
 1324 0114 FFF7FEFF 		bl	test_wait_threads
 1325              	.LVL139:
 1326              		.loc 1 401 0
 1327 0118 4D4B     		ldr	r3, .L87+36
 1328 011a 4FF49871 		mov	r1, #304
 1329 011e 0093     		str	r3, [sp]
 1330 0120 4A46     		mov	r2, r9
 1331 0122 454B     		ldr	r3, .L87+12
 1332 0124 0398     		ldr	r0, [sp, #12]
 1333 0126 FFF7FEFF 		bl	chThdCreateStatic
 1334              	.LVL140:
 1335              		.loc 1 402 0
 1336 012a 4A4B     		ldr	r3, .L87+40
 1337              		.loc 1 401 0
 1338 012c 3860     		str	r0, [r7]
 1339              		.loc 1 402 0
 1340 012e 4FF49871 		mov	r1, #304
 1341 0132 0093     		str	r3, [sp]
 1342 0134 5246     		mov	r2, r10
 1343 0136 434B     		ldr	r3, .L87+24
 1344 0138 3046     		mov	r0, r6
 1345 013a FFF7FEFF 		bl	chThdCreateStatic
 1346              	.LVL141:
 1347 013e 7860     		str	r0, [r7, #4]
 1348              		.loc 1 403 0
 1349 0140 4148     		ldr	r0, .L87+28
 1350 0142 FFF7FEFF 		bl	chMtxLock
 1351              	.LVL142:
 1352              		.loc 1 404 0
 1353 0146 EB69     		ldr	r3, [r5, #28]
 1354 0148 0820     		movs	r0, #8
 1355 014a 9968     		ldr	r1, [r3, #8]
 1356 014c 091B     		subs	r1, r1, r4
 1357 014e B1FA81F1 		clz	r1, r1
 1358 0152 4909     		lsrs	r1, r1, #5
 1359 0154 FFF7FEFF 		bl	_test_assert
 1360              	.LVL143:
 1361 0158 0028     		cmp	r0, #0
 1362 015a 81D1     		bne	.L81
 1363              		.loc 1 405 0
 1364 015c 6420     		movs	r0, #100
 1365 015e FFF7FEFF 		bl	chThdSleep
 1366              	.LVL144:
 1367              		.loc 1 406 0
 1368 0162 EB69     		ldr	r3, [r5, #28]
ARM GAS  /tmp/ccrAilSt.s 			page 25


 1369 0164 0920     		movs	r0, #9
 1370 0166 9968     		ldr	r1, [r3, #8]
 1371 0168 C9EB010C 		rsb	ip, r9, r1
 1372 016c DCF10001 		rsbs	r1, ip, #0
 1373 0170 41EB0C01 		adc	r1, r1, ip
 1374 0174 FFF7FEFF 		bl	_test_assert
 1375              	.LVL145:
 1376 0178 0028     		cmp	r0, #0
 1377 017a 7FF471AF 		bne	.L81
 1378              		.loc 1 407 0
 1379 017e 3348     		ldr	r0, .L87+32
 1380 0180 FFF7FEFF 		bl	chMtxLock
 1381              	.LVL146:
 1382              		.loc 1 408 0
 1383 0184 EB69     		ldr	r3, [r5, #28]
 1384 0186 0A20     		movs	r0, #10
 1385 0188 9968     		ldr	r1, [r3, #8]
 1386 018a C9EB010E 		rsb	lr, r9, r1
 1387 018e DEF10001 		rsbs	r1, lr, #0
 1388 0192 41EB0E01 		adc	r1, r1, lr
 1389 0196 FFF7FEFF 		bl	_test_assert
 1390              	.LVL147:
 1391 019a 0028     		cmp	r0, #0
 1392 019c 7FF460AF 		bne	.L81
 1393              		.loc 1 409 0
 1394 01a0 6420     		movs	r0, #100
 1395 01a2 FFF7FEFF 		bl	chThdSleep
 1396              	.LVL148:
 1397              		.loc 1 410 0
 1398 01a6 EB69     		ldr	r3, [r5, #28]
 1399 01a8 0B20     		movs	r0, #11
 1400 01aa 9968     		ldr	r1, [r3, #8]
 1401 01ac CAEB0107 		rsb	r7, r10, r1
 1402 01b0 7942     		rsbs	r1, r7, #0
 1403 01b2 7941     		adcs	r1, r1, r7
 1404 01b4 FFF7FEFF 		bl	_test_assert
 1405              	.LVL149:
 1406 01b8 0646     		mov	r6, r0
 1407 01ba 0028     		cmp	r0, #0
 1408 01bc 7FF450AF 		bne	.L81
 1409              	.LBB2:
 1410              		.loc 1 411 0
 1411 01c0 2023     		movs	r3, #32
 1412              	@ 411 "/home/nicolas/Escritorio/Embebidos/stamp_repo/files/code/ext/ChibiOS/test/testmtx.c" 1
 1413 01c2 83F31188 		msr     BASEPRI, r3
 1414              	@ 0 "" 2
 1415              		.thumb
 1416              	.LBE2:
 1417              		.loc 1 412 0
 1418 01c6 FFF7FEFF 		bl	chMtxUnlockS
 1419              	.LVL150:
 1420              	.LBB3:
 1421              		.loc 1 413 0
 1422 01ca 3346     		mov	r3, r6
 1423              	@ 413 "/home/nicolas/Escritorio/Embebidos/stamp_repo/files/code/ext/ChibiOS/test/testmtx.c" 1
 1424 01cc 83F31188 		msr     BASEPRI, r3
 1425              	@ 0 "" 2
ARM GAS  /tmp/ccrAilSt.s 			page 26


 1426              		.thumb
 1427              	.LBE3:
 1428              		.loc 1 414 0
 1429 01d0 EB69     		ldr	r3, [r5, #28]
 1430 01d2 0C20     		movs	r0, #12
 1431 01d4 9968     		ldr	r1, [r3, #8]
 1432 01d6 C9EB0106 		rsb	r6, r9, r1
 1433 01da 7142     		rsbs	r1, r6, #0
 1434 01dc 7141     		adcs	r1, r1, r6
 1435 01de FFF7FEFF 		bl	_test_assert
 1436              	.LVL151:
 1437 01e2 0028     		cmp	r0, #0
 1438 01e4 7FF43CAF 		bne	.L81
 1439              		.loc 1 415 0
 1440 01e8 6420     		movs	r0, #100
 1441 01ea FFF7FEFF 		bl	chThdSleep
 1442              	.LVL152:
 1443              		.loc 1 416 0
 1444 01ee EB69     		ldr	r3, [r5, #28]
 1445 01f0 0D20     		movs	r0, #13
 1446 01f2 9968     		ldr	r1, [r3, #8]
 1447 01f4 C9EB0102 		rsb	r2, r9, r1
 1448 01f8 5142     		rsbs	r1, r2, #0
 1449 01fa 5141     		adcs	r1, r1, r2
 1450 01fc FFF7FEFF 		bl	_test_assert
 1451              	.LVL153:
 1452 0200 0028     		cmp	r0, #0
 1453 0202 7FF42DAF 		bne	.L81
 1454              		.loc 1 417 0
 1455 0206 FFF7FEFF 		bl	chMtxUnlockAll
 1456              	.LVL154:
 1457              		.loc 1 418 0
 1458 020a EB69     		ldr	r3, [r5, #28]
 1459 020c 0E20     		movs	r0, #14
 1460 020e 9968     		ldr	r1, [r3, #8]
 1461 0210 0B1B     		subs	r3, r1, r4
 1462 0212 5942     		rsbs	r1, r3, #0
 1463 0214 5941     		adcs	r1, r1, r3
 1464 0216 FFF7FEFF 		bl	_test_assert
 1465              	.LVL155:
 1466 021a 0028     		cmp	r0, #0
 1467 021c 7FF420AF 		bne	.L81
 1468              		.loc 1 420 0
 1469 0220 05B0     		add	sp, sp, #20
 1470              		.cfi_def_cfa_offset 28
 1471              		@ sp needed
 1472 0222 BDE8F046 		pop	{r4, r5, r6, r7, r9, r10, lr}
 1473              		.cfi_restore 14
 1474              		.cfi_restore 10
 1475              		.cfi_restore 9
 1476              		.cfi_restore 7
 1477              		.cfi_restore 6
 1478              		.cfi_restore 5
 1479              		.cfi_restore 4
 1480              		.cfi_def_cfa_offset 0
 1481              	.LVL156:
 1482              		.loc 1 419 0
ARM GAS  /tmp/ccrAilSt.s 			page 27


 1483 0226 FFF7FEBF 		b	test_wait_threads
 1484              	.LVL157:
 1485              	.L88:
 1486 022a 00BF     		.align	2
 1487              	.L87:
 1488 022c 00000000 		.word	rlist
 1489 0230 00000000 		.word	wa
 1490 0234 0C000000 		.word	.LC3
 1491 0238 00000000 		.word	thread4a
 1492 023c 00000000 		.word	threads
 1493 0240 10000000 		.word	.LC4
 1494 0244 00000000 		.word	thread4b
 1495 0248 00000000 		.word	.LANCHOR1
 1496 024c 00000000 		.word	.LANCHOR0
 1497 0250 04000000 		.word	.LC1
 1498 0254 08000000 		.word	.LC2
 1499              		.cfi_endproc
 1500              	.LFE25:
 1501              		.size	mtx4_execute, .-mtx4_execute
 1502              		.section	.text.mtx5_execute,"ax",%progbits
 1503              		.align	2
 1504              		.p2align 4,,15
 1505              		.thumb
 1506              		.thumb_func
 1507              		.type	mtx5_execute, %function
 1508              	mtx5_execute:
 1509              	.LFB27:
 1510              		.loc 1 444 0
 1511              		.cfi_startproc
 1512              		@ args = 0, pretend = 0, frame = 0
 1513              		@ frame_needed = 0, uses_anonymous_args = 0
 1514 0000 F8B5     		push	{r3, r4, r5, r6, r7, lr}
 1515              		.cfi_def_cfa_offset 24
 1516              		.cfi_offset 3, -24
 1517              		.cfi_offset 4, -20
 1518              		.cfi_offset 5, -16
 1519              		.cfi_offset 6, -12
 1520              		.cfi_offset 7, -8
 1521              		.cfi_offset 14, -4
 1522              		.loc 1 448 0
 1523 0002 2B4D     		ldr	r5, .L95
 1524              		.loc 1 450 0
 1525 0004 2B4C     		ldr	r4, .L95+4
 1526              		.loc 1 448 0
 1527 0006 EB69     		ldr	r3, [r5, #28]
 1528              		.loc 1 450 0
 1529 0008 2046     		mov	r0, r4
 1530              		.loc 1 448 0
 1531 000a 9E68     		ldr	r6, [r3, #8]
 1532              	.LVL158:
 1533              		.loc 1 450 0
 1534 000c FFF7FEFF 		bl	chMtxTryLock
 1535              	.LVL159:
 1536 0010 0146     		mov	r1, r0
 1537              	.LVL160:
 1538              		.loc 1 451 0
 1539 0012 0120     		movs	r0, #1
ARM GAS  /tmp/ccrAilSt.s 			page 28


 1540              	.LVL161:
 1541 0014 FFF7FEFF 		bl	_test_assert
 1542              	.LVL162:
 1543 0018 00B1     		cbz	r0, .L94
 1544              	.L89:
 1545 001a F8BD     		pop	{r3, r4, r5, r6, r7, pc}
 1546              	.LVL163:
 1547              	.L94:
 1548              		.loc 1 453 0
 1549 001c 2046     		mov	r0, r4
 1550 001e FFF7FEFF 		bl	chMtxTryLock
 1551              	.LVL164:
 1552              		.loc 1 454 0
 1553 0022 B0FA80F1 		clz	r1, r0
 1554 0026 0220     		movs	r0, #2
 1555              	.LVL165:
 1556 0028 4909     		lsrs	r1, r1, #5
 1557 002a FFF7FEFF 		bl	_test_assert
 1558              	.LVL166:
 1559 002e 0746     		mov	r7, r0
 1560 0030 0028     		cmp	r0, #0
 1561 0032 F2D1     		bne	.L89
 1562              	.LBB4:
 1563              		.loc 1 456 0
 1564 0034 2023     		movs	r3, #32
 1565              	@ 456 "/home/nicolas/Escritorio/Embebidos/stamp_repo/files/code/ext/ChibiOS/test/testmtx.c" 1
 1566 0036 83F31188 		msr     BASEPRI, r3
 1567              	@ 0 "" 2
 1568              		.thumb
 1569              	.LBE4:
 1570              		.loc 1 457 0
 1571 003a FFF7FEFF 		bl	chMtxUnlockS
 1572              	.LVL167:
 1573              	.LBB5:
 1574              		.loc 1 458 0
 1575 003e 3B46     		mov	r3, r7
 1576              	@ 458 "/home/nicolas/Escritorio/Embebidos/stamp_repo/files/code/ext/ChibiOS/test/testmtx.c" 1
 1577 0040 83F31188 		msr     BASEPRI, r3
 1578              	@ 0 "" 2
 1579              		.thumb
 1580              	.LBE5:
 1581              		.loc 1 460 0
 1582 0044 2168     		ldr	r1, [r4]
 1583 0046 0320     		movs	r0, #3
 1584 0048 091B     		subs	r1, r1, r4
 1585 004a B1FA81F1 		clz	r1, r1
 1586 004e 4909     		lsrs	r1, r1, #5
 1587 0050 FFF7FEFF 		bl	_test_assert
 1588              	.LVL168:
 1589 0054 0028     		cmp	r0, #0
 1590 0056 E0D1     		bne	.L89
 1591              		.loc 1 461 0
 1592 0058 A168     		ldr	r1, [r4, #8]
 1593 005a 0420     		movs	r0, #4
 1594 005c B1FA81F1 		clz	r1, r1
 1595 0060 4909     		lsrs	r1, r1, #5
 1596 0062 FFF7FEFF 		bl	_test_assert
ARM GAS  /tmp/ccrAilSt.s 			page 29


 1597              	.LVL169:
 1598 0066 0028     		cmp	r0, #0
 1599 0068 D7D1     		bne	.L89
 1600              		.loc 1 462 0
 1601 006a EB69     		ldr	r3, [r5, #28]
 1602 006c 0520     		movs	r0, #5
 1603 006e 9968     		ldr	r1, [r3, #8]
 1604 0070 891B     		subs	r1, r1, r6
 1605 0072 B1FA81F1 		clz	r1, r1
 1606 0076 4909     		lsrs	r1, r1, #5
 1607 0078 FFF7FEFF 		bl	_test_assert
 1608              	.LVL170:
 1609 007c 0028     		cmp	r0, #0
 1610 007e CCD1     		bne	.L89
 1611              		.loc 1 464 0
 1612 0080 2046     		mov	r0, r4
 1613 0082 FFF7FEFF 		bl	chMtxLock
 1614              	.LVL171:
 1615              		.loc 1 465 0
 1616 0086 FFF7FEFF 		bl	chMtxUnlockAll
 1617              	.LVL172:
 1618              		.loc 1 466 0
 1619 008a 2168     		ldr	r1, [r4]
 1620 008c 0620     		movs	r0, #6
 1621 008e 091B     		subs	r1, r1, r4
 1622 0090 B1FA81F1 		clz	r1, r1
 1623 0094 4909     		lsrs	r1, r1, #5
 1624 0096 FFF7FEFF 		bl	_test_assert
 1625              	.LVL173:
 1626 009a 0028     		cmp	r0, #0
 1627 009c BDD1     		bne	.L89
 1628              		.loc 1 467 0
 1629 009e A168     		ldr	r1, [r4, #8]
 1630 00a0 0720     		movs	r0, #7
 1631 00a2 B1FA81F1 		clz	r1, r1
 1632              		.loc 1 468 0
 1633 00a6 BDE8F840 		pop	{r3, r4, r5, r6, r7, lr}
 1634              		.cfi_restore 14
 1635              		.cfi_restore 7
 1636              		.cfi_restore 6
 1637              		.cfi_restore 5
 1638              		.cfi_restore 4
 1639              		.cfi_restore 3
 1640              		.cfi_def_cfa_offset 0
 1641              	.LVL174:
 1642              		.loc 1 467 0
 1643 00aa 4909     		lsrs	r1, r1, #5
 1644 00ac FFF7FEBF 		b	_test_assert
 1645              	.LVL175:
 1646              	.L96:
 1647              		.align	2
 1648              	.L95:
 1649 00b0 00000000 		.word	rlist
 1650 00b4 00000000 		.word	.LANCHOR0
 1651              		.cfi_endproc
 1652              	.LFE27:
 1653              		.size	mtx5_execute, .-mtx5_execute
ARM GAS  /tmp/ccrAilSt.s 			page 30


 1654              		.section	.text.mtx6_execute,"ax",%progbits
 1655              		.align	2
 1656              		.p2align 4,,15
 1657              		.thumb
 1658              		.thumb_func
 1659              		.type	mtx6_execute, %function
 1660              	mtx6_execute:
 1661              	.LFB30:
 1662              		.loc 1 504 0
 1663              		.cfi_startproc
 1664              		@ args = 0, pretend = 0, frame = 0
 1665              		@ frame_needed = 0, uses_anonymous_args = 0
 1666 0000 F0B5     		push	{r4, r5, r6, r7, lr}
 1667              		.cfi_def_cfa_offset 20
 1668              		.cfi_offset 4, -20
 1669              		.cfi_offset 5, -16
 1670              		.cfi_offset 6, -12
 1671              		.cfi_offset 7, -8
 1672              		.cfi_offset 14, -4
 1673              		.loc 1 506 0
 1674 0002 2F4B     		ldr	r3, .L99
 1675              		.loc 1 507 0
 1676 0004 2F4F     		ldr	r7, .L99+4
 1677              		.loc 1 506 0
 1678 0006 DB69     		ldr	r3, [r3, #28]
 1679              		.loc 1 507 0
 1680 0008 2F4D     		ldr	r5, .L99+8
 1681              		.loc 1 506 0
 1682 000a 9E68     		ldr	r6, [r3, #8]
 1683              	.LVL176:
 1684              		.loc 1 507 0
 1685 000c 2F49     		ldr	r1, .L99+12
 1686              		.loc 1 504 0
 1687 000e 83B0     		sub	sp, sp, #12
 1688              		.cfi_def_cfa_offset 32
 1689              		.loc 1 507 0
 1690 0010 721C     		adds	r2, r6, #1
 1691 0012 2B46     		mov	r3, r5
 1692 0014 0091     		str	r1, [sp]
 1693 0016 3868     		ldr	r0, [r7]
 1694 0018 4FF49871 		mov	r1, #304
 1695 001c FFF7FEFF 		bl	chThdCreateStatic
 1696              	.LVL177:
 1697 0020 2B4C     		ldr	r4, .L99+16
 1698              		.loc 1 508 0
 1699 0022 7B68     		ldr	r3, [r7, #4]
 1700 0024 2B49     		ldr	r1, .L99+20
 1701              		.loc 1 507 0
 1702 0026 2060     		str	r0, [r4]
 1703              		.loc 1 508 0
 1704 0028 B21C     		adds	r2, r6, #2
 1705 002a 0091     		str	r1, [sp]
 1706 002c 1846     		mov	r0, r3
 1707 002e 4FF49871 		mov	r1, #304
 1708 0032 2B46     		mov	r3, r5
 1709 0034 FFF7FEFF 		bl	chThdCreateStatic
 1710              	.LVL178:
ARM GAS  /tmp/ccrAilSt.s 			page 31


 1711              		.loc 1 509 0
 1712 0038 BB68     		ldr	r3, [r7, #8]
 1713 003a 2749     		ldr	r1, .L99+24
 1714              		.loc 1 508 0
 1715 003c 6060     		str	r0, [r4, #4]
 1716              		.loc 1 509 0
 1717 003e F21C     		adds	r2, r6, #3
 1718 0040 0091     		str	r1, [sp]
 1719 0042 1846     		mov	r0, r3
 1720 0044 4FF49871 		mov	r1, #304
 1721 0048 2B46     		mov	r3, r5
 1722 004a FFF7FEFF 		bl	chThdCreateStatic
 1723              	.LVL179:
 1724              		.loc 1 510 0
 1725 004e FB68     		ldr	r3, [r7, #12]
 1726 0050 2249     		ldr	r1, .L99+28
 1727              		.loc 1 509 0
 1728 0052 A060     		str	r0, [r4, #8]
 1729              		.loc 1 510 0
 1730 0054 321D     		adds	r2, r6, #4
 1731 0056 0091     		str	r1, [sp]
 1732 0058 1846     		mov	r0, r3
 1733 005a 4FF49871 		mov	r1, #304
 1734 005e 2B46     		mov	r3, r5
 1735 0060 FFF7FEFF 		bl	chThdCreateStatic
 1736              	.LVL180:
 1737              		.loc 1 511 0
 1738 0064 3B69     		ldr	r3, [r7, #16]
 1739 0066 1E49     		ldr	r1, .L99+32
 1740              		.loc 1 510 0
 1741 0068 E060     		str	r0, [r4, #12]
 1742              		.loc 1 511 0
 1743 006a 721D     		adds	r2, r6, #5
 1744 006c 0091     		str	r1, [sp]
 1745 006e 1846     		mov	r0, r3
 1746 0070 4FF49871 		mov	r1, #304
 1747 0074 2B46     		mov	r3, r5
 1748 0076 FFF7FEFF 		bl	chThdCreateStatic
 1749              	.LVL181:
 1750              	.LBB6:
 1751              		.loc 1 512 0
 1752 007a 2023     		movs	r3, #32
 1753              	.LBE6:
 1754              		.loc 1 511 0
 1755 007c 2061     		str	r0, [r4, #16]
 1756              	.LBB7:
 1757              		.loc 1 512 0
 1758              	@ 512 "/home/nicolas/Escritorio/Embebidos/stamp_repo/files/code/ext/ChibiOS/test/testmtx.c" 1
 1759 007e 83F31188 		msr     BASEPRI, r3
 1760              	@ 0 "" 2
 1761              		.thumb
 1762              	.LBE7:
 1763              		.loc 1 513 0
 1764 0082 184C     		ldr	r4, .L99+36
 1765 0084 2046     		mov	r0, r4
 1766 0086 FFF7FEFF 		bl	chCondSignalI
 1767              	.LVL182:
ARM GAS  /tmp/ccrAilSt.s 			page 32


 1768              		.loc 1 514 0
 1769 008a 2046     		mov	r0, r4
 1770 008c FFF7FEFF 		bl	chCondSignalI
 1771              	.LVL183:
 1772              		.loc 1 515 0
 1773 0090 2046     		mov	r0, r4
 1774 0092 FFF7FEFF 		bl	chCondSignalI
 1775              	.LVL184:
 1776              		.loc 1 516 0
 1777 0096 2046     		mov	r0, r4
 1778 0098 FFF7FEFF 		bl	chCondSignalI
 1779              	.LVL185:
 1780              		.loc 1 517 0
 1781 009c 2046     		mov	r0, r4
 1782 009e FFF7FEFF 		bl	chCondSignalI
 1783              	.LVL186:
 1784              		.loc 1 518 0
 1785 00a2 FFF7FEFF 		bl	chSchRescheduleS
 1786              	.LVL187:
 1787              	.LBB8:
 1788              		.loc 1 519 0
 1789 00a6 0023     		movs	r3, #0
 1790              	@ 519 "/home/nicolas/Escritorio/Embebidos/stamp_repo/files/code/ext/ChibiOS/test/testmtx.c" 1
 1791 00a8 83F31188 		msr     BASEPRI, r3
 1792              	@ 0 "" 2
 1793              		.thumb
 1794              	.LBE8:
 1795              		.loc 1 520 0
 1796 00ac FFF7FEFF 		bl	test_wait_threads
 1797              	.LVL188:
 1798              		.loc 1 521 0
 1799 00b0 0D49     		ldr	r1, .L99+40
 1800 00b2 0120     		movs	r0, #1
 1801              		.loc 1 522 0
 1802 00b4 03B0     		add	sp, sp, #12
 1803              		.cfi_def_cfa_offset 20
 1804              		@ sp needed
 1805 00b6 BDE8F040 		pop	{r4, r5, r6, r7, lr}
 1806              		.cfi_restore 14
 1807              		.cfi_restore 7
 1808              		.cfi_restore 6
 1809              		.cfi_restore 5
 1810              		.cfi_restore 4
 1811              		.cfi_def_cfa_offset 0
 1812              	.LVL189:
 1813              		.loc 1 521 0
 1814 00ba FFF7FEBF 		b	_test_assert_sequence
 1815              	.LVL190:
 1816              	.L100:
 1817 00be 00BF     		.align	2
 1818              	.L99:
 1819 00c0 00000000 		.word	rlist
 1820 00c4 00000000 		.word	wa
 1821 00c8 00000000 		.word	thread10
 1822 00cc 00000000 		.word	.LC0
 1823 00d0 00000000 		.word	threads
 1824 00d4 04000000 		.word	.LC1
ARM GAS  /tmp/ccrAilSt.s 			page 33


 1825 00d8 08000000 		.word	.LC2
 1826 00dc 0C000000 		.word	.LC3
 1827 00e0 10000000 		.word	.LC4
 1828 00e4 00000000 		.word	.LANCHOR2
 1829 00e8 14000000 		.word	.LC5
 1830              		.cfi_endproc
 1831              	.LFE30:
 1832              		.size	mtx6_execute, .-mtx6_execute
 1833              		.section	.text.thread10,"ax",%progbits
 1834              		.align	2
 1835              		.p2align 4,,15
 1836              		.thumb
 1837              		.thumb_func
 1838              		.type	thread10, %function
 1839              	thread10:
 1840              	.LFB29:
 1841              		.loc 1 495 0
 1842              		.cfi_startproc
 1843              		@ args = 0, pretend = 0, frame = 0
 1844              		@ frame_needed = 0, uses_anonymous_args = 0
 1845              	.LVL191:
 1846 0000 10B5     		push	{r4, lr}
 1847              		.cfi_def_cfa_offset 8
 1848              		.cfi_offset 4, -8
 1849              		.cfi_offset 14, -4
 1850              		.loc 1 495 0
 1851 0002 0446     		mov	r4, r0
 1852              		.loc 1 497 0
 1853 0004 0648     		ldr	r0, .L103
 1854              	.LVL192:
 1855 0006 FFF7FEFF 		bl	chMtxLock
 1856              	.LVL193:
 1857              		.loc 1 498 0
 1858 000a 0648     		ldr	r0, .L103+4
 1859 000c FFF7FEFF 		bl	chCondWait
 1860              	.LVL194:
 1861              		.loc 1 499 0
 1862 0010 2078     		ldrb	r0, [r4]	@ zero_extendqisi2
 1863 0012 FFF7FEFF 		bl	test_emit_token
 1864              	.LVL195:
 1865              		.loc 1 500 0
 1866 0016 FFF7FEFF 		bl	chMtxUnlock
 1867              	.LVL196:
 1868              		.loc 1 502 0
 1869 001a 0020     		movs	r0, #0
 1870 001c 10BD     		pop	{r4, pc}
 1871              	.LVL197:
 1872              	.L104:
 1873 001e 00BF     		.align	2
 1874              	.L103:
 1875 0020 00000000 		.word	.LANCHOR0
 1876 0024 00000000 		.word	.LANCHOR2
 1877              		.cfi_endproc
 1878              	.LFE29:
 1879              		.size	thread10, .-thread10
 1880              		.section	.text.mtx6_setup,"ax",%progbits
 1881              		.align	2
ARM GAS  /tmp/ccrAilSt.s 			page 34


 1882              		.p2align 4,,15
 1883              		.thumb
 1884              		.thumb_func
 1885              		.type	mtx6_setup, %function
 1886              	mtx6_setup:
 1887              	.LFB28:
 1888              		.loc 1 489 0
 1889              		.cfi_startproc
 1890              		@ args = 0, pretend = 0, frame = 0
 1891              		@ frame_needed = 0, uses_anonymous_args = 0
 1892 0000 08B5     		push	{r3, lr}
 1893              		.cfi_def_cfa_offset 8
 1894              		.cfi_offset 3, -8
 1895              		.cfi_offset 14, -4
 1896              		.loc 1 491 0
 1897 0002 0448     		ldr	r0, .L107
 1898 0004 FFF7FEFF 		bl	chCondInit
 1899              	.LVL198:
 1900              		.loc 1 493 0
 1901 0008 BDE80840 		pop	{r3, lr}
 1902              		.cfi_restore 14
 1903              		.cfi_restore 3
 1904              		.cfi_def_cfa_offset 0
 1905              		.loc 1 492 0
 1906 000c 0248     		ldr	r0, .L107+4
 1907 000e FFF7FEBF 		b	chMtxInit
 1908              	.LVL199:
 1909              	.L108:
 1910 0012 00BF     		.align	2
 1911              	.L107:
 1912 0014 00000000 		.word	.LANCHOR2
 1913 0018 00000000 		.word	.LANCHOR0
 1914              		.cfi_endproc
 1915              	.LFE28:
 1916              		.size	mtx6_setup, .-mtx6_setup
 1917              		.section	.text.mtx7_setup,"ax",%progbits
 1918              		.align	2
 1919              		.p2align 4,,15
 1920              		.thumb
 1921              		.thumb_func
 1922              		.type	mtx7_setup, %function
 1923              	mtx7_setup:
 1924              	.LFB31:
 1925              		.loc 1 541 0
 1926              		.cfi_startproc
 1927              		@ args = 0, pretend = 0, frame = 0
 1928              		@ frame_needed = 0, uses_anonymous_args = 0
 1929 0000 08B5     		push	{r3, lr}
 1930              		.cfi_def_cfa_offset 8
 1931              		.cfi_offset 3, -8
 1932              		.cfi_offset 14, -4
 1933              		.loc 1 543 0
 1934 0002 0448     		ldr	r0, .L111
 1935 0004 FFF7FEFF 		bl	chCondInit
 1936              	.LVL200:
 1937              		.loc 1 545 0
 1938 0008 BDE80840 		pop	{r3, lr}
ARM GAS  /tmp/ccrAilSt.s 			page 35


 1939              		.cfi_restore 14
 1940              		.cfi_restore 3
 1941              		.cfi_def_cfa_offset 0
 1942              		.loc 1 544 0
 1943 000c 0248     		ldr	r0, .L111+4
 1944 000e FFF7FEBF 		b	chMtxInit
 1945              	.LVL201:
 1946              	.L112:
 1947 0012 00BF     		.align	2
 1948              	.L111:
 1949 0014 00000000 		.word	.LANCHOR2
 1950 0018 00000000 		.word	.LANCHOR0
 1951              		.cfi_endproc
 1952              	.LFE31:
 1953              		.size	mtx7_setup, .-mtx7_setup
 1954              		.section	.text.mtx8_setup,"ax",%progbits
 1955              		.align	2
 1956              		.p2align 4,,15
 1957              		.thumb
 1958              		.thumb_func
 1959              		.type	mtx8_setup, %function
 1960              	mtx8_setup:
 1961              	.LFB33:
 1962              		.loc 1 576 0
 1963              		.cfi_startproc
 1964              		@ args = 0, pretend = 0, frame = 0
 1965              		@ frame_needed = 0, uses_anonymous_args = 0
 1966 0000 08B5     		push	{r3, lr}
 1967              		.cfi_def_cfa_offset 8
 1968              		.cfi_offset 3, -8
 1969              		.cfi_offset 14, -4
 1970              		.loc 1 578 0
 1971 0002 0548     		ldr	r0, .L115
 1972 0004 FFF7FEFF 		bl	chCondInit
 1973              	.LVL202:
 1974              		.loc 1 579 0
 1975 0008 0448     		ldr	r0, .L115+4
 1976 000a FFF7FEFF 		bl	chMtxInit
 1977              	.LVL203:
 1978              		.loc 1 581 0
 1979 000e BDE80840 		pop	{r3, lr}
 1980              		.cfi_restore 14
 1981              		.cfi_restore 3
 1982              		.cfi_def_cfa_offset 0
 1983              		.loc 1 580 0
 1984 0012 0348     		ldr	r0, .L115+8
 1985 0014 FFF7FEBF 		b	chMtxInit
 1986              	.LVL204:
 1987              	.L116:
 1988              		.align	2
 1989              	.L115:
 1990 0018 00000000 		.word	.LANCHOR2
 1991 001c 00000000 		.word	.LANCHOR0
 1992 0020 00000000 		.word	.LANCHOR1
 1993              		.cfi_endproc
 1994              	.LFE33:
 1995              		.size	mtx8_setup, .-mtx8_setup
ARM GAS  /tmp/ccrAilSt.s 			page 36


 1996              		.section	.text.mtx7_execute,"ax",%progbits
 1997              		.align	2
 1998              		.p2align 4,,15
 1999              		.thumb
 2000              		.thumb_func
 2001              		.type	mtx7_execute, %function
 2002              	mtx7_execute:
 2003              	.LFB32:
 2004              		.loc 1 547 0
 2005              		.cfi_startproc
 2006              		@ args = 0, pretend = 0, frame = 0
 2007              		@ frame_needed = 0, uses_anonymous_args = 0
 2008 0000 F0B5     		push	{r4, r5, r6, r7, lr}
 2009              		.cfi_def_cfa_offset 20
 2010              		.cfi_offset 4, -20
 2011              		.cfi_offset 5, -16
 2012              		.cfi_offset 6, -12
 2013              		.cfi_offset 7, -8
 2014              		.cfi_offset 14, -4
 2015              		.loc 1 549 0
 2016 0002 244B     		ldr	r3, .L119
 2017              		.loc 1 550 0
 2018 0004 244F     		ldr	r7, .L119+4
 2019              		.loc 1 549 0
 2020 0006 DB69     		ldr	r3, [r3, #28]
 2021              		.loc 1 550 0
 2022 0008 244D     		ldr	r5, .L119+8
 2023              		.loc 1 549 0
 2024 000a 9E68     		ldr	r6, [r3, #8]
 2025              	.LVL205:
 2026              		.loc 1 550 0
 2027 000c 2449     		ldr	r1, .L119+12
 2028              		.loc 1 547 0
 2029 000e 83B0     		sub	sp, sp, #12
 2030              		.cfi_def_cfa_offset 32
 2031              		.loc 1 550 0
 2032 0010 721C     		adds	r2, r6, #1
 2033 0012 2B46     		mov	r3, r5
 2034 0014 0091     		str	r1, [sp]
 2035 0016 3868     		ldr	r0, [r7]
 2036 0018 4FF49871 		mov	r1, #304
 2037 001c FFF7FEFF 		bl	chThdCreateStatic
 2038              	.LVL206:
 2039 0020 204C     		ldr	r4, .L119+16
 2040              		.loc 1 551 0
 2041 0022 7B68     		ldr	r3, [r7, #4]
 2042 0024 2049     		ldr	r1, .L119+20
 2043              		.loc 1 550 0
 2044 0026 2060     		str	r0, [r4]
 2045              		.loc 1 551 0
 2046 0028 B21C     		adds	r2, r6, #2
 2047 002a 0091     		str	r1, [sp]
 2048 002c 1846     		mov	r0, r3
 2049 002e 4FF49871 		mov	r1, #304
 2050 0032 2B46     		mov	r3, r5
 2051 0034 FFF7FEFF 		bl	chThdCreateStatic
 2052              	.LVL207:
ARM GAS  /tmp/ccrAilSt.s 			page 37


 2053              		.loc 1 552 0
 2054 0038 BB68     		ldr	r3, [r7, #8]
 2055 003a 1C49     		ldr	r1, .L119+24
 2056              		.loc 1 551 0
 2057 003c 6060     		str	r0, [r4, #4]
 2058              		.loc 1 552 0
 2059 003e F21C     		adds	r2, r6, #3
 2060 0040 0091     		str	r1, [sp]
 2061 0042 1846     		mov	r0, r3
 2062 0044 4FF49871 		mov	r1, #304
 2063 0048 2B46     		mov	r3, r5
 2064 004a FFF7FEFF 		bl	chThdCreateStatic
 2065              	.LVL208:
 2066              		.loc 1 553 0
 2067 004e FB68     		ldr	r3, [r7, #12]
 2068 0050 1749     		ldr	r1, .L119+28
 2069              		.loc 1 552 0
 2070 0052 A060     		str	r0, [r4, #8]
 2071              		.loc 1 553 0
 2072 0054 321D     		adds	r2, r6, #4
 2073 0056 0091     		str	r1, [sp]
 2074 0058 1846     		mov	r0, r3
 2075 005a 4FF49871 		mov	r1, #304
 2076 005e 2B46     		mov	r3, r5
 2077 0060 FFF7FEFF 		bl	chThdCreateStatic
 2078              	.LVL209:
 2079              		.loc 1 554 0
 2080 0064 3B69     		ldr	r3, [r7, #16]
 2081 0066 1349     		ldr	r1, .L119+32
 2082 0068 721D     		adds	r2, r6, #5
 2083              		.loc 1 553 0
 2084 006a E060     		str	r0, [r4, #12]
 2085              		.loc 1 554 0
 2086 006c 0091     		str	r1, [sp]
 2087 006e 1846     		mov	r0, r3
 2088 0070 4FF49871 		mov	r1, #304
 2089 0074 2B46     		mov	r3, r5
 2090 0076 FFF7FEFF 		bl	chThdCreateStatic
 2091              	.LVL210:
 2092 007a 2061     		str	r0, [r4, #16]
 2093              		.loc 1 555 0
 2094 007c 0E48     		ldr	r0, .L119+36
 2095 007e FFF7FEFF 		bl	chCondBroadcast
 2096              	.LVL211:
 2097              		.loc 1 556 0
 2098 0082 FFF7FEFF 		bl	test_wait_threads
 2099              	.LVL212:
 2100              		.loc 1 557 0
 2101 0086 0D49     		ldr	r1, .L119+40
 2102 0088 0120     		movs	r0, #1
 2103              		.loc 1 558 0
 2104 008a 03B0     		add	sp, sp, #12
 2105              		.cfi_def_cfa_offset 20
 2106              		@ sp needed
 2107 008c BDE8F040 		pop	{r4, r5, r6, r7, lr}
 2108              		.cfi_restore 14
 2109              		.cfi_restore 7
ARM GAS  /tmp/ccrAilSt.s 			page 38


 2110              		.cfi_restore 6
 2111              		.cfi_restore 5
 2112              		.cfi_restore 4
 2113              		.cfi_def_cfa_offset 0
 2114              	.LVL213:
 2115              		.loc 1 557 0
 2116 0090 FFF7FEBF 		b	_test_assert_sequence
 2117              	.LVL214:
 2118              	.L120:
 2119              		.align	2
 2120              	.L119:
 2121 0094 00000000 		.word	rlist
 2122 0098 00000000 		.word	wa
 2123 009c 00000000 		.word	thread10
 2124 00a0 00000000 		.word	.LC0
 2125 00a4 00000000 		.word	threads
 2126 00a8 04000000 		.word	.LC1
 2127 00ac 08000000 		.word	.LC2
 2128 00b0 0C000000 		.word	.LC3
 2129 00b4 10000000 		.word	.LC4
 2130 00b8 00000000 		.word	.LANCHOR2
 2131 00bc 14000000 		.word	.LC5
 2132              		.cfi_endproc
 2133              	.LFE32:
 2134              		.size	mtx7_execute, .-mtx7_execute
 2135              		.section	.text.mtx8_execute,"ax",%progbits
 2136              		.align	2
 2137              		.p2align 4,,15
 2138              		.thumb
 2139              		.thumb_func
 2140              		.type	mtx8_execute, %function
 2141              	mtx8_execute:
 2142              	.LFB36:
 2143              		.loc 1 606 0
 2144              		.cfi_startproc
 2145              		@ args = 0, pretend = 0, frame = 0
 2146              		@ frame_needed = 0, uses_anonymous_args = 0
 2147 0000 70B5     		push	{r4, r5, r6, lr}
 2148              		.cfi_def_cfa_offset 16
 2149              		.cfi_offset 4, -16
 2150              		.cfi_offset 5, -12
 2151              		.cfi_offset 6, -8
 2152              		.cfi_offset 14, -4
 2153              		.loc 1 608 0
 2154 0002 1B4B     		ldr	r3, .L123
 2155              		.loc 1 609 0
 2156 0004 1B4E     		ldr	r6, .L123+4
 2157              		.loc 1 608 0
 2158 0006 DB69     		ldr	r3, [r3, #28]
 2159              		.loc 1 606 0
 2160 0008 82B0     		sub	sp, sp, #8
 2161              		.cfi_def_cfa_offset 24
 2162              		.loc 1 608 0
 2163 000a 9D68     		ldr	r5, [r3, #8]
 2164              	.LVL215:
 2165              		.loc 1 609 0
 2166 000c 1A4B     		ldr	r3, .L123+8
ARM GAS  /tmp/ccrAilSt.s 			page 39


 2167 000e 6A1C     		adds	r2, r5, #1
 2168 0010 0093     		str	r3, [sp]
 2169 0012 3068     		ldr	r0, [r6]
 2170 0014 4FF49871 		mov	r1, #304
 2171 0018 184B     		ldr	r3, .L123+12
 2172 001a FFF7FEFF 		bl	chThdCreateStatic
 2173              	.LVL216:
 2174 001e 184C     		ldr	r4, .L123+16
 2175              		.loc 1 610 0
 2176 0020 7168     		ldr	r1, [r6, #4]
 2177 0022 184B     		ldr	r3, .L123+20
 2178              		.loc 1 609 0
 2179 0024 2060     		str	r0, [r4]
 2180              		.loc 1 610 0
 2181 0026 AA1C     		adds	r2, r5, #2
 2182 0028 0093     		str	r3, [sp]
 2183 002a 0846     		mov	r0, r1
 2184 002c 164B     		ldr	r3, .L123+24
 2185 002e 4FF49871 		mov	r1, #304
 2186 0032 FFF7FEFF 		bl	chThdCreateStatic
 2187              	.LVL217:
 2188              		.loc 1 611 0
 2189 0036 B168     		ldr	r1, [r6, #8]
 2190 0038 144B     		ldr	r3, .L123+28
 2191 003a EA1C     		adds	r2, r5, #3
 2192              		.loc 1 610 0
 2193 003c 6060     		str	r0, [r4, #4]
 2194              		.loc 1 611 0
 2195 003e 0093     		str	r3, [sp]
 2196 0040 0846     		mov	r0, r1
 2197 0042 134B     		ldr	r3, .L123+32
 2198 0044 4FF49871 		mov	r1, #304
 2199 0048 FFF7FEFF 		bl	chThdCreateStatic
 2200              	.LVL218:
 2201              		.loc 1 612 0
 2202 004c 114D     		ldr	r5, .L123+36
 2203              	.LVL219:
 2204              		.loc 1 611 0
 2205 004e A060     		str	r0, [r4, #8]
 2206              		.loc 1 612 0
 2207 0050 2846     		mov	r0, r5
 2208 0052 FFF7FEFF 		bl	chCondSignal
 2209              	.LVL220:
 2210              		.loc 1 613 0
 2211 0056 2846     		mov	r0, r5
 2212 0058 FFF7FEFF 		bl	chCondSignal
 2213              	.LVL221:
 2214              		.loc 1 614 0
 2215 005c FFF7FEFF 		bl	test_wait_threads
 2216              	.LVL222:
 2217              		.loc 1 615 0
 2218 0060 0D49     		ldr	r1, .L123+40
 2219 0062 0120     		movs	r0, #1
 2220              		.loc 1 616 0
 2221 0064 02B0     		add	sp, sp, #8
 2222              		.cfi_def_cfa_offset 16
 2223              		@ sp needed
ARM GAS  /tmp/ccrAilSt.s 			page 40


 2224 0066 BDE87040 		pop	{r4, r5, r6, lr}
 2225              		.cfi_restore 14
 2226              		.cfi_restore 6
 2227              		.cfi_restore 5
 2228              		.cfi_restore 4
 2229              		.cfi_def_cfa_offset 0
 2230              		.loc 1 615 0
 2231 006a FFF7FEBF 		b	_test_assert_sequence
 2232              	.LVL223:
 2233              	.L124:
 2234 006e 00BF     		.align	2
 2235              	.L123:
 2236 0070 00000000 		.word	rlist
 2237 0074 00000000 		.word	wa
 2238 0078 10000000 		.word	.LC4
 2239 007c 00000000 		.word	thread11
 2240 0080 00000000 		.word	threads
 2241 0084 08000000 		.word	.LC2
 2242 0088 00000000 		.word	thread10
 2243 008c 0C000000 		.word	.LC3
 2244 0090 00000000 		.word	thread12
 2245 0094 00000000 		.word	.LANCHOR2
 2246 0098 1C000000 		.word	.LC6
 2247              		.cfi_endproc
 2248              	.LFE36:
 2249              		.size	mtx8_execute, .-mtx8_execute
 2250              		.section	.text.thread11,"ax",%progbits
 2251              		.align	2
 2252              		.p2align 4,,15
 2253              		.thumb
 2254              		.thumb_func
 2255              		.type	thread11, %function
 2256              	thread11:
 2257              	.LFB34:
 2258              		.loc 1 583 0
 2259              		.cfi_startproc
 2260              		@ args = 0, pretend = 0, frame = 0
 2261              		@ frame_needed = 0, uses_anonymous_args = 0
 2262              	.LVL224:
 2263 0000 10B5     		push	{r4, lr}
 2264              		.cfi_def_cfa_offset 8
 2265              		.cfi_offset 4, -8
 2266              		.cfi_offset 14, -4
 2267              		.loc 1 583 0
 2268 0002 0446     		mov	r4, r0
 2269              		.loc 1 585 0
 2270 0004 0948     		ldr	r0, .L127
 2271              	.LVL225:
 2272 0006 FFF7FEFF 		bl	chMtxLock
 2273              	.LVL226:
 2274              		.loc 1 586 0
 2275 000a 0948     		ldr	r0, .L127+4
 2276 000c FFF7FEFF 		bl	chMtxLock
 2277              	.LVL227:
 2278              		.loc 1 588 0
 2279 0010 4FF0FF31 		mov	r1, #-1
 2280 0014 0748     		ldr	r0, .L127+8
ARM GAS  /tmp/ccrAilSt.s 			page 41


 2281 0016 FFF7FEFF 		bl	chCondWaitTimeout
 2282              	.LVL228:
 2283              		.loc 1 592 0
 2284 001a 2078     		ldrb	r0, [r4]	@ zero_extendqisi2
 2285 001c FFF7FEFF 		bl	test_emit_token
 2286              	.LVL229:
 2287              		.loc 1 593 0
 2288 0020 FFF7FEFF 		bl	chMtxUnlock
 2289              	.LVL230:
 2290              		.loc 1 594 0
 2291 0024 FFF7FEFF 		bl	chMtxUnlock
 2292              	.LVL231:
 2293              		.loc 1 596 0
 2294 0028 0020     		movs	r0, #0
 2295 002a 10BD     		pop	{r4, pc}
 2296              	.LVL232:
 2297              	.L128:
 2298              		.align	2
 2299              	.L127:
 2300 002c 00000000 		.word	.LANCHOR1
 2301 0030 00000000 		.word	.LANCHOR0
 2302 0034 00000000 		.word	.LANCHOR2
 2303              		.cfi_endproc
 2304              	.LFE34:
 2305              		.size	thread11, .-thread11
 2306              		.global	patternmtx
 2307              		.global	testmtx8
 2308              		.global	testmtx7
 2309              		.global	testmtx6
 2310              		.global	testmtx5
 2311              		.global	testmtx4
 2312              		.global	testmtx3
 2313              		.global	testmtx2
 2314              		.global	testmtx1
 2315              		.section	.rodata.testmtx5,"a",%progbits
 2316              		.align	2
 2317              		.type	testmtx5, %object
 2318              		.size	testmtx5, 16
 2319              	testmtx5:
 2320 0000 64000000 		.word	.LC10
 2321 0004 00000000 		.word	mtx5_setup
 2322 0008 00000000 		.word	0
 2323 000c 00000000 		.word	mtx5_execute
 2324              		.section	.rodata.testmtx6,"a",%progbits
 2325              		.align	2
 2326              		.type	testmtx6, %object
 2327              		.size	testmtx6, 16
 2328              	testmtx6:
 2329 0000 4C000000 		.word	.LC9
 2330 0004 00000000 		.word	mtx6_setup
 2331 0008 00000000 		.word	0
 2332 000c 00000000 		.word	mtx6_execute
 2333              		.section	.rodata.testmtx7,"a",%progbits
 2334              		.align	2
 2335              		.type	testmtx7, %object
 2336              		.size	testmtx7, 16
 2337              	testmtx7:
ARM GAS  /tmp/ccrAilSt.s 			page 42


 2338 0000 34000000 		.word	.LC8
 2339 0004 00000000 		.word	mtx7_setup
 2340 0008 00000000 		.word	0
 2341 000c 00000000 		.word	mtx7_execute
 2342              		.section	.rodata.testmtx8,"a",%progbits
 2343              		.align	2
 2344              		.type	testmtx8, %object
 2345              		.size	testmtx8, 16
 2346              	testmtx8:
 2347 0000 20000000 		.word	.LC7
 2348 0004 00000000 		.word	mtx8_setup
 2349 0008 00000000 		.word	0
 2350 000c 00000000 		.word	mtx8_execute
 2351              		.section	.data.m1,"aw",%progbits
 2352              		.align	2
 2353              		.set	.LANCHOR0,. + 0
 2354              		.type	m1, %object
 2355              		.size	m1, 16
 2356              	m1:
 2357 0000 00000000 		.word	m1
 2358 0004 00000000 		.word	m1
 2359 0008 00000000 		.word	0
 2360 000c 00000000 		.word	0
 2361              		.section	.data.m2,"aw",%progbits
 2362              		.align	2
 2363              		.set	.LANCHOR1,. + 0
 2364              		.type	m2, %object
 2365              		.size	m2, 16
 2366              	m2:
 2367 0000 00000000 		.word	m2
 2368 0004 00000000 		.word	m2
 2369 0008 00000000 		.word	0
 2370 000c 00000000 		.word	0
 2371              		.section	.rodata.str1.4,"aMS",%progbits,1
 2372              		.align	2
 2373              	.LC0:
 2374 0000 4500     		.ascii	"E\000"
 2375 0002 0000     		.space	2
 2376              	.LC1:
 2377 0004 4400     		.ascii	"D\000"
 2378 0006 0000     		.space	2
 2379              	.LC2:
 2380 0008 4300     		.ascii	"C\000"
 2381 000a 0000     		.space	2
 2382              	.LC3:
 2383 000c 4200     		.ascii	"B\000"
 2384 000e 0000     		.space	2
 2385              	.LC4:
 2386 0010 4100     		.ascii	"A\000"
 2387 0012 0000     		.space	2
 2388              	.LC5:
 2389 0014 41424344 		.ascii	"ABCDE\000"
 2389      4500
 2390 001a 0000     		.space	2
 2391              	.LC6:
 2392 001c 41424300 		.ascii	"ABC\000"
 2393              	.LC7:
ARM GAS  /tmp/ccrAilSt.s 			page 43


 2394 0020 436F6E64 		.ascii	"CondVar, boost test\000"
 2394      5661722C 
 2394      20626F6F 
 2394      73742074 
 2394      65737400 
 2395              	.LC8:
 2396 0034 436F6E64 		.ascii	"CondVar, broadcast test\000"
 2396      5661722C 
 2396      2062726F 
 2396      61646361 
 2396      73742074 
 2397              	.LC9:
 2398 004c 436F6E64 		.ascii	"CondVar, signal test\000"
 2398      5661722C 
 2398      20736967 
 2398      6E616C20 
 2398      74657374 
 2399 0061 000000   		.space	3
 2400              	.LC10:
 2401 0064 4D757465 		.ascii	"Mutexes, status\000"
 2401      7865732C 
 2401      20737461 
 2401      74757300 
 2402              	.LC11:
 2403 0074 4D757465 		.ascii	"Mutexes, priority return\000"
 2403      7865732C 
 2403      20707269 
 2403      6F726974 
 2403      79207265 
 2404 008d 000000   		.space	3
 2405              	.LC12:
 2406 0090 4D757465 		.ascii	"Mutexes, priority inheritance, complex case\000"
 2406      7865732C 
 2406      20707269 
 2406      6F726974 
 2406      7920696E 
 2407              	.LC13:
 2408 00bc 4D757465 		.ascii	"Mutexes, priority inheritance, simple case\000"
 2408      7865732C 
 2408      20707269 
 2408      6F726974 
 2408      7920696E 
 2409 00e7 00       		.space	1
 2410              	.LC14:
 2411 00e8 4D757465 		.ascii	"Mutexes, priority enqueuing test\000"
 2411      7865732C 
 2411      20707269 
 2411      6F726974 
 2411      7920656E 
 2412              		.section	.rodata.patternmtx,"a",%progbits
 2413              		.align	2
 2414              		.type	patternmtx, %object
 2415              		.size	patternmtx, 36
 2416              	patternmtx:
 2417 0000 00000000 		.word	testmtx1
 2418 0004 00000000 		.word	testmtx2
 2419 0008 00000000 		.word	testmtx3
ARM GAS  /tmp/ccrAilSt.s 			page 44


 2420 000c 00000000 		.word	testmtx4
 2421 0010 00000000 		.word	testmtx5
 2422 0014 00000000 		.word	testmtx6
 2423 0018 00000000 		.word	testmtx7
 2424 001c 00000000 		.word	testmtx8
 2425 0020 00000000 		.word	0
 2426              		.section	.data.c1,"aw",%progbits
 2427              		.align	2
 2428              		.set	.LANCHOR2,. + 0
 2429              		.type	c1, %object
 2430              		.size	c1, 8
 2431              	c1:
 2432 0000 00000000 		.word	c1
 2433 0004 00000000 		.word	c1
 2434              		.section	.rodata.testmtx1,"a",%progbits
 2435              		.align	2
 2436              		.type	testmtx1, %object
 2437              		.size	testmtx1, 16
 2438              	testmtx1:
 2439 0000 E8000000 		.word	.LC14
 2440 0004 00000000 		.word	mtx1_setup
 2441 0008 00000000 		.word	0
 2442 000c 00000000 		.word	mtx1_execute
 2443              		.section	.rodata.testmtx2,"a",%progbits
 2444              		.align	2
 2445              		.type	testmtx2, %object
 2446              		.size	testmtx2, 16
 2447              	testmtx2:
 2448 0000 BC000000 		.word	.LC13
 2449 0004 00000000 		.word	mtx2_setup
 2450 0008 00000000 		.word	0
 2451 000c 00000000 		.word	mtx2_execute
 2452              		.section	.rodata.testmtx3,"a",%progbits
 2453              		.align	2
 2454              		.type	testmtx3, %object
 2455              		.size	testmtx3, 16
 2456              	testmtx3:
 2457 0000 90000000 		.word	.LC12
 2458 0004 00000000 		.word	mtx3_setup
 2459 0008 00000000 		.word	0
 2460 000c 00000000 		.word	mtx3_execute
 2461              		.section	.rodata.testmtx4,"a",%progbits
 2462              		.align	2
 2463              		.type	testmtx4, %object
 2464              		.size	testmtx4, 16
 2465              	testmtx4:
 2466 0000 74000000 		.word	.LC11
 2467 0004 00000000 		.word	mtx4_setup
 2468 0008 00000000 		.word	0
 2469 000c 00000000 		.word	mtx4_execute
 2470              		.text
 2471              	.Letext0:
 2472              		.file 2 "/opt/gcc-arm-none-eabi-4_9-2015q3/lib/gcc/arm-none-eabi/4.9.3/include/stddef.h"
 2473              		.file 3 "/opt/gcc-arm-none-eabi-4_9-2015q3/arm-none-eabi/include/machine/_default_types.h"
 2474              		.file 4 "/opt/gcc-arm-none-eabi-4_9-2015q3/arm-none-eabi/include/sys/_stdint.h"
 2475              		.file 5 "/home/nicolas/Escritorio/Embebidos/stamp_repo/files/code/ext/ChibiOS/os/ports/GCC/ARMCMx/
 2476              		.file 6 "/home/nicolas/Escritorio/Embebidos/stamp_repo/files/code/ext/ChibiOS/os/kernel/include/ch
ARM GAS  /tmp/ccrAilSt.s 			page 45


 2477              		.file 7 "/home/nicolas/Escritorio/Embebidos/stamp_repo/files/code/ext/ChibiOS/os/kernel/include/ch
 2478              		.file 8 "/home/nicolas/Escritorio/Embebidos/stamp_repo/files/code/ext/ChibiOS/os/ports/GCC/ARMCMx/
 2479              		.file 9 "/home/nicolas/Escritorio/Embebidos/stamp_repo/files/code/ext/ChibiOS/os/kernel/include/ch
 2480              		.file 10 "/home/nicolas/Escritorio/Embebidos/stamp_repo/files/code/ext/ChibiOS/os/kernel/include/c
 2481              		.file 11 "/home/nicolas/Escritorio/Embebidos/stamp_repo/files/code/ext/ChibiOS/os/kernel/include/c
 2482              		.file 12 "/home/nicolas/Escritorio/Embebidos/stamp_repo/files/code/ext/ChibiOS/os/kernel/include/c
 2483              		.file 13 "/home/nicolas/Escritorio/Embebidos/stamp_repo/files/code/ext/ChibiOS/test/test.h"