ARM GAS  /tmp/ccqHz6xP.s 			page 1


   1              		.syntax unified
   2              		.cpu cortex-m3
   3              		.fpu softvfp
   4              		.eabi_attribute 20, 1
   5              		.eabi_attribute 21, 1
   6              		.eabi_attribute 23, 3
   7              		.eabi_attribute 24, 1
   8              		.eabi_attribute 25, 1
   9              		.eabi_attribute 26, 1
  10              		.eabi_attribute 30, 2
  11              		.eabi_attribute 34, 1
  12              		.eabi_attribute 18, 4
  13              		.thumb
  14              		.file	"testdyn.c"
  15              		.text
  16              	.Ltext0:
  17              		.cfi_sections	.debug_frame
  18              		.section	.text.dyn1_execute,"ax",%progbits
  19              		.align	2
  20              		.p2align 4,,15
  21              		.thumb
  22              		.thumb_func
  23              		.type	dyn1_execute, %function
  24              	dyn1_execute:
  25              	.LFB9:
  26              		.file 1 "/home/leoperez/Documents/acuerol-stamp_repo-9ea99115aa86/files/code/ext/ChibiOS/test/test
  27              		.loc 1 94 0
  28              		.cfi_startproc
  29              		@ args = 0, pretend = 0, frame = 8
  30              		@ frame_needed = 0, uses_anonymous_args = 0
  31 0000 70B5     		push	{r4, r5, r6, lr}
  32              		.cfi_def_cfa_offset 16
  33              		.cfi_offset 4, -16
  34              		.cfi_offset 5, -12
  35              		.cfi_offset 6, -8
  36              		.cfi_offset 14, -4
  37              		.loc 1 97 0
  38 0002 344B     		ldr	r3, .L13
  39              		.loc 1 94 0
  40 0004 84B0     		sub	sp, sp, #16
  41              		.cfi_def_cfa_offset 32
  42              		.loc 1 97 0
  43 0006 DB69     		ldr	r3, [r3, #28]
  44              		.loc 1 99 0
  45 0008 03A9     		add	r1, sp, #12
  46 000a 3348     		ldr	r0, .L13+4
  47              		.loc 1 97 0
  48 000c 9D68     		ldr	r5, [r3, #8]
  49              	.LVL0:
  50              		.loc 1 99 0
  51 000e FFF7FEFF 		bl	chHeapStatus
  52              	.LVL1:
  53              		.loc 1 101 0
  54 0012 324B     		ldr	r3, .L13+8
  55 0014 6A1E     		subs	r2, r5, #1
  56 0016 0093     		str	r3, [sp]
  57 0018 4FF49871 		mov	r1, #304
ARM GAS  /tmp/ccqHz6xP.s 			page 2


  58 001c 304B     		ldr	r3, .L13+12
  59 001e 2E48     		ldr	r0, .L13+4
  60 0020 FFF7FEFF 		bl	chThdCreateFromHeap
  61              	.LVL2:
  62 0024 2F4C     		ldr	r4, .L13+16
  63              		.loc 1 103 0
  64 0026 304B     		ldr	r3, .L13+20
  65 0028 AA1E     		subs	r2, r5, #2
  66              		.loc 1 101 0
  67 002a 2060     		str	r0, [r4]
  68              		.loc 1 103 0
  69 002c 0093     		str	r3, [sp]
  70 002e 4FF49871 		mov	r1, #304
  71 0032 2B4B     		ldr	r3, .L13+12
  72 0034 2848     		ldr	r0, .L13+4
  73 0036 FFF7FEFF 		bl	chThdCreateFromHeap
  74              	.LVL3:
  75              		.loc 1 106 0
  76 003a 02A9     		add	r1, sp, #8
  77              		.loc 1 103 0
  78 003c 6060     		str	r0, [r4, #4]
  79              		.loc 1 106 0
  80 003e 2648     		ldr	r0, .L13+4
  81 0040 FFF7FEFF 		bl	chHeapStatus
  82              	.LVL4:
  83              		.loc 1 107 0
  84 0044 0299     		ldr	r1, [sp, #8]
  85 0046 2448     		ldr	r0, .L13+4
  86 0048 FFF7FEFF 		bl	chHeapAlloc
  87              	.LVL5:
  88              		.loc 1 108 0
  89 004c 274B     		ldr	r3, .L13+24
  90 004e 4FF49871 		mov	r1, #304
  91              		.loc 1 107 0
  92 0052 0646     		mov	r6, r0
  93              	.LVL6:
  94              		.loc 1 108 0
  95 0054 EA1E     		subs	r2, r5, #3
  96 0056 0093     		str	r3, [sp]
  97 0058 1F48     		ldr	r0, .L13+4
  98              	.LVL7:
  99 005a 214B     		ldr	r3, .L13+12
 100 005c FFF7FEFF 		bl	chThdCreateFromHeap
 101              	.LVL8:
 102 0060 A060     		str	r0, [r4, #8]
 103              		.loc 1 110 0
 104 0062 3046     		mov	r0, r6
 105 0064 FFF7FEFF 		bl	chHeapFree
 106              	.LVL9:
 107              		.loc 1 112 0
 108 0068 2168     		ldr	r1, [r4]
 109 006a 21B1     		cbz	r1, .L2
 110              		.loc 1 112 0 is_stmt 0 discriminator 1
 111 006c 6168     		ldr	r1, [r4, #4]
 112 006e 11B1     		cbz	r1, .L2
 113              		.loc 1 112 0 discriminator 3
 114 0070 A168     		ldr	r1, [r4, #8]
ARM GAS  /tmp/ccqHz6xP.s 			page 3


 115 0072 31B3     		cbz	r1, .L11
 116              		.loc 1 112 0
 117 0074 0021     		movs	r1, #0
 118              	.L2:
 119              		.loc 1 112 0 discriminator 12
 120 0076 0120     		movs	r0, #1
 121 0078 FFF7FEFF 		bl	_test_assert
 122              	.LVL10:
 123 007c 08B1     		cbz	r0, .L12
 124              	.L1:
 125              		.loc 1 126 0 is_stmt 1
 126 007e 04B0     		add	sp, sp, #16
 127              		.cfi_remember_state
 128              		.cfi_def_cfa_offset 16
 129              		@ sp needed
 130 0080 70BD     		pop	{r4, r5, r6, pc}
 131              	.LVL11:
 132              	.L12:
 133              		.cfi_restore_state
 134              		.loc 1 120 0
 135 0082 FFF7FEFF 		bl	test_wait_threads
 136              	.LVL12:
 137              		.loc 1 121 0
 138 0086 0220     		movs	r0, #2
 139 0088 1949     		ldr	r1, .L13+28
 140 008a FFF7FEFF 		bl	_test_assert_sequence
 141              	.LVL13:
 142 008e 0028     		cmp	r0, #0
 143 0090 F5D1     		bne	.L1
 144              		.loc 1 124 0
 145 0092 02A9     		add	r1, sp, #8
 146 0094 1048     		ldr	r0, .L13+4
 147 0096 FFF7FEFF 		bl	chHeapStatus
 148              	.LVL14:
 149 009a A0F10101 		sub	r1, r0, #1
 150 009e B1FA81F1 		clz	r1, r1
 151 00a2 0320     		movs	r0, #3
 152 00a4 4909     		lsrs	r1, r1, #5
 153 00a6 FFF7FEFF 		bl	_test_assert
 154              	.LVL15:
 155 00aa 0028     		cmp	r0, #0
 156 00ac E7D1     		bne	.L1
 157              		.loc 1 125 0
 158 00ae 0299     		ldr	r1, [sp, #8]
 159 00b0 039B     		ldr	r3, [sp, #12]
 160 00b2 0420     		movs	r0, #4
 161 00b4 C91A     		subs	r1, r1, r3
 162 00b6 B1FA81F1 		clz	r1, r1
 163 00ba 4909     		lsrs	r1, r1, #5
 164 00bc FFF7FEFF 		bl	_test_assert
 165              	.LVL16:
 166 00c0 DDE7     		b	.L1
 167              	.L11:
 168              		.loc 1 112 0 discriminator 5
 169 00c2 E368     		ldr	r3, [r4, #12]
 170 00c4 002B     		cmp	r3, #0
 171 00c6 D6D1     		bne	.L2
ARM GAS  /tmp/ccqHz6xP.s 			page 4


 172              		.loc 1 112 0 is_stmt 0 discriminator 7
 173 00c8 2169     		ldr	r1, [r4, #16]
 174 00ca B1FA81F1 		clz	r1, r1
 175 00ce 4909     		lsrs	r1, r1, #5
 176 00d0 D1E7     		b	.L2
 177              	.L14:
 178 00d2 00BF     		.align	2
 179              	.L13:
 180 00d4 00000000 		.word	rlist
 181 00d8 00000000 		.word	.LANCHOR0
 182 00dc 00000000 		.word	.LC0
 183 00e0 00000000 		.word	thread
 184 00e4 00000000 		.word	threads
 185 00e8 04000000 		.word	.LC1
 186 00ec 08000000 		.word	.LC2
 187 00f0 0C000000 		.word	.LC3
 188              		.cfi_endproc
 189              	.LFE9:
 190              		.size	dyn1_execute, .-dyn1_execute
 191              		.section	.text.thread,"ax",%progbits
 192              		.align	2
 193              		.p2align 4,,15
 194              		.thumb
 195              		.thumb_func
 196              		.type	thread, %function
 197              	thread:
 198              	.LFB7:
 199              		.loc 1 82 0 is_stmt 1
 200              		.cfi_startproc
 201              		@ args = 0, pretend = 0, frame = 0
 202              		@ frame_needed = 0, uses_anonymous_args = 0
 203              	.LVL17:
 204 0000 08B5     		push	{r3, lr}
 205              		.cfi_def_cfa_offset 8
 206              		.cfi_offset 3, -8
 207              		.cfi_offset 14, -4
 208              		.loc 1 84 0
 209 0002 0078     		ldrb	r0, [r0]	@ zero_extendqisi2
 210              	.LVL18:
 211 0004 FFF7FEFF 		bl	test_emit_token
 212              	.LVL19:
 213              		.loc 1 86 0
 214 0008 0020     		movs	r0, #0
 215 000a 08BD     		pop	{r3, pc}
 216              		.cfi_endproc
 217              	.LFE7:
 218              		.size	thread, .-thread
 219              		.section	.text.dyn1_setup,"ax",%progbits
 220              		.align	2
 221              		.p2align 4,,15
 222              		.thumb
 223              		.thumb_func
 224              		.type	dyn1_setup, %function
 225              	dyn1_setup:
 226              	.LFB8:
 227              		.loc 1 89 0
 228              		.cfi_startproc
ARM GAS  /tmp/ccqHz6xP.s 			page 5


 229              		@ args = 0, pretend = 0, frame = 0
 230              		@ frame_needed = 0, uses_anonymous_args = 0
 231              		@ link register save eliminated.
 232              		.loc 1 91 0
 233 0000 0248     		ldr	r0, .L18
 234 0002 0349     		ldr	r1, .L18+4
 235 0004 4FF4BE62 		mov	r2, #1520
 236 0008 FFF7FEBF 		b	chHeapInit
 237              	.LVL20:
 238              	.L19:
 239              		.align	2
 240              	.L18:
 241 000c 00000000 		.word	.LANCHOR0
 242 0010 00000000 		.word	test
 243              		.cfi_endproc
 244              	.LFE8:
 245              		.size	dyn1_setup, .-dyn1_setup
 246              		.section	.text.dyn3_setup,"ax",%progbits
 247              		.align	2
 248              		.p2align 4,,15
 249              		.thumb
 250              		.thumb_func
 251              		.type	dyn3_setup, %function
 252              	dyn3_setup:
 253              	.LFB13:
 254              		.loc 1 214 0
 255              		.cfi_startproc
 256              		@ args = 0, pretend = 0, frame = 0
 257              		@ frame_needed = 0, uses_anonymous_args = 0
 258              		@ link register save eliminated.
 259              		.loc 1 216 0
 260 0000 0248     		ldr	r0, .L21
 261 0002 0349     		ldr	r1, .L21+4
 262 0004 4FF4BE62 		mov	r2, #1520
 263 0008 FFF7FEBF 		b	chHeapInit
 264              	.LVL21:
 265              	.L22:
 266              		.align	2
 267              	.L21:
 268 000c 00000000 		.word	.LANCHOR0
 269 0010 00000000 		.word	test
 270              		.cfi_endproc
 271              	.LFE13:
 272              		.size	dyn3_setup, .-dyn3_setup
 273              		.section	.text.dyn2_execute,"ax",%progbits
 274              		.align	2
 275              		.p2align 4,,15
 276              		.thumb
 277              		.thumb_func
 278              		.type	dyn2_execute, %function
 279              	dyn2_execute:
 280              	.LFB11:
 281              		.loc 1 152 0
 282              		.cfi_startproc
 283              		@ args = 0, pretend = 0, frame = 0
 284              		@ frame_needed = 0, uses_anonymous_args = 0
 285              		.loc 1 154 0
ARM GAS  /tmp/ccqHz6xP.s 			page 6


 286 0000 314B     		ldr	r3, .L38
 287              		.loc 1 152 0
 288 0002 70B5     		push	{r4, r5, r6, lr}
 289              		.cfi_def_cfa_offset 16
 290              		.cfi_offset 4, -16
 291              		.cfi_offset 5, -12
 292              		.cfi_offset 6, -8
 293              		.cfi_offset 14, -4
 294              		.loc 1 154 0
 295 0004 DB69     		ldr	r3, [r3, #28]
 296 0006 314C     		ldr	r4, .L38+4
 297 0008 9D68     		ldr	r5, [r3, #8]
 298              	.LVL22:
 299 000a 04F11006 		add	r6, r4, #16
 300              	.LVL23:
 301              	.L24:
 302              		.loc 1 158 0 discriminator 3
 303 000e 54F8041B 		ldr	r1, [r4], #4
 304 0012 2F48     		ldr	r0, .L38+8
 305 0014 FFF7FEFF 		bl	chPoolFree
 306              	.LVL24:
 307              		.loc 1 157 0 discriminator 3
 308 0018 B442     		cmp	r4, r6
 309 001a F8D1     		bne	.L24
 310              		.loc 1 161 0
 311 001c 691E     		subs	r1, r5, #1
 312 001e 2D4A     		ldr	r2, .L38+12
 313 0020 2D4B     		ldr	r3, .L38+16
 314 0022 2B48     		ldr	r0, .L38+8
 315 0024 FFF7FEFF 		bl	chThdCreateFromMemoryPool
 316              	.LVL25:
 317 0028 2C4C     		ldr	r4, .L38+20
 318              		.loc 1 162 0
 319 002a A91E     		subs	r1, r5, #2
 320              		.loc 1 161 0
 321 002c 2060     		str	r0, [r4]
 322              		.loc 1 162 0
 323 002e 294A     		ldr	r2, .L38+12
 324 0030 2B4B     		ldr	r3, .L38+24
 325 0032 2748     		ldr	r0, .L38+8
 326 0034 FFF7FEFF 		bl	chThdCreateFromMemoryPool
 327              	.LVL26:
 328              		.loc 1 163 0
 329 0038 E91E     		subs	r1, r5, #3
 330              		.loc 1 162 0
 331 003a 6060     		str	r0, [r4, #4]
 332              		.loc 1 163 0
 333 003c 254A     		ldr	r2, .L38+12
 334 003e 294B     		ldr	r3, .L38+28
 335 0040 2348     		ldr	r0, .L38+8
 336 0042 FFF7FEFF 		bl	chThdCreateFromMemoryPool
 337              	.LVL27:
 338              		.loc 1 164 0
 339 0046 291F     		subs	r1, r5, #4
 340              		.loc 1 163 0
 341 0048 A060     		str	r0, [r4, #8]
 342              		.loc 1 164 0
ARM GAS  /tmp/ccqHz6xP.s 			page 7


 343 004a 224A     		ldr	r2, .L38+12
 344 004c 264B     		ldr	r3, .L38+32
 345 004e 2048     		ldr	r0, .L38+8
 346 0050 FFF7FEFF 		bl	chThdCreateFromMemoryPool
 347              	.LVL28:
 348              		.loc 1 165 0
 349 0054 691F     		subs	r1, r5, #5
 350              		.loc 1 164 0
 351 0056 E060     		str	r0, [r4, #12]
 352              		.loc 1 165 0
 353 0058 1E4A     		ldr	r2, .L38+12
 354 005a 1D48     		ldr	r0, .L38+8
 355 005c 234B     		ldr	r3, .L38+36
 356 005e FFF7FEFF 		bl	chThdCreateFromMemoryPool
 357              	.LVL29:
 358              		.loc 1 167 0
 359 0062 2168     		ldr	r1, [r4]
 360              		.loc 1 165 0
 361 0064 2061     		str	r0, [r4, #16]
 362              		.loc 1 167 0
 363 0066 41B1     		cbz	r1, .L25
 364              		.loc 1 167 0 is_stmt 0 discriminator 1
 365 0068 6168     		ldr	r1, [r4, #4]
 366 006a 31B1     		cbz	r1, .L25
 367              		.loc 1 167 0 discriminator 3
 368 006c A168     		ldr	r1, [r4, #8]
 369 006e 21B1     		cbz	r1, .L25
 370              		.loc 1 167 0 discriminator 5
 371 0070 E168     		ldr	r1, [r4, #12]
 372 0072 11B1     		cbz	r1, .L25
 373              		.loc 1 167 0 discriminator 7
 374 0074 B0FA80F1 		clz	r1, r0
 375 0078 4909     		lsrs	r1, r1, #5
 376              	.L25:
 377              		.loc 1 167 0 discriminator 12
 378 007a 0120     		movs	r0, #1
 379 007c FFF7FEFF 		bl	_test_assert
 380              	.LVL30:
 381 0080 00B1     		cbz	r0, .L37
 382              	.L23:
 383 0082 70BD     		pop	{r4, r5, r6, pc}
 384              	.LVL31:
 385              	.L37:
 386              		.loc 1 175 0 is_stmt 1
 387 0084 FFF7FEFF 		bl	test_wait_threads
 388              	.LVL32:
 389              		.loc 1 176 0
 390 0088 0220     		movs	r0, #2
 391 008a 1949     		ldr	r1, .L38+40
 392 008c FFF7FEFF 		bl	_test_assert_sequence
 393              	.LVL33:
 394 0090 0028     		cmp	r0, #0
 395 0092 F6D1     		bne	.L23
 396 0094 0424     		movs	r4, #4
 397              	.L29:
 398              	.LVL34:
 399              		.loc 1 180 0
ARM GAS  /tmp/ccqHz6xP.s 			page 8


 400 0096 0E48     		ldr	r0, .L38+8
 401 0098 FFF7FEFF 		bl	chPoolAlloc
 402              	.LVL35:
 403 009c 011C     		adds	r1, r0, #0
 404 009e 18BF     		it	ne
 405 00a0 0121     		movne	r1, #1
 406 00a2 0320     		movs	r0, #3
 407 00a4 FFF7FEFF 		bl	_test_assert
 408              	.LVL36:
 409 00a8 0028     		cmp	r0, #0
 410 00aa EAD1     		bne	.L23
 411              		.loc 1 179 0 discriminator 2
 412 00ac 013C     		subs	r4, r4, #1
 413              	.LVL37:
 414 00ae F2D1     		bne	.L29
 415              		.loc 1 181 0
 416 00b0 0748     		ldr	r0, .L38+8
 417 00b2 FFF7FEFF 		bl	chPoolAlloc
 418              	.LVL38:
 419              		.loc 1 182 0
 420 00b6 BDE87040 		pop	{r4, r5, r6, lr}
 421              		.cfi_restore 14
 422              		.cfi_restore 6
 423              		.cfi_restore 5
 424              		.cfi_restore 4
 425              		.cfi_def_cfa_offset 0
 426              	.LVL39:
 427              		.loc 1 181 0
 428 00ba B0FA80F1 		clz	r1, r0
 429 00be 0420     		movs	r0, #4
 430 00c0 4909     		lsrs	r1, r1, #5
 431 00c2 FFF7FEBF 		b	_test_assert
 432              	.LVL40:
 433              	.L39:
 434 00c6 00BF     		.align	2
 435              	.L38:
 436 00c8 00000000 		.word	rlist
 437 00cc 00000000 		.word	wa
 438 00d0 00000000 		.word	.LANCHOR1
 439 00d4 00000000 		.word	thread
 440 00d8 00000000 		.word	.LC0
 441 00dc 00000000 		.word	threads
 442 00e0 04000000 		.word	.LC1
 443 00e4 08000000 		.word	.LC2
 444 00e8 10000000 		.word	.LC4
 445 00ec 14000000 		.word	.LC5
 446 00f0 18000000 		.word	.LC6
 447              		.cfi_endproc
 448              	.LFE11:
 449              		.size	dyn2_execute, .-dyn2_execute
 450              		.section	.text.dyn2_setup,"ax",%progbits
 451              		.align	2
 452              		.p2align 4,,15
 453              		.thumb
 454              		.thumb_func
 455              		.type	dyn2_setup, %function
 456              	dyn2_setup:
ARM GAS  /tmp/ccqHz6xP.s 			page 9


 457              	.LFB10:
 458              		.loc 1 147 0
 459              		.cfi_startproc
 460              		@ args = 0, pretend = 0, frame = 0
 461              		@ frame_needed = 0, uses_anonymous_args = 0
 462              		@ link register save eliminated.
 463              		.loc 1 149 0
 464 0000 0248     		ldr	r0, .L41
 465 0002 4FF49871 		mov	r1, #304
 466 0006 0022     		movs	r2, #0
 467 0008 FFF7FEBF 		b	chPoolInit
 468              	.LVL41:
 469              	.L42:
 470              		.align	2
 471              	.L41:
 472 000c 00000000 		.word	.LANCHOR1
 473              		.cfi_endproc
 474              	.LFE10:
 475              		.size	dyn2_setup, .-dyn2_setup
 476              		.section	.text.regfind,"ax",%progbits
 477              		.align	2
 478              		.p2align 4,,15
 479              		.thumb
 480              		.thumb_func
 481              		.type	regfind, %function
 482              	regfind:
 483              	.LFB12:
 484              		.loc 1 202 0
 485              		.cfi_startproc
 486              		@ args = 0, pretend = 0, frame = 0
 487              		@ frame_needed = 0, uses_anonymous_args = 0
 488              	.LVL42:
 489 0000 38B5     		push	{r3, r4, r5, lr}
 490              		.cfi_def_cfa_offset 16
 491              		.cfi_offset 3, -16
 492              		.cfi_offset 4, -12
 493              		.cfi_offset 5, -8
 494              		.cfi_offset 14, -4
 495              		.loc 1 202 0
 496 0002 0546     		mov	r5, r0
 497              		.loc 1 206 0
 498 0004 FFF7FEFF 		bl	chRegFirstThread
 499              	.LVL43:
 500 0008 0346     		mov	r3, r0
 501              	.LVL44:
 502              		.loc 1 204 0
 503 000a 0024     		movs	r4, #0
 504              	.LVL45:
 505              	.L44:
 506              		.loc 1 209 0 discriminator 1
 507 000c 1846     		mov	r0, r3
 508              		.loc 1 208 0 discriminator 1
 509 000e AB42     		cmp	r3, r5
 510 0010 08BF     		it	eq
 511 0012 44F00104 		orreq	r4, r4, #1
 512              	.LVL46:
 513              		.loc 1 209 0 discriminator 1
ARM GAS  /tmp/ccqHz6xP.s 			page 10


 514 0016 FFF7FEFF 		bl	chRegNextThread
 515              	.LVL47:
 516              		.loc 1 210 0 discriminator 1
 517 001a 0346     		mov	r3, r0
 518 001c 0028     		cmp	r0, #0
 519 001e F5D1     		bne	.L44
 520              		.loc 1 212 0
 521 0020 2046     		mov	r0, r4
 522              	.LVL48:
 523 0022 38BD     		pop	{r3, r4, r5, pc}
 524              		.cfi_endproc
 525              	.LFE12:
 526              		.size	regfind, .-regfind
 527              		.section	.text.dyn3_execute,"ax",%progbits
 528              		.align	2
 529              		.p2align 4,,15
 530              		.thumb
 531              		.thumb_func
 532              		.type	dyn3_execute, %function
 533              	dyn3_execute:
 534              	.LFB14:
 535              		.loc 1 219 0
 536              		.cfi_startproc
 537              		@ args = 0, pretend = 0, frame = 0
 538              		@ frame_needed = 0, uses_anonymous_args = 0
 539              	.LVL49:
 540 0000 10B5     		push	{r4, lr}
 541              		.cfi_def_cfa_offset 8
 542              		.cfi_offset 4, -8
 543              		.cfi_offset 14, -4
 544              		.loc 1 221 0
 545 0002 474A     		ldr	r2, .L53
 546              		.loc 1 224 0
 547 0004 474B     		ldr	r3, .L53+4
 548              		.loc 1 221 0
 549 0006 D269     		ldr	r2, [r2, #28]
 550              		.loc 1 219 0
 551 0008 82B0     		sub	sp, sp, #8
 552              		.cfi_def_cfa_offset 16
 553              		.loc 1 224 0
 554 000a 9268     		ldr	r2, [r2, #8]
 555 000c 4FF49871 		mov	r1, #304
 556 0010 0093     		str	r3, [sp]
 557              	.LVL50:
 558 0012 4548     		ldr	r0, .L53+8
 559 0014 013A     		subs	r2, r2, #1
 560 0016 454B     		ldr	r3, .L53+12
 561 0018 FFF7FEFF 		bl	chThdCreateFromHeap
 562              	.LVL51:
 563              		.loc 1 225 0
 564 001c 817F     		ldrb	r1, [r0, #30]	@ zero_extendqisi2
 565              		.loc 1 224 0
 566 001e 0446     		mov	r4, r0
 567              	.LVL52:
 568              		.loc 1 225 0
 569 0020 0120     		movs	r0, #1
 570              	.LVL53:
ARM GAS  /tmp/ccqHz6xP.s 			page 11


 571 0022 091A     		subs	r1, r1, r0
 572 0024 B1FA81F1 		clz	r1, r1
 573 0028 4909     		lsrs	r1, r1, #5
 574 002a FFF7FEFF 		bl	_test_assert
 575              	.LVL54:
 576 002e 08B1     		cbz	r0, .L52
 577              	.L47:
 578              		.loc 1 247 0
 579 0030 02B0     		add	sp, sp, #8
 580              		.cfi_remember_state
 581              		.cfi_def_cfa_offset 8
 582              		@ sp needed
 583 0032 10BD     		pop	{r4, pc}
 584              	.LVL55:
 585              	.L52:
 586              		.cfi_restore_state
 587              		.loc 1 226 0
 588 0034 2046     		mov	r0, r4
 589 0036 FFF7FEFF 		bl	chThdAddRef
 590              	.LVL56:
 591              		.loc 1 227 0
 592 003a A17F     		ldrb	r1, [r4, #30]	@ zero_extendqisi2
 593 003c 0220     		movs	r0, #2
 594 003e 091A     		subs	r1, r1, r0
 595 0040 B1FA81F1 		clz	r1, r1
 596 0044 4909     		lsrs	r1, r1, #5
 597 0046 FFF7FEFF 		bl	_test_assert
 598              	.LVL57:
 599 004a 0028     		cmp	r0, #0
 600 004c F0D1     		bne	.L47
 601              		.loc 1 228 0
 602 004e 2046     		mov	r0, r4
 603 0050 FFF7FEFF 		bl	chThdRelease
 604              	.LVL58:
 605              		.loc 1 229 0
 606 0054 A17F     		ldrb	r1, [r4, #30]	@ zero_extendqisi2
 607 0056 0320     		movs	r0, #3
 608 0058 A1F10101 		sub	r1, #1
 609 005c B1FA81F1 		clz	r1, r1
 610 0060 4909     		lsrs	r1, r1, #5
 611 0062 FFF7FEFF 		bl	_test_assert
 612              	.LVL59:
 613 0066 0028     		cmp	r0, #0
 614 0068 E2D1     		bne	.L47
 615              		.loc 1 232 0
 616 006a 2046     		mov	r0, r4
 617 006c FFF7FEFF 		bl	regfind
 618              	.LVL60:
 619 0070 0146     		mov	r1, r0
 620 0072 0420     		movs	r0, #4
 621 0074 FFF7FEFF 		bl	_test_assert
 622              	.LVL61:
 623 0078 0028     		cmp	r0, #0
 624 007a D9D1     		bne	.L47
 625              		.loc 1 233 0
 626 007c 2046     		mov	r0, r4
 627 007e FFF7FEFF 		bl	regfind
ARM GAS  /tmp/ccqHz6xP.s 			page 12


 628              	.LVL62:
 629 0082 0146     		mov	r1, r0
 630 0084 0520     		movs	r0, #5
 631 0086 FFF7FEFF 		bl	_test_assert
 632              	.LVL63:
 633 008a 0028     		cmp	r0, #0
 634 008c D0D1     		bne	.L47
 635              		.loc 1 236 0
 636 008e 2046     		mov	r0, r4
 637 0090 FFF7FEFF 		bl	chThdRelease
 638              	.LVL64:
 639              		.loc 1 237 0
 640 0094 A17F     		ldrb	r1, [r4, #30]	@ zero_extendqisi2
 641 0096 0620     		movs	r0, #6
 642 0098 B1FA81F1 		clz	r1, r1
 643 009c 4909     		lsrs	r1, r1, #5
 644 009e FFF7FEFF 		bl	_test_assert
 645              	.LVL65:
 646 00a2 0028     		cmp	r0, #0
 647 00a4 C4D1     		bne	.L47
 648              		.loc 1 238 0
 649 00a6 217F     		ldrb	r1, [r4, #28]	@ zero_extendqisi2
 650 00a8 0720     		movs	r0, #7
 651 00aa B1FA81F1 		clz	r1, r1
 652 00ae 4909     		lsrs	r1, r1, #5
 653 00b0 FFF7FEFF 		bl	_test_assert
 654              	.LVL66:
 655 00b4 0028     		cmp	r0, #0
 656 00b6 BBD1     		bne	.L47
 657              		.loc 1 239 0
 658 00b8 2046     		mov	r0, r4
 659 00ba FFF7FEFF 		bl	regfind
 660              	.LVL67:
 661 00be 0146     		mov	r1, r0
 662 00c0 0820     		movs	r0, #8
 663 00c2 FFF7FEFF 		bl	_test_assert
 664              	.LVL68:
 665 00c6 0028     		cmp	r0, #0
 666 00c8 B2D1     		bne	.L47
 667              		.loc 1 240 0
 668 00ca 2046     		mov	r0, r4
 669 00cc FFF7FEFF 		bl	regfind
 670              	.LVL69:
 671 00d0 0146     		mov	r1, r0
 672 00d2 0920     		movs	r0, #9
 673 00d4 FFF7FEFF 		bl	_test_assert
 674              	.LVL70:
 675 00d8 0028     		cmp	r0, #0
 676 00da A9D1     		bne	.L47
 677              		.loc 1 241 0
 678 00dc 3220     		movs	r0, #50
 679 00de FFF7FEFF 		bl	chThdSleep
 680              	.LVL71:
 681              		.loc 1 242 0
 682 00e2 217F     		ldrb	r1, [r4, #28]	@ zero_extendqisi2
 683 00e4 0A20     		movs	r0, #10
 684 00e6 A1F10E03 		sub	r3, r1, #14
ARM GAS  /tmp/ccqHz6xP.s 			page 13


 685 00ea 5942     		rsbs	r1, r3, #0
 686 00ec 5941     		adcs	r1, r1, r3
 687 00ee FFF7FEFF 		bl	_test_assert
 688              	.LVL72:
 689 00f2 0028     		cmp	r0, #0
 690 00f4 9CD1     		bne	.L47
 691              		.loc 1 245 0
 692 00f6 2046     		mov	r0, r4
 693 00f8 FFF7FEFF 		bl	regfind
 694              	.LVL73:
 695 00fc 0146     		mov	r1, r0
 696 00fe 0B20     		movs	r0, #11
 697 0100 FFF7FEFF 		bl	_test_assert
 698              	.LVL74:
 699 0104 0028     		cmp	r0, #0
 700 0106 93D1     		bne	.L47
 701              		.loc 1 246 0
 702 0108 2046     		mov	r0, r4
 703 010a FFF7FEFF 		bl	regfind
 704              	.LVL75:
 705 010e B0FA80F1 		clz	r1, r0
 706 0112 0C20     		movs	r0, #12
 707 0114 4909     		lsrs	r1, r1, #5
 708              		.loc 1 247 0
 709 0116 02B0     		add	sp, sp, #8
 710              		.cfi_def_cfa_offset 8
 711              		@ sp needed
 712 0118 BDE81040 		pop	{r4, lr}
 713              		.cfi_restore 14
 714              		.cfi_restore 4
 715              		.cfi_def_cfa_offset 0
 716              	.LVL76:
 717              		.loc 1 246 0
 718 011c FFF7FEBF 		b	_test_assert
 719              	.LVL77:
 720              	.L54:
 721              		.align	2
 722              	.L53:
 723 0120 00000000 		.word	rlist
 724 0124 00000000 		.word	.LC0
 725 0128 00000000 		.word	.LANCHOR0
 726 012c 00000000 		.word	thread
 727              		.cfi_endproc
 728              	.LFE14:
 729              		.size	dyn3_execute, .-dyn3_execute
 730              		.global	patterndyn
 731              		.global	testdyn3
 732              		.global	testdyn2
 733              		.global	testdyn1
 734              		.section	.rodata.testdyn1,"a",%progbits
 735              		.align	2
 736              		.type	testdyn1, %object
 737              		.size	testdyn1, 16
 738              	testdyn1:
 739 0000 78000000 		.word	.LC9
 740 0004 00000000 		.word	dyn1_setup
 741 0008 00000000 		.word	0
ARM GAS  /tmp/ccqHz6xP.s 			page 14


 742 000c 00000000 		.word	dyn1_execute
 743              		.section	.rodata.testdyn2,"a",%progbits
 744              		.align	2
 745              		.type	testdyn2, %object
 746              		.size	testdyn2, 16
 747              	testdyn2:
 748 0000 48000000 		.word	.LC8
 749 0004 00000000 		.word	dyn2_setup
 750 0008 00000000 		.word	0
 751 000c 00000000 		.word	dyn2_execute
 752              		.section	.rodata.testdyn3,"a",%progbits
 753              		.align	2
 754              		.type	testdyn3, %object
 755              		.size	testdyn3, 16
 756              	testdyn3:
 757 0000 20000000 		.word	.LC7
 758 0004 00000000 		.word	dyn3_setup
 759 0008 00000000 		.word	0
 760 000c 00000000 		.word	dyn3_execute
 761              		.section	.bss.mp1,"aw",%nobits
 762              		.align	2
 763              		.set	.LANCHOR1,. + 0
 764              		.type	mp1, %object
 765              		.size	mp1, 12
 766              	mp1:
 767 0000 00000000 		.space	12
 767      00000000 
 767      00000000 
 768              		.section	.rodata.str1.4,"aMS",%progbits,1
 769              		.align	2
 770              	.LC0:
 771 0000 4100     		.ascii	"A\000"
 772 0002 0000     		.space	2
 773              	.LC1:
 774 0004 4200     		.ascii	"B\000"
 775 0006 0000     		.space	2
 776              	.LC2:
 777 0008 4300     		.ascii	"C\000"
 778 000a 0000     		.space	2
 779              	.LC3:
 780 000c 414200   		.ascii	"AB\000"
 781 000f 00       		.space	1
 782              	.LC4:
 783 0010 4400     		.ascii	"D\000"
 784 0012 0000     		.space	2
 785              	.LC5:
 786 0014 4500     		.ascii	"E\000"
 787 0016 0000     		.space	2
 788              	.LC6:
 789 0018 41424344 		.ascii	"ABCD\000"
 789      00
 790 001d 000000   		.space	3
 791              	.LC7:
 792 0020 44796E61 		.ascii	"Dynamic APIs, registry and references\000"
 792      6D696320 
 792      41504973 
 792      2C207265 
ARM GAS  /tmp/ccqHz6xP.s 			page 15


 792      67697374 
 793 0046 0000     		.space	2
 794              	.LC8:
 795 0048 44796E61 		.ascii	"Dynamic APIs, threads creation from memory pool\000"
 795      6D696320 
 795      41504973 
 795      2C207468 
 795      72656164 
 796              	.LC9:
 797 0078 44796E61 		.ascii	"Dynamic APIs, threads creation from heap\000"
 797      6D696320 
 797      41504973 
 797      2C207468 
 797      72656164 
 798              		.section	.rodata.patterndyn,"a",%progbits
 799              		.align	2
 800              		.type	patterndyn, %object
 801              		.size	patterndyn, 16
 802              	patterndyn:
 803 0000 00000000 		.word	testdyn1
 804 0004 00000000 		.word	testdyn2
 805 0008 00000000 		.word	testdyn3
 806 000c 00000000 		.word	0
 807              		.section	.bss.heap1,"aw",%nobits
 808              		.align	3
 809              		.set	.LANCHOR0,. + 0
 810              		.type	heap1, %object
 811              		.size	heap1, 32
 812              	heap1:
 813 0000 00000000 		.space	32
 813      00000000 
 813      00000000 
 813      00000000 
 813      00000000 
 814              		.text
 815              	.Letext0:
 816              		.file 2 "/home/leoperez/Documents/acuerol-stamp_repo-9ea99115aa86/gcc-arm-none-eabi-4_9-2015q3/lib
 817              		.file 3 "/home/leoperez/Documents/acuerol-stamp_repo-9ea99115aa86/gcc-arm-none-eabi-4_9-2015q3/arm
 818              		.file 4 "/home/leoperez/Documents/acuerol-stamp_repo-9ea99115aa86/gcc-arm-none-eabi-4_9-2015q3/arm
 819              		.file 5 "/home/leoperez/Documents/acuerol-stamp_repo-9ea99115aa86/files/code/ext/ChibiOS/os/ports/
 820              		.file 6 "/home/leoperez/Documents/acuerol-stamp_repo-9ea99115aa86/files/code/ext/ChibiOS/os/kernel
 821              		.file 7 "/home/leoperez/Documents/acuerol-stamp_repo-9ea99115aa86/files/code/ext/ChibiOS/os/kernel
 822              		.file 8 "/home/leoperez/Documents/acuerol-stamp_repo-9ea99115aa86/files/code/ext/ChibiOS/os/ports/
 823              		.file 9 "/home/leoperez/Documents/acuerol-stamp_repo-9ea99115aa86/files/code/ext/ChibiOS/os/kernel
 824              		.file 10 "/home/leoperez/Documents/acuerol-stamp_repo-9ea99115aa86/files/code/ext/ChibiOS/os/kerne
 825              		.file 11 "/home/leoperez/Documents/acuerol-stamp_repo-9ea99115aa86/files/code/ext/ChibiOS/os/kerne
 826              		.file 12 "/home/leoperez/Documents/acuerol-stamp_repo-9ea99115aa86/files/code/ext/ChibiOS/os/kerne
 827              		.file 13 "/home/leoperez/Documents/acuerol-stamp_repo-9ea99115aa86/files/code/ext/ChibiOS/os/kerne
 828              		.file 14 "/home/leoperez/Documents/acuerol-stamp_repo-9ea99115aa86/files/code/ext/ChibiOS/test/tes
 829              		.file 15 "/home/leoperez/Documents/acuerol-stamp_repo-9ea99115aa86/files/code/ext/ChibiOS/os/kerne
 830              		.file 16 "/home/leoperez/Documents/acuerol-stamp_repo-9ea99115aa86/files/code/ext/ChibiOS/os/kerne