ARM GAS  /tmp/ccNW20VN.s 			page 1


   1              		.syntax unified
   2              		.cpu cortex-m3
   3              		.fpu softvfp
   4              		.eabi_attribute 20, 1
   5              		.eabi_attribute 21, 1
   6              		.eabi_attribute 23, 3
   7              		.eabi_attribute 24, 1
   8              		.eabi_attribute 25, 1
   9              		.eabi_attribute 26, 1
  10              		.eabi_attribute 30, 2
  11              		.eabi_attribute 34, 1
  12              		.eabi_attribute 18, 4
  13              		.thumb
  14              		.file	"testsem.c"
  15              		.text
  16              	.Ltext0:
  17              		.cfi_sections	.debug_frame
  18              		.section	.text.sem1_execute,"ax",%progbits
  19              		.align	2
  20              		.p2align 4,,15
  21              		.thumb
  22              		.thumb_func
  23              		.type	sem1_execute, %function
  24              	sem1_execute:
  25              	.LFB9:
  26              		.file 1 "/home/leoperez/Documents/acuerol-stamp_repo-9ea99115aa86/files/code/ext/ChibiOS/test/test
  27              		.loc 1 95 0
  28              		.cfi_startproc
  29              		@ args = 0, pretend = 0, frame = 0
  30              		@ frame_needed = 0, uses_anonymous_args = 0
  31 0000 2DE9F043 		push	{r4, r5, r6, r7, r8, r9, lr}
  32              		.cfi_def_cfa_offset 28
  33              		.cfi_offset 4, -28
  34              		.cfi_offset 5, -24
  35              		.cfi_offset 6, -20
  36              		.cfi_offset 7, -16
  37              		.cfi_offset 8, -12
  38              		.cfi_offset 9, -8
  39              		.cfi_offset 14, -4
  40              		.loc 1 97 0
  41 0004 434E     		ldr	r6, .L6
  42 0006 444C     		ldr	r4, .L6+4
  43 0008 F369     		ldr	r3, [r6, #28]
  44 000a D4F80090 		ldr	r9, [r4]
  45 000e 9A68     		ldr	r2, [r3, #8]
  46 0010 DFF82881 		ldr	r8, .L6+40
  47              		.loc 1 95 0
  48 0014 83B0     		sub	sp, sp, #12
  49              		.cfi_def_cfa_offset 40
  50              		.loc 1 97 0
  51 0016 0532     		adds	r2, r2, #5
  52 0018 4FF49871 		mov	r1, #304
  53 001c 3F4B     		ldr	r3, .L6+8
  54 001e 4846     		mov	r0, r9
  55 0020 CDF80080 		str	r8, [sp]
  56 0024 FFF7FEFF 		bl	chThdCreateStatic
  57              	.LVL0:
ARM GAS  /tmp/ccNW20VN.s 			page 2


  58              		.loc 1 98 0
  59 0028 F369     		ldr	r3, [r6, #28]
  60              		.loc 1 97 0
  61 002a 3D4D     		ldr	r5, .L6+12
  62              		.loc 1 98 0
  63 002c 9A68     		ldr	r2, [r3, #8]
  64 002e 6168     		ldr	r1, [r4, #4]
  65 0030 3C4B     		ldr	r3, .L6+16
  66              		.loc 1 97 0
  67 0032 2860     		str	r0, [r5]
  68              		.loc 1 98 0
  69 0034 0132     		adds	r2, r2, #1
  70 0036 0846     		mov	r0, r1
  71 0038 0093     		str	r3, [sp]
  72 003a 4FF49871 		mov	r1, #304
  73 003e 374B     		ldr	r3, .L6+8
  74 0040 FFF7FEFF 		bl	chThdCreateStatic
  75              	.LVL1:
  76              		.loc 1 99 0
  77 0044 F369     		ldr	r3, [r6, #28]
  78 0046 A168     		ldr	r1, [r4, #8]
  79 0048 9A68     		ldr	r2, [r3, #8]
  80 004a 374B     		ldr	r3, .L6+20
  81              		.loc 1 98 0
  82 004c 6860     		str	r0, [r5, #4]
  83              		.loc 1 99 0
  84 004e 0332     		adds	r2, r2, #3
  85 0050 0846     		mov	r0, r1
  86 0052 0093     		str	r3, [sp]
  87 0054 4FF49871 		mov	r1, #304
  88 0058 304B     		ldr	r3, .L6+8
  89 005a FFF7FEFF 		bl	chThdCreateStatic
  90              	.LVL2:
  91              		.loc 1 100 0
  92 005e F369     		ldr	r3, [r6, #28]
  93 0060 E168     		ldr	r1, [r4, #12]
  94 0062 9A68     		ldr	r2, [r3, #8]
  95 0064 314B     		ldr	r3, .L6+24
  96              		.loc 1 99 0
  97 0066 A860     		str	r0, [r5, #8]
  98              		.loc 1 100 0
  99 0068 0432     		adds	r2, r2, #4
 100 006a 0846     		mov	r0, r1
 101 006c 0093     		str	r3, [sp]
 102 006e 4FF49871 		mov	r1, #304
 103 0072 2A4B     		ldr	r3, .L6+8
 104 0074 FFF7FEFF 		bl	chThdCreateStatic
 105              	.LVL3:
 106              		.loc 1 101 0
 107 0078 F369     		ldr	r3, [r6, #28]
 108 007a 2169     		ldr	r1, [r4, #16]
 109 007c 9A68     		ldr	r2, [r3, #8]
 110 007e 2C4B     		ldr	r3, .L6+28
 111 0080 0232     		adds	r2, r2, #2
 112              		.loc 1 100 0
 113 0082 E860     		str	r0, [r5, #12]
 114              		.loc 1 101 0
ARM GAS  /tmp/ccNW20VN.s 			page 3


 115 0084 0093     		str	r3, [sp]
 116 0086 0846     		mov	r0, r1
 117 0088 244B     		ldr	r3, .L6+8
 118 008a 4FF49871 		mov	r1, #304
 119 008e FFF7FEFF 		bl	chThdCreateStatic
 120              	.LVL4:
 121              		.loc 1 102 0
 122 0092 284C     		ldr	r4, .L6+32
 123              		.loc 1 101 0
 124 0094 2861     		str	r0, [r5, #16]
 125              		.loc 1 102 0
 126 0096 2046     		mov	r0, r4
 127 0098 FFF7FEFF 		bl	chSemSignal
 128              	.LVL5:
 129              		.loc 1 103 0
 130 009c 2046     		mov	r0, r4
 131 009e FFF7FEFF 		bl	chSemSignal
 132              	.LVL6:
 133              		.loc 1 104 0
 134 00a2 2046     		mov	r0, r4
 135 00a4 FFF7FEFF 		bl	chSemSignal
 136              	.LVL7:
 137              		.loc 1 105 0
 138 00a8 2046     		mov	r0, r4
 139 00aa FFF7FEFF 		bl	chSemSignal
 140              	.LVL8:
 141              		.loc 1 106 0
 142 00ae 2046     		mov	r0, r4
 143 00b0 FFF7FEFF 		bl	chSemSignal
 144              	.LVL9:
 145              		.loc 1 107 0
 146 00b4 FFF7FEFF 		bl	test_wait_threads
 147              	.LVL10:
 148              		.loc 1 111 0
 149 00b8 0120     		movs	r0, #1
 150 00ba 1F49     		ldr	r1, .L6+36
 151 00bc FFF7FEFF 		bl	_test_assert_sequence
 152              	.LVL11:
 153 00c0 0746     		mov	r7, r0
 154 00c2 10B1     		cbz	r0, .L5
 155              		.loc 1 119 0
 156 00c4 03B0     		add	sp, sp, #12
 157              		.cfi_remember_state
 158              		.cfi_def_cfa_offset 28
 159              		@ sp needed
 160 00c6 BDE8F083 		pop	{r4, r5, r6, r7, r8, r9, pc}
 161              	.L5:
 162              		.cfi_restore_state
 163              		.loc 1 113 0
 164 00ca F369     		ldr	r3, [r6, #28]
 165 00cc 4846     		mov	r0, r9
 166 00ce 9A68     		ldr	r2, [r3, #8]
 167 00d0 4FF49871 		mov	r1, #304
 168 00d4 0532     		adds	r2, r2, #5
 169 00d6 CDF80080 		str	r8, [sp]
 170 00da 104B     		ldr	r3, .L6+8
 171 00dc FFF7FEFF 		bl	chThdCreateStatic
ARM GAS  /tmp/ccNW20VN.s 			page 4


 172              	.LVL12:
 173              	.LBB2:
 174              		.loc 1 114 0
 175 00e0 2023     		movs	r3, #32
 176              	.LBE2:
 177              		.loc 1 113 0
 178 00e2 2860     		str	r0, [r5]
 179              	.LBB3:
 180              		.loc 1 114 0
 181              	@ 114 "/home/leoperez/Documents/acuerol-stamp_repo-9ea99115aa86/files/code/ext/ChibiOS/test/testsem
 182 00e4 83F31188 		msr     BASEPRI, r3
 183              	@ 0 "" 2
 184              		.thumb
 185              	.LBE3:
 186              		.loc 1 115 0
 187 00e8 0221     		movs	r1, #2
 188 00ea 2046     		mov	r0, r4
 189 00ec FFF7FEFF 		bl	chSemAddCounterI
 190              	.LVL13:
 191              	.LBB4:
 192              		.loc 1 116 0
 193 00f0 3B46     		mov	r3, r7
 194              	@ 116 "/home/leoperez/Documents/acuerol-stamp_repo-9ea99115aa86/files/code/ext/ChibiOS/test/testsem
 195 00f2 83F31188 		msr     BASEPRI, r3
 196              	@ 0 "" 2
 197              		.thumb
 198              	.LBE4:
 199              		.loc 1 117 0
 200 00f6 FFF7FEFF 		bl	test_wait_threads
 201              	.LVL14:
 202              		.loc 1 118 0
 203 00fa A168     		ldr	r1, [r4, #8]
 204 00fc 0220     		movs	r0, #2
 205 00fe A1F10101 		sub	r1, #1
 206 0102 B1FA81F1 		clz	r1, r1
 207 0106 4909     		lsrs	r1, r1, #5
 208              		.loc 1 119 0
 209 0108 03B0     		add	sp, sp, #12
 210              		.cfi_def_cfa_offset 28
 211              		@ sp needed
 212 010a BDE8F043 		pop	{r4, r5, r6, r7, r8, r9, lr}
 213              		.cfi_restore 14
 214              		.cfi_restore 9
 215              		.cfi_restore 8
 216              		.cfi_restore 7
 217              		.cfi_restore 6
 218              		.cfi_restore 5
 219              		.cfi_restore 4
 220              		.cfi_def_cfa_offset 0
 221              		.loc 1 118 0
 222 010e FFF7FEBF 		b	_test_assert
 223              	.LVL15:
 224              	.L7:
 225 0112 00BF     		.align	2
 226              	.L6:
 227 0114 00000000 		.word	rlist
 228 0118 00000000 		.word	wa
ARM GAS  /tmp/ccNW20VN.s 			page 5


 229 011c 00000000 		.word	thread1
 230 0120 00000000 		.word	threads
 231 0124 04000000 		.word	.LC1
 232 0128 08000000 		.word	.LC2
 233 012c 0C000000 		.word	.LC3
 234 0130 10000000 		.word	.LC4
 235 0134 00000000 		.word	.LANCHOR0
 236 0138 14000000 		.word	.LC5
 237 013c 00000000 		.word	.LC0
 238              		.cfi_endproc
 239              	.LFE9:
 240              		.size	sem1_execute, .-sem1_execute
 241              		.section	.text.thread3,"ax",%progbits
 242              		.align	2
 243              		.p2align 4,,15
 244              		.thumb
 245              		.thumb_func
 246              		.type	thread3, %function
 247              	thread3:
 248              	.LFB14:
 249              		.loc 1 220 0
 250              		.cfi_startproc
 251              		@ args = 0, pretend = 0, frame = 0
 252              		@ frame_needed = 0, uses_anonymous_args = 0
 253              	.LVL16:
 254 0000 10B5     		push	{r4, lr}
 255              		.cfi_def_cfa_offset 8
 256              		.cfi_offset 4, -8
 257              		.cfi_offset 14, -4
 258              		.loc 1 223 0
 259 0002 044C     		ldr	r4, .L10
 260 0004 2046     		mov	r0, r4
 261              	.LVL17:
 262 0006 FFF7FEFF 		bl	chSemWait
 263              	.LVL18:
 264              		.loc 1 224 0
 265 000a 2046     		mov	r0, r4
 266 000c FFF7FEFF 		bl	chSemSignal
 267              	.LVL19:
 268              		.loc 1 226 0
 269 0010 0020     		movs	r0, #0
 270 0012 10BD     		pop	{r4, pc}
 271              	.L11:
 272              		.align	2
 273              	.L10:
 274 0014 00000000 		.word	.LANCHOR0
 275              		.cfi_endproc
 276              	.LFE14:
 277              		.size	thread3, .-thread3
 278              		.section	.text.thread1,"ax",%progbits
 279              		.align	2
 280              		.p2align 4,,15
 281              		.thumb
 282              		.thumb_func
 283              		.type	thread1, %function
 284              	thread1:
 285              	.LFB8:
ARM GAS  /tmp/ccNW20VN.s 			page 6


 286              		.loc 1 88 0
 287              		.cfi_startproc
 288              		@ args = 0, pretend = 0, frame = 0
 289              		@ frame_needed = 0, uses_anonymous_args = 0
 290              	.LVL20:
 291 0000 10B5     		push	{r4, lr}
 292              		.cfi_def_cfa_offset 8
 293              		.cfi_offset 4, -8
 294              		.cfi_offset 14, -4
 295              		.loc 1 88 0
 296 0002 0446     		mov	r4, r0
 297              		.loc 1 90 0
 298 0004 0348     		ldr	r0, .L14
 299              	.LVL21:
 300 0006 FFF7FEFF 		bl	chSemWait
 301              	.LVL22:
 302              		.loc 1 91 0
 303 000a 2078     		ldrb	r0, [r4]	@ zero_extendqisi2
 304 000c FFF7FEFF 		bl	test_emit_token
 305              	.LVL23:
 306              		.loc 1 93 0
 307 0010 0020     		movs	r0, #0
 308 0012 10BD     		pop	{r4, pc}
 309              	.LVL24:
 310              	.L15:
 311              		.align	2
 312              	.L14:
 313 0014 00000000 		.word	.LANCHOR0
 314              		.cfi_endproc
 315              	.LFE8:
 316              		.size	thread1, .-thread1
 317              		.section	.text.sem1_setup,"ax",%progbits
 318              		.align	2
 319              		.p2align 4,,15
 320              		.thumb
 321              		.thumb_func
 322              		.type	sem1_setup, %function
 323              	sem1_setup:
 324              	.LFB7:
 325              		.loc 1 83 0
 326              		.cfi_startproc
 327              		@ args = 0, pretend = 0, frame = 0
 328              		@ frame_needed = 0, uses_anonymous_args = 0
 329              		@ link register save eliminated.
 330              		.loc 1 85 0
 331 0000 0148     		ldr	r0, .L17
 332 0002 0021     		movs	r1, #0
 333 0004 FFF7FEBF 		b	chSemInit
 334              	.LVL25:
 335              	.L18:
 336              		.align	2
 337              	.L17:
 338 0008 00000000 		.word	.LANCHOR0
 339              		.cfi_endproc
 340              	.LFE7:
 341              		.size	sem1_setup, .-sem1_setup
 342              		.section	.text.sem2_setup,"ax",%progbits
ARM GAS  /tmp/ccNW20VN.s 			page 7


 343              		.align	2
 344              		.p2align 4,,15
 345              		.thumb
 346              		.thumb_func
 347              		.type	sem2_setup, %function
 348              	sem2_setup:
 349              	.LFB10:
 350              		.loc 1 139 0
 351              		.cfi_startproc
 352              		@ args = 0, pretend = 0, frame = 0
 353              		@ frame_needed = 0, uses_anonymous_args = 0
 354              		@ link register save eliminated.
 355              		.loc 1 141 0
 356 0000 0148     		ldr	r0, .L20
 357 0002 0021     		movs	r1, #0
 358 0004 FFF7FEBF 		b	chSemInit
 359              	.LVL26:
 360              	.L21:
 361              		.align	2
 362              	.L20:
 363 0008 00000000 		.word	.LANCHOR0
 364              		.cfi_endproc
 365              	.LFE10:
 366              		.size	sem2_setup, .-sem2_setup
 367              		.section	.text.sem3_setup,"ax",%progbits
 368              		.align	2
 369              		.p2align 4,,15
 370              		.thumb
 371              		.thumb_func
 372              		.type	sem3_setup, %function
 373              	sem3_setup:
 374              	.LFB13:
 375              		.loc 1 215 0
 376              		.cfi_startproc
 377              		@ args = 0, pretend = 0, frame = 0
 378              		@ frame_needed = 0, uses_anonymous_args = 0
 379              		@ link register save eliminated.
 380              		.loc 1 217 0
 381 0000 0148     		ldr	r0, .L23
 382 0002 0021     		movs	r1, #0
 383 0004 FFF7FEBF 		b	chSemInit
 384              	.LVL27:
 385              	.L24:
 386              		.align	2
 387              	.L23:
 388 0008 00000000 		.word	.LANCHOR0
 389              		.cfi_endproc
 390              	.LFE13:
 391              		.size	sem3_setup, .-sem3_setup
 392              		.section	.text.thread2,"ax",%progbits
 393              		.align	2
 394              		.p2align 4,,15
 395              		.thumb
 396              		.thumb_func
 397              		.type	thread2, %function
 398              	thread2:
 399              	.LFB11:
ARM GAS  /tmp/ccNW20VN.s 			page 8


 400              		.loc 1 144 0
 401              		.cfi_startproc
 402              		@ args = 0, pretend = 0, frame = 0
 403              		@ frame_needed = 0, uses_anonymous_args = 0
 404              	.LVL28:
 405 0000 08B5     		push	{r3, lr}
 406              		.cfi_def_cfa_offset 8
 407              		.cfi_offset 3, -8
 408              		.cfi_offset 14, -4
 409              		.loc 1 147 0
 410 0002 3220     		movs	r0, #50
 411              	.LVL29:
 412 0004 FFF7FEFF 		bl	chThdSleep
 413              	.LVL30:
 414              	.LBB5:
 415              		.loc 1 148 0
 416 0008 2023     		movs	r3, #32
 417              	@ 148 "/home/leoperez/Documents/acuerol-stamp_repo-9ea99115aa86/files/code/ext/ChibiOS/test/testsem
 418 000a 83F31188 		msr     BASEPRI, r3
 419              	@ 0 "" 2
 420              		.thumb
 421              	.LBE5:
 422              		.loc 1 149 0
 423 000e 0548     		ldr	r0, .L27
 424 0010 FFF7FEFF 		bl	chSemSignalI
 425              	.LVL31:
 426              		.loc 1 150 0
 427 0014 FFF7FEFF 		bl	chSchRescheduleS
 428              	.LVL32:
 429              	.LBB6:
 430              		.loc 1 151 0
 431 0018 0023     		movs	r3, #0
 432              	@ 151 "/home/leoperez/Documents/acuerol-stamp_repo-9ea99115aa86/files/code/ext/ChibiOS/test/testsem
 433 001a 83F31188 		msr     BASEPRI, r3
 434              	@ 0 "" 2
 435              		.thumb
 436              	.LBE6:
 437              		.loc 1 153 0
 438 001e 1846     		mov	r0, r3
 439 0020 08BD     		pop	{r3, pc}
 440              	.L28:
 441 0022 00BF     		.align	2
 442              	.L27:
 443 0024 00000000 		.word	.LANCHOR0
 444              		.cfi_endproc
 445              	.LFE11:
 446              		.size	thread2, .-thread2
 447              		.section	.text.thread4,"ax",%progbits
 448              		.align	2
 449              		.p2align 4,,15
 450              		.thumb
 451              		.thumb_func
 452              		.type	thread4, %function
 453              	thread4:
 454              	.LFB16:
 455              		.loc 1 256 0
 456              		.cfi_startproc
ARM GAS  /tmp/ccNW20VN.s 			page 9


 457              		@ args = 0, pretend = 0, frame = 0
 458              		@ frame_needed = 0, uses_anonymous_args = 0
 459              	.LVL33:
 460 0000 08B5     		push	{r3, lr}
 461              		.cfi_def_cfa_offset 8
 462              		.cfi_offset 3, -8
 463              		.cfi_offset 14, -4
 464              	.LBB7:
 465              		.loc 1 258 0
 466 0002 2023     		movs	r3, #32
 467              	@ 258 "/home/leoperez/Documents/acuerol-stamp_repo-9ea99115aa86/files/code/ext/ChibiOS/test/testsem
 468 0004 83F31188 		msr     BASEPRI, r3
 469              	@ 0 "" 2
 470              		.thumb
 471              	.LBE7:
 472 0008 8368     		ldr	r3, [r0, #8]
 473 000a 002B     		cmp	r3, #0
 474 000c 06DD     		ble	.L32
 475              	.LVL34:
 476              	.L30:
 477              		.loc 1 258 0 is_stmt 0 discriminator 3
 478 000e FFF7FEFF 		bl	chSchRescheduleS
 479              	.LVL35:
 480              	.LBB8:
 481 0012 0023     		movs	r3, #0
 482              	@ 258 "/home/leoperez/Documents/acuerol-stamp_repo-9ea99115aa86/files/code/ext/ChibiOS/test/testsem
 483 0014 83F31188 		msr     BASEPRI, r3
 484              	@ 0 "" 2
 485              		.thumb
 486              	.LBE8:
 487              		.loc 1 260 0 is_stmt 1 discriminator 3
 488 0018 1846     		mov	r0, r3
 489 001a 08BD     		pop	{r3, pc}
 490              	.LVL36:
 491              	.L32:
 492              		.loc 1 258 0 discriminator 1
 493 001c FFF7FEFF 		bl	chSemSignalI
 494              	.LVL37:
 495 0020 F5E7     		b	.L30
 496              		.cfi_endproc
 497              	.LFE16:
 498              		.size	thread4, .-thread4
 499 0022 00BF     		.section	.text.sem4_execute,"ax",%progbits
 500              		.align	2
 501              		.p2align 4,,15
 502              		.thumb
 503              		.thumb_func
 504              		.type	sem4_execute, %function
 505              	sem4_execute:
 506              	.LFB17:
 507              		.loc 1 262 0
 508              		.cfi_startproc
 509              		@ args = 0, pretend = 0, frame = 16
 510              		@ frame_needed = 0, uses_anonymous_args = 0
 511 0000 00B5     		push	{lr}
 512              		.cfi_def_cfa_offset 4
 513              		.cfi_offset 14, -4
ARM GAS  /tmp/ccNW20VN.s 			page 10


 514 0002 87B0     		sub	sp, sp, #28
 515              		.cfi_def_cfa_offset 32
 516              		.loc 1 266 0
 517 0004 03A8     		add	r0, sp, #12
 518 0006 0021     		movs	r1, #0
 519 0008 FFF7FEFF 		bl	chSemInit
 520              	.LVL38:
 521              		.loc 1 267 0
 522 000c 03A8     		add	r0, sp, #12
 523 000e 0021     		movs	r1, #0
 524 0010 FFF7FEFF 		bl	chSemReset
 525              	.LVL39:
 526              		.loc 1 268 0
 527 0014 0599     		ldr	r1, [sp, #20]
 528 0016 0120     		movs	r0, #1
 529 0018 0029     		cmp	r1, #0
 530 001a CCBF     		ite	gt
 531 001c 0021     		movgt	r1, #0
 532 001e 0121     		movle	r1, #1
 533 0020 FFF7FEFF 		bl	_test_assert
 534              	.LVL40:
 535 0024 10B1     		cbz	r0, .L39
 536              	.L33:
 537              		.loc 1 290 0
 538 0026 07B0     		add	sp, sp, #28
 539              		.cfi_remember_state
 540              		.cfi_def_cfa_offset 4
 541              		@ sp needed
 542 0028 5DF804FB 		ldr	pc, [sp], #4
 543              	.L39:
 544              		.cfi_restore_state
 545              		.loc 1 272 0
 546 002c 314B     		ldr	r3, .L42
 547              		.loc 1 271 0
 548 002e 324A     		ldr	r2, .L42+4
 549              		.loc 1 272 0
 550 0030 DB69     		ldr	r3, [r3, #28]
 551              		.loc 1 271 0
 552 0032 1068     		ldr	r0, [r2]
 553 0034 9A68     		ldr	r2, [r3, #8]
 554 0036 03AB     		add	r3, sp, #12
 555 0038 4FF49871 		mov	r1, #304
 556 003c 013A     		subs	r2, r2, #1
 557 003e 0093     		str	r3, [sp]
 558 0040 2E4B     		ldr	r3, .L42+8
 559 0042 FFF7FEFF 		bl	chThdCreateStatic
 560              	.LVL41:
 561 0046 2E4B     		ldr	r3, .L42+12
 562 0048 1860     		str	r0, [r3]
 563              		.loc 1 275 0
 564 004a 03A8     		add	r0, sp, #12
 565 004c FFF7FEFF 		bl	chSemWait
 566              	.LVL42:
 567              		.loc 1 278 0
 568 0050 0599     		ldr	r1, [sp, #20]
 569 0052 0220     		movs	r0, #2
 570 0054 0029     		cmp	r1, #0
ARM GAS  /tmp/ccNW20VN.s 			page 11


 571 0056 CCBF     		ite	gt
 572 0058 0021     		movgt	r1, #0
 573 005a 0121     		movle	r1, #1
 574 005c FFF7FEFF 		bl	_test_assert
 575              	.LVL43:
 576 0060 0028     		cmp	r0, #0
 577 0062 E0D1     		bne	.L33
 578              	.LBB9:
 579              		.loc 1 282 0
 580 0064 2023     		movs	r3, #32
 581              	@ 282 "/home/leoperez/Documents/acuerol-stamp_repo-9ea99115aa86/files/code/ext/ChibiOS/test/testsem
 582 0066 83F31188 		msr     BASEPRI, r3
 583              	@ 0 "" 2
 584              		.thumb
 585              	.LBE9:
 586 006a 059B     		ldr	r3, [sp, #20]
 587 006c 002B     		cmp	r3, #0
 588 006e 38DD     		ble	.L40
 589              	.L35:
 590              		.loc 1 282 0 is_stmt 0 discriminator 3
 591 0070 FFF7FEFF 		bl	chSchRescheduleS
 592              	.LVL44:
 593              	.LBB10:
 594 0074 0023     		movs	r3, #0
 595              	@ 282 "/home/leoperez/Documents/acuerol-stamp_repo-9ea99115aa86/files/code/ext/ChibiOS/test/testsem
 596 0076 83F31188 		msr     BASEPRI, r3
 597              	@ 0 "" 2
 598              		.thumb
 599              	.LBE10:
 600              		.loc 1 283 0 is_stmt 1 discriminator 3
 601 007a 0599     		ldr	r1, [sp, #20]
 602 007c 0320     		movs	r0, #3
 603 007e 9942     		cmp	r1, r3
 604 0080 D4BF     		ite	le
 605 0082 0021     		movle	r1, #0
 606 0084 0121     		movgt	r1, #1
 607 0086 FFF7FEFF 		bl	_test_assert
 608              	.LVL45:
 609 008a 0028     		cmp	r0, #0
 610 008c CBD1     		bne	.L33
 611              		.loc 1 284 0
 612 008e 0599     		ldr	r1, [sp, #20]
 613 0090 0420     		movs	r0, #4
 614 0092 A1F10101 		sub	r1, #1
 615 0096 B1FA81F1 		clz	r1, r1
 616 009a 4909     		lsrs	r1, r1, #5
 617 009c FFF7FEFF 		bl	_test_assert
 618              	.LVL46:
 619 00a0 0028     		cmp	r0, #0
 620 00a2 C0D1     		bne	.L33
 621              	.LBB11:
 622              		.loc 1 287 0
 623 00a4 2023     		movs	r3, #32
 624              	@ 287 "/home/leoperez/Documents/acuerol-stamp_repo-9ea99115aa86/files/code/ext/ChibiOS/test/testsem
 625 00a6 83F31188 		msr     BASEPRI, r3
 626              	@ 0 "" 2
 627              		.thumb
ARM GAS  /tmp/ccNW20VN.s 			page 12


 628              	.LBE11:
 629 00aa 059B     		ldr	r3, [sp, #20]
 630 00ac 002B     		cmp	r3, #0
 631 00ae 1CDD     		ble	.L41
 632              	.L36:
 633              		.loc 1 287 0 is_stmt 0 discriminator 3
 634 00b0 FFF7FEFF 		bl	chSchRescheduleS
 635              	.LVL47:
 636              	.LBB12:
 637 00b4 0023     		movs	r3, #0
 638              	@ 287 "/home/leoperez/Documents/acuerol-stamp_repo-9ea99115aa86/files/code/ext/ChibiOS/test/testsem
 639 00b6 83F31188 		msr     BASEPRI, r3
 640              	@ 0 "" 2
 641              		.thumb
 642              	.LBE12:
 643              		.loc 1 288 0 is_stmt 1 discriminator 3
 644 00ba 0599     		ldr	r1, [sp, #20]
 645 00bc 0320     		movs	r0, #3
 646 00be 9942     		cmp	r1, r3
 647 00c0 D4BF     		ite	le
 648 00c2 0021     		movle	r1, #0
 649 00c4 0121     		movgt	r1, #1
 650 00c6 FFF7FEFF 		bl	_test_assert
 651              	.LVL48:
 652 00ca 0028     		cmp	r0, #0
 653 00cc ABD1     		bne	.L33
 654              		.loc 1 289 0
 655 00ce 0599     		ldr	r1, [sp, #20]
 656 00d0 0520     		movs	r0, #5
 657 00d2 A1F10101 		sub	r1, #1
 658 00d6 B1FA81F1 		clz	r1, r1
 659 00da 4909     		lsrs	r1, r1, #5
 660 00dc FFF7FEFF 		bl	_test_assert
 661              	.LVL49:
 662 00e0 A1E7     		b	.L33
 663              	.L40:
 664              		.loc 1 282 0 discriminator 1
 665 00e2 03A8     		add	r0, sp, #12
 666 00e4 FFF7FEFF 		bl	chSemSignalI
 667              	.LVL50:
 668 00e8 C2E7     		b	.L35
 669              	.L41:
 670              		.loc 1 287 0 discriminator 1
 671 00ea 03A8     		add	r0, sp, #12
 672 00ec FFF7FEFF 		bl	chSemSignalI
 673              	.LVL51:
 674 00f0 DEE7     		b	.L36
 675              	.L43:
 676 00f2 00BF     		.align	2
 677              	.L42:
 678 00f4 00000000 		.word	rlist
 679 00f8 00000000 		.word	wa
 680 00fc 00000000 		.word	thread4
 681 0100 00000000 		.word	threads
 682              		.cfi_endproc
 683              	.LFE17:
 684              		.size	sem4_execute, .-sem4_execute
ARM GAS  /tmp/ccNW20VN.s 			page 13


 685              		.section	.text.sem2_execute,"ax",%progbits
 686              		.align	2
 687              		.p2align 4,,15
 688              		.thumb
 689              		.thumb_func
 690              		.type	sem2_execute, %function
 691              	sem2_execute:
 692              	.LFB12:
 693              		.loc 1 155 0
 694              		.cfi_startproc
 695              		@ args = 0, pretend = 0, frame = 0
 696              		@ frame_needed = 0, uses_anonymous_args = 0
 697 0000 70B5     		push	{r4, r5, r6, lr}
 698              		.cfi_def_cfa_offset 16
 699              		.cfi_offset 4, -16
 700              		.cfi_offset 5, -12
 701              		.cfi_offset 6, -8
 702              		.cfi_offset 14, -4
 703              		.loc 1 163 0
 704 0002 4A4C     		ldr	r4, .L52
 705              		.loc 1 155 0
 706 0004 82B0     		sub	sp, sp, #8
 707              		.cfi_def_cfa_offset 24
 708              		.loc 1 163 0
 709 0006 0021     		movs	r1, #0
 710 0008 2046     		mov	r0, r4
 711 000a FFF7FEFF 		bl	chSemWaitTimeout
 712              	.LVL52:
 713              		.loc 1 164 0
 714 000e A0F1FF31 		sub	r1, r0, #-1
 715 0012 B1FA81F1 		clz	r1, r1
 716 0016 0120     		movs	r0, #1
 717              	.LVL53:
 718 0018 4909     		lsrs	r1, r1, #5
 719 001a FFF7FEFF 		bl	_test_assert
 720              	.LVL54:
 721 001e 08B1     		cbz	r0, .L51
 722              	.L44:
 723              		.loc 1 193 0
 724 0020 02B0     		add	sp, sp, #8
 725              		.cfi_remember_state
 726              		.cfi_def_cfa_offset 16
 727              		@ sp needed
 728 0022 70BD     		pop	{r4, r5, r6, pc}
 729              	.L51:
 730              		.cfi_restore_state
 731              		.loc 1 165 0
 732 0024 2168     		ldr	r1, [r4]
 733 0026 0220     		movs	r0, #2
 734 0028 091B     		subs	r1, r1, r4
 735 002a B1FA81F1 		clz	r1, r1
 736 002e 4909     		lsrs	r1, r1, #5
 737 0030 FFF7FEFF 		bl	_test_assert
 738              	.LVL55:
 739 0034 0028     		cmp	r0, #0
 740 0036 F3D1     		bne	.L44
 741              		.loc 1 166 0
ARM GAS  /tmp/ccNW20VN.s 			page 14


 742 0038 A168     		ldr	r1, [r4, #8]
 743 003a 0320     		movs	r0, #3
 744 003c B1FA81F1 		clz	r1, r1
 745 0040 4909     		lsrs	r1, r1, #5
 746 0042 FFF7FEFF 		bl	_test_assert
 747              	.LVL56:
 748 0046 0346     		mov	r3, r0
 749 0048 0028     		cmp	r0, #0
 750 004a E9D1     		bne	.L44
 751              	.LBB15:
 752              	.LBB16:
 753              		.loc 1 171 0
 754 004c 384A     		ldr	r2, .L52+4
 755 004e 3949     		ldr	r1, .L52+8
 756 0050 D269     		ldr	r2, [r2, #28]
 757 0052 0868     		ldr	r0, [r1]
 758 0054 9268     		ldr	r2, [r2, #8]
 759 0056 4FF49871 		mov	r1, #304
 760 005a 013A     		subs	r2, r2, #1
 761 005c 0093     		str	r3, [sp]
 762 005e 364B     		ldr	r3, .L52+12
 763 0060 FFF7FEFF 		bl	chThdCreateStatic
 764              	.LVL57:
 765 0064 354B     		ldr	r3, .L52+16
 766              		.loc 1 173 0
 767 0066 4FF4FA71 		mov	r1, #500
 768              		.loc 1 171 0
 769 006a 1860     		str	r0, [r3]
 770              		.loc 1 173 0
 771 006c 2046     		mov	r0, r4
 772 006e FFF7FEFF 		bl	chSemWaitTimeout
 773              	.LVL58:
 774 0072 0546     		mov	r5, r0
 775              	.LVL59:
 776              		.loc 1 174 0
 777 0074 FFF7FEFF 		bl	test_wait_threads
 778              	.LVL60:
 779              		.loc 1 175 0
 780 0078 B5FA85F1 		clz	r1, r5
 781 007c 0420     		movs	r0, #4
 782 007e 4909     		lsrs	r1, r1, #5
 783 0080 FFF7FEFF 		bl	_test_assert
 784              	.LVL61:
 785 0084 0028     		cmp	r0, #0
 786 0086 CBD1     		bne	.L44
 787              		.loc 1 176 0
 788 0088 2168     		ldr	r1, [r4]
 789 008a 0520     		movs	r0, #5
 790 008c 091B     		subs	r1, r1, r4
 791 008e B1FA81F1 		clz	r1, r1
 792 0092 4909     		lsrs	r1, r1, #5
 793 0094 FFF7FEFF 		bl	_test_assert
 794              	.LVL62:
 795 0098 0028     		cmp	r0, #0
 796 009a C1D1     		bne	.L44
 797              		.loc 1 177 0
 798 009c A168     		ldr	r1, [r4, #8]
ARM GAS  /tmp/ccNW20VN.s 			page 15


 799 009e 0620     		movs	r0, #6
 800 00a0 B1FA81F1 		clz	r1, r1
 801 00a4 4909     		lsrs	r1, r1, #5
 802 00a6 FFF7FEFF 		bl	_test_assert
 803              	.LVL63:
 804 00aa 0028     		cmp	r0, #0
 805 00ac B8D1     		bne	.L44
 806              		.loc 1 182 0
 807 00ae FFF7FEFF 		bl	test_wait_tick
 808              	.LVL64:
 809              		.loc 1 183 0
 810 00b2 234B     		ldr	r3, .L52+20
 811 00b4 4125     		movs	r5, #65
 812              	.LVL65:
 813 00b6 DE68     		ldr	r6, [r3, #12]
 814              	.LVL66:
 815              	.L48:
 816              		.loc 1 185 0
 817 00b8 2846     		mov	r0, r5
 818 00ba FFF7FEFF 		bl	test_emit_token
 819              	.LVL67:
 820              		.loc 1 186 0
 821 00be 4FF4FA71 		mov	r1, #500
 822 00c2 1A48     		ldr	r0, .L52
 823 00c4 FFF7FEFF 		bl	chSemWaitTimeout
 824              	.LVL68:
 825              		.loc 1 187 0
 826 00c8 A0F1FF31 		sub	r1, r0, #-1
 827 00cc B1FA81F1 		clz	r1, r1
 828 00d0 0720     		movs	r0, #7
 829              	.LVL69:
 830 00d2 4909     		lsrs	r1, r1, #5
 831 00d4 FFF7FEFF 		bl	_test_assert
 832              	.LVL70:
 833 00d8 0028     		cmp	r0, #0
 834 00da A1D1     		bne	.L44
 835              		.loc 1 188 0
 836 00dc 2168     		ldr	r1, [r4]
 837 00de 0820     		movs	r0, #8
 838 00e0 091B     		subs	r1, r1, r4
 839 00e2 B1FA81F1 		clz	r1, r1
 840 00e6 4909     		lsrs	r1, r1, #5
 841 00e8 FFF7FEFF 		bl	_test_assert
 842              	.LVL71:
 843 00ec 0028     		cmp	r0, #0
 844 00ee 97D1     		bne	.L44
 845              		.loc 1 189 0
 846 00f0 A168     		ldr	r1, [r4, #8]
 847 00f2 0920     		movs	r0, #9
 848 00f4 B1FA81F1 		clz	r1, r1
 849 00f8 4909     		lsrs	r1, r1, #5
 850 00fa FFF7FEFF 		bl	_test_assert
 851              	.LVL72:
 852 00fe 0135     		adds	r5, r5, #1
 853 0100 EDB2     		uxtb	r5, r5
 854 0102 0028     		cmp	r0, #0
 855 0104 8CD1     		bne	.L44
ARM GAS  /tmp/ccNW20VN.s 			page 16


 856              		.loc 1 184 0
 857 0106 462D     		cmp	r5, #70
 858 0108 D6D1     		bne	.L48
 859              		.loc 1 191 0
 860 010a 0A20     		movs	r0, #10
 861 010c 0D49     		ldr	r1, .L52+24
 862 010e FFF7FEFF 		bl	_test_assert_sequence
 863              	.LVL73:
 864 0112 0028     		cmp	r0, #0
 865 0114 84D1     		bne	.L44
 866              		.loc 1 192 0
 867 0116 0B20     		movs	r0, #11
 868 0118 06F6C411 		addw	r1, r6, #2500
 869 011c 06F6C912 		addw	r2, r6, #2505
 870              	.LBE16:
 871              	.LBE15:
 872              		.loc 1 193 0
 873 0120 02B0     		add	sp, sp, #8
 874              		.cfi_def_cfa_offset 16
 875              		@ sp needed
 876 0122 BDE87040 		pop	{r4, r5, r6, lr}
 877              		.cfi_restore 14
 878              		.cfi_restore 6
 879              		.cfi_restore 5
 880              		.cfi_restore 4
 881              		.cfi_def_cfa_offset 0
 882              	.LVL74:
 883              	.LBB18:
 884              	.LBB17:
 885              		.loc 1 192 0
 886 0126 FFF7FEBF 		b	_test_assert_time_window
 887              	.LVL75:
 888              	.L53:
 889 012a 00BF     		.align	2
 890              	.L52:
 891 012c 00000000 		.word	.LANCHOR0
 892 0130 00000000 		.word	rlist
 893 0134 00000000 		.word	wa
 894 0138 00000000 		.word	thread2
 895 013c 00000000 		.word	threads
 896 0140 00000000 		.word	vtlist
 897 0144 14000000 		.word	.LC5
 898              	.LBE17:
 899              	.LBE18:
 900              		.cfi_endproc
 901              	.LFE12:
 902              		.size	sem2_execute, .-sem2_execute
 903              		.section	.text.sem3_execute,"ax",%progbits
 904              		.align	2
 905              		.p2align 4,,15
 906              		.thumb
 907              		.thumb_func
 908              		.type	sem3_execute, %function
 909              	sem3_execute:
 910              	.LFB15:
 911              		.loc 1 228 0
 912              		.cfi_startproc
ARM GAS  /tmp/ccNW20VN.s 			page 17


 913              		@ args = 0, pretend = 0, frame = 0
 914              		@ frame_needed = 0, uses_anonymous_args = 0
 915 0000 10B5     		push	{r4, lr}
 916              		.cfi_def_cfa_offset 8
 917              		.cfi_offset 4, -8
 918              		.cfi_offset 14, -4
 919              		.loc 1 230 0
 920 0002 204B     		ldr	r3, .L60
 921 0004 204A     		ldr	r2, .L60+4
 922 0006 DB69     		ldr	r3, [r3, #28]
 923 0008 1068     		ldr	r0, [r2]
 924 000a 9A68     		ldr	r2, [r3, #8]
 925              		.loc 1 228 0
 926 000c 82B0     		sub	sp, sp, #8
 927              		.cfi_def_cfa_offset 16
 928              		.loc 1 230 0
 929 000e 0023     		movs	r3, #0
 930 0010 0132     		adds	r2, r2, #1
 931 0012 0093     		str	r3, [sp]
 932 0014 4FF49871 		mov	r1, #304
 933 0018 1C4B     		ldr	r3, .L60+8
 934 001a FFF7FEFF 		bl	chThdCreateStatic
 935              	.LVL76:
 936              		.loc 1 231 0
 937 001e 1C4C     		ldr	r4, .L60+12
 938              		.loc 1 230 0
 939 0020 1C4B     		ldr	r3, .L60+16
 940              		.loc 1 231 0
 941 0022 2146     		mov	r1, r4
 942              		.loc 1 230 0
 943 0024 1860     		str	r0, [r3]
 944              		.loc 1 231 0
 945 0026 2046     		mov	r0, r4
 946 0028 FFF7FEFF 		bl	chSemSignalWait
 947              	.LVL77:
 948              		.loc 1 232 0
 949 002c 2168     		ldr	r1, [r4]
 950 002e 0120     		movs	r0, #1
 951 0030 091B     		subs	r1, r1, r4
 952 0032 B1FA81F1 		clz	r1, r1
 953 0036 4909     		lsrs	r1, r1, #5
 954 0038 FFF7FEFF 		bl	_test_assert
 955              	.LVL78:
 956 003c 08B1     		cbz	r0, .L59
 957              	.L54:
 958              		.loc 1 238 0
 959 003e 02B0     		add	sp, sp, #8
 960              		.cfi_remember_state
 961              		.cfi_def_cfa_offset 8
 962              		@ sp needed
 963 0040 10BD     		pop	{r4, pc}
 964              	.L59:
 965              		.cfi_restore_state
 966              		.loc 1 233 0
 967 0042 A168     		ldr	r1, [r4, #8]
 968 0044 0220     		movs	r0, #2
 969 0046 B1FA81F1 		clz	r1, r1
ARM GAS  /tmp/ccNW20VN.s 			page 18


 970 004a 4909     		lsrs	r1, r1, #5
 971 004c FFF7FEFF 		bl	_test_assert
 972              	.LVL79:
 973 0050 0028     		cmp	r0, #0
 974 0052 F4D1     		bne	.L54
 975              	.LBB21:
 976              	.LBB22:
 977              		.loc 1 235 0
 978 0054 2146     		mov	r1, r4
 979 0056 2046     		mov	r0, r4
 980 0058 FFF7FEFF 		bl	chSemSignalWait
 981              	.LVL80:
 982              		.loc 1 236 0
 983 005c 2168     		ldr	r1, [r4]
 984 005e 0320     		movs	r0, #3
 985 0060 091B     		subs	r1, r1, r4
 986 0062 B1FA81F1 		clz	r1, r1
 987 0066 4909     		lsrs	r1, r1, #5
 988 0068 FFF7FEFF 		bl	_test_assert
 989              	.LVL81:
 990 006c 0028     		cmp	r0, #0
 991 006e E6D1     		bne	.L54
 992              		.loc 1 237 0
 993 0070 A168     		ldr	r1, [r4, #8]
 994 0072 0420     		movs	r0, #4
 995 0074 B1FA81F1 		clz	r1, r1
 996 0078 4909     		lsrs	r1, r1, #5
 997              	.LBE22:
 998              	.LBE21:
 999              		.loc 1 238 0
 1000 007a 02B0     		add	sp, sp, #8
 1001              		.cfi_def_cfa_offset 8
 1002              		@ sp needed
 1003 007c BDE81040 		pop	{r4, lr}
 1004              		.cfi_restore 14
 1005              		.cfi_restore 4
 1006              		.cfi_def_cfa_offset 0
 1007              	.LBB24:
 1008              	.LBB23:
 1009              		.loc 1 237 0
 1010 0080 FFF7FEBF 		b	_test_assert
 1011              	.LVL82:
 1012              	.L61:
 1013              		.align	2
 1014              	.L60:
 1015 0084 00000000 		.word	rlist
 1016 0088 00000000 		.word	wa
 1017 008c 00000000 		.word	thread3
 1018 0090 00000000 		.word	.LANCHOR0
 1019 0094 00000000 		.word	threads
 1020              	.LBE23:
 1021              	.LBE24:
 1022              		.cfi_endproc
 1023              	.LFE15:
 1024              		.size	sem3_execute, .-sem3_execute
 1025              		.global	patternsem
 1026              		.global	testsem4
ARM GAS  /tmp/ccNW20VN.s 			page 19


 1027              		.global	testsem3
 1028              		.global	testsem2
 1029              		.global	testsem1
 1030              		.section	.rodata.testsem1,"a",%progbits
 1031              		.align	2
 1032              		.type	testsem1, %object
 1033              		.size	testsem1, 16
 1034              	testsem1:
 1035 0000 74000000 		.word	.LC9
 1036 0004 00000000 		.word	sem1_setup
 1037 0008 00000000 		.word	0
 1038 000c 00000000 		.word	sem1_execute
 1039              		.section	.rodata.testsem2,"a",%progbits
 1040              		.align	2
 1041              		.type	testsem2, %object
 1042              		.size	testsem2, 16
 1043              	testsem2:
 1044 0000 60000000 		.word	.LC8
 1045 0004 00000000 		.word	sem2_setup
 1046 0008 00000000 		.word	0
 1047 000c 00000000 		.word	sem2_execute
 1048              		.section	.rodata.testsem3,"a",%progbits
 1049              		.align	2
 1050              		.type	testsem3, %object
 1051              		.size	testsem3, 16
 1052              	testsem3:
 1053 0000 40000000 		.word	.LC7
 1054 0004 00000000 		.word	sem3_setup
 1055 0008 00000000 		.word	0
 1056 000c 00000000 		.word	sem3_execute
 1057              		.section	.rodata.testsem4,"a",%progbits
 1058              		.align	2
 1059              		.type	testsem4, %object
 1060              		.size	testsem4, 16
 1061              	testsem4:
 1062 0000 1C000000 		.word	.LC6
 1063 0004 00000000 		.word	0
 1064 0008 00000000 		.word	0
 1065 000c 00000000 		.word	sem4_execute
 1066              		.section	.data.sem1,"aw",%progbits
 1067              		.align	2
 1068              		.set	.LANCHOR0,. + 0
 1069              		.type	sem1, %object
 1070              		.size	sem1, 12
 1071              	sem1:
 1072 0000 00000000 		.word	sem1
 1073 0004 00000000 		.word	sem1
 1074 0008 00000000 		.word	0
 1075              		.section	.rodata.patternsem,"a",%progbits
 1076              		.align	2
 1077              		.type	patternsem, %object
 1078              		.size	patternsem, 20
 1079              	patternsem:
 1080 0000 00000000 		.word	testsem1
 1081 0004 00000000 		.word	testsem2
 1082 0008 00000000 		.word	testsem3
 1083 000c 00000000 		.word	testsem4
ARM GAS  /tmp/ccNW20VN.s 			page 20


 1084 0010 00000000 		.word	0
 1085              		.section	.rodata.str1.4,"aMS",%progbits,1
 1086              		.align	2
 1087              	.LC0:
 1088 0000 4100     		.ascii	"A\000"
 1089 0002 0000     		.space	2
 1090              	.LC1:
 1091 0004 4200     		.ascii	"B\000"
 1092 0006 0000     		.space	2
 1093              	.LC2:
 1094 0008 4300     		.ascii	"C\000"
 1095 000a 0000     		.space	2
 1096              	.LC3:
 1097 000c 4400     		.ascii	"D\000"
 1098 000e 0000     		.space	2
 1099              	.LC4:
 1100 0010 4500     		.ascii	"E\000"
 1101 0012 0000     		.space	2
 1102              	.LC5:
 1103 0014 41424344 		.ascii	"ABCDE\000"
 1103      4500
 1104 001a 0000     		.space	2
 1105              	.LC6:
 1106 001c 42696E61 		.ascii	"Binary Semaphores, functionality\000"
 1106      72792053 
 1106      656D6170 
 1106      686F7265 
 1106      732C2066 
 1107 003d 000000   		.space	3
 1108              	.LC7:
 1109 0040 53656D61 		.ascii	"Semaphores, atomic signal-wait\000"
 1109      70686F72 
 1109      65732C20 
 1109      61746F6D 
 1109      69632073 
 1110 005f 00       		.space	1
 1111              	.LC8:
 1112 0060 53656D61 		.ascii	"Semaphores, timeout\000"
 1112      70686F72 
 1112      65732C20 
 1112      74696D65 
 1112      6F757400 
 1113              	.LC9:
 1114 0074 53656D61 		.ascii	"Semaphores, enqueuing\000"
 1114      70686F72 
 1114      65732C20 
 1114      656E7175 
 1114      6575696E 
 1115              		.text
 1116              	.Letext0:
 1117              		.file 2 "/home/leoperez/Documents/acuerol-stamp_repo-9ea99115aa86/gcc-arm-none-eabi-4_9-2015q3/lib
 1118              		.file 3 "/home/leoperez/Documents/acuerol-stamp_repo-9ea99115aa86/gcc-arm-none-eabi-4_9-2015q3/arm
 1119              		.file 4 "/home/leoperez/Documents/acuerol-stamp_repo-9ea99115aa86/gcc-arm-none-eabi-4_9-2015q3/arm
 1120              		.file 5 "/home/leoperez/Documents/acuerol-stamp_repo-9ea99115aa86/files/code/ext/ChibiOS/os/ports/
 1121              		.file 6 "/home/leoperez/Documents/acuerol-stamp_repo-9ea99115aa86/files/code/ext/ChibiOS/os/kernel
 1122              		.file 7 "/home/leoperez/Documents/acuerol-stamp_repo-9ea99115aa86/files/code/ext/ChibiOS/os/kernel
 1123              		.file 8 "/home/leoperez/Documents/acuerol-stamp_repo-9ea99115aa86/files/code/ext/ChibiOS/os/ports/
ARM GAS  /tmp/ccNW20VN.s 			page 21


 1124              		.file 9 "/home/leoperez/Documents/acuerol-stamp_repo-9ea99115aa86/files/code/ext/ChibiOS/os/kernel
 1125              		.file 10 "/home/leoperez/Documents/acuerol-stamp_repo-9ea99115aa86/files/code/ext/ChibiOS/os/kerne
 1126              		.file 11 "/home/leoperez/Documents/acuerol-stamp_repo-9ea99115aa86/files/code/ext/ChibiOS/os/kerne
 1127              		.file 12 "/home/leoperez/Documents/acuerol-stamp_repo-9ea99115aa86/files/code/ext/ChibiOS/os/kerne
 1128              		.file 13 "/home/leoperez/Documents/acuerol-stamp_repo-9ea99115aa86/files/code/ext/ChibiOS/os/kerne
 1129              		.file 14 "/home/leoperez/Documents/acuerol-stamp_repo-9ea99115aa86/files/code/ext/ChibiOS/test/tes