ARM GAS  /tmp/ccaV7V2I.s 			page 1


   1              		.syntax unified
   2              		.cpu cortex-m3
   3              		.fpu softvfp
   4              		.eabi_attribute 20, 1
   5              		.eabi_attribute 21, 1
   6              		.eabi_attribute 23, 3
   7              		.eabi_attribute 24, 1
   8              		.eabi_attribute 25, 1
   9              		.eabi_attribute 26, 1
  10              		.eabi_attribute 30, 2
  11              		.eabi_attribute 34, 1
  12              		.eabi_attribute 18, 4
  13              		.thumb
  14              		.file	"testpools.c"
  15              		.text
  16              	.Ltext0:
  17              		.cfi_sections	.debug_frame
  18              		.section	.text.null_provider,"ax",%progbits
  19              		.align	2
  20              		.p2align 4,,15
  21              		.thumb
  22              		.thumb_func
  23              		.type	null_provider, %function
  24              	null_provider:
  25              	.LFB7:
  26              		.file 1 "/home/leoperez/Documents/acuerol-stamp_repo-9ea99115aa86/files/code/ext/ChibiOS/test/test
  27              		.loc 1 71 0
  28              		.cfi_startproc
  29              		@ args = 0, pretend = 0, frame = 0
  30              		@ frame_needed = 0, uses_anonymous_args = 0
  31              		@ link register save eliminated.
  32              	.LVL0:
  33              		.loc 1 75 0
  34 0000 0020     		movs	r0, #0
  35              	.LVL1:
  36 0002 7047     		bx	lr
  37              		.cfi_endproc
  38              	.LFE7:
  39              		.size	null_provider, .-null_provider
  40              		.section	.text.pools1_setup,"ax",%progbits
  41              		.align	2
  42              		.p2align 4,,15
  43              		.thumb
  44              		.thumb_func
  45              		.type	pools1_setup, %function
  46              	pools1_setup:
  47              	.LFB8:
  48              		.loc 1 77 0
  49              		.cfi_startproc
  50              		@ args = 0, pretend = 0, frame = 0
  51              		@ frame_needed = 0, uses_anonymous_args = 0
  52              		@ link register save eliminated.
  53              		.loc 1 79 0
  54 0000 0248     		ldr	r0, .L3
  55 0002 4FF49871 		mov	r1, #304
  56 0006 0022     		movs	r2, #0
  57 0008 FFF7FEBF 		b	chPoolInit
ARM GAS  /tmp/ccaV7V2I.s 			page 2


  58              	.LVL2:
  59              	.L4:
  60              		.align	2
  61              	.L3:
  62 000c 00000000 		.word	.LANCHOR0
  63              		.cfi_endproc
  64              	.LFE8:
  65              		.size	pools1_setup, .-pools1_setup
  66              		.section	.text.pools1_execute,"ax",%progbits
  67              		.align	2
  68              		.p2align 4,,15
  69              		.thumb
  70              		.thumb_func
  71              		.type	pools1_execute, %function
  72              	pools1_execute:
  73              	.LFB9:
  74              		.loc 1 82 0
  75              		.cfi_startproc
  76              		@ args = 0, pretend = 0, frame = 0
  77              		@ frame_needed = 0, uses_anonymous_args = 0
  78              	.LVL3:
  79 0000 38B5     		push	{r3, r4, r5, lr}
  80              		.cfi_def_cfa_offset 16
  81              		.cfi_offset 3, -16
  82              		.cfi_offset 4, -12
  83              		.cfi_offset 5, -8
  84              		.cfi_offset 14, -4
  85 0002 194C     		ldr	r4, .L16
  86 0004 04F11405 		add	r5, r4, #20
  87              	.LVL4:
  88              	.L6:
  89              		.loc 1 87 0 discriminator 3
  90 0008 54F8041B 		ldr	r1, [r4], #4
  91 000c 1748     		ldr	r0, .L16+4
  92 000e FFF7FEFF 		bl	chPoolFree
  93              	.LVL5:
  94              		.loc 1 86 0 discriminator 3
  95 0012 AC42     		cmp	r4, r5
  96 0014 F8D1     		bne	.L6
  97 0016 0524     		movs	r4, #5
  98              	.L9:
  99              	.LVL6:
 100              		.loc 1 91 0
 101 0018 1448     		ldr	r0, .L16+4
 102 001a FFF7FEFF 		bl	chPoolAlloc
 103              	.LVL7:
 104 001e 011C     		adds	r1, r0, #0
 105 0020 18BF     		it	ne
 106 0022 0121     		movne	r1, #1
 107 0024 0120     		movs	r0, #1
 108 0026 FFF7FEFF 		bl	_test_assert
 109              	.LVL8:
 110 002a 58B9     		cbnz	r0, .L5
 111              		.loc 1 90 0 discriminator 2
 112 002c 013C     		subs	r4, r4, #1
 113              	.LVL9:
 114 002e F3D1     		bne	.L9
ARM GAS  /tmp/ccaV7V2I.s 			page 3


 115              		.loc 1 94 0
 116 0030 0E48     		ldr	r0, .L16+4
 117 0032 FFF7FEFF 		bl	chPoolAlloc
 118              	.LVL10:
 119 0036 B0FA80F1 		clz	r1, r0
 120 003a 0220     		movs	r0, #2
 121 003c 4909     		lsrs	r1, r1, #5
 122 003e FFF7FEFF 		bl	_test_assert
 123              	.LVL11:
 124 0042 00B1     		cbz	r0, .L15
 125              	.LVL12:
 126              	.L5:
 127 0044 38BD     		pop	{r3, r4, r5, pc}
 128              	.LVL13:
 129              	.L15:
 130              	.LBB4:
 131              	.LBB5:
 132              		.loc 1 97 0
 133 0046 1021     		movs	r1, #16
 134 0048 0848     		ldr	r0, .L16+4
 135 004a 094A     		ldr	r2, .L16+8
 136 004c FFF7FEFF 		bl	chPoolInit
 137              	.LVL14:
 138              		.loc 1 98 0
 139 0050 0648     		ldr	r0, .L16+4
 140 0052 FFF7FEFF 		bl	chPoolAlloc
 141              	.LVL15:
 142              	.LBE5:
 143              	.LBE4:
 144              		.loc 1 99 0
 145 0056 BDE83840 		pop	{r3, r4, r5, lr}
 146              		.cfi_restore 14
 147              		.cfi_restore 5
 148              		.cfi_restore 4
 149              		.cfi_restore 3
 150              		.cfi_def_cfa_offset 0
 151              	.LVL16:
 152              	.LBB7:
 153              	.LBB6:
 154              		.loc 1 98 0
 155 005a B0FA80F1 		clz	r1, r0
 156 005e 0320     		movs	r0, #3
 157 0060 4909     		lsrs	r1, r1, #5
 158 0062 FFF7FEBF 		b	_test_assert
 159              	.LVL17:
 160              	.L17:
 161 0066 00BF     		.align	2
 162              	.L16:
 163 0068 00000000 		.word	wa
 164 006c 00000000 		.word	.LANCHOR0
 165 0070 00000000 		.word	null_provider
 166              	.LBE6:
 167              	.LBE7:
 168              		.cfi_endproc
 169              	.LFE9:
 170              		.size	pools1_execute, .-pools1_execute
 171              		.global	patternpools
ARM GAS  /tmp/ccaV7V2I.s 			page 4


 172              		.global	testpools1
 173              		.section	.rodata.str1.4,"aMS",%progbits,1
 174              		.align	2
 175              	.LC0:
 176 0000 4D656D6F 		.ascii	"Memory Pools, queue/dequeue\000"
 176      72792050 
 176      6F6F6C73 
 176      2C207175 
 176      6575652F 
 177              		.section	.rodata.patternpools,"a",%progbits
 178              		.align	2
 179              		.type	patternpools, %object
 180              		.size	patternpools, 8
 181              	patternpools:
 182 0000 00000000 		.word	testpools1
 183 0004 00000000 		.word	0
 184              		.section	.data.mp1,"aw",%progbits
 185              		.align	2
 186              		.set	.LANCHOR0,. + 0
 187              		.type	mp1, %object
 188              		.size	mp1, 12
 189              	mp1:
 190 0000 00000000 		.word	0
 191 0004 30010000 		.word	304
 192 0008 00000000 		.word	0
 193              		.section	.rodata.testpools1,"a",%progbits
 194              		.align	2
 195              		.type	testpools1, %object
 196              		.size	testpools1, 16
 197              	testpools1:
 198 0000 00000000 		.word	.LC0
 199 0004 00000000 		.word	pools1_setup
 200 0008 00000000 		.word	0
 201 000c 00000000 		.word	pools1_execute
 202              		.text
 203              	.Letext0:
 204              		.file 2 "/home/leoperez/Documents/acuerol-stamp_repo-9ea99115aa86/gcc-arm-none-eabi-4_9-2015q3/lib
 205              		.file 3 "/home/leoperez/Documents/acuerol-stamp_repo-9ea99115aa86/gcc-arm-none-eabi-4_9-2015q3/arm
 206              		.file 4 "/home/leoperez/Documents/acuerol-stamp_repo-9ea99115aa86/gcc-arm-none-eabi-4_9-2015q3/arm
 207              		.file 5 "/home/leoperez/Documents/acuerol-stamp_repo-9ea99115aa86/files/code/ext/ChibiOS/os/ports/
 208              		.file 6 "/home/leoperez/Documents/acuerol-stamp_repo-9ea99115aa86/files/code/ext/ChibiOS/os/kernel
 209              		.file 7 "/home/leoperez/Documents/acuerol-stamp_repo-9ea99115aa86/files/code/ext/ChibiOS/os/kernel
 210              		.file 8 "/home/leoperez/Documents/acuerol-stamp_repo-9ea99115aa86/files/code/ext/ChibiOS/test/test