ARM GAS  /tmp/cc8tOftm.s 			page 1


   1              		.syntax unified
   2              		.cpu cortex-m3
   3              		.fpu softvfp
   4              		.eabi_attribute 20, 1
   5              		.eabi_attribute 21, 1
   6              		.eabi_attribute 23, 3
   7              		.eabi_attribute 24, 1
   8              		.eabi_attribute 25, 1
   9              		.eabi_attribute 26, 1
  10              		.eabi_attribute 30, 2
  11              		.eabi_attribute 34, 1
  12              		.eabi_attribute 18, 4
  13              		.thumb
  14              		.file	"testevt.c"
  15              		.text
  16              	.Ltext0:
  17              		.cfi_sections	.debug_frame
  18              		.section	.text.evt1_execute,"ax",%progbits
  19              		.align	2
  20              		.p2align 4,,15
  21              		.thumb
  22              		.thumb_func
  23              		.type	evt1_execute, %function
  24              	evt1_execute:
  25              	.LFB11:
  26              		.file 1 "/home/leoperez/Documents/acuerol-stamp_repo-9ea99115aa86/files/code/ext/ChibiOS/test/test
  27              		.loc 1 96 0
  28              		.cfi_startproc
  29              		@ args = 0, pretend = 0, frame = 24
  30              		@ frame_needed = 0, uses_anonymous_args = 0
  31 0000 10B5     		push	{r4, lr}
  32              		.cfi_def_cfa_offset 8
  33              		.cfi_offset 4, -8
  34              		.cfi_offset 14, -4
  35              		.loc 1 102 0
  36 0002 1D4C     		ldr	r4, .L7
  37              		.loc 1 96 0
  38 0004 86B0     		sub	sp, sp, #24
  39              		.cfi_def_cfa_offset 32
  40              		.loc 1 103 0
  41 0006 2046     		mov	r0, r4
  42 0008 6946     		mov	r1, sp
  43 000a 0122     		movs	r2, #1
  44              		.loc 1 102 0
  45 000c 2460     		str	r4, [r4]
  46              		.loc 1 103 0
  47 000e FFF7FEFF 		bl	chEvtRegisterMask
  48              	.LVL0:
  49              		.loc 1 104 0
  50 0012 2046     		mov	r0, r4
  51 0014 03A9     		add	r1, sp, #12
  52 0016 0222     		movs	r2, #2
  53 0018 FFF7FEFF 		bl	chEvtRegisterMask
  54              	.LVL1:
  55              		.loc 1 105 0
  56 001c 2168     		ldr	r1, [r4]
  57 001e 0120     		movs	r0, #1
ARM GAS  /tmp/cc8tOftm.s 			page 2


  58 0020 091B     		subs	r1, r1, r4
  59 0022 18BF     		it	ne
  60 0024 0121     		movne	r1, #1
  61 0026 FFF7FEFF 		bl	_test_assert
  62              	.LVL2:
  63 002a 08B1     		cbz	r0, .L6
  64              	.L1:
  65              		.loc 1 116 0
  66 002c 06B0     		add	sp, sp, #24
  67              		.cfi_remember_state
  68              		.cfi_def_cfa_offset 8
  69              		@ sp needed
  70 002e 10BD     		pop	{r4, pc}
  71              	.L6:
  72              		.cfi_restore_state
  73              		.loc 1 106 0
  74 0030 6946     		mov	r1, sp
  75 0032 2046     		mov	r0, r4
  76 0034 FFF7FEFF 		bl	chEvtUnregister
  77              	.LVL3:
  78              		.loc 1 107 0
  79 0038 2168     		ldr	r1, [r4]
  80 003a 0220     		movs	r0, #2
  81 003c 091B     		subs	r1, r1, r4
  82 003e 18BF     		it	ne
  83 0040 0121     		movne	r1, #1
  84 0042 FFF7FEFF 		bl	_test_assert
  85              	.LVL4:
  86 0046 0028     		cmp	r0, #0
  87 0048 F0D1     		bne	.L1
  88              		.loc 1 108 0
  89 004a 03A9     		add	r1, sp, #12
  90 004c 2046     		mov	r0, r4
  91 004e FFF7FEFF 		bl	chEvtUnregister
  92              	.LVL5:
  93              		.loc 1 109 0
  94 0052 2168     		ldr	r1, [r4]
  95 0054 0320     		movs	r0, #3
  96 0056 091B     		subs	r1, r1, r4
  97 0058 B1FA81F1 		clz	r1, r1
  98 005c 4909     		lsrs	r1, r1, #5
  99 005e FFF7FEFF 		bl	_test_assert
 100              	.LVL6:
 101 0062 0028     		cmp	r0, #0
 102 0064 E2D1     		bne	.L1
 103              		.loc 1 114 0
 104 0066 0548     		ldr	r0, .L7+4
 105 0068 0721     		movs	r1, #7
 106 006a FFF7FEFF 		bl	chEvtDispatch
 107              	.LVL7:
 108              		.loc 1 115 0
 109 006e 0449     		ldr	r1, .L7+8
 110 0070 0420     		movs	r0, #4
 111 0072 FFF7FEFF 		bl	_test_assert_sequence
 112              	.LVL8:
 113 0076 D9E7     		b	.L1
 114              	.L8:
ARM GAS  /tmp/cc8tOftm.s 			page 3


 115              		.align	2
 116              	.L7:
 117 0078 00000000 		.word	.LANCHOR0
 118 007c 00000000 		.word	.LANCHOR1
 119 0080 00000000 		.word	.LC0
 120              		.cfi_endproc
 121              	.LFE11:
 122              		.size	evt1_execute, .-evt1_execute
 123              		.section	.text.h3,"ax",%progbits
 124              		.align	2
 125              		.p2align 4,,15
 126              		.thumb
 127              		.thumb_func
 128              		.type	h3, %function
 129              	h3:
 130              	.LFB10:
 131              		.loc 1 93 0
 132              		.cfi_startproc
 133              		@ args = 0, pretend = 0, frame = 0
 134              		@ frame_needed = 0, uses_anonymous_args = 0
 135              		@ link register save eliminated.
 136              	.LVL9:
 137              		.loc 1 93 0
 138 0000 4320     		movs	r0, #67
 139              	.LVL10:
 140 0002 FFF7FEBF 		b	test_emit_token
 141              	.LVL11:
 142              		.cfi_endproc
 143              	.LFE10:
 144              		.size	h3, .-h3
 145 0006 00BF     		.section	.text.h2,"ax",%progbits
 146              		.align	2
 147              		.p2align 4,,15
 148              		.thumb
 149              		.thumb_func
 150              		.type	h2, %function
 151              	h2:
 152              	.LFB9:
 153              		.loc 1 92 0
 154              		.cfi_startproc
 155              		@ args = 0, pretend = 0, frame = 0
 156              		@ frame_needed = 0, uses_anonymous_args = 0
 157              		@ link register save eliminated.
 158              	.LVL12:
 159              		.loc 1 92 0
 160 0000 4220     		movs	r0, #66
 161              	.LVL13:
 162 0002 FFF7FEBF 		b	test_emit_token
 163              	.LVL14:
 164              		.cfi_endproc
 165              	.LFE9:
 166              		.size	h2, .-h2
 167 0006 00BF     		.section	.text.h1,"ax",%progbits
 168              		.align	2
 169              		.p2align 4,,15
 170              		.thumb
 171              		.thumb_func
ARM GAS  /tmp/cc8tOftm.s 			page 4


 172              		.type	h1, %function
 173              	h1:
 174              	.LFB8:
 175              		.loc 1 91 0
 176              		.cfi_startproc
 177              		@ args = 0, pretend = 0, frame = 0
 178              		@ frame_needed = 0, uses_anonymous_args = 0
 179              		@ link register save eliminated.
 180              	.LVL15:
 181              		.loc 1 91 0
 182 0000 4120     		movs	r0, #65
 183              	.LVL16:
 184 0002 FFF7FEBF 		b	test_emit_token
 185              	.LVL17:
 186              		.cfi_endproc
 187              	.LFE8:
 188              		.size	h1, .-h1
 189 0006 00BF     		.section	.text.evt1_setup,"ax",%progbits
 190              		.align	2
 191              		.p2align 4,,15
 192              		.thumb
 193              		.thumb_func
 194              		.type	evt1_setup, %function
 195              	evt1_setup:
 196              	.LFB7:
 197              		.loc 1 86 0
 198              		.cfi_startproc
 199              		@ args = 0, pretend = 0, frame = 0
 200              		@ frame_needed = 0, uses_anonymous_args = 0
 201              		@ link register save eliminated.
 202              		.loc 1 88 0
 203 0000 4FF0FF30 		mov	r0, #-1
 204 0004 FFF7FEBF 		b	chEvtClearFlags
 205              	.LVL18:
 206              		.cfi_endproc
 207              	.LFE7:
 208              		.size	evt1_setup, .-evt1_setup
 209              		.section	.text.evt2_setup,"ax",%progbits
 210              		.align	2
 211              		.p2align 4,,15
 212              		.thumb
 213              		.thumb_func
 214              		.type	evt2_setup, %function
 215              	evt2_setup:
 216              	.LFB12:
 217              		.loc 1 139 0
 218              		.cfi_startproc
 219              		@ args = 0, pretend = 0, frame = 0
 220              		@ frame_needed = 0, uses_anonymous_args = 0
 221              		@ link register save eliminated.
 222              		.loc 1 141 0
 223 0000 4FF0FF30 		mov	r0, #-1
 224 0004 FFF7FEBF 		b	chEvtClearFlags
 225              	.LVL19:
 226              		.cfi_endproc
 227              	.LFE12:
 228              		.size	evt2_setup, .-evt2_setup
ARM GAS  /tmp/cc8tOftm.s 			page 5


 229              		.section	.text.evt3_setup,"ax",%progbits
 230              		.align	2
 231              		.p2align 4,,15
 232              		.thumb
 233              		.thumb_func
 234              		.type	evt3_setup, %function
 235              	evt3_setup:
 236              	.LFB16:
 237              		.loc 1 258 0
 238              		.cfi_startproc
 239              		@ args = 0, pretend = 0, frame = 0
 240              		@ frame_needed = 0, uses_anonymous_args = 0
 241              		@ link register save eliminated.
 242              		.loc 1 260 0
 243 0000 4FF0FF30 		mov	r0, #-1
 244 0004 FFF7FEBF 		b	chEvtClearFlags
 245              	.LVL20:
 246              		.cfi_endproc
 247              	.LFE16:
 248              		.size	evt3_setup, .-evt3_setup
 249              		.section	.text.evt2_execute,"ax",%progbits
 250              		.align	2
 251              		.p2align 4,,15
 252              		.thumb
 253              		.thumb_func
 254              		.type	evt2_execute, %function
 255              	evt2_execute:
 256              	.LFB15:
 257              		.loc 1 160 0
 258              		.cfi_startproc
 259              		@ args = 0, pretend = 0, frame = 32
 260              		@ frame_needed = 0, uses_anonymous_args = 0
 261 0000 2DE9F042 		push	{r4, r5, r6, r7, r9, lr}
 262              		.cfi_def_cfa_offset 24
 263              		.cfi_offset 4, -24
 264              		.cfi_offset 5, -20
 265              		.cfi_offset 6, -16
 266              		.cfi_offset 7, -12
 267              		.cfi_offset 9, -8
 268              		.cfi_offset 14, -4
 269              		.loc 1 168 0
 270 0004 0520     		movs	r0, #5
 271              		.loc 1 160 0
 272 0006 8AB0     		sub	sp, sp, #40
 273              		.cfi_def_cfa_offset 64
 274              		.loc 1 168 0
 275 0008 FFF7FEFF 		bl	chEvtAddFlags
 276              	.LVL21:
 277              		.loc 1 169 0
 278 000c 4FF0FF30 		mov	r0, #-1
 279 0010 FFF7FEFF 		bl	chEvtWaitOne
 280              	.LVL22:
 281              		.loc 1 170 0
 282 0014 A0F10101 		sub	r1, r0, #1
 283 0018 B1FA81F1 		clz	r1, r1
 284 001c 0120     		movs	r0, #1
 285              	.LVL23:
ARM GAS  /tmp/cc8tOftm.s 			page 6


 286 001e 4909     		lsrs	r1, r1, #5
 287 0020 FFF7FEFF 		bl	_test_assert
 288              	.LVL24:
 289 0024 10B1     		cbz	r0, .L19
 290              	.L15:
 291              		.loc 1 233 0
 292 0026 0AB0     		add	sp, sp, #40
 293              		.cfi_remember_state
 294              		.cfi_def_cfa_offset 24
 295              		@ sp needed
 296 0028 BDE8F082 		pop	{r4, r5, r6, r7, r9, pc}
 297              	.L19:
 298              		.cfi_restore_state
 299              		.loc 1 171 0
 300 002c 4FF0FF30 		mov	r0, #-1
 301 0030 FFF7FEFF 		bl	chEvtWaitOne
 302              	.LVL25:
 303              		.loc 1 172 0
 304 0034 A0F10401 		sub	r1, r0, #4
 305 0038 B1FA81F1 		clz	r1, r1
 306 003c 0220     		movs	r0, #2
 307              	.LVL26:
 308 003e 4909     		lsrs	r1, r1, #5
 309 0040 FFF7FEFF 		bl	_test_assert
 310              	.LVL27:
 311 0044 0028     		cmp	r0, #0
 312 0046 EED1     		bne	.L15
 313              		.loc 1 173 0
 314 0048 4FF0FF30 		mov	r0, #-1
 315 004c FFF7FEFF 		bl	chEvtClearFlags
 316              	.LVL28:
 317              		.loc 1 174 0
 318 0050 B0FA80F1 		clz	r1, r0
 319 0054 0320     		movs	r0, #3
 320              	.LVL29:
 321 0056 4909     		lsrs	r1, r1, #5
 322 0058 FFF7FEFF 		bl	_test_assert
 323              	.LVL30:
 324 005c 0028     		cmp	r0, #0
 325 005e E2D1     		bne	.L15
 326              		.loc 1 181 0
 327 0060 704E     		ldr	r6, .L20
 328              		.loc 1 179 0
 329 0062 FFF7FEFF 		bl	test_wait_tick
 330              	.LVL31:
 331              		.loc 1 181 0
 332 0066 F369     		ldr	r3, [r6, #28]
 333 0068 6F49     		ldr	r1, .L20+4
 334 006a 9A68     		ldr	r2, [r3, #8]
 335 006c 0968     		ldr	r1, [r1]
 336              		.loc 1 180 0
 337 006e 6F4F     		ldr	r7, .L20+8
 338              		.loc 1 181 0
 339 0070 013A     		subs	r2, r2, #1
 340 0072 0093     		str	r3, [sp]
 341 0074 0391     		str	r1, [sp, #12]
 342 0076 0846     		mov	r0, r1
ARM GAS  /tmp/cc8tOftm.s 			page 7


 343 0078 6D4B     		ldr	r3, .L20+12
 344 007a 4FF49871 		mov	r1, #304
 345              		.loc 1 180 0
 346 007e FC68     		ldr	r4, [r7, #12]
 347              	.LVL32:
 348              		.loc 1 181 0
 349 0080 FFF7FEFF 		bl	chThdCreateStatic
 350              	.LVL33:
 351 0084 6B4D     		ldr	r5, .L20+16
 352 0086 2860     		str	r0, [r5]
 353              		.loc 1 183 0
 354 0088 4FF0FF30 		mov	r0, #-1
 355 008c FFF7FEFF 		bl	chEvtWaitOne
 356              	.LVL34:
 357              		.loc 1 184 0
 358 0090 04F13201 		add	r1, r4, #50
 359              	.LVL35:
 360              		.loc 1 183 0
 361 0094 8146     		mov	r9, r0
 362              	.LVL36:
 363              		.loc 1 184 0
 364 0096 04F13702 		add	r2, r4, #55
 365 009a 0420     		movs	r0, #4
 366              	.LVL37:
 367 009c FFF7FEFF 		bl	_test_assert_time_window
 368              	.LVL38:
 369 00a0 0028     		cmp	r0, #0
 370 00a2 C0D1     		bne	.L15
 371              		.loc 1 185 0
 372 00a4 A9F10101 		sub	r1, r9, #1
 373 00a8 B1FA81F1 		clz	r1, r1
 374 00ac 0520     		movs	r0, #5
 375 00ae 4909     		lsrs	r1, r1, #5
 376 00b0 FFF7FEFF 		bl	_test_assert
 377              	.LVL39:
 378 00b4 0028     		cmp	r0, #0
 379 00b6 B6D1     		bne	.L15
 380              		.loc 1 186 0
 381 00b8 4FF0FF30 		mov	r0, #-1
 382 00bc FFF7FEFF 		bl	chEvtClearFlags
 383              	.LVL40:
 384              		.loc 1 187 0
 385 00c0 B0FA80F1 		clz	r1, r0
 386 00c4 0620     		movs	r0, #6
 387              	.LVL41:
 388 00c6 4909     		lsrs	r1, r1, #5
 389 00c8 FFF7FEFF 		bl	_test_assert
 390              	.LVL42:
 391 00cc 0028     		cmp	r0, #0
 392 00ce AAD1     		bne	.L15
 393              		.loc 1 188 0
 394 00d0 FFF7FEFF 		bl	test_wait_threads
 395              	.LVL43:
 396              		.loc 1 193 0
 397 00d4 0520     		movs	r0, #5
 398 00d6 FFF7FEFF 		bl	chEvtAddFlags
 399              	.LVL44:
ARM GAS  /tmp/cc8tOftm.s 			page 8


 400              		.loc 1 194 0
 401 00da 4FF0FF30 		mov	r0, #-1
 402 00de FFF7FEFF 		bl	chEvtWaitAny
 403              	.LVL45:
 404              		.loc 1 195 0
 405 00e2 441F     		subs	r4, r0, #5
 406              	.LVL46:
 407 00e4 6142     		rsbs	r1, r4, #0
 408 00e6 6141     		adcs	r1, r1, r4
 409 00e8 0720     		movs	r0, #7
 410              	.LVL47:
 411 00ea FFF7FEFF 		bl	_test_assert
 412              	.LVL48:
 413 00ee 0028     		cmp	r0, #0
 414 00f0 99D1     		bne	.L15
 415              		.loc 1 196 0
 416 00f2 4FF0FF30 		mov	r0, #-1
 417 00f6 FFF7FEFF 		bl	chEvtClearFlags
 418              	.LVL49:
 419              		.loc 1 197 0
 420 00fa B0FA80F1 		clz	r1, r0
 421 00fe 0820     		movs	r0, #8
 422              	.LVL50:
 423 0100 4909     		lsrs	r1, r1, #5
 424 0102 FFF7FEFF 		bl	_test_assert
 425              	.LVL51:
 426 0106 0028     		cmp	r0, #0
 427 0108 8DD1     		bne	.L15
 428              		.loc 1 202 0
 429 010a FFF7FEFF 		bl	test_wait_tick
 430              	.LVL52:
 431              		.loc 1 204 0
 432 010e F369     		ldr	r3, [r6, #28]
 433 0110 4FF49871 		mov	r1, #304
 434 0114 9A68     		ldr	r2, [r3, #8]
 435 0116 0398     		ldr	r0, [sp, #12]
 436 0118 013A     		subs	r2, r2, #1
 437 011a 0093     		str	r3, [sp]
 438 011c 444B     		ldr	r3, .L20+12
 439              		.loc 1 203 0
 440 011e FC68     		ldr	r4, [r7, #12]
 441              	.LVL53:
 442              		.loc 1 204 0
 443 0120 FFF7FEFF 		bl	chThdCreateStatic
 444              	.LVL54:
 445 0124 2860     		str	r0, [r5]
 446              		.loc 1 206 0
 447 0126 4FF0FF30 		mov	r0, #-1
 448 012a FFF7FEFF 		bl	chEvtWaitAny
 449              	.LVL55:
 450              		.loc 1 207 0
 451 012e 04F13201 		add	r1, r4, #50
 452              	.LVL56:
 453              		.loc 1 206 0
 454 0132 8146     		mov	r9, r0
 455              	.LVL57:
 456              		.loc 1 207 0
ARM GAS  /tmp/cc8tOftm.s 			page 9


 457 0134 04F13702 		add	r2, r4, #55
 458 0138 0920     		movs	r0, #9
 459              	.LVL58:
 460 013a FFF7FEFF 		bl	_test_assert_time_window
 461              	.LVL59:
 462 013e 0028     		cmp	r0, #0
 463 0140 7FF471AF 		bne	.L15
 464              		.loc 1 208 0
 465 0144 09F1FF30 		add	r0, r9, #-1
 466 0148 4142     		rsbs	r1, r0, #0
 467 014a 4141     		adcs	r1, r1, r0
 468 014c 0A20     		movs	r0, #10
 469 014e FFF7FEFF 		bl	_test_assert
 470              	.LVL60:
 471 0152 0028     		cmp	r0, #0
 472 0154 7FF467AF 		bne	.L15
 473              		.loc 1 209 0
 474 0158 4FF0FF30 		mov	r0, #-1
 475 015c FFF7FEFF 		bl	chEvtClearFlags
 476              	.LVL61:
 477              		.loc 1 210 0
 478 0160 B0FA80F1 		clz	r1, r0
 479 0164 0B20     		movs	r0, #11
 480              	.LVL62:
 481 0166 4909     		lsrs	r1, r1, #5
 482 0168 FFF7FEFF 		bl	_test_assert
 483              	.LVL63:
 484 016c 0028     		cmp	r0, #0
 485 016e 7FF45AAF 		bne	.L15
 486              		.loc 1 216 0
 487 0172 DFF8D090 		ldr	r9, .L20+32
 488              		.loc 1 217 0
 489 0176 304C     		ldr	r4, .L20+20
 490              	.LVL64:
 491              		.loc 1 211 0
 492 0178 FFF7FEFF 		bl	test_wait_threads
 493              	.LVL65:
 494              		.loc 1 218 0
 495 017c 4846     		mov	r0, r9
 496 017e 04A9     		add	r1, sp, #16
 497 0180 0122     		movs	r2, #1
 498              		.loc 1 216 0
 499 0182 C9F80090 		str	r9, [r9]
 500              		.loc 1 217 0
 501 0186 2460     		str	r4, [r4]
 502              		.loc 1 218 0
 503 0188 FFF7FEFF 		bl	chEvtRegisterMask
 504              	.LVL66:
 505              		.loc 1 219 0
 506 018c 07A9     		add	r1, sp, #28
 507 018e 0422     		movs	r2, #4
 508 0190 2046     		mov	r0, r4
 509 0192 FFF7FEFF 		bl	chEvtRegisterMask
 510              	.LVL67:
 511              		.loc 1 220 0
 512 0196 FFF7FEFF 		bl	test_wait_tick
 513              	.LVL68:
ARM GAS  /tmp/cc8tOftm.s 			page 10


 514              		.loc 1 222 0
 515 019a F269     		ldr	r2, [r6, #28]
 516 019c 274B     		ldr	r3, .L20+24
 517 019e 9268     		ldr	r2, [r2, #8]
 518 01a0 4FF49871 		mov	r1, #304
 519 01a4 013A     		subs	r2, r2, #1
 520 01a6 0093     		str	r3, [sp]
 521 01a8 0398     		ldr	r0, [sp, #12]
 522 01aa 254B     		ldr	r3, .L20+28
 523              		.loc 1 221 0
 524 01ac FE68     		ldr	r6, [r7, #12]
 525              	.LVL69:
 526              		.loc 1 222 0
 527 01ae FFF7FEFF 		bl	chThdCreateStatic
 528              	.LVL70:
 529 01b2 2860     		str	r0, [r5]
 530              		.loc 1 224 0
 531 01b4 0520     		movs	r0, #5
 532 01b6 FFF7FEFF 		bl	chEvtWaitAll
 533              	.LVL71:
 534              		.loc 1 225 0
 535 01ba 06F13201 		add	r1, r6, #50
 536              	.LVL72:
 537 01be 06F13702 		add	r2, r6, #55
 538 01c2 0C20     		movs	r0, #12
 539 01c4 FFF7FEFF 		bl	_test_assert_time_window
 540              	.LVL73:
 541 01c8 0028     		cmp	r0, #0
 542 01ca 7FF42CAF 		bne	.L15
 543              		.loc 1 226 0
 544 01ce 4FF0FF30 		mov	r0, #-1
 545 01d2 FFF7FEFF 		bl	chEvtClearFlags
 546              	.LVL74:
 547              		.loc 1 227 0
 548 01d6 B0FA80F1 		clz	r1, r0
 549 01da 0D20     		movs	r0, #13
 550              	.LVL75:
 551 01dc 4909     		lsrs	r1, r1, #5
 552 01de FFF7FEFF 		bl	_test_assert
 553              	.LVL76:
 554 01e2 0028     		cmp	r0, #0
 555 01e4 7FF41FAF 		bne	.L15
 556              		.loc 1 228 0
 557 01e8 FFF7FEFF 		bl	test_wait_threads
 558              	.LVL77:
 559              		.loc 1 229 0
 560 01ec 4846     		mov	r0, r9
 561 01ee 04A9     		add	r1, sp, #16
 562 01f0 FFF7FEFF 		bl	chEvtUnregister
 563              	.LVL78:
 564              		.loc 1 230 0
 565 01f4 2046     		mov	r0, r4
 566 01f6 07A9     		add	r1, sp, #28
 567 01f8 FFF7FEFF 		bl	chEvtUnregister
 568              	.LVL79:
 569              		.loc 1 231 0
 570 01fc D9F80010 		ldr	r1, [r9]
ARM GAS  /tmp/cc8tOftm.s 			page 11


 571 0200 0E20     		movs	r0, #14
 572 0202 C9EB0102 		rsb	r2, r9, r1
 573 0206 5142     		rsbs	r1, r2, #0
 574 0208 5141     		adcs	r1, r1, r2
 575 020a FFF7FEFF 		bl	_test_assert
 576              	.LVL80:
 577 020e 0028     		cmp	r0, #0
 578 0210 7FF409AF 		bne	.L15
 579              		.loc 1 232 0
 580 0214 2168     		ldr	r1, [r4]
 581 0216 0F20     		movs	r0, #15
 582 0218 0B1B     		subs	r3, r1, r4
 583 021a 5942     		rsbs	r1, r3, #0
 584 021c 5941     		adcs	r1, r1, r3
 585 021e FFF7FEFF 		bl	_test_assert
 586              	.LVL81:
 587 0222 00E7     		b	.L15
 588              	.L21:
 589              		.align	2
 590              	.L20:
 591 0224 00000000 		.word	rlist
 592 0228 00000000 		.word	wa
 593 022c 00000000 		.word	vtlist
 594 0230 00000000 		.word	thread1
 595 0234 00000000 		.word	threads
 596 0238 00000000 		.word	.LANCHOR2
 597 023c 04000000 		.word	.LC1
 598 0240 00000000 		.word	thread2
 599 0244 00000000 		.word	.LANCHOR0
 600              		.cfi_endproc
 601              	.LFE15:
 602              		.size	evt2_execute, .-evt2_execute
 603              		.section	.text.thread2,"ax",%progbits
 604              		.align	2
 605              		.p2align 4,,15
 606              		.thumb
 607              		.thumb_func
 608              		.type	thread2, %function
 609              	thread2:
 610              	.LFB14:
 611              		.loc 1 151 0
 612              		.cfi_startproc
 613              		@ args = 0, pretend = 0, frame = 0
 614              		@ frame_needed = 0, uses_anonymous_args = 0
 615              	.LVL82:
 616 0000 08B5     		push	{r3, lr}
 617              		.cfi_def_cfa_offset 8
 618              		.cfi_offset 3, -8
 619              		.cfi_offset 14, -4
 620              		.loc 1 154 0
 621 0002 0021     		movs	r1, #0
 622 0004 0548     		ldr	r0, .L24
 623              	.LVL83:
 624 0006 FFF7FEFF 		bl	chEvtBroadcastFlags
 625              	.LVL84:
 626              		.loc 1 155 0
 627 000a 3220     		movs	r0, #50
ARM GAS  /tmp/cc8tOftm.s 			page 12


 628 000c FFF7FEFF 		bl	chThdSleep
 629              	.LVL85:
 630              		.loc 1 156 0
 631 0010 0348     		ldr	r0, .L24+4
 632 0012 0021     		movs	r1, #0
 633 0014 FFF7FEFF 		bl	chEvtBroadcastFlags
 634              	.LVL86:
 635              		.loc 1 158 0
 636 0018 0020     		movs	r0, #0
 637 001a 08BD     		pop	{r3, pc}
 638              	.L25:
 639              		.align	2
 640              	.L24:
 641 001c 00000000 		.word	.LANCHOR0
 642 0020 00000000 		.word	.LANCHOR2
 643              		.cfi_endproc
 644              	.LFE14:
 645              		.size	thread2, .-thread2
 646              		.section	.text.thread1,"ax",%progbits
 647              		.align	2
 648              		.p2align 4,,15
 649              		.thumb
 650              		.thumb_func
 651              		.type	thread1, %function
 652              	thread1:
 653              	.LFB13:
 654              		.loc 1 144 0
 655              		.cfi_startproc
 656              		@ args = 0, pretend = 0, frame = 0
 657              		@ frame_needed = 0, uses_anonymous_args = 0
 658              	.LVL87:
 659 0000 10B5     		push	{r4, lr}
 660              		.cfi_def_cfa_offset 8
 661              		.cfi_offset 4, -8
 662              		.cfi_offset 14, -4
 663              		.loc 1 144 0
 664 0002 0446     		mov	r4, r0
 665              		.loc 1 146 0
 666 0004 3220     		movs	r0, #50
 667              	.LVL88:
 668 0006 FFF7FEFF 		bl	chThdSleep
 669              	.LVL89:
 670              		.loc 1 147 0
 671 000a 2046     		mov	r0, r4
 672 000c 0121     		movs	r1, #1
 673 000e FFF7FEFF 		bl	chEvtSignalFlags
 674              	.LVL90:
 675              		.loc 1 149 0
 676 0012 0020     		movs	r0, #0
 677 0014 10BD     		pop	{r4, pc}
 678              		.cfi_endproc
 679              	.LFE13:
 680              		.size	thread1, .-thread1
 681 0016 00BF     		.section	.text.evt3_execute,"ax",%progbits
 682              		.align	2
 683              		.p2align 4,,15
 684              		.thumb
ARM GAS  /tmp/cc8tOftm.s 			page 13


 685              		.thumb_func
 686              		.type	evt3_execute, %function
 687              	evt3_execute:
 688              	.LFB17:
 689              		.loc 1 263 0
 690              		.cfi_startproc
 691              		@ args = 0, pretend = 0, frame = 0
 692              		@ frame_needed = 0, uses_anonymous_args = 0
 693 0000 08B5     		push	{r3, lr}
 694              		.cfi_def_cfa_offset 8
 695              		.cfi_offset 3, -8
 696              		.cfi_offset 14, -4
 697              		.loc 1 269 0
 698 0002 0021     		movs	r1, #0
 699 0004 4FF0FF30 		mov	r0, #-1
 700 0008 FFF7FEFF 		bl	chEvtWaitOneTimeout
 701              	.LVL91:
 702              		.loc 1 270 0
 703 000c B0FA80F1 		clz	r1, r0
 704 0010 0120     		movs	r0, #1
 705              	.LVL92:
 706 0012 4909     		lsrs	r1, r1, #5
 707 0014 FFF7FEFF 		bl	_test_assert
 708              	.LVL93:
 709 0018 00B1     		cbz	r0, .L33
 710              	.L28:
 711 001a 08BD     		pop	{r3, pc}
 712              	.L33:
 713              		.loc 1 271 0
 714 001c 0146     		mov	r1, r0
 715 001e 4FF0FF30 		mov	r0, #-1
 716 0022 FFF7FEFF 		bl	chEvtWaitAnyTimeout
 717              	.LVL94:
 718              		.loc 1 272 0
 719 0026 B0FA80F1 		clz	r1, r0
 720 002a 0220     		movs	r0, #2
 721              	.LVL95:
 722 002c 4909     		lsrs	r1, r1, #5
 723 002e FFF7FEFF 		bl	_test_assert
 724              	.LVL96:
 725 0032 0028     		cmp	r0, #0
 726 0034 F1D1     		bne	.L28
 727              		.loc 1 273 0
 728 0036 0146     		mov	r1, r0
 729 0038 4FF0FF30 		mov	r0, #-1
 730 003c FFF7FEFF 		bl	chEvtWaitAllTimeout
 731              	.LVL97:
 732              		.loc 1 274 0
 733 0040 B0FA80F1 		clz	r1, r0
 734 0044 0320     		movs	r0, #3
 735              	.LVL98:
 736 0046 4909     		lsrs	r1, r1, #5
 737 0048 FFF7FEFF 		bl	_test_assert
 738              	.LVL99:
 739 004c 0028     		cmp	r0, #0
 740 004e E4D1     		bne	.L28
 741              	.LBB4:
ARM GAS  /tmp/cc8tOftm.s 			page 14


 742              	.LBB5:
 743              		.loc 1 275 0
 744 0050 0A21     		movs	r1, #10
 745 0052 4FF0FF30 		mov	r0, #-1
 746 0056 FFF7FEFF 		bl	chEvtWaitOneTimeout
 747              	.LVL100:
 748              		.loc 1 276 0
 749 005a B0FA80F1 		clz	r1, r0
 750 005e 0420     		movs	r0, #4
 751              	.LVL101:
 752 0060 4909     		lsrs	r1, r1, #5
 753 0062 FFF7FEFF 		bl	_test_assert
 754              	.LVL102:
 755 0066 0028     		cmp	r0, #0
 756 0068 D7D1     		bne	.L28
 757              		.loc 1 277 0
 758 006a 0A21     		movs	r1, #10
 759 006c 4FF0FF30 		mov	r0, #-1
 760 0070 FFF7FEFF 		bl	chEvtWaitAnyTimeout
 761              	.LVL103:
 762              		.loc 1 278 0
 763 0074 B0FA80F1 		clz	r1, r0
 764 0078 0520     		movs	r0, #5
 765              	.LVL104:
 766 007a 4909     		lsrs	r1, r1, #5
 767 007c FFF7FEFF 		bl	_test_assert
 768              	.LVL105:
 769 0080 0028     		cmp	r0, #0
 770 0082 CAD1     		bne	.L28
 771              		.loc 1 279 0
 772 0084 0A21     		movs	r1, #10
 773 0086 4FF0FF30 		mov	r0, #-1
 774 008a FFF7FEFF 		bl	chEvtWaitAllTimeout
 775              	.LVL106:
 776              	.LBE5:
 777              	.LBE4:
 778              		.loc 1 281 0
 779 008e BDE80840 		pop	{r3, lr}
 780              		.cfi_restore 14
 781              		.cfi_restore 3
 782              		.cfi_def_cfa_offset 0
 783              	.LBB7:
 784              	.LBB6:
 785              		.loc 1 280 0
 786 0092 B0FA80F1 		clz	r1, r0
 787 0096 0620     		movs	r0, #6
 788              	.LVL107:
 789 0098 4909     		lsrs	r1, r1, #5
 790 009a FFF7FEBF 		b	_test_assert
 791              	.LVL108:
 792              	.LBE6:
 793              	.LBE7:
 794              		.cfi_endproc
 795              	.LFE17:
 796              		.size	evt3_execute, .-evt3_execute
 797              		.global	patternevt
 798              		.global	testevt3
ARM GAS  /tmp/cc8tOftm.s 			page 15


 799              		.global	testevt2
 800              		.global	testevt1
 801              		.section	.rodata.patternevt,"a",%progbits
 802              		.align	2
 803              		.type	patternevt, %object
 804              		.size	patternevt, 16
 805              	patternevt:
 806 0000 00000000 		.word	testevt1
 807 0004 00000000 		.word	testevt2
 808 0008 00000000 		.word	testevt3
 809 000c 00000000 		.word	0
 810              		.section	.rodata.testevt2,"a",%progbits
 811              		.align	2
 812              		.type	testevt2, %object
 813              		.size	testevt2, 16
 814              	testevt2:
 815 0000 1C000000 		.word	.LC3
 816 0004 00000000 		.word	evt2_setup
 817 0008 00000000 		.word	0
 818 000c 00000000 		.word	evt2_execute
 819              		.section	.rodata.str1.4,"aMS",%progbits,1
 820              		.align	2
 821              	.LC0:
 822 0000 41424300 		.ascii	"ABC\000"
 823              	.LC1:
 824 0004 4100     		.ascii	"A\000"
 825 0006 0000     		.space	2
 826              	.LC2:
 827 0008 4576656E 		.ascii	"Events, timeouts\000"
 827      74732C20 
 827      74696D65 
 827      6F757473 
 827      00
 828 0019 000000   		.space	3
 829              	.LC3:
 830 001c 4576656E 		.ascii	"Events, wait and broadcast\000"
 830      74732C20 
 830      77616974 
 830      20616E64 
 830      2062726F 
 831 0037 00       		.space	1
 832              	.LC4:
 833 0038 4576656E 		.ascii	"Events, registration and dispatch\000"
 833      74732C20 
 833      72656769 
 833      73747261 
 833      74696F6E 
 834              		.section	.rodata.testevt1,"a",%progbits
 835              		.align	2
 836              		.type	testevt1, %object
 837              		.size	testevt1, 16
 838              	testevt1:
 839 0000 38000000 		.word	.LC4
 840 0004 00000000 		.word	evt1_setup
 841 0008 00000000 		.word	0
 842 000c 00000000 		.word	evt1_execute
 843              		.section	.rodata.evhndl,"a",%progbits
ARM GAS  /tmp/cc8tOftm.s 			page 16


 844              		.align	2
 845              		.set	.LANCHOR1,. + 0
 846              		.type	evhndl, %object
 847              		.size	evhndl, 12
 848              	evhndl:
 849 0000 00000000 		.word	h1
 850 0004 00000000 		.word	h2
 851 0008 00000000 		.word	h3
 852              		.section	.rodata.testevt3,"a",%progbits
 853              		.align	2
 854              		.type	testevt3, %object
 855              		.size	testevt3, 16
 856              	testevt3:
 857 0000 08000000 		.word	.LC2
 858 0004 00000000 		.word	evt3_setup
 859 0008 00000000 		.word	0
 860 000c 00000000 		.word	evt3_execute
 861              		.section	.data.es1,"aw",%progbits
 862              		.align	2
 863              		.set	.LANCHOR0,. + 0
 864              		.type	es1, %object
 865              		.size	es1, 4
 866              	es1:
 867 0000 00000000 		.word	es1
 868              		.section	.data.es2,"aw",%progbits
 869              		.align	2
 870              		.set	.LANCHOR2,. + 0
 871              		.type	es2, %object
 872              		.size	es2, 4
 873              	es2:
 874 0000 00000000 		.word	es2
 875              		.text
 876              	.Letext0:
 877              		.file 2 "/home/leoperez/Documents/acuerol-stamp_repo-9ea99115aa86/gcc-arm-none-eabi-4_9-2015q3/lib
 878              		.file 3 "/home/leoperez/Documents/acuerol-stamp_repo-9ea99115aa86/gcc-arm-none-eabi-4_9-2015q3/arm
 879              		.file 4 "/home/leoperez/Documents/acuerol-stamp_repo-9ea99115aa86/gcc-arm-none-eabi-4_9-2015q3/arm
 880              		.file 5 "/home/leoperez/Documents/acuerol-stamp_repo-9ea99115aa86/files/code/ext/ChibiOS/os/ports/
 881              		.file 6 "/home/leoperez/Documents/acuerol-stamp_repo-9ea99115aa86/files/code/ext/ChibiOS/os/kernel
 882              		.file 7 "/home/leoperez/Documents/acuerol-stamp_repo-9ea99115aa86/files/code/ext/ChibiOS/os/kernel
 883              		.file 8 "/home/leoperez/Documents/acuerol-stamp_repo-9ea99115aa86/files/code/ext/ChibiOS/os/ports/
 884              		.file 9 "/home/leoperez/Documents/acuerol-stamp_repo-9ea99115aa86/files/code/ext/ChibiOS/os/kernel
 885              		.file 10 "/home/leoperez/Documents/acuerol-stamp_repo-9ea99115aa86/files/code/ext/ChibiOS/os/kerne
 886              		.file 11 "/home/leoperez/Documents/acuerol-stamp_repo-9ea99115aa86/files/code/ext/ChibiOS/os/kerne
 887              		.file 12 "/home/leoperez/Documents/acuerol-stamp_repo-9ea99115aa86/files/code/ext/ChibiOS/os/kerne
 888              		.file 13 "/home/leoperez/Documents/acuerol-stamp_repo-9ea99115aa86/files/code/ext/ChibiOS/test/tes
 889              		.section	.debug_info,"",%progbits
 890              	.Ldebug_info0:
 891 0000 79100000 		.4byte	0x1079
 892 0004 0400     		.2byte	0x4
 893 0006 00000000 		.4byte	.Ldebug_abbrev0
 894 000a 04       		.byte	0x4
 895 000b 01       		.uleb128 0x1
 896 000c 38000000 		.4byte	.LASF125
 897 0010 01       		.byte	0x1
 898 0011 D2050000 		.4byte	.LASF126
 899 0015 18000000 		.4byte	.Ldebug_ranges0+0x18
 900 0019 00000000 		.4byte	0
ARM GAS  /tmp/cc8tOftm.s 			page 17


 901 001d 00000000 		.4byte	.Ldebug_line0
 902 0021 02       		.uleb128 0x2
 903 0022 04       		.byte	0x4
 904 0023 05       		.byte	0x5
 905 0024 696E7400 		.ascii	"int\000"
 906 0028 03       		.uleb128 0x3
 907 0029 19000000 		.4byte	.LASF2
 908 002d 02       		.byte	0x2
 909 002e D4       		.byte	0xd4
 910 002f 33000000 		.4byte	0x33
 911 0033 04       		.uleb128 0x4
 912 0034 04       		.byte	0x4
 913 0035 07       		.byte	0x7
 914 0036 9A020000 		.4byte	.LASF0
 915 003a 04       		.uleb128 0x4
 916 003b 01       		.byte	0x1
 917 003c 06       		.byte	0x6
 918 003d 7E010000 		.4byte	.LASF1
 919 0041 03       		.uleb128 0x3
 920 0042 27000000 		.4byte	.LASF3
 921 0046 03       		.byte	0x3
 922 0047 1D       		.byte	0x1d
 923 0048 4C000000 		.4byte	0x4c
 924 004c 04       		.uleb128 0x4
 925 004d 01       		.byte	0x1
 926 004e 08       		.byte	0x8
 927 004f 62040000 		.4byte	.LASF4
 928 0053 04       		.uleb128 0x4
 929 0054 02       		.byte	0x2
 930 0055 05       		.byte	0x5
 931 0056 A0040000 		.4byte	.LASF5
 932 005a 04       		.uleb128 0x4
 933 005b 02       		.byte	0x2
 934 005c 07       		.byte	0x7
 935 005d EB020000 		.4byte	.LASF6
 936 0061 03       		.uleb128 0x3
 937 0062 41050000 		.4byte	.LASF7
 938 0066 03       		.byte	0x3
 939 0067 3F       		.byte	0x3f
 940 0068 6C000000 		.4byte	0x6c
 941 006c 04       		.uleb128 0x4
 942 006d 04       		.byte	0x4
 943 006e 05       		.byte	0x5
 944 006f D3010000 		.4byte	.LASF8
 945 0073 03       		.uleb128 0x3
 946 0074 31020000 		.4byte	.LASF9
 947 0078 03       		.byte	0x3
 948 0079 41       		.byte	0x41
 949 007a 7E000000 		.4byte	0x7e
 950 007e 04       		.uleb128 0x4
 951 007f 04       		.byte	0x4
 952 0080 07       		.byte	0x7
 953 0081 AF020000 		.4byte	.LASF10
 954 0085 04       		.uleb128 0x4
 955 0086 08       		.byte	0x8
 956 0087 05       		.byte	0x5
 957 0088 70010000 		.4byte	.LASF11
ARM GAS  /tmp/cc8tOftm.s 			page 18


 958 008c 04       		.uleb128 0x4
 959 008d 08       		.byte	0x8
 960 008e 07       		.byte	0x7
 961 008f 1D010000 		.4byte	.LASF12
 962 0093 03       		.uleb128 0x3
 963 0094 8D050000 		.4byte	.LASF13
 964 0098 04       		.byte	0x4
 965 0099 14       		.byte	0x14
 966 009a 41000000 		.4byte	0x41
 967 009e 03       		.uleb128 0x3
 968 009f 5A040000 		.4byte	.LASF14
 969 00a3 04       		.byte	0x4
 970 00a4 1F       		.byte	0x1f
 971 00a5 61000000 		.4byte	0x61
 972 00a9 03       		.uleb128 0x3
 973 00aa 02050000 		.4byte	.LASF15
 974 00ae 04       		.byte	0x4
 975 00af 20       		.byte	0x20
 976 00b0 73000000 		.4byte	0x73
 977 00b4 03       		.uleb128 0x3
 978 00b5 A6010000 		.4byte	.LASF16
 979 00b9 05       		.byte	0x5
 980 00ba 2E       		.byte	0x2e
 981 00bb 9E000000 		.4byte	0x9e
 982 00bf 03       		.uleb128 0x3
 983 00c0 36030000 		.4byte	.LASF17
 984 00c4 05       		.byte	0x5
 985 00c5 2F       		.byte	0x2f
 986 00c6 93000000 		.4byte	0x93
 987 00ca 03       		.uleb128 0x3
 988 00cb E8010000 		.4byte	.LASF18
 989 00cf 05       		.byte	0x5
 990 00d0 30       		.byte	0x30
 991 00d1 93000000 		.4byte	0x93
 992 00d5 03       		.uleb128 0x3
 993 00d6 2B040000 		.4byte	.LASF19
 994 00da 05       		.byte	0x5
 995 00db 31       		.byte	0x31
 996 00dc 93000000 		.4byte	0x93
 997 00e0 03       		.uleb128 0x3
 998 00e1 42040000 		.4byte	.LASF20
 999 00e5 05       		.byte	0x5
 1000 00e6 32       		.byte	0x32
 1001 00e7 A9000000 		.4byte	0xa9
 1002 00eb 03       		.uleb128 0x3
 1003 00ec 10030000 		.4byte	.LASF21
 1004 00f0 05       		.byte	0x5
 1005 00f1 33       		.byte	0x33
 1006 00f2 9E000000 		.4byte	0x9e
 1007 00f6 03       		.uleb128 0x3
 1008 00f7 61020000 		.4byte	.LASF22
 1009 00fb 05       		.byte	0x5
 1010 00fc 34       		.byte	0x34
 1011 00fd 9E000000 		.4byte	0x9e
 1012 0101 03       		.uleb128 0x3
 1013 0102 4A030000 		.4byte	.LASF23
 1014 0106 05       		.byte	0x5
ARM GAS  /tmp/cc8tOftm.s 			page 19


 1015 0107 35       		.byte	0x35
 1016 0108 A9000000 		.4byte	0xa9
 1017 010c 03       		.uleb128 0x3
 1018 010d 2C050000 		.4byte	.LASF24
 1019 0111 05       		.byte	0x5
 1020 0112 36       		.byte	0x36
 1021 0113 A9000000 		.4byte	0xa9
 1022 0117 03       		.uleb128 0x3
 1023 0118 83020000 		.4byte	.LASF25
 1024 011c 05       		.byte	0x5
 1025 011d 37       		.byte	0x37
 1026 011e 9E000000 		.4byte	0x9e
 1027 0122 03       		.uleb128 0x3
 1028 0123 D7040000 		.4byte	.LASF26
 1029 0127 06       		.byte	0x6
 1030 0128 2A       		.byte	0x2a
 1031 0129 2D010000 		.4byte	0x12d
 1032 012d 05       		.uleb128 0x5
 1033 012e D7040000 		.4byte	.LASF26
 1034 0132 48       		.byte	0x48
 1035 0133 07       		.byte	0x7
 1036 0134 5E       		.byte	0x5e
 1037 0135 1E020000 		.4byte	0x21e
 1038 0139 06       		.uleb128 0x6
 1039 013a C8040000 		.4byte	.LASF27
 1040 013e 07       		.byte	0x7
 1041 013f 5F       		.byte	0x5f
 1042 0140 3F020000 		.4byte	0x23f
 1043 0144 00       		.byte	0
 1044 0145 06       		.uleb128 0x6
 1045 0146 33040000 		.4byte	.LASF28
 1046 014a 07       		.byte	0x7
 1047 014b 61       		.byte	0x61
 1048 014c 3F020000 		.4byte	0x23f
 1049 0150 04       		.byte	0x4
 1050 0151 06       		.uleb128 0x6
 1051 0152 51010000 		.4byte	.LASF29
 1052 0156 07       		.byte	0x7
 1053 0157 63       		.byte	0x63
 1054 0158 E0000000 		.4byte	0xe0
 1055 015c 08       		.byte	0x8
 1056 015d 06       		.uleb128 0x6
 1057 015e 6E060000 		.4byte	.LASF30
 1058 0162 07       		.byte	0x7
 1059 0163 64       		.byte	0x64
 1060 0164 F8020000 		.4byte	0x2f8
 1061 0168 0C       		.byte	0xc
 1062 0169 06       		.uleb128 0x6
 1063 016a 29020000 		.4byte	.LASF31
 1064 016e 07       		.byte	0x7
 1065 016f 66       		.byte	0x66
 1066 0170 3F020000 		.4byte	0x23f
 1067 0174 10       		.byte	0x10
 1068 0175 06       		.uleb128 0x6
 1069 0176 BD030000 		.4byte	.LASF32
 1070 017a 07       		.byte	0x7
 1071 017b 67       		.byte	0x67
ARM GAS  /tmp/cc8tOftm.s 			page 20


 1072 017c 3F020000 		.4byte	0x23f
 1073 0180 14       		.byte	0x14
 1074 0181 06       		.uleb128 0x6
 1075 0182 BE050000 		.4byte	.LASF33
 1076 0186 07       		.byte	0x7
 1077 0187 6E       		.byte	0x6e
 1078 0188 40050000 		.4byte	0x540
 1079 018c 18       		.byte	0x18
 1080 018d 06       		.uleb128 0x6
 1081 018e AA040000 		.4byte	.LASF34
 1082 0192 07       		.byte	0x7
 1083 0193 79       		.byte	0x79
 1084 0194 CA000000 		.4byte	0xca
 1085 0198 1C       		.byte	0x1c
 1086 0199 06       		.uleb128 0x6
 1087 019a CF040000 		.4byte	.LASF35
 1088 019e 07       		.byte	0x7
 1089 019f 7D       		.byte	0x7d
 1090 01a0 BF000000 		.4byte	0xbf
 1091 01a4 1D       		.byte	0x1d
 1092 01a5 06       		.uleb128 0x6
 1093 01a6 76050000 		.4byte	.LASF36
 1094 01aa 07       		.byte	0x7
 1095 01ab 82       		.byte	0x82
 1096 01ac D5000000 		.4byte	0xd5
 1097 01b0 1E       		.byte	0x1e
 1098 01b1 06       		.uleb128 0x6
 1099 01b2 4B050000 		.4byte	.LASF37
 1100 01b6 07       		.byte	0x7
 1101 01b7 89       		.byte	0x89
 1102 01b8 CF030000 		.4byte	0x3cf
 1103 01bc 20       		.byte	0x20
 1104 01bd 07       		.uleb128 0x7
 1105 01be 705F7500 		.ascii	"p_u\000"
 1106 01c2 07       		.byte	0x7
 1107 01c3 AE       		.byte	0xae
 1108 01c4 0B050000 		.4byte	0x50b
 1109 01c8 24       		.byte	0x24
 1110 01c9 06       		.uleb128 0x6
 1111 01ca 74060000 		.4byte	.LASF38
 1112 01ce 07       		.byte	0x7
 1113 01cf B3       		.byte	0xb3
 1114 01d0 65020000 		.4byte	0x265
 1115 01d4 28       		.byte	0x28
 1116 01d5 06       		.uleb128 0x6
 1117 01d6 59050000 		.4byte	.LASF39
 1118 01da 07       		.byte	0x7
 1119 01db B9       		.byte	0xb9
 1120 01dc 45020000 		.4byte	0x245
 1121 01e0 2C       		.byte	0x2c
 1122 01e1 06       		.uleb128 0x6
 1123 01e2 13000000 		.4byte	.LASF40
 1124 01e6 07       		.byte	0x7
 1125 01e7 BD       		.byte	0xbd
 1126 01e8 EB000000 		.4byte	0xeb
 1127 01ec 34       		.byte	0x34
 1128 01ed 06       		.uleb128 0x6
ARM GAS  /tmp/cc8tOftm.s 			page 21


 1129 01ee E7040000 		.4byte	.LASF41
 1130 01f2 07       		.byte	0x7
 1131 01f3 C3       		.byte	0xc3
 1132 01f4 01010000 		.4byte	0x101
 1133 01f8 38       		.byte	0x38
 1134 01f9 06       		.uleb128 0x6
 1135 01fa 96040000 		.4byte	.LASF42
 1136 01fe 07       		.byte	0x7
 1137 01ff CA       		.byte	0xca
 1138 0200 52050000 		.4byte	0x552
 1139 0204 3C       		.byte	0x3c
 1140 0205 06       		.uleb128 0x6
 1141 0206 36050000 		.4byte	.LASF43
 1142 020a 07       		.byte	0x7
 1143 020b CE       		.byte	0xce
 1144 020c E0000000 		.4byte	0xe0
 1145 0210 40       		.byte	0x40
 1146 0211 06       		.uleb128 0x6
 1147 0212 9E010000 		.4byte	.LASF44
 1148 0216 07       		.byte	0x7
 1149 0217 D4       		.byte	0xd4
 1150 0218 7B020000 		.4byte	0x27b
 1151 021c 44       		.byte	0x44
 1152 021d 00       		.byte	0
 1153 021e 08       		.uleb128 0x8
 1154 021f 08       		.byte	0x8
 1155 0220 06       		.byte	0x6
 1156 0221 61       		.byte	0x61
 1157 0222 3F020000 		.4byte	0x23f
 1158 0226 06       		.uleb128 0x6
 1159 0227 C8040000 		.4byte	.LASF27
 1160 022b 06       		.byte	0x6
 1161 022c 62       		.byte	0x62
 1162 022d 3F020000 		.4byte	0x23f
 1163 0231 00       		.byte	0
 1164 0232 06       		.uleb128 0x6
 1165 0233 33040000 		.4byte	.LASF28
 1166 0237 06       		.byte	0x6
 1167 0238 64       		.byte	0x64
 1168 0239 3F020000 		.4byte	0x23f
 1169 023d 04       		.byte	0x4
 1170 023e 00       		.byte	0
 1171 023f 09       		.uleb128 0x9
 1172 0240 04       		.byte	0x4
 1173 0241 22010000 		.4byte	0x122
 1174 0245 03       		.uleb128 0x3
 1175 0246 DB030000 		.4byte	.LASF45
 1176 024a 06       		.byte	0x6
 1177 024b 66       		.byte	0x66
 1178 024c 1E020000 		.4byte	0x21e
 1179 0250 08       		.uleb128 0x8
 1180 0251 04       		.byte	0x4
 1181 0252 06       		.byte	0x6
 1182 0253 6B       		.byte	0x6b
 1183 0254 65020000 		.4byte	0x265
 1184 0258 06       		.uleb128 0x6
 1185 0259 C8040000 		.4byte	.LASF27
ARM GAS  /tmp/cc8tOftm.s 			page 22


 1186 025d 06       		.byte	0x6
 1187 025e 6D       		.byte	0x6d
 1188 025f 3F020000 		.4byte	0x23f
 1189 0263 00       		.byte	0
 1190 0264 00       		.byte	0
 1191 0265 03       		.uleb128 0x3
 1192 0266 3E030000 		.4byte	.LASF46
 1193 026a 06       		.byte	0x6
 1194 026b 70       		.byte	0x70
 1195 026c 50020000 		.4byte	0x250
 1196 0270 03       		.uleb128 0x3
 1197 0271 3C020000 		.4byte	.LASF47
 1198 0275 08       		.byte	0x8
 1199 0276 D7       		.byte	0xd7
 1200 0277 7B020000 		.4byte	0x27b
 1201 027b 0A       		.uleb128 0xa
 1202 027c 04       		.byte	0x4
 1203 027d 05       		.uleb128 0x5
 1204 027e 52050000 		.4byte	.LASF48
 1205 0282 24       		.byte	0x24
 1206 0283 08       		.byte	0x8
 1207 0284 FE       		.byte	0xfe
 1208 0285 F8020000 		.4byte	0x2f8
 1209 0289 0B       		.uleb128 0xb
 1210 028a 723400   		.ascii	"r4\000"
 1211 028d 08       		.byte	0x8
 1212 028e 1101     		.2byte	0x111
 1213 0290 70020000 		.4byte	0x270
 1214 0294 00       		.byte	0
 1215 0295 0B       		.uleb128 0xb
 1216 0296 723500   		.ascii	"r5\000"
 1217 0299 08       		.byte	0x8
 1218 029a 1201     		.2byte	0x112
 1219 029c 70020000 		.4byte	0x270
 1220 02a0 04       		.byte	0x4
 1221 02a1 0B       		.uleb128 0xb
 1222 02a2 723600   		.ascii	"r6\000"
 1223 02a5 08       		.byte	0x8
 1224 02a6 1301     		.2byte	0x113
 1225 02a8 70020000 		.4byte	0x270
 1226 02ac 08       		.byte	0x8
 1227 02ad 0B       		.uleb128 0xb
 1228 02ae 723700   		.ascii	"r7\000"
 1229 02b1 08       		.byte	0x8
 1230 02b2 1401     		.2byte	0x114
 1231 02b4 70020000 		.4byte	0x270
 1232 02b8 0C       		.byte	0xc
 1233 02b9 0B       		.uleb128 0xb
 1234 02ba 723800   		.ascii	"r8\000"
 1235 02bd 08       		.byte	0x8
 1236 02be 1501     		.2byte	0x115
 1237 02c0 70020000 		.4byte	0x270
 1238 02c4 10       		.byte	0x10
 1239 02c5 0B       		.uleb128 0xb
 1240 02c6 723900   		.ascii	"r9\000"
 1241 02c9 08       		.byte	0x8
 1242 02ca 1601     		.2byte	0x116
ARM GAS  /tmp/cc8tOftm.s 			page 23


 1243 02cc 70020000 		.4byte	0x270
 1244 02d0 14       		.byte	0x14
 1245 02d1 0B       		.uleb128 0xb
 1246 02d2 72313000 		.ascii	"r10\000"
 1247 02d6 08       		.byte	0x8
 1248 02d7 1701     		.2byte	0x117
 1249 02d9 70020000 		.4byte	0x270
 1250 02dd 18       		.byte	0x18
 1251 02de 0B       		.uleb128 0xb
 1252 02df 72313100 		.ascii	"r11\000"
 1253 02e3 08       		.byte	0x8
 1254 02e4 1801     		.2byte	0x118
 1255 02e6 70020000 		.4byte	0x270
 1256 02ea 1C       		.byte	0x1c
 1257 02eb 0B       		.uleb128 0xb
 1258 02ec 6C7200   		.ascii	"lr\000"
 1259 02ef 08       		.byte	0x8
 1260 02f0 1901     		.2byte	0x119
 1261 02f2 70020000 		.4byte	0x270
 1262 02f6 20       		.byte	0x20
 1263 02f7 00       		.byte	0
 1264 02f8 0C       		.uleb128 0xc
 1265 02f9 E3020000 		.4byte	.LASF49
 1266 02fd 04       		.byte	0x4
 1267 02fe 08       		.byte	0x8
 1268 02ff 2301     		.2byte	0x123
 1269 0301 13030000 		.4byte	0x313
 1270 0305 0B       		.uleb128 0xb
 1271 0306 72313300 		.ascii	"r13\000"
 1272 030a 08       		.byte	0x8
 1273 030b 2401     		.2byte	0x124
 1274 030d 13030000 		.4byte	0x313
 1275 0311 00       		.byte	0
 1276 0312 00       		.byte	0
 1277 0313 09       		.uleb128 0x9
 1278 0314 04       		.byte	0x4
 1279 0315 7D020000 		.4byte	0x27d
 1280 0319 04       		.uleb128 0x4
 1281 031a 04       		.byte	0x4
 1282 031b 07       		.byte	0x7
 1283 031c 81030000 		.4byte	.LASF50
 1284 0320 03       		.uleb128 0x3
 1285 0321 D5020000 		.4byte	.LASF51
 1286 0325 09       		.byte	0x9
 1287 0326 53       		.byte	0x53
 1288 0327 2B030000 		.4byte	0x32b
 1289 032b 09       		.uleb128 0x9
 1290 032c 04       		.byte	0x4
 1291 032d 31030000 		.4byte	0x331
 1292 0331 0D       		.uleb128 0xd
 1293 0332 3C030000 		.4byte	0x33c
 1294 0336 0E       		.uleb128 0xe
 1295 0337 7B020000 		.4byte	0x27b
 1296 033b 00       		.byte	0
 1297 033c 03       		.uleb128 0x3
 1298 033d 13050000 		.4byte	.LASF52
 1299 0341 09       		.byte	0x9
ARM GAS  /tmp/cc8tOftm.s 			page 24


 1300 0342 58       		.byte	0x58
 1301 0343 47030000 		.4byte	0x347
 1302 0347 05       		.uleb128 0x5
 1303 0348 13050000 		.4byte	.LASF52
 1304 034c 14       		.byte	0x14
 1305 034d 09       		.byte	0x9
 1306 034e 5F       		.byte	0x5f
 1307 034f 90030000 		.4byte	0x390
 1308 0353 06       		.uleb128 0x6
 1309 0354 A7020000 		.4byte	.LASF53
 1310 0358 09       		.byte	0x9
 1311 0359 60       		.byte	0x60
 1312 035a 90030000 		.4byte	0x390
 1313 035e 00       		.byte	0
 1314 035f 06       		.uleb128 0x6
 1315 0360 45020000 		.4byte	.LASF54
 1316 0364 09       		.byte	0x9
 1317 0365 62       		.byte	0x62
 1318 0366 90030000 		.4byte	0x390
 1319 036a 04       		.byte	0x4
 1320 036b 06       		.uleb128 0x6
 1321 036c 6E030000 		.4byte	.LASF55
 1322 0370 09       		.byte	0x9
 1323 0371 64       		.byte	0x64
 1324 0372 0C010000 		.4byte	0x10c
 1325 0376 08       		.byte	0x8
 1326 0377 06       		.uleb128 0x6
 1327 0378 8A030000 		.4byte	.LASF56
 1328 037c 09       		.byte	0x9
 1329 037d 65       		.byte	0x65
 1330 037e 20030000 		.4byte	0x320
 1331 0382 0C       		.byte	0xc
 1332 0383 06       		.uleb128 0x6
 1333 0384 64050000 		.4byte	.LASF57
 1334 0388 09       		.byte	0x9
 1335 0389 67       		.byte	0x67
 1336 038a 7B020000 		.4byte	0x27b
 1337 038e 10       		.byte	0x10
 1338 038f 00       		.byte	0
 1339 0390 09       		.uleb128 0x9
 1340 0391 04       		.byte	0x4
 1341 0392 3C030000 		.4byte	0x33c
 1342 0396 08       		.uleb128 0x8
 1343 0397 10       		.byte	0x10
 1344 0398 09       		.byte	0x9
 1345 0399 71       		.byte	0x71
 1346 039a CF030000 		.4byte	0x3cf
 1347 039e 06       		.uleb128 0x6
 1348 039f A7020000 		.4byte	.LASF53
 1349 03a3 09       		.byte	0x9
 1350 03a4 72       		.byte	0x72
 1351 03a5 90030000 		.4byte	0x390
 1352 03a9 00       		.byte	0
 1353 03aa 06       		.uleb128 0x6
 1354 03ab 45020000 		.4byte	.LASF54
 1355 03af 09       		.byte	0x9
 1356 03b0 74       		.byte	0x74
ARM GAS  /tmp/cc8tOftm.s 			page 25


 1357 03b1 90030000 		.4byte	0x390
 1358 03b5 04       		.byte	0x4
 1359 03b6 06       		.uleb128 0x6
 1360 03b7 6E030000 		.4byte	.LASF55
 1361 03bb 09       		.byte	0x9
 1362 03bc 76       		.byte	0x76
 1363 03bd 0C010000 		.4byte	0x10c
 1364 03c1 08       		.byte	0x8
 1365 03c2 06       		.uleb128 0x6
 1366 03c3 65010000 		.4byte	.LASF58
 1367 03c7 09       		.byte	0x9
 1368 03c8 77       		.byte	0x77
 1369 03c9 CF030000 		.4byte	0x3cf
 1370 03cd 0C       		.byte	0xc
 1371 03ce 00       		.byte	0
 1372 03cf 0F       		.uleb128 0xf
 1373 03d0 0C010000 		.4byte	0x10c
 1374 03d4 03       		.uleb128 0x3
 1375 03d5 39060000 		.4byte	.LASF59
 1376 03d9 09       		.byte	0x9
 1377 03da 78       		.byte	0x78
 1378 03db 96030000 		.4byte	0x396
 1379 03df 08       		.uleb128 0x8
 1380 03e0 20       		.byte	0x20
 1381 03e1 0A       		.byte	0xa
 1382 03e2 5E       		.byte	0x5e
 1383 03e3 3C040000 		.4byte	0x43c
 1384 03e7 06       		.uleb128 0x6
 1385 03e8 0B050000 		.4byte	.LASF60
 1386 03ec 0A       		.byte	0xa
 1387 03ed 5F       		.byte	0x5f
 1388 03ee 45020000 		.4byte	0x245
 1389 03f2 00       		.byte	0
 1390 03f3 06       		.uleb128 0x6
 1391 03f4 BA040000 		.4byte	.LASF61
 1392 03f8 0A       		.byte	0xa
 1393 03f9 60       		.byte	0x60
 1394 03fa E0000000 		.4byte	0xe0
 1395 03fe 08       		.byte	0x8
 1396 03ff 06       		.uleb128 0x6
 1397 0400 D5030000 		.4byte	.LASF62
 1398 0404 0A       		.byte	0xa
 1399 0405 62       		.byte	0x62
 1400 0406 F8020000 		.4byte	0x2f8
 1401 040a 0C       		.byte	0xc
 1402 040b 06       		.uleb128 0x6
 1403 040c 16030000 		.4byte	.LASF63
 1404 0410 0A       		.byte	0xa
 1405 0411 65       		.byte	0x65
 1406 0412 3F020000 		.4byte	0x23f
 1407 0416 10       		.byte	0x10
 1408 0417 06       		.uleb128 0x6
 1409 0418 1B040000 		.4byte	.LASF64
 1410 041c 0A       		.byte	0xa
 1411 041d 66       		.byte	0x66
 1412 041e 3F020000 		.4byte	0x23f
 1413 0422 14       		.byte	0x14
ARM GAS  /tmp/cc8tOftm.s 			page 26


 1414 0423 06       		.uleb128 0x6
 1415 0424 40060000 		.4byte	.LASF65
 1416 0428 0A       		.byte	0xa
 1417 0429 6A       		.byte	0x6a
 1418 042a 17010000 		.4byte	0x117
 1419 042e 18       		.byte	0x18
 1420 042f 06       		.uleb128 0x6
 1421 0430 11040000 		.4byte	.LASF66
 1422 0434 0A       		.byte	0xa
 1423 0435 6C       		.byte	0x6c
 1424 0436 3F020000 		.4byte	0x23f
 1425 043a 1C       		.byte	0x1c
 1426 043b 00       		.byte	0
 1427 043c 03       		.uleb128 0x3
 1428 043d 7D050000 		.4byte	.LASF67
 1429 0441 0A       		.byte	0xa
 1430 0442 6E       		.byte	0x6e
 1431 0443 DF030000 		.4byte	0x3df
 1432 0447 05       		.uleb128 0x5
 1433 0448 56030000 		.4byte	.LASF68
 1434 044c 10       		.byte	0x10
 1435 044d 0B       		.byte	0xb
 1436 044e 2C       		.byte	0x2c
 1437 044f 78040000 		.4byte	0x478
 1438 0453 06       		.uleb128 0x6
 1439 0454 AD010000 		.4byte	.LASF69
 1440 0458 0B       		.byte	0xb
 1441 0459 2D       		.byte	0x2d
 1442 045a 45020000 		.4byte	0x245
 1443 045e 00       		.byte	0
 1444 045f 06       		.uleb128 0x6
 1445 0460 4A060000 		.4byte	.LASF70
 1446 0464 0B       		.byte	0xb
 1447 0465 2F       		.byte	0x2f
 1448 0466 3F020000 		.4byte	0x23f
 1449 046a 08       		.byte	0x8
 1450 046b 06       		.uleb128 0x6
 1451 046c 25050000 		.4byte	.LASF71
 1452 0470 0B       		.byte	0xb
 1453 0471 31       		.byte	0x31
 1454 0472 78040000 		.4byte	0x478
 1455 0476 0C       		.byte	0xc
 1456 0477 00       		.byte	0
 1457 0478 09       		.uleb128 0x9
 1458 0479 04       		.byte	0x4
 1459 047a 47040000 		.4byte	0x447
 1460 047e 03       		.uleb128 0x3
 1461 047f 56030000 		.4byte	.LASF68
 1462 0483 0B       		.byte	0xb
 1463 0484 33       		.byte	0x33
 1464 0485 47040000 		.4byte	0x447
 1465 0489 03       		.uleb128 0x3
 1466 048a 95050000 		.4byte	.LASF72
 1467 048e 0C       		.byte	0xc
 1468 048f 29       		.byte	0x29
 1469 0490 94040000 		.4byte	0x494
 1470 0494 05       		.uleb128 0x5
ARM GAS  /tmp/cc8tOftm.s 			page 27


 1471 0495 95050000 		.4byte	.LASF72
 1472 0499 0C       		.byte	0xc
 1473 049a 0C       		.byte	0xc
 1474 049b 2E       		.byte	0x2e
 1475 049c C5040000 		.4byte	0x4c5
 1476 04a0 06       		.uleb128 0x6
 1477 04a1 1E030000 		.4byte	.LASF73
 1478 04a5 0C       		.byte	0xc
 1479 04a6 2F       		.byte	0x2f
 1480 04a7 C5040000 		.4byte	0x4c5
 1481 04ab 00       		.byte	0
 1482 04ac 06       		.uleb128 0x6
 1483 04ad 7D040000 		.4byte	.LASF74
 1484 04b1 0C       		.byte	0xc
 1485 04b2 32       		.byte	0x32
 1486 04b3 3F020000 		.4byte	0x23f
 1487 04b7 04       		.byte	0x4
 1488 04b8 06       		.uleb128 0x6
 1489 04b9 23040000 		.4byte	.LASF75
 1490 04bd 0C       		.byte	0xc
 1491 04be 34       		.byte	0x34
 1492 04bf 01010000 		.4byte	0x101
 1493 04c3 08       		.byte	0x8
 1494 04c4 00       		.byte	0
 1495 04c5 09       		.uleb128 0x9
 1496 04c6 04       		.byte	0x4
 1497 04c7 89040000 		.4byte	0x489
 1498 04cb 05       		.uleb128 0x5
 1499 04cc 6B020000 		.4byte	.LASF76
 1500 04d0 04       		.byte	0x4
 1501 04d1 0C       		.byte	0xc
 1502 04d2 3C       		.byte	0x3c
 1503 04d3 E4040000 		.4byte	0x4e4
 1504 04d7 06       		.uleb128 0x6
 1505 04d8 31060000 		.4byte	.LASF77
 1506 04dc 0C       		.byte	0xc
 1507 04dd 3D       		.byte	0x3d
 1508 04de C5040000 		.4byte	0x4c5
 1509 04e2 00       		.byte	0
 1510 04e3 00       		.byte	0
 1511 04e4 03       		.uleb128 0x3
 1512 04e5 6B020000 		.4byte	.LASF76
 1513 04e9 0C       		.byte	0xc
 1514 04ea 40       		.byte	0x40
 1515 04eb CB040000 		.4byte	0x4cb
 1516 04ef 03       		.uleb128 0x3
 1517 04f0 77020000 		.4byte	.LASF78
 1518 04f4 0C       		.byte	0xc
 1519 04f5 45       		.byte	0x45
 1520 04f6 FA040000 		.4byte	0x4fa
 1521 04fa 09       		.uleb128 0x9
 1522 04fb 04       		.byte	0x4
 1523 04fc 00050000 		.4byte	0x500
 1524 0500 0D       		.uleb128 0xd
 1525 0501 0B050000 		.4byte	0x50b
 1526 0505 0E       		.uleb128 0xe
 1527 0506 F6000000 		.4byte	0xf6
ARM GAS  /tmp/cc8tOftm.s 			page 28


 1528 050a 00       		.byte	0
 1529 050b 10       		.uleb128 0x10
 1530 050c 04       		.byte	0x4
 1531 050d 07       		.byte	0x7
 1532 050e 90       		.byte	0x90
 1533 050f 40050000 		.4byte	0x540
 1534 0513 11       		.uleb128 0x11
 1535 0514 20000000 		.4byte	.LASF79
 1536 0518 07       		.byte	0x7
 1537 0519 97       		.byte	0x97
 1538 051a EB000000 		.4byte	0xeb
 1539 051e 11       		.uleb128 0x11
 1540 051f 34010000 		.4byte	.LASF80
 1541 0523 07       		.byte	0x7
 1542 0524 9E       		.byte	0x9e
 1543 0525 EB000000 		.4byte	0xeb
 1544 0529 11       		.uleb128 0x11
 1545 052a B7050000 		.4byte	.LASF81
 1546 052e 07       		.byte	0x7
 1547 052f A5       		.byte	0xa5
 1548 0530 7B020000 		.4byte	0x27b
 1549 0534 11       		.uleb128 0x11
 1550 0535 C1040000 		.4byte	.LASF82
 1551 0539 07       		.byte	0x7
 1552 053a AC       		.byte	0xac
 1553 053b 01010000 		.4byte	0x101
 1554 053f 00       		.byte	0
 1555 0540 09       		.uleb128 0x9
 1556 0541 04       		.byte	0x4
 1557 0542 46050000 		.4byte	0x546
 1558 0546 12       		.uleb128 0x12
 1559 0547 4B050000 		.4byte	0x54b
 1560 054b 04       		.uleb128 0x4
 1561 054c 01       		.byte	0x1
 1562 054d 08       		.byte	0x8
 1563 054e 20050000 		.4byte	.LASF83
 1564 0552 09       		.uleb128 0x9
 1565 0553 04       		.byte	0x4
 1566 0554 7E040000 		.4byte	0x47e
 1567 0558 03       		.uleb128 0x3
 1568 0559 00000000 		.4byte	.LASF84
 1569 055d 07       		.byte	0x7
 1570 055e DF       		.byte	0xdf
 1571 055f 63050000 		.4byte	0x563
 1572 0563 09       		.uleb128 0x9
 1573 0564 04       		.byte	0x4
 1574 0565 69050000 		.4byte	0x569
 1575 0569 13       		.uleb128 0x13
 1576 056a EB000000 		.4byte	0xeb
 1577 056e 78050000 		.4byte	0x578
 1578 0572 0E       		.uleb128 0xe
 1579 0573 7B020000 		.4byte	0x27b
 1580 0577 00       		.byte	0
 1581 0578 05       		.uleb128 0x5
 1582 0579 DE040000 		.4byte	.LASF85
 1583 057d 10       		.byte	0x10
 1584 057e 0D       		.byte	0xd
ARM GAS  /tmp/cc8tOftm.s 			page 29


 1585 057f 46       		.byte	0x46
 1586 0580 B5050000 		.4byte	0x5b5
 1587 0584 06       		.uleb128 0x6
 1588 0585 DE020000 		.4byte	.LASF86
 1589 0589 0D       		.byte	0xd
 1590 058a 47       		.byte	0x47
 1591 058b 40050000 		.4byte	0x540
 1592 058f 00       		.byte	0
 1593 0590 06       		.uleb128 0x6
 1594 0591 E8030000 		.4byte	.LASF87
 1595 0595 0D       		.byte	0xd
 1596 0596 48       		.byte	0x48
 1597 0597 B6050000 		.4byte	0x5b6
 1598 059b 04       		.byte	0x4
 1599 059c 06       		.uleb128 0x6
 1600 059d C1020000 		.4byte	.LASF88
 1601 05a1 0D       		.byte	0xd
 1602 05a2 49       		.byte	0x49
 1603 05a3 B6050000 		.4byte	0x5b6
 1604 05a7 08       		.byte	0x8
 1605 05a8 06       		.uleb128 0x6
 1606 05a9 3A040000 		.4byte	.LASF89
 1607 05ad 0D       		.byte	0xd
 1608 05ae 4A       		.byte	0x4a
 1609 05af B6050000 		.4byte	0x5b6
 1610 05b3 0C       		.byte	0xc
 1611 05b4 00       		.byte	0
 1612 05b5 14       		.uleb128 0x14
 1613 05b6 09       		.uleb128 0x9
 1614 05b7 04       		.byte	0x4
 1615 05b8 B5050000 		.4byte	0x5b5
 1616 05bc 15       		.uleb128 0x15
 1617 05bd 89040000 		.4byte	.LASF127
 1618 05c1 01       		.byte	0x1
 1619 05c2 0701     		.2byte	0x107
 1620 05c4 01       		.byte	0x1
 1621 05c5 D4050000 		.4byte	0x5d4
 1622 05c9 16       		.uleb128 0x16
 1623 05ca 6D00     		.ascii	"m\000"
 1624 05cc 01       		.byte	0x1
 1625 05cd 0801     		.2byte	0x108
 1626 05cf 01010000 		.4byte	0x101
 1627 05d3 00       		.byte	0
 1628 05d4 17       		.uleb128 0x17
 1629 05d5 61060000 		.4byte	.LASF90
 1630 05d9 01       		.byte	0x1
 1631 05da 60       		.byte	0x60
 1632 05db 00000000 		.4byte	.LFB11
 1633 05df 84000000 		.4byte	.LFE11-.LFB11
 1634 05e3 01       		.uleb128 0x1
 1635 05e4 9C       		.byte	0x9c
 1636 05e5 E5060000 		.4byte	0x6e5
 1637 05e9 18       		.uleb128 0x18
 1638 05ea 656C3100 		.ascii	"el1\000"
 1639 05ee 01       		.byte	0x1
 1640 05ef 61       		.byte	0x61
 1641 05f0 89040000 		.4byte	0x489
ARM GAS  /tmp/cc8tOftm.s 			page 30


 1642 05f4 02       		.uleb128 0x2
 1643 05f5 91       		.byte	0x91
 1644 05f6 60       		.sleb128 -32
 1645 05f7 18       		.uleb128 0x18
 1646 05f8 656C3200 		.ascii	"el2\000"
 1647 05fc 01       		.byte	0x1
 1648 05fd 61       		.byte	0x61
 1649 05fe 89040000 		.4byte	0x489
 1650 0602 02       		.uleb128 0x2
 1651 0603 91       		.byte	0x91
 1652 0604 6C       		.sleb128 -20
 1653 0605 19       		.uleb128 0x19
 1654 0606 12000000 		.4byte	.LVL0
 1655 060a 8D0E0000 		.4byte	0xe8d
 1656 060e 24060000 		.4byte	0x624
 1657 0612 1A       		.uleb128 0x1a
 1658 0613 01       		.uleb128 0x1
 1659 0614 52       		.byte	0x52
 1660 0615 01       		.uleb128 0x1
 1661 0616 31       		.byte	0x31
 1662 0617 1A       		.uleb128 0x1a
 1663 0618 01       		.uleb128 0x1
 1664 0619 51       		.byte	0x51
 1665 061a 02       		.uleb128 0x2
 1666 061b 7D       		.byte	0x7d
 1667 061c 00       		.sleb128 0
 1668 061d 1A       		.uleb128 0x1a
 1669 061e 01       		.uleb128 0x1
 1670 061f 50       		.byte	0x50
 1671 0620 02       		.uleb128 0x2
 1672 0621 74       		.byte	0x74
 1673 0622 00       		.sleb128 0
 1674 0623 00       		.byte	0
 1675 0624 19       		.uleb128 0x19
 1676 0625 1C000000 		.4byte	.LVL1
 1677 0629 8D0E0000 		.4byte	0xe8d
 1678 062d 43060000 		.4byte	0x643
 1679 0631 1A       		.uleb128 0x1a
 1680 0632 01       		.uleb128 0x1
 1681 0633 52       		.byte	0x52
 1682 0634 01       		.uleb128 0x1
 1683 0635 32       		.byte	0x32
 1684 0636 1A       		.uleb128 0x1a
 1685 0637 01       		.uleb128 0x1
 1686 0638 51       		.byte	0x51
 1687 0639 02       		.uleb128 0x2
 1688 063a 91       		.byte	0x91
 1689 063b 6C       		.sleb128 -20
 1690 063c 1A       		.uleb128 0x1a
 1691 063d 01       		.uleb128 0x1
 1692 063e 50       		.byte	0x50
 1693 063f 02       		.uleb128 0x2
 1694 0640 74       		.byte	0x74
 1695 0641 00       		.sleb128 0
 1696 0642 00       		.byte	0
 1697 0643 19       		.uleb128 0x19
 1698 0644 2A000000 		.4byte	.LVL2
ARM GAS  /tmp/cc8tOftm.s 			page 31


 1699 0648 AE0E0000 		.4byte	0xeae
 1700 064c 56060000 		.4byte	0x656
 1701 0650 1A       		.uleb128 0x1a
 1702 0651 01       		.uleb128 0x1
 1703 0652 50       		.byte	0x50
 1704 0653 01       		.uleb128 0x1
 1705 0654 31       		.byte	0x31
 1706 0655 00       		.byte	0
 1707 0656 19       		.uleb128 0x19
 1708 0657 38000000 		.4byte	.LVL3
 1709 065b C80E0000 		.4byte	0xec8
 1710 065f 70060000 		.4byte	0x670
 1711 0663 1A       		.uleb128 0x1a
 1712 0664 01       		.uleb128 0x1
 1713 0665 51       		.byte	0x51
 1714 0666 02       		.uleb128 0x2
 1715 0667 7D       		.byte	0x7d
 1716 0668 00       		.sleb128 0
 1717 0669 1A       		.uleb128 0x1a
 1718 066a 01       		.uleb128 0x1
 1719 066b 50       		.byte	0x50
 1720 066c 02       		.uleb128 0x2
 1721 066d 74       		.byte	0x74
 1722 066e 00       		.sleb128 0
 1723 066f 00       		.byte	0
 1724 0670 19       		.uleb128 0x19
 1725 0671 46000000 		.4byte	.LVL4
 1726 0675 AE0E0000 		.4byte	0xeae
 1727 0679 83060000 		.4byte	0x683
 1728 067d 1A       		.uleb128 0x1a
 1729 067e 01       		.uleb128 0x1
 1730 067f 50       		.byte	0x50
 1731 0680 01       		.uleb128 0x1
 1732 0681 32       		.byte	0x32
 1733 0682 00       		.byte	0
 1734 0683 19       		.uleb128 0x19
 1735 0684 52000000 		.4byte	.LVL5
 1736 0688 C80E0000 		.4byte	0xec8
 1737 068c 9D060000 		.4byte	0x69d
 1738 0690 1A       		.uleb128 0x1a
 1739 0691 01       		.uleb128 0x1
 1740 0692 51       		.byte	0x51
 1741 0693 02       		.uleb128 0x2
 1742 0694 91       		.byte	0x91
 1743 0695 6C       		.sleb128 -20
 1744 0696 1A       		.uleb128 0x1a
 1745 0697 01       		.uleb128 0x1
 1746 0698 50       		.byte	0x50
 1747 0699 02       		.uleb128 0x2
 1748 069a 74       		.byte	0x74
 1749 069b 00       		.sleb128 0
 1750 069c 00       		.byte	0
 1751 069d 19       		.uleb128 0x19
 1752 069e 62000000 		.4byte	.LVL6
 1753 06a2 AE0E0000 		.4byte	0xeae
 1754 06a6 B0060000 		.4byte	0x6b0
 1755 06aa 1A       		.uleb128 0x1a
ARM GAS  /tmp/cc8tOftm.s 			page 32


 1756 06ab 01       		.uleb128 0x1
 1757 06ac 50       		.byte	0x50
 1758 06ad 01       		.uleb128 0x1
 1759 06ae 33       		.byte	0x33
 1760 06af 00       		.byte	0
 1761 06b0 19       		.uleb128 0x19
 1762 06b1 6E000000 		.4byte	.LVL7
 1763 06b5 DE0E0000 		.4byte	0xede
 1764 06b9 CC060000 		.4byte	0x6cc
 1765 06bd 1A       		.uleb128 0x1a
 1766 06be 01       		.uleb128 0x1
 1767 06bf 51       		.byte	0x51
 1768 06c0 01       		.uleb128 0x1
 1769 06c1 37       		.byte	0x37
 1770 06c2 1A       		.uleb128 0x1a
 1771 06c3 01       		.uleb128 0x1
 1772 06c4 50       		.byte	0x50
 1773 06c5 05       		.uleb128 0x5
 1774 06c6 03       		.byte	0x3
 1775 06c7 00000000 		.4byte	.LANCHOR1
 1776 06cb 00       		.byte	0
 1777 06cc 1B       		.uleb128 0x1b
 1778 06cd 76000000 		.4byte	.LVL8
 1779 06d1 FF0E0000 		.4byte	0xeff
 1780 06d5 1A       		.uleb128 0x1a
 1781 06d6 01       		.uleb128 0x1
 1782 06d7 51       		.byte	0x51
 1783 06d8 05       		.uleb128 0x5
 1784 06d9 03       		.byte	0x3
 1785 06da 00000000 		.4byte	.LC0
 1786 06de 1A       		.uleb128 0x1a
 1787 06df 01       		.uleb128 0x1
 1788 06e0 50       		.byte	0x50
 1789 06e1 01       		.uleb128 0x1
 1790 06e2 34       		.byte	0x34
 1791 06e3 00       		.byte	0
 1792 06e4 00       		.byte	0
 1793 06e5 1C       		.uleb128 0x1c
 1794 06e6 683300   		.ascii	"h3\000"
 1795 06e9 01       		.byte	0x1
 1796 06ea 5D       		.byte	0x5d
 1797 06eb 00000000 		.4byte	.LFB10
 1798 06ef 06000000 		.4byte	.LFE10-.LFB10
 1799 06f3 01       		.uleb128 0x1
 1800 06f4 9C       		.byte	0x9c
 1801 06f5 18070000 		.4byte	0x718
 1802 06f9 1D       		.uleb128 0x1d
 1803 06fa 696400   		.ascii	"id\000"
 1804 06fd 01       		.byte	0x1
 1805 06fe 5D       		.byte	0x5d
 1806 06ff F6000000 		.4byte	0xf6
 1807 0703 00000000 		.4byte	.LLST0
 1808 0707 1E       		.uleb128 0x1e
 1809 0708 06000000 		.4byte	.LVL11
 1810 070c 1F0F0000 		.4byte	0xf1f
 1811 0710 1A       		.uleb128 0x1a
 1812 0711 01       		.uleb128 0x1
ARM GAS  /tmp/cc8tOftm.s 			page 33


 1813 0712 50       		.byte	0x50
 1814 0713 02       		.uleb128 0x2
 1815 0714 08       		.byte	0x8
 1816 0715 43       		.byte	0x43
 1817 0716 00       		.byte	0
 1818 0717 00       		.byte	0
 1819 0718 1C       		.uleb128 0x1c
 1820 0719 683200   		.ascii	"h2\000"
 1821 071c 01       		.byte	0x1
 1822 071d 5C       		.byte	0x5c
 1823 071e 00000000 		.4byte	.LFB9
 1824 0722 06000000 		.4byte	.LFE9-.LFB9
 1825 0726 01       		.uleb128 0x1
 1826 0727 9C       		.byte	0x9c
 1827 0728 4B070000 		.4byte	0x74b
 1828 072c 1D       		.uleb128 0x1d
 1829 072d 696400   		.ascii	"id\000"
 1830 0730 01       		.byte	0x1
 1831 0731 5C       		.byte	0x5c
 1832 0732 F6000000 		.4byte	0xf6
 1833 0736 21000000 		.4byte	.LLST1
 1834 073a 1E       		.uleb128 0x1e
 1835 073b 06000000 		.4byte	.LVL14
 1836 073f 1F0F0000 		.4byte	0xf1f
 1837 0743 1A       		.uleb128 0x1a
 1838 0744 01       		.uleb128 0x1
 1839 0745 50       		.byte	0x50
 1840 0746 02       		.uleb128 0x2
 1841 0747 08       		.byte	0x8
 1842 0748 42       		.byte	0x42
 1843 0749 00       		.byte	0
 1844 074a 00       		.byte	0
 1845 074b 1C       		.uleb128 0x1c
 1846 074c 683100   		.ascii	"h1\000"
 1847 074f 01       		.byte	0x1
 1848 0750 5B       		.byte	0x5b
 1849 0751 00000000 		.4byte	.LFB8
 1850 0755 06000000 		.4byte	.LFE8-.LFB8
 1851 0759 01       		.uleb128 0x1
 1852 075a 9C       		.byte	0x9c
 1853 075b 7E070000 		.4byte	0x77e
 1854 075f 1D       		.uleb128 0x1d
 1855 0760 696400   		.ascii	"id\000"
 1856 0763 01       		.byte	0x1
 1857 0764 5B       		.byte	0x5b
 1858 0765 F6000000 		.4byte	0xf6
 1859 0769 42000000 		.4byte	.LLST2
 1860 076d 1E       		.uleb128 0x1e
 1861 076e 06000000 		.4byte	.LVL17
 1862 0772 1F0F0000 		.4byte	0xf1f
 1863 0776 1A       		.uleb128 0x1a
 1864 0777 01       		.uleb128 0x1
 1865 0778 50       		.byte	0x50
 1866 0779 02       		.uleb128 0x2
 1867 077a 08       		.byte	0x8
 1868 077b 41       		.byte	0x41
 1869 077c 00       		.byte	0
ARM GAS  /tmp/cc8tOftm.s 			page 34


 1870 077d 00       		.byte	0
 1871 077e 17       		.uleb128 0x17
 1872 077f 76030000 		.4byte	.LASF91
 1873 0783 01       		.byte	0x1
 1874 0784 56       		.byte	0x56
 1875 0785 00000000 		.4byte	.LFB7
 1876 0789 08000000 		.4byte	.LFE7-.LFB7
 1877 078d 01       		.uleb128 0x1
 1878 078e 9C       		.byte	0x9c
 1879 078f A4070000 		.4byte	0x7a4
 1880 0793 1E       		.uleb128 0x1e
 1881 0794 08000000 		.4byte	.LVL18
 1882 0798 300F0000 		.4byte	0xf30
 1883 079c 1A       		.uleb128 0x1a
 1884 079d 01       		.uleb128 0x1
 1885 079e 50       		.byte	0x50
 1886 079f 02       		.uleb128 0x2
 1887 07a0 09       		.byte	0x9
 1888 07a1 FF       		.byte	0xff
 1889 07a2 00       		.byte	0
 1890 07a3 00       		.byte	0
 1891 07a4 17       		.uleb128 0x17
 1892 07a5 08000000 		.4byte	.LASF92
 1893 07a9 01       		.byte	0x1
 1894 07aa 8B       		.byte	0x8b
 1895 07ab 00000000 		.4byte	.LFB12
 1896 07af 08000000 		.4byte	.LFE12-.LFB12
 1897 07b3 01       		.uleb128 0x1
 1898 07b4 9C       		.byte	0x9c
 1899 07b5 CA070000 		.4byte	0x7ca
 1900 07b9 1E       		.uleb128 0x1e
 1901 07ba 08000000 		.4byte	.LVL19
 1902 07be 300F0000 		.4byte	0xf30
 1903 07c2 1A       		.uleb128 0x1a
 1904 07c3 01       		.uleb128 0x1
 1905 07c4 50       		.byte	0x50
 1906 07c5 02       		.uleb128 0x2
 1907 07c6 09       		.byte	0x9
 1908 07c7 FF       		.byte	0xff
 1909 07c8 00       		.byte	0
 1910 07c9 00       		.byte	0
 1911 07ca 1F       		.uleb128 0x1f
 1912 07cb A0030000 		.4byte	.LASF93
 1913 07cf 01       		.byte	0x1
 1914 07d0 0201     		.2byte	0x102
 1915 07d2 00000000 		.4byte	.LFB16
 1916 07d6 08000000 		.4byte	.LFE16-.LFB16
 1917 07da 01       		.uleb128 0x1
 1918 07db 9C       		.byte	0x9c
 1919 07dc F1070000 		.4byte	0x7f1
 1920 07e0 1E       		.uleb128 0x1e
 1921 07e1 08000000 		.4byte	.LVL20
 1922 07e5 300F0000 		.4byte	0xf30
 1923 07e9 1A       		.uleb128 0x1a
 1924 07ea 01       		.uleb128 0x1
 1925 07eb 50       		.byte	0x50
 1926 07ec 02       		.uleb128 0x2
ARM GAS  /tmp/cc8tOftm.s 			page 35


 1927 07ed 09       		.byte	0x9
 1928 07ee FF       		.byte	0xff
 1929 07ef 00       		.byte	0
 1930 07f0 00       		.byte	0
 1931 07f1 17       		.uleb128 0x17
 1932 07f2 58010000 		.4byte	.LASF94
 1933 07f6 01       		.byte	0x1
 1934 07f7 A0       		.byte	0xa0
 1935 07f8 00000000 		.4byte	.LFB15
 1936 07fc 48020000 		.4byte	.LFE15-.LFB15
 1937 0800 01       		.uleb128 0x1
 1938 0801 9C       		.byte	0x9c
 1939 0802 AF0B0000 		.4byte	0xbaf
 1940 0806 20       		.uleb128 0x20
 1941 0807 6D00     		.ascii	"m\000"
 1942 0809 01       		.byte	0x1
 1943 080a A1       		.byte	0xa1
 1944 080b 01010000 		.4byte	0x101
 1945 080f 63000000 		.4byte	.LLST3
 1946 0813 18       		.uleb128 0x18
 1947 0814 656C3100 		.ascii	"el1\000"
 1948 0818 01       		.byte	0x1
 1949 0819 A2       		.byte	0xa2
 1950 081a 89040000 		.4byte	0x489
 1951 081e 02       		.uleb128 0x2
 1952 081f 91       		.byte	0x91
 1953 0820 50       		.sleb128 -48
 1954 0821 18       		.uleb128 0x18
 1955 0822 656C3200 		.ascii	"el2\000"
 1956 0826 01       		.byte	0x1
 1957 0827 A2       		.byte	0xa2
 1958 0828 89040000 		.4byte	0x489
 1959 082c 02       		.uleb128 0x2
 1960 082d 91       		.byte	0x91
 1961 082e 5C       		.sleb128 -36
 1962 082f 21       		.uleb128 0x21
 1963 0830 DC010000 		.4byte	.LASF95
 1964 0834 01       		.byte	0x1
 1965 0835 A3       		.byte	0xa3
 1966 0836 0C010000 		.4byte	0x10c
 1967 083a FC000000 		.4byte	.LLST4
 1968 083e 19       		.uleb128 0x19
 1969 083f 0C000000 		.4byte	.LVL21
 1970 0843 450F0000 		.4byte	0xf45
 1971 0847 51080000 		.4byte	0x851
 1972 084b 1A       		.uleb128 0x1a
 1973 084c 01       		.uleb128 0x1
 1974 084d 50       		.byte	0x50
 1975 084e 01       		.uleb128 0x1
 1976 084f 35       		.byte	0x35
 1977 0850 00       		.byte	0
 1978 0851 19       		.uleb128 0x19
 1979 0852 14000000 		.4byte	.LVL22
 1980 0856 5A0F0000 		.4byte	0xf5a
 1981 085a 65080000 		.4byte	0x865
 1982 085e 1A       		.uleb128 0x1a
 1983 085f 01       		.uleb128 0x1
ARM GAS  /tmp/cc8tOftm.s 			page 36


 1984 0860 50       		.byte	0x50
 1985 0861 02       		.uleb128 0x2
 1986 0862 09       		.byte	0x9
 1987 0863 FF       		.byte	0xff
 1988 0864 00       		.byte	0
 1989 0865 19       		.uleb128 0x19
 1990 0866 24000000 		.4byte	.LVL24
 1991 086a AE0E0000 		.4byte	0xeae
 1992 086e 78080000 		.4byte	0x878
 1993 0872 1A       		.uleb128 0x1a
 1994 0873 01       		.uleb128 0x1
 1995 0874 50       		.byte	0x50
 1996 0875 01       		.uleb128 0x1
 1997 0876 31       		.byte	0x31
 1998 0877 00       		.byte	0
 1999 0878 19       		.uleb128 0x19
 2000 0879 34000000 		.4byte	.LVL25
 2001 087d 5A0F0000 		.4byte	0xf5a
 2002 0881 8C080000 		.4byte	0x88c
 2003 0885 1A       		.uleb128 0x1a
 2004 0886 01       		.uleb128 0x1
 2005 0887 50       		.byte	0x50
 2006 0888 02       		.uleb128 0x2
 2007 0889 09       		.byte	0x9
 2008 088a FF       		.byte	0xff
 2009 088b 00       		.byte	0
 2010 088c 19       		.uleb128 0x19
 2011 088d 44000000 		.4byte	.LVL27
 2012 0891 AE0E0000 		.4byte	0xeae
 2013 0895 9F080000 		.4byte	0x89f
 2014 0899 1A       		.uleb128 0x1a
 2015 089a 01       		.uleb128 0x1
 2016 089b 50       		.byte	0x50
 2017 089c 01       		.uleb128 0x1
 2018 089d 32       		.byte	0x32
 2019 089e 00       		.byte	0
 2020 089f 19       		.uleb128 0x19
 2021 08a0 50000000 		.4byte	.LVL28
 2022 08a4 300F0000 		.4byte	0xf30
 2023 08a8 B3080000 		.4byte	0x8b3
 2024 08ac 1A       		.uleb128 0x1a
 2025 08ad 01       		.uleb128 0x1
 2026 08ae 50       		.byte	0x50
 2027 08af 02       		.uleb128 0x2
 2028 08b0 09       		.byte	0x9
 2029 08b1 FF       		.byte	0xff
 2030 08b2 00       		.byte	0
 2031 08b3 19       		.uleb128 0x19
 2032 08b4 5C000000 		.4byte	.LVL30
 2033 08b8 AE0E0000 		.4byte	0xeae
 2034 08bc C6080000 		.4byte	0x8c6
 2035 08c0 1A       		.uleb128 0x1a
 2036 08c1 01       		.uleb128 0x1
 2037 08c2 50       		.byte	0x50
 2038 08c3 01       		.uleb128 0x1
 2039 08c4 33       		.byte	0x33
 2040 08c5 00       		.byte	0
ARM GAS  /tmp/cc8tOftm.s 			page 37


 2041 08c6 22       		.uleb128 0x22
 2042 08c7 66000000 		.4byte	.LVL31
 2043 08cb 6F0F0000 		.4byte	0xf6f
 2044 08cf 19       		.uleb128 0x19
 2045 08d0 84000000 		.4byte	.LVL33
 2046 08d4 7A0F0000 		.4byte	0xf7a
 2047 08d8 ED080000 		.4byte	0x8ed
 2048 08dc 1A       		.uleb128 0x1a
 2049 08dd 01       		.uleb128 0x1
 2050 08de 53       		.byte	0x53
 2051 08df 05       		.uleb128 0x5
 2052 08e0 03       		.byte	0x3
 2053 08e1 00000000 		.4byte	thread1
 2054 08e5 1A       		.uleb128 0x1a
 2055 08e6 01       		.uleb128 0x1
 2056 08e7 51       		.byte	0x51
 2057 08e8 03       		.uleb128 0x3
 2058 08e9 0A       		.byte	0xa
 2059 08ea 3001     		.2byte	0x130
 2060 08ec 00       		.byte	0
 2061 08ed 19       		.uleb128 0x19
 2062 08ee 90000000 		.4byte	.LVL34
 2063 08f2 5A0F0000 		.4byte	0xf5a
 2064 08f6 01090000 		.4byte	0x901
 2065 08fa 1A       		.uleb128 0x1a
 2066 08fb 01       		.uleb128 0x1
 2067 08fc 50       		.byte	0x50
 2068 08fd 02       		.uleb128 0x2
 2069 08fe 09       		.byte	0x9
 2070 08ff FF       		.byte	0xff
 2071 0900 00       		.byte	0
 2072 0901 19       		.uleb128 0x19
 2073 0902 A0000000 		.4byte	.LVL38
 2074 0906 A40F0000 		.4byte	0xfa4
 2075 090a 20090000 		.4byte	0x920
 2076 090e 1A       		.uleb128 0x1a
 2077 090f 01       		.uleb128 0x1
 2078 0910 52       		.byte	0x52
 2079 0911 02       		.uleb128 0x2
 2080 0912 74       		.byte	0x74
 2081 0913 37       		.sleb128 55
 2082 0914 1A       		.uleb128 0x1a
 2083 0915 01       		.uleb128 0x1
 2084 0916 51       		.byte	0x51
 2085 0917 02       		.uleb128 0x2
 2086 0918 74       		.byte	0x74
 2087 0919 32       		.sleb128 50
 2088 091a 1A       		.uleb128 0x1a
 2089 091b 01       		.uleb128 0x1
 2090 091c 50       		.byte	0x50
 2091 091d 01       		.uleb128 0x1
 2092 091e 34       		.byte	0x34
 2093 091f 00       		.byte	0
 2094 0920 19       		.uleb128 0x19
 2095 0921 B4000000 		.4byte	.LVL39
 2096 0925 AE0E0000 		.4byte	0xeae
 2097 0929 3B090000 		.4byte	0x93b
ARM GAS  /tmp/cc8tOftm.s 			page 38


 2098 092d 1A       		.uleb128 0x1a
 2099 092e 01       		.uleb128 0x1
 2100 092f 51       		.byte	0x51
 2101 0930 04       		.uleb128 0x4
 2102 0931 79       		.byte	0x79
 2103 0932 00       		.sleb128 0
 2104 0933 31       		.byte	0x31
 2105 0934 29       		.byte	0x29
 2106 0935 1A       		.uleb128 0x1a
 2107 0936 01       		.uleb128 0x1
 2108 0937 50       		.byte	0x50
 2109 0938 01       		.uleb128 0x1
 2110 0939 35       		.byte	0x35
 2111 093a 00       		.byte	0
 2112 093b 19       		.uleb128 0x19
 2113 093c C0000000 		.4byte	.LVL40
 2114 0940 300F0000 		.4byte	0xf30
 2115 0944 4F090000 		.4byte	0x94f
 2116 0948 1A       		.uleb128 0x1a
 2117 0949 01       		.uleb128 0x1
 2118 094a 50       		.byte	0x50
 2119 094b 02       		.uleb128 0x2
 2120 094c 09       		.byte	0x9
 2121 094d FF       		.byte	0xff
 2122 094e 00       		.byte	0
 2123 094f 19       		.uleb128 0x19
 2124 0950 CC000000 		.4byte	.LVL42
 2125 0954 AE0E0000 		.4byte	0xeae
 2126 0958 62090000 		.4byte	0x962
 2127 095c 1A       		.uleb128 0x1a
 2128 095d 01       		.uleb128 0x1
 2129 095e 50       		.byte	0x50
 2130 095f 01       		.uleb128 0x1
 2131 0960 36       		.byte	0x36
 2132 0961 00       		.byte	0
 2133 0962 22       		.uleb128 0x22
 2134 0963 D4000000 		.4byte	.LVL43
 2135 0967 C30F0000 		.4byte	0xfc3
 2136 096b 19       		.uleb128 0x19
 2137 096c DA000000 		.4byte	.LVL44
 2138 0970 450F0000 		.4byte	0xf45
 2139 0974 7E090000 		.4byte	0x97e
 2140 0978 1A       		.uleb128 0x1a
 2141 0979 01       		.uleb128 0x1
 2142 097a 50       		.byte	0x50
 2143 097b 01       		.uleb128 0x1
 2144 097c 35       		.byte	0x35
 2145 097d 00       		.byte	0
 2146 097e 19       		.uleb128 0x19
 2147 097f E2000000 		.4byte	.LVL45
 2148 0983 CA0F0000 		.4byte	0xfca
 2149 0987 92090000 		.4byte	0x992
 2150 098b 1A       		.uleb128 0x1a
 2151 098c 01       		.uleb128 0x1
 2152 098d 50       		.byte	0x50
 2153 098e 02       		.uleb128 0x2
 2154 098f 09       		.byte	0x9
ARM GAS  /tmp/cc8tOftm.s 			page 39


 2155 0990 FF       		.byte	0xff
 2156 0991 00       		.byte	0
 2157 0992 19       		.uleb128 0x19
 2158 0993 EE000000 		.4byte	.LVL48
 2159 0997 AE0E0000 		.4byte	0xeae
 2160 099b AD090000 		.4byte	0x9ad
 2161 099f 1A       		.uleb128 0x1a
 2162 09a0 01       		.uleb128 0x1
 2163 09a1 51       		.byte	0x51
 2164 09a2 04       		.uleb128 0x4
 2165 09a3 74       		.byte	0x74
 2166 09a4 00       		.sleb128 0
 2167 09a5 30       		.byte	0x30
 2168 09a6 29       		.byte	0x29
 2169 09a7 1A       		.uleb128 0x1a
 2170 09a8 01       		.uleb128 0x1
 2171 09a9 50       		.byte	0x50
 2172 09aa 01       		.uleb128 0x1
 2173 09ab 37       		.byte	0x37
 2174 09ac 00       		.byte	0
 2175 09ad 19       		.uleb128 0x19
 2176 09ae FA000000 		.4byte	.LVL49
 2177 09b2 300F0000 		.4byte	0xf30
 2178 09b6 C1090000 		.4byte	0x9c1
 2179 09ba 1A       		.uleb128 0x1a
 2180 09bb 01       		.uleb128 0x1
 2181 09bc 50       		.byte	0x50
 2182 09bd 02       		.uleb128 0x2
 2183 09be 09       		.byte	0x9
 2184 09bf FF       		.byte	0xff
 2185 09c0 00       		.byte	0
 2186 09c1 19       		.uleb128 0x19
 2187 09c2 06010000 		.4byte	.LVL51
 2188 09c6 AE0E0000 		.4byte	0xeae
 2189 09ca D4090000 		.4byte	0x9d4
 2190 09ce 1A       		.uleb128 0x1a
 2191 09cf 01       		.uleb128 0x1
 2192 09d0 50       		.byte	0x50
 2193 09d1 01       		.uleb128 0x1
 2194 09d2 38       		.byte	0x38
 2195 09d3 00       		.byte	0
 2196 09d4 22       		.uleb128 0x22
 2197 09d5 0E010000 		.4byte	.LVL52
 2198 09d9 6F0F0000 		.4byte	0xf6f
 2199 09dd 19       		.uleb128 0x19
 2200 09de 24010000 		.4byte	.LVL54
 2201 09e2 7A0F0000 		.4byte	0xf7a
 2202 09e6 020A0000 		.4byte	0xa02
 2203 09ea 1A       		.uleb128 0x1a
 2204 09eb 01       		.uleb128 0x1
 2205 09ec 53       		.byte	0x53
 2206 09ed 05       		.uleb128 0x5
 2207 09ee 03       		.byte	0x3
 2208 09ef 00000000 		.4byte	thread1
 2209 09f3 1A       		.uleb128 0x1a
 2210 09f4 01       		.uleb128 0x1
 2211 09f5 51       		.byte	0x51
ARM GAS  /tmp/cc8tOftm.s 			page 40


 2212 09f6 03       		.uleb128 0x3
 2213 09f7 0A       		.byte	0xa
 2214 09f8 3001     		.2byte	0x130
 2215 09fa 1A       		.uleb128 0x1a
 2216 09fb 01       		.uleb128 0x1
 2217 09fc 50       		.byte	0x50
 2218 09fd 03       		.uleb128 0x3
 2219 09fe 91       		.byte	0x91
 2220 09ff 4C       		.sleb128 -52
 2221 0a00 06       		.byte	0x6
 2222 0a01 00       		.byte	0
 2223 0a02 19       		.uleb128 0x19
 2224 0a03 2E010000 		.4byte	.LVL55
 2225 0a07 CA0F0000 		.4byte	0xfca
 2226 0a0b 160A0000 		.4byte	0xa16
 2227 0a0f 1A       		.uleb128 0x1a
 2228 0a10 01       		.uleb128 0x1
 2229 0a11 50       		.byte	0x50
 2230 0a12 02       		.uleb128 0x2
 2231 0a13 09       		.byte	0x9
 2232 0a14 FF       		.byte	0xff
 2233 0a15 00       		.byte	0
 2234 0a16 19       		.uleb128 0x19
 2235 0a17 3E010000 		.4byte	.LVL59
 2236 0a1b A40F0000 		.4byte	0xfa4
 2237 0a1f 350A0000 		.4byte	0xa35
 2238 0a23 1A       		.uleb128 0x1a
 2239 0a24 01       		.uleb128 0x1
 2240 0a25 52       		.byte	0x52
 2241 0a26 02       		.uleb128 0x2
 2242 0a27 74       		.byte	0x74
 2243 0a28 37       		.sleb128 55
 2244 0a29 1A       		.uleb128 0x1a
 2245 0a2a 01       		.uleb128 0x1
 2246 0a2b 51       		.byte	0x51
 2247 0a2c 02       		.uleb128 0x2
 2248 0a2d 74       		.byte	0x74
 2249 0a2e 32       		.sleb128 50
 2250 0a2f 1A       		.uleb128 0x1a
 2251 0a30 01       		.uleb128 0x1
 2252 0a31 50       		.byte	0x50
 2253 0a32 01       		.uleb128 0x1
 2254 0a33 39       		.byte	0x39
 2255 0a34 00       		.byte	0
 2256 0a35 19       		.uleb128 0x19
 2257 0a36 52010000 		.4byte	.LVL60
 2258 0a3a AE0E0000 		.4byte	0xeae
 2259 0a3e 500A0000 		.4byte	0xa50
 2260 0a42 1A       		.uleb128 0x1a
 2261 0a43 01       		.uleb128 0x1
 2262 0a44 51       		.byte	0x51
 2263 0a45 04       		.uleb128 0x4
 2264 0a46 79       		.byte	0x79
 2265 0a47 00       		.sleb128 0
 2266 0a48 31       		.byte	0x31
 2267 0a49 29       		.byte	0x29
 2268 0a4a 1A       		.uleb128 0x1a
ARM GAS  /tmp/cc8tOftm.s 			page 41


 2269 0a4b 01       		.uleb128 0x1
 2270 0a4c 50       		.byte	0x50
 2271 0a4d 01       		.uleb128 0x1
 2272 0a4e 3A       		.byte	0x3a
 2273 0a4f 00       		.byte	0
 2274 0a50 19       		.uleb128 0x19
 2275 0a51 60010000 		.4byte	.LVL61
 2276 0a55 300F0000 		.4byte	0xf30
 2277 0a59 640A0000 		.4byte	0xa64
 2278 0a5d 1A       		.uleb128 0x1a
 2279 0a5e 01       		.uleb128 0x1
 2280 0a5f 50       		.byte	0x50
 2281 0a60 02       		.uleb128 0x2
 2282 0a61 09       		.byte	0x9
 2283 0a62 FF       		.byte	0xff
 2284 0a63 00       		.byte	0
 2285 0a64 19       		.uleb128 0x19
 2286 0a65 6C010000 		.4byte	.LVL63
 2287 0a69 AE0E0000 		.4byte	0xeae
 2288 0a6d 770A0000 		.4byte	0xa77
 2289 0a71 1A       		.uleb128 0x1a
 2290 0a72 01       		.uleb128 0x1
 2291 0a73 50       		.byte	0x50
 2292 0a74 01       		.uleb128 0x1
 2293 0a75 3B       		.byte	0x3b
 2294 0a76 00       		.byte	0
 2295 0a77 22       		.uleb128 0x22
 2296 0a78 7C010000 		.4byte	.LVL65
 2297 0a7c C30F0000 		.4byte	0xfc3
 2298 0a80 19       		.uleb128 0x19
 2299 0a81 8C010000 		.4byte	.LVL66
 2300 0a85 8D0E0000 		.4byte	0xe8d
 2301 0a89 9F0A0000 		.4byte	0xa9f
 2302 0a8d 1A       		.uleb128 0x1a
 2303 0a8e 01       		.uleb128 0x1
 2304 0a8f 52       		.byte	0x52
 2305 0a90 01       		.uleb128 0x1
 2306 0a91 31       		.byte	0x31
 2307 0a92 1A       		.uleb128 0x1a
 2308 0a93 01       		.uleb128 0x1
 2309 0a94 51       		.byte	0x51
 2310 0a95 02       		.uleb128 0x2
 2311 0a96 91       		.byte	0x91
 2312 0a97 50       		.sleb128 -48
 2313 0a98 1A       		.uleb128 0x1a
 2314 0a99 01       		.uleb128 0x1
 2315 0a9a 50       		.byte	0x50
 2316 0a9b 02       		.uleb128 0x2
 2317 0a9c 79       		.byte	0x79
 2318 0a9d 00       		.sleb128 0
 2319 0a9e 00       		.byte	0
 2320 0a9f 19       		.uleb128 0x19
 2321 0aa0 96010000 		.4byte	.LVL67
 2322 0aa4 8D0E0000 		.4byte	0xe8d
 2323 0aa8 BE0A0000 		.4byte	0xabe
 2324 0aac 1A       		.uleb128 0x1a
 2325 0aad 01       		.uleb128 0x1
ARM GAS  /tmp/cc8tOftm.s 			page 42


 2326 0aae 52       		.byte	0x52
 2327 0aaf 01       		.uleb128 0x1
 2328 0ab0 34       		.byte	0x34
 2329 0ab1 1A       		.uleb128 0x1a
 2330 0ab2 01       		.uleb128 0x1
 2331 0ab3 51       		.byte	0x51
 2332 0ab4 02       		.uleb128 0x2
 2333 0ab5 91       		.byte	0x91
 2334 0ab6 5C       		.sleb128 -36
 2335 0ab7 1A       		.uleb128 0x1a
 2336 0ab8 01       		.uleb128 0x1
 2337 0ab9 50       		.byte	0x50
 2338 0aba 02       		.uleb128 0x2
 2339 0abb 74       		.byte	0x74
 2340 0abc 00       		.sleb128 0
 2341 0abd 00       		.byte	0
 2342 0abe 22       		.uleb128 0x22
 2343 0abf 9A010000 		.4byte	.LVL68
 2344 0ac3 6F0F0000 		.4byte	0xf6f
 2345 0ac7 19       		.uleb128 0x19
 2346 0ac8 B2010000 		.4byte	.LVL70
 2347 0acc 7A0F0000 		.4byte	0xf7a
 2348 0ad0 F60A0000 		.4byte	0xaf6
 2349 0ad4 1A       		.uleb128 0x1a
 2350 0ad5 01       		.uleb128 0x1
 2351 0ad6 53       		.byte	0x53
 2352 0ad7 05       		.uleb128 0x5
 2353 0ad8 03       		.byte	0x3
 2354 0ad9 00000000 		.4byte	thread2
 2355 0add 1A       		.uleb128 0x1a
 2356 0ade 01       		.uleb128 0x1
 2357 0adf 51       		.byte	0x51
 2358 0ae0 03       		.uleb128 0x3
 2359 0ae1 0A       		.byte	0xa
 2360 0ae2 3001     		.2byte	0x130
 2361 0ae4 1A       		.uleb128 0x1a
 2362 0ae5 01       		.uleb128 0x1
 2363 0ae6 50       		.byte	0x50
 2364 0ae7 03       		.uleb128 0x3
 2365 0ae8 91       		.byte	0x91
 2366 0ae9 4C       		.sleb128 -52
 2367 0aea 06       		.byte	0x6
 2368 0aeb 1A       		.uleb128 0x1a
 2369 0aec 02       		.uleb128 0x2
 2370 0aed 7D       		.byte	0x7d
 2371 0aee 00       		.sleb128 0
 2372 0aef 05       		.uleb128 0x5
 2373 0af0 03       		.byte	0x3
 2374 0af1 04000000 		.4byte	.LC1
 2375 0af5 00       		.byte	0
 2376 0af6 19       		.uleb128 0x19
 2377 0af7 BA010000 		.4byte	.LVL71
 2378 0afb DF0F0000 		.4byte	0xfdf
 2379 0aff 090B0000 		.4byte	0xb09
 2380 0b03 1A       		.uleb128 0x1a
 2381 0b04 01       		.uleb128 0x1
 2382 0b05 50       		.byte	0x50
ARM GAS  /tmp/cc8tOftm.s 			page 43


 2383 0b06 01       		.uleb128 0x1
 2384 0b07 35       		.byte	0x35
 2385 0b08 00       		.byte	0
 2386 0b09 19       		.uleb128 0x19
 2387 0b0a C8010000 		.4byte	.LVL73
 2388 0b0e A40F0000 		.4byte	0xfa4
 2389 0b12 280B0000 		.4byte	0xb28
 2390 0b16 1A       		.uleb128 0x1a
 2391 0b17 01       		.uleb128 0x1
 2392 0b18 52       		.byte	0x52
 2393 0b19 02       		.uleb128 0x2
 2394 0b1a 76       		.byte	0x76
 2395 0b1b 37       		.sleb128 55
 2396 0b1c 1A       		.uleb128 0x1a
 2397 0b1d 01       		.uleb128 0x1
 2398 0b1e 51       		.byte	0x51
 2399 0b1f 02       		.uleb128 0x2
 2400 0b20 76       		.byte	0x76
 2401 0b21 32       		.sleb128 50
 2402 0b22 1A       		.uleb128 0x1a
 2403 0b23 01       		.uleb128 0x1
 2404 0b24 50       		.byte	0x50
 2405 0b25 01       		.uleb128 0x1
 2406 0b26 3C       		.byte	0x3c
 2407 0b27 00       		.byte	0
 2408 0b28 19       		.uleb128 0x19
 2409 0b29 D6010000 		.4byte	.LVL74
 2410 0b2d 300F0000 		.4byte	0xf30
 2411 0b31 3C0B0000 		.4byte	0xb3c
 2412 0b35 1A       		.uleb128 0x1a
 2413 0b36 01       		.uleb128 0x1
 2414 0b37 50       		.byte	0x50
 2415 0b38 02       		.uleb128 0x2
 2416 0b39 09       		.byte	0x9
 2417 0b3a FF       		.byte	0xff
 2418 0b3b 00       		.byte	0
 2419 0b3c 19       		.uleb128 0x19
 2420 0b3d E2010000 		.4byte	.LVL76
 2421 0b41 AE0E0000 		.4byte	0xeae
 2422 0b45 4F0B0000 		.4byte	0xb4f
 2423 0b49 1A       		.uleb128 0x1a
 2424 0b4a 01       		.uleb128 0x1
 2425 0b4b 50       		.byte	0x50
 2426 0b4c 01       		.uleb128 0x1
 2427 0b4d 3D       		.byte	0x3d
 2428 0b4e 00       		.byte	0
 2429 0b4f 22       		.uleb128 0x22
 2430 0b50 EC010000 		.4byte	.LVL77
 2431 0b54 C30F0000 		.4byte	0xfc3
 2432 0b58 19       		.uleb128 0x19
 2433 0b59 F4010000 		.4byte	.LVL78
 2434 0b5d C80E0000 		.4byte	0xec8
 2435 0b61 720B0000 		.4byte	0xb72
 2436 0b65 1A       		.uleb128 0x1a
 2437 0b66 01       		.uleb128 0x1
 2438 0b67 51       		.byte	0x51
 2439 0b68 02       		.uleb128 0x2
ARM GAS  /tmp/cc8tOftm.s 			page 44


 2440 0b69 91       		.byte	0x91
 2441 0b6a 50       		.sleb128 -48
 2442 0b6b 1A       		.uleb128 0x1a
 2443 0b6c 01       		.uleb128 0x1
 2444 0b6d 50       		.byte	0x50
 2445 0b6e 02       		.uleb128 0x2
 2446 0b6f 79       		.byte	0x79
 2447 0b70 00       		.sleb128 0
 2448 0b71 00       		.byte	0
 2449 0b72 19       		.uleb128 0x19
 2450 0b73 FC010000 		.4byte	.LVL79
 2451 0b77 C80E0000 		.4byte	0xec8
 2452 0b7b 8C0B0000 		.4byte	0xb8c
 2453 0b7f 1A       		.uleb128 0x1a
 2454 0b80 01       		.uleb128 0x1
 2455 0b81 51       		.byte	0x51
 2456 0b82 02       		.uleb128 0x2
 2457 0b83 91       		.byte	0x91
 2458 0b84 5C       		.sleb128 -36
 2459 0b85 1A       		.uleb128 0x1a
 2460 0b86 01       		.uleb128 0x1
 2461 0b87 50       		.byte	0x50
 2462 0b88 02       		.uleb128 0x2
 2463 0b89 74       		.byte	0x74
 2464 0b8a 00       		.sleb128 0
 2465 0b8b 00       		.byte	0
 2466 0b8c 19       		.uleb128 0x19
 2467 0b8d 0E020000 		.4byte	.LVL80
 2468 0b91 AE0E0000 		.4byte	0xeae
 2469 0b95 9F0B0000 		.4byte	0xb9f
 2470 0b99 1A       		.uleb128 0x1a
 2471 0b9a 01       		.uleb128 0x1
 2472 0b9b 50       		.byte	0x50
 2473 0b9c 01       		.uleb128 0x1
 2474 0b9d 3E       		.byte	0x3e
 2475 0b9e 00       		.byte	0
 2476 0b9f 1B       		.uleb128 0x1b
 2477 0ba0 22020000 		.4byte	.LVL81
 2478 0ba4 AE0E0000 		.4byte	0xeae
 2479 0ba8 1A       		.uleb128 0x1a
 2480 0ba9 01       		.uleb128 0x1
 2481 0baa 50       		.byte	0x50
 2482 0bab 01       		.uleb128 0x1
 2483 0bac 3F       		.byte	0x3f
 2484 0bad 00       		.byte	0
 2485 0bae 00       		.byte	0
 2486 0baf 23       		.uleb128 0x23
 2487 0bb0 CD030000 		.4byte	.LASF96
 2488 0bb4 01       		.byte	0x1
 2489 0bb5 97       		.byte	0x97
 2490 0bb6 EB000000 		.4byte	0xeb
 2491 0bba 00000000 		.4byte	.LFB14
 2492 0bbe 24000000 		.4byte	.LFE14-.LFB14
 2493 0bc2 01       		.uleb128 0x1
 2494 0bc3 9C       		.byte	0x9c
 2495 0bc4 1E0C0000 		.4byte	0xc1e
 2496 0bc8 1D       		.uleb128 0x1d
ARM GAS  /tmp/cc8tOftm.s 			page 45


 2497 0bc9 7000     		.ascii	"p\000"
 2498 0bcb 01       		.byte	0x1
 2499 0bcc 97       		.byte	0x97
 2500 0bcd 7B020000 		.4byte	0x27b
 2501 0bd1 73010000 		.4byte	.LLST5
 2502 0bd5 19       		.uleb128 0x19
 2503 0bd6 0A000000 		.4byte	.LVL84
 2504 0bda F40F0000 		.4byte	0xff4
 2505 0bde F10B0000 		.4byte	0xbf1
 2506 0be2 1A       		.uleb128 0x1a
 2507 0be3 01       		.uleb128 0x1
 2508 0be4 51       		.byte	0x51
 2509 0be5 01       		.uleb128 0x1
 2510 0be6 30       		.byte	0x30
 2511 0be7 1A       		.uleb128 0x1a
 2512 0be8 01       		.uleb128 0x1
 2513 0be9 50       		.byte	0x50
 2514 0bea 05       		.uleb128 0x5
 2515 0beb 03       		.byte	0x3
 2516 0bec 00000000 		.4byte	.LANCHOR0
 2517 0bf0 00       		.byte	0
 2518 0bf1 19       		.uleb128 0x19
 2519 0bf2 10000000 		.4byte	.LVL85
 2520 0bf6 0A100000 		.4byte	0x100a
 2521 0bfa 050C0000 		.4byte	0xc05
 2522 0bfe 1A       		.uleb128 0x1a
 2523 0bff 01       		.uleb128 0x1
 2524 0c00 50       		.byte	0x50
 2525 0c01 02       		.uleb128 0x2
 2526 0c02 08       		.byte	0x8
 2527 0c03 32       		.byte	0x32
 2528 0c04 00       		.byte	0
 2529 0c05 1B       		.uleb128 0x1b
 2530 0c06 18000000 		.4byte	.LVL86
 2531 0c0a F40F0000 		.4byte	0xff4
 2532 0c0e 1A       		.uleb128 0x1a
 2533 0c0f 01       		.uleb128 0x1
 2534 0c10 51       		.byte	0x51
 2535 0c11 01       		.uleb128 0x1
 2536 0c12 30       		.byte	0x30
 2537 0c13 1A       		.uleb128 0x1a
 2538 0c14 01       		.uleb128 0x1
 2539 0c15 50       		.byte	0x50
 2540 0c16 05       		.uleb128 0x5
 2541 0c17 03       		.byte	0x3
 2542 0c18 00000000 		.4byte	.LANCHOR2
 2543 0c1c 00       		.byte	0
 2544 0c1d 00       		.byte	0
 2545 0c1e 23       		.uleb128 0x23
 2546 0c1f C5030000 		.4byte	.LASF97
 2547 0c23 01       		.byte	0x1
 2548 0c24 90       		.byte	0x90
 2549 0c25 EB000000 		.4byte	0xeb
 2550 0c29 00000000 		.4byte	.LFB13
 2551 0c2d 16000000 		.4byte	.LFE13-.LFB13
 2552 0c31 01       		.uleb128 0x1
 2553 0c32 9C       		.byte	0x9c
ARM GAS  /tmp/cc8tOftm.s 			page 46


 2554 0c33 6E0C0000 		.4byte	0xc6e
 2555 0c37 1D       		.uleb128 0x1d
 2556 0c38 7000     		.ascii	"p\000"
 2557 0c3a 01       		.byte	0x1
 2558 0c3b 90       		.byte	0x90
 2559 0c3c 7B020000 		.4byte	0x27b
 2560 0c40 94010000 		.4byte	.LLST6
 2561 0c44 19       		.uleb128 0x19
 2562 0c45 0A000000 		.4byte	.LVL89
 2563 0c49 0A100000 		.4byte	0x100a
 2564 0c4d 580C0000 		.4byte	0xc58
 2565 0c51 1A       		.uleb128 0x1a
 2566 0c52 01       		.uleb128 0x1
 2567 0c53 50       		.byte	0x50
 2568 0c54 02       		.uleb128 0x2
 2569 0c55 08       		.byte	0x8
 2570 0c56 32       		.byte	0x32
 2571 0c57 00       		.byte	0
 2572 0c58 1B       		.uleb128 0x1b
 2573 0c59 12000000 		.4byte	.LVL90
 2574 0c5d 1C100000 		.4byte	0x101c
 2575 0c61 1A       		.uleb128 0x1a
 2576 0c62 01       		.uleb128 0x1
 2577 0c63 51       		.byte	0x51
 2578 0c64 01       		.uleb128 0x1
 2579 0c65 31       		.byte	0x31
 2580 0c66 1A       		.uleb128 0x1a
 2581 0c67 01       		.uleb128 0x1
 2582 0c68 50       		.byte	0x50
 2583 0c69 02       		.uleb128 0x2
 2584 0c6a 74       		.byte	0x74
 2585 0c6b 00       		.sleb128 0
 2586 0c6c 00       		.byte	0
 2587 0c6d 00       		.byte	0
 2588 0c6e 24       		.uleb128 0x24
 2589 0c6f BC050000 		.4byte	0x5bc
 2590 0c73 00000000 		.4byte	.LFB17
 2591 0c77 9E000000 		.4byte	.LFE17-.LFB17
 2592 0c7b 01       		.uleb128 0x1
 2593 0c7c 9C       		.byte	0x9c
 2594 0c7d 940D0000 		.4byte	0xd94
 2595 0c81 25       		.uleb128 0x25
 2596 0c82 C9050000 		.4byte	0x5c9
 2597 0c86 B2010000 		.4byte	.LLST7
 2598 0c8a 26       		.uleb128 0x26
 2599 0c8b 00000000 		.4byte	.Ldebug_ranges0+0
 2600 0c8f 1D0D0000 		.4byte	0xd1d
 2601 0c93 25       		.uleb128 0x25
 2602 0c94 C9050000 		.4byte	0x5c9
 2603 0c98 DB010000 		.4byte	.LLST8
 2604 0c9c 19       		.uleb128 0x19
 2605 0c9d 5A000000 		.4byte	.LVL100
 2606 0ca1 32100000 		.4byte	0x1032
 2607 0ca5 B50C0000 		.4byte	0xcb5
 2608 0ca9 1A       		.uleb128 0x1a
 2609 0caa 01       		.uleb128 0x1
 2610 0cab 51       		.byte	0x51
ARM GAS  /tmp/cc8tOftm.s 			page 47


 2611 0cac 01       		.uleb128 0x1
 2612 0cad 3A       		.byte	0x3a
 2613 0cae 1A       		.uleb128 0x1a
 2614 0caf 01       		.uleb128 0x1
 2615 0cb0 50       		.byte	0x50
 2616 0cb1 02       		.uleb128 0x2
 2617 0cb2 09       		.byte	0x9
 2618 0cb3 FF       		.byte	0xff
 2619 0cb4 00       		.byte	0
 2620 0cb5 19       		.uleb128 0x19
 2621 0cb6 66000000 		.4byte	.LVL102
 2622 0cba AE0E0000 		.4byte	0xeae
 2623 0cbe C80C0000 		.4byte	0xcc8
 2624 0cc2 1A       		.uleb128 0x1a
 2625 0cc3 01       		.uleb128 0x1
 2626 0cc4 50       		.byte	0x50
 2627 0cc5 01       		.uleb128 0x1
 2628 0cc6 34       		.byte	0x34
 2629 0cc7 00       		.byte	0
 2630 0cc8 19       		.uleb128 0x19
 2631 0cc9 74000000 		.4byte	.LVL103
 2632 0ccd 4C100000 		.4byte	0x104c
 2633 0cd1 E10C0000 		.4byte	0xce1
 2634 0cd5 1A       		.uleb128 0x1a
 2635 0cd6 01       		.uleb128 0x1
 2636 0cd7 51       		.byte	0x51
 2637 0cd8 01       		.uleb128 0x1
 2638 0cd9 3A       		.byte	0x3a
 2639 0cda 1A       		.uleb128 0x1a
 2640 0cdb 01       		.uleb128 0x1
 2641 0cdc 50       		.byte	0x50
 2642 0cdd 02       		.uleb128 0x2
 2643 0cde 09       		.byte	0x9
 2644 0cdf FF       		.byte	0xff
 2645 0ce0 00       		.byte	0
 2646 0ce1 19       		.uleb128 0x19
 2647 0ce2 80000000 		.4byte	.LVL105
 2648 0ce6 AE0E0000 		.4byte	0xeae
 2649 0cea F40C0000 		.4byte	0xcf4
 2650 0cee 1A       		.uleb128 0x1a
 2651 0cef 01       		.uleb128 0x1
 2652 0cf0 50       		.byte	0x50
 2653 0cf1 01       		.uleb128 0x1
 2654 0cf2 35       		.byte	0x35
 2655 0cf3 00       		.byte	0
 2656 0cf4 19       		.uleb128 0x19
 2657 0cf5 8E000000 		.4byte	.LVL106
 2658 0cf9 66100000 		.4byte	0x1066
 2659 0cfd 0D0D0000 		.4byte	0xd0d
 2660 0d01 1A       		.uleb128 0x1a
 2661 0d02 01       		.uleb128 0x1
 2662 0d03 51       		.byte	0x51
 2663 0d04 01       		.uleb128 0x1
 2664 0d05 3A       		.byte	0x3a
 2665 0d06 1A       		.uleb128 0x1a
 2666 0d07 01       		.uleb128 0x1
 2667 0d08 50       		.byte	0x50
ARM GAS  /tmp/cc8tOftm.s 			page 48


 2668 0d09 02       		.uleb128 0x2
 2669 0d0a 09       		.byte	0x9
 2670 0d0b FF       		.byte	0xff
 2671 0d0c 00       		.byte	0
 2672 0d0d 1E       		.uleb128 0x1e
 2673 0d0e 9E000000 		.4byte	.LVL108
 2674 0d12 AE0E0000 		.4byte	0xeae
 2675 0d16 1A       		.uleb128 0x1a
 2676 0d17 01       		.uleb128 0x1
 2677 0d18 50       		.byte	0x50
 2678 0d19 01       		.uleb128 0x1
 2679 0d1a 36       		.byte	0x36
 2680 0d1b 00       		.byte	0
 2681 0d1c 00       		.byte	0
 2682 0d1d 19       		.uleb128 0x19
 2683 0d1e 0C000000 		.4byte	.LVL91
 2684 0d22 32100000 		.4byte	0x1032
 2685 0d26 360D0000 		.4byte	0xd36
 2686 0d2a 1A       		.uleb128 0x1a
 2687 0d2b 01       		.uleb128 0x1
 2688 0d2c 51       		.byte	0x51
 2689 0d2d 01       		.uleb128 0x1
 2690 0d2e 30       		.byte	0x30
 2691 0d2f 1A       		.uleb128 0x1a
 2692 0d30 01       		.uleb128 0x1
 2693 0d31 50       		.byte	0x50
 2694 0d32 02       		.uleb128 0x2
 2695 0d33 09       		.byte	0x9
 2696 0d34 FF       		.byte	0xff
 2697 0d35 00       		.byte	0
 2698 0d36 19       		.uleb128 0x19
 2699 0d37 18000000 		.4byte	.LVL93
 2700 0d3b AE0E0000 		.4byte	0xeae
 2701 0d3f 490D0000 		.4byte	0xd49
 2702 0d43 1A       		.uleb128 0x1a
 2703 0d44 01       		.uleb128 0x1
 2704 0d45 50       		.byte	0x50
 2705 0d46 01       		.uleb128 0x1
 2706 0d47 31       		.byte	0x31
 2707 0d48 00       		.byte	0
 2708 0d49 19       		.uleb128 0x19
 2709 0d4a 26000000 		.4byte	.LVL94
 2710 0d4e 4C100000 		.4byte	0x104c
 2711 0d52 5D0D0000 		.4byte	0xd5d
 2712 0d56 1A       		.uleb128 0x1a
 2713 0d57 01       		.uleb128 0x1
 2714 0d58 50       		.byte	0x50
 2715 0d59 02       		.uleb128 0x2
 2716 0d5a 09       		.byte	0x9
 2717 0d5b FF       		.byte	0xff
 2718 0d5c 00       		.byte	0
 2719 0d5d 19       		.uleb128 0x19
 2720 0d5e 32000000 		.4byte	.LVL96
 2721 0d62 AE0E0000 		.4byte	0xeae
 2722 0d66 700D0000 		.4byte	0xd70
 2723 0d6a 1A       		.uleb128 0x1a
 2724 0d6b 01       		.uleb128 0x1
ARM GAS  /tmp/cc8tOftm.s 			page 49


 2725 0d6c 50       		.byte	0x50
 2726 0d6d 01       		.uleb128 0x1
 2727 0d6e 32       		.byte	0x32
 2728 0d6f 00       		.byte	0
 2729 0d70 19       		.uleb128 0x19
 2730 0d71 40000000 		.4byte	.LVL97
 2731 0d75 66100000 		.4byte	0x1066
 2732 0d79 840D0000 		.4byte	0xd84
 2733 0d7d 1A       		.uleb128 0x1a
 2734 0d7e 01       		.uleb128 0x1
 2735 0d7f 50       		.byte	0x50
 2736 0d80 02       		.uleb128 0x2
 2737 0d81 09       		.byte	0x9
 2738 0d82 FF       		.byte	0xff
 2739 0d83 00       		.byte	0
 2740 0d84 1B       		.uleb128 0x1b
 2741 0d85 4C000000 		.4byte	.LVL99
 2742 0d89 AE0E0000 		.4byte	0xeae
 2743 0d8d 1A       		.uleb128 0x1a
 2744 0d8e 01       		.uleb128 0x1
 2745 0d8f 50       		.byte	0x50
 2746 0d90 01       		.uleb128 0x1
 2747 0d91 33       		.byte	0x33
 2748 0d92 00       		.byte	0
 2749 0d93 00       		.byte	0
 2750 0d94 18       		.uleb128 0x18
 2751 0d95 65733100 		.ascii	"es1\000"
 2752 0d99 01       		.byte	0x1
 2753 0d9a 46       		.byte	0x46
 2754 0d9b E4040000 		.4byte	0x4e4
 2755 0d9f 05       		.uleb128 0x5
 2756 0da0 03       		.byte	0x3
 2757 0da1 00000000 		.4byte	es1
 2758 0da5 18       		.uleb128 0x18
 2759 0da6 65733200 		.ascii	"es2\000"
 2760 0daa 01       		.byte	0x1
 2761 0dab 47       		.byte	0x47
 2762 0dac E4040000 		.4byte	0x4e4
 2763 0db0 05       		.uleb128 0x5
 2764 0db1 03       		.byte	0x3
 2765 0db2 00000000 		.4byte	es2
 2766 0db6 27       		.uleb128 0x27
 2767 0db7 EF040000 		.4byte	0x4ef
 2768 0dbb C60D0000 		.4byte	0xdc6
 2769 0dbf 28       		.uleb128 0x28
 2770 0dc0 19030000 		.4byte	0x319
 2771 0dc4 02       		.byte	0x2
 2772 0dc5 00       		.byte	0
 2773 0dc6 29       		.uleb128 0x29
 2774 0dc7 FB040000 		.4byte	.LASF98
 2775 0dcb 01       		.byte	0x1
 2776 0dcc 5E       		.byte	0x5e
 2777 0dcd D70D0000 		.4byte	0xdd7
 2778 0dd1 05       		.uleb128 0x5
 2779 0dd2 03       		.byte	0x3
 2780 0dd3 00000000 		.4byte	evhndl
 2781 0dd7 12       		.uleb128 0x12
ARM GAS  /tmp/cc8tOftm.s 			page 50


 2782 0dd8 B60D0000 		.4byte	0xdb6
 2783 0ddc 2A       		.uleb128 0x2a
 2784 0ddd 31000000 		.4byte	.LASF99
 2785 0de1 09       		.byte	0x9
 2786 0de2 7A       		.byte	0x7a
 2787 0de3 D4030000 		.4byte	0x3d4
 2788 0de7 2A       		.uleb128 0x2a
 2789 0de8 87050000 		.4byte	.LASF100
 2790 0dec 0A       		.byte	0xa
 2791 0ded 72       		.byte	0x72
 2792 0dee 3C040000 		.4byte	0x43c
 2793 0df2 27       		.uleb128 0x27
 2794 0df3 3F020000 		.4byte	0x23f
 2795 0df7 020E0000 		.4byte	0xe02
 2796 0dfb 28       		.uleb128 0x28
 2797 0dfc 19030000 		.4byte	0x319
 2798 0e00 04       		.byte	0x4
 2799 0e01 00       		.byte	0
 2800 0e02 2A       		.uleb128 0x2a
 2801 0e03 B2040000 		.4byte	.LASF101
 2802 0e07 0D       		.byte	0xd
 2803 0e08 B0       		.byte	0xb0
 2804 0e09 F20D0000 		.4byte	0xdf2
 2805 0e0d 27       		.uleb128 0x27
 2806 0e0e 7B020000 		.4byte	0x27b
 2807 0e12 180E0000 		.4byte	0xe18
 2808 0e16 2B       		.uleb128 0x2b
 2809 0e17 00       		.byte	0
 2810 0e18 2C       		.uleb128 0x2c
 2811 0e19 776100   		.ascii	"wa\000"
 2812 0e1c 0D       		.byte	0xd
 2813 0e1d B2       		.byte	0xb2
 2814 0e1e 220E0000 		.4byte	0xe22
 2815 0e22 12       		.uleb128 0x12
 2816 0e23 0D0E0000 		.4byte	0xe0d
 2817 0e27 2D       		.uleb128 0x2d
 2818 0e28 F2040000 		.4byte	.LASF102
 2819 0e2c 01       		.byte	0x1
 2820 0e2d 76       		.byte	0x76
 2821 0e2e 380E0000 		.4byte	0xe38
 2822 0e32 05       		.uleb128 0x5
 2823 0e33 03       		.byte	0x3
 2824 0e34 00000000 		.4byte	testevt1
 2825 0e38 12       		.uleb128 0x12
 2826 0e39 78050000 		.4byte	0x578
 2827 0e3d 2D       		.uleb128 0x2d
 2828 0e3e 0A020000 		.4byte	.LASF103
 2829 0e42 01       		.byte	0x1
 2830 0e43 EB       		.byte	0xeb
 2831 0e44 380E0000 		.4byte	0xe38
 2832 0e48 05       		.uleb128 0x5
 2833 0e49 03       		.byte	0x3
 2834 0e4a 00000000 		.4byte	testevt2
 2835 0e4e 2E       		.uleb128 0x2e
 2836 0e4f 20020000 		.4byte	.LASF104
 2837 0e53 01       		.byte	0x1
 2838 0e54 1B01     		.2byte	0x11b
ARM GAS  /tmp/cc8tOftm.s 			page 51


 2839 0e56 380E0000 		.4byte	0xe38
 2840 0e5a 05       		.uleb128 0x5
 2841 0e5b 03       		.byte	0x3
 2842 0e5c 00000000 		.4byte	testevt3
 2843 0e60 27       		.uleb128 0x27
 2844 0e61 700E0000 		.4byte	0xe70
 2845 0e65 700E0000 		.4byte	0xe70
 2846 0e69 28       		.uleb128 0x28
 2847 0e6a 19030000 		.4byte	0x319
 2848 0e6e 03       		.byte	0x3
 2849 0e6f 00       		.byte	0
 2850 0e70 09       		.uleb128 0x9
 2851 0e71 04       		.byte	0x4
 2852 0e72 380E0000 		.4byte	0xe38
 2853 0e76 2E       		.uleb128 0x2e
 2854 0e77 CA020000 		.4byte	.LASF105
 2855 0e7b 01       		.byte	0x1
 2856 0e7c 2601     		.2byte	0x126
 2857 0e7e 880E0000 		.4byte	0xe88
 2858 0e82 05       		.uleb128 0x5
 2859 0e83 03       		.byte	0x3
 2860 0e84 00000000 		.4byte	patternevt
 2861 0e88 12       		.uleb128 0x12
 2862 0e89 600E0000 		.4byte	0xe60
 2863 0e8d 2F       		.uleb128 0x2f
 2864 0e8e FE020000 		.4byte	.LASF106
 2865 0e92 0C       		.byte	0xc
 2866 0e93 AA       		.byte	0xaa
 2867 0e94 A80E0000 		.4byte	0xea8
 2868 0e98 0E       		.uleb128 0xe
 2869 0e99 A80E0000 		.4byte	0xea8
 2870 0e9d 0E       		.uleb128 0xe
 2871 0e9e C5040000 		.4byte	0x4c5
 2872 0ea2 0E       		.uleb128 0xe
 2873 0ea3 01010000 		.4byte	0x101
 2874 0ea7 00       		.byte	0
 2875 0ea8 09       		.uleb128 0x9
 2876 0ea9 04       		.byte	0x4
 2877 0eaa E4040000 		.4byte	0x4e4
 2878 0eae 30       		.uleb128 0x30
 2879 0eaf C5050000 		.4byte	.LASF109
 2880 0eb3 0D       		.byte	0xd
 2881 0eb4 63       		.byte	0x63
 2882 0eb5 B4000000 		.4byte	0xb4
 2883 0eb9 C80E0000 		.4byte	0xec8
 2884 0ebd 0E       		.uleb128 0xe
 2885 0ebe 33000000 		.4byte	0x33
 2886 0ec2 0E       		.uleb128 0xe
 2887 0ec3 B4000000 		.4byte	0xb4
 2888 0ec7 00       		.byte	0
 2889 0ec8 2F       		.uleb128 0x2f
 2890 0ec9 26030000 		.4byte	.LASF107
 2891 0ecd 0C       		.byte	0xc
 2892 0ece AD       		.byte	0xad
 2893 0ecf DE0E0000 		.4byte	0xede
 2894 0ed3 0E       		.uleb128 0xe
 2895 0ed4 A80E0000 		.4byte	0xea8
ARM GAS  /tmp/cc8tOftm.s 			page 52


 2896 0ed8 0E       		.uleb128 0xe
 2897 0ed9 C5040000 		.4byte	0x4c5
 2898 0edd 00       		.byte	0
 2899 0ede 2F       		.uleb128 0x2f
 2900 0edf 92030000 		.4byte	.LASF108
 2901 0ee3 0C       		.byte	0xc
 2902 0ee4 B4       		.byte	0xb4
 2903 0ee5 F40E0000 		.4byte	0xef4
 2904 0ee9 0E       		.uleb128 0xe
 2905 0eea F40E0000 		.4byte	0xef4
 2906 0eee 0E       		.uleb128 0xe
 2907 0eef 01010000 		.4byte	0x101
 2908 0ef3 00       		.byte	0
 2909 0ef4 09       		.uleb128 0x9
 2910 0ef5 04       		.byte	0x4
 2911 0ef6 FA0E0000 		.4byte	0xefa
 2912 0efa 12       		.uleb128 0x12
 2913 0efb EF040000 		.4byte	0x4ef
 2914 0eff 30       		.uleb128 0x30
 2915 0f00 EE030000 		.4byte	.LASF110
 2916 0f04 0D       		.byte	0xd
 2917 0f05 64       		.byte	0x64
 2918 0f06 B4000000 		.4byte	0xb4
 2919 0f0a 190F0000 		.4byte	0xf19
 2920 0f0e 0E       		.uleb128 0xe
 2921 0f0f 33000000 		.4byte	0x33
 2922 0f13 0E       		.uleb128 0xe
 2923 0f14 190F0000 		.4byte	0xf19
 2924 0f18 00       		.byte	0
 2925 0f19 09       		.uleb128 0x9
 2926 0f1a 04       		.byte	0x4
 2927 0f1b 4B050000 		.4byte	0x54b
 2928 0f1f 2F       		.uleb128 0x2f
 2929 0f20 B5010000 		.4byte	.LASF111
 2930 0f24 0D       		.byte	0xd
 2931 0f25 61       		.byte	0x61
 2932 0f26 300F0000 		.4byte	0xf30
 2933 0f2a 0E       		.uleb128 0xe
 2934 0f2b 4B050000 		.4byte	0x54b
 2935 0f2f 00       		.byte	0
 2936 0f30 30       		.uleb128 0x30
 2937 0f31 4A040000 		.4byte	.LASF112
 2938 0f35 0C       		.byte	0xc
 2939 0f36 AE       		.byte	0xae
 2940 0f37 01010000 		.4byte	0x101
 2941 0f3b 450F0000 		.4byte	0xf45
 2942 0f3f 0E       		.uleb128 0xe
 2943 0f40 01010000 		.4byte	0x101
 2944 0f44 00       		.byte	0
 2945 0f45 30       		.uleb128 0x30
 2946 0f46 C5010000 		.4byte	.LASF113
 2947 0f4a 0C       		.byte	0xc
 2948 0f4b AF       		.byte	0xaf
 2949 0f4c 01010000 		.4byte	0x101
 2950 0f50 5A0F0000 		.4byte	0xf5a
 2951 0f54 0E       		.uleb128 0xe
 2952 0f55 01010000 		.4byte	0x101
ARM GAS  /tmp/cc8tOftm.s 			page 53


 2953 0f59 00       		.byte	0
 2954 0f5a 30       		.uleb128 0x30
 2955 0f5b 70040000 		.4byte	.LASF114
 2956 0f5f 0C       		.byte	0xc
 2957 0f60 B6       		.byte	0xb6
 2958 0f61 01010000 		.4byte	0x101
 2959 0f65 6F0F0000 		.4byte	0xf6f
 2960 0f69 0E       		.uleb128 0xe
 2961 0f6a 01010000 		.4byte	0x101
 2962 0f6e 00       		.byte	0
 2963 0f6f 31       		.uleb128 0x31
 2964 0f70 52060000 		.4byte	.LASF128
 2965 0f74 0D       		.byte	0xd
 2966 0f75 68       		.byte	0x68
 2967 0f76 0C010000 		.4byte	0x10c
 2968 0f7a 32       		.uleb128 0x32
 2969 0f7b 5C030000 		.4byte	.LASF115
 2970 0f7f 07       		.byte	0x7
 2971 0f80 6401     		.2byte	0x164
 2972 0f82 3F020000 		.4byte	0x23f
 2973 0f86 A40F0000 		.4byte	0xfa4
 2974 0f8a 0E       		.uleb128 0xe
 2975 0f8b 7B020000 		.4byte	0x27b
 2976 0f8f 0E       		.uleb128 0xe
 2977 0f90 28000000 		.4byte	0x28
 2978 0f94 0E       		.uleb128 0xe
 2979 0f95 E0000000 		.4byte	0xe0
 2980 0f99 0E       		.uleb128 0xe
 2981 0f9a 58050000 		.4byte	0x558
 2982 0f9e 0E       		.uleb128 0xe
 2983 0f9f 7B020000 		.4byte	0x27b
 2984 0fa3 00       		.byte	0
 2985 0fa4 30       		.uleb128 0x30
 2986 0fa5 F1010000 		.4byte	.LASF116
 2987 0fa9 0D       		.byte	0xd
 2988 0faa 65       		.byte	0x65
 2989 0fab B4000000 		.4byte	0xb4
 2990 0faf C30F0000 		.4byte	0xfc3
 2991 0fb3 0E       		.uleb128 0xe
 2992 0fb4 33000000 		.4byte	0x33
 2993 0fb8 0E       		.uleb128 0xe
 2994 0fb9 0C010000 		.4byte	0x10c
 2995 0fbd 0E       		.uleb128 0xe
 2996 0fbe 0C010000 		.4byte	0x10c
 2997 0fc2 00       		.byte	0
 2998 0fc3 33       		.uleb128 0x33
 2999 0fc4 AB030000 		.4byte	.LASF129
 3000 0fc8 0D       		.byte	0xd
 3001 0fc9 67       		.byte	0x67
 3002 0fca 30       		.uleb128 0x30
 3003 0fcb 13020000 		.4byte	.LASF117
 3004 0fcf 0C       		.byte	0xc
 3005 0fd0 B7       		.byte	0xb7
 3006 0fd1 01010000 		.4byte	0x101
 3007 0fd5 DF0F0000 		.4byte	0xfdf
 3008 0fd9 0E       		.uleb128 0xe
 3009 0fda 01010000 		.4byte	0x101
ARM GAS  /tmp/cc8tOftm.s 			page 54


 3010 0fde 00       		.byte	0
 3011 0fdf 30       		.uleb128 0x30
 3012 0fe0 04040000 		.4byte	.LASF118
 3013 0fe4 0C       		.byte	0xc
 3014 0fe5 B8       		.byte	0xb8
 3015 0fe6 01010000 		.4byte	0x101
 3016 0fea F40F0000 		.4byte	0xff4
 3017 0fee 0E       		.uleb128 0xe
 3018 0fef 01010000 		.4byte	0x101
 3019 0ff3 00       		.byte	0
 3020 0ff4 2F       		.uleb128 0x2f
 3021 0ff5 4D020000 		.4byte	.LASF119
 3022 0ff9 0C       		.byte	0xc
 3023 0ffa B2       		.byte	0xb2
 3024 0ffb 0A100000 		.4byte	0x100a
 3025 0fff 0E       		.uleb128 0xe
 3026 1000 A80E0000 		.4byte	0xea8
 3027 1004 0E       		.uleb128 0xe
 3028 1005 01010000 		.4byte	0x101
 3029 1009 00       		.byte	0
 3030 100a 34       		.uleb128 0x34
 3031 100b 6B050000 		.4byte	.LASF120
 3032 100f 07       		.byte	0x7
 3033 1010 6901     		.2byte	0x169
 3034 1012 1C100000 		.4byte	0x101c
 3035 1016 0E       		.uleb128 0xe
 3036 1017 0C010000 		.4byte	0x10c
 3037 101b 00       		.byte	0
 3038 101c 2F       		.uleb128 0x2f
 3039 101d 89020000 		.4byte	.LASF121
 3040 1021 0C       		.byte	0xc
 3041 1022 B0       		.byte	0xb0
 3042 1023 32100000 		.4byte	0x1032
 3043 1027 0E       		.uleb128 0xe
 3044 1028 3F020000 		.4byte	0x23f
 3045 102c 0E       		.uleb128 0xe
 3046 102d 01010000 		.4byte	0x101
 3047 1031 00       		.byte	0
 3048 1032 30       		.uleb128 0x30
 3049 1033 A3050000 		.4byte	.LASF122
 3050 1037 0C       		.byte	0xc
 3051 1038 BB       		.byte	0xbb
 3052 1039 01010000 		.4byte	0x101
 3053 103d 4C100000 		.4byte	0x104c
 3054 1041 0E       		.uleb128 0xe
 3055 1042 01010000 		.4byte	0x101
 3056 1046 0E       		.uleb128 0xe
 3057 1047 0C010000 		.4byte	0x10c
 3058 104b 00       		.byte	0
 3059 104c 30       		.uleb128 0x30
 3060 104d 3D010000 		.4byte	.LASF123
 3061 1051 0C       		.byte	0xc
 3062 1052 BC       		.byte	0xbc
 3063 1053 01010000 		.4byte	0x101
 3064 1057 66100000 		.4byte	0x1066
 3065 105b 0E       		.uleb128 0xe
 3066 105c 01010000 		.4byte	0x101
ARM GAS  /tmp/cc8tOftm.s 			page 55


 3067 1060 0E       		.uleb128 0xe
 3068 1061 0C010000 		.4byte	0x10c
 3069 1065 00       		.byte	0
 3070 1066 35       		.uleb128 0x35
 3071 1067 8A010000 		.4byte	.LASF124
 3072 106b 0C       		.byte	0xc
 3073 106c BD       		.byte	0xbd
 3074 106d 01010000 		.4byte	0x101
 3075 1071 0E       		.uleb128 0xe
 3076 1072 01010000 		.4byte	0x101
 3077 1076 0E       		.uleb128 0xe
 3078 1077 0C010000 		.4byte	0x10c
 3079 107b 00       		.byte	0
 3080 107c 00       		.byte	0
 3081              		.section	.debug_abbrev,"",%progbits
 3082              	.Ldebug_abbrev0:
 3083 0000 01       		.uleb128 0x1
 3084 0001 11       		.uleb128 0x11
 3085 0002 01       		.byte	0x1
 3086 0003 25       		.uleb128 0x25
 3087 0004 0E       		.uleb128 0xe
 3088 0005 13       		.uleb128 0x13
 3089 0006 0B       		.uleb128 0xb
 3090 0007 03       		.uleb128 0x3
 3091 0008 0E       		.uleb128 0xe
 3092 0009 55       		.uleb128 0x55
 3093 000a 17       		.uleb128 0x17
 3094 000b 11       		.uleb128 0x11
 3095 000c 01       		.uleb128 0x1
 3096 000d 10       		.uleb128 0x10
 3097 000e 17       		.uleb128 0x17
 3098 000f 00       		.byte	0
 3099 0010 00       		.byte	0
 3100 0011 02       		.uleb128 0x2
 3101 0012 24       		.uleb128 0x24
 3102 0013 00       		.byte	0
 3103 0014 0B       		.uleb128 0xb
 3104 0015 0B       		.uleb128 0xb
 3105 0016 3E       		.uleb128 0x3e
 3106 0017 0B       		.uleb128 0xb
 3107 0018 03       		.uleb128 0x3
 3108 0019 08       		.uleb128 0x8
 3109 001a 00       		.byte	0
 3110 001b 00       		.byte	0
 3111 001c 03       		.uleb128 0x3
 3112 001d 16       		.uleb128 0x16
 3113 001e 00       		.byte	0
 3114 001f 03       		.uleb128 0x3
 3115 0020 0E       		.uleb128 0xe
 3116 0021 3A       		.uleb128 0x3a
 3117 0022 0B       		.uleb128 0xb
 3118 0023 3B       		.uleb128 0x3b
 3119 0024 0B       		.uleb128 0xb
 3120 0025 49       		.uleb128 0x49
 3121 0026 13       		.uleb128 0x13
 3122 0027 00       		.byte	0
 3123 0028 00       		.byte	0
ARM GAS  /tmp/cc8tOftm.s 			page 56


 3124 0029 04       		.uleb128 0x4
 3125 002a 24       		.uleb128 0x24
 3126 002b 00       		.byte	0
 3127 002c 0B       		.uleb128 0xb
 3128 002d 0B       		.uleb128 0xb
 3129 002e 3E       		.uleb128 0x3e
 3130 002f 0B       		.uleb128 0xb
 3131 0030 03       		.uleb128 0x3
 3132 0031 0E       		.uleb128 0xe
 3133 0032 00       		.byte	0
 3134 0033 00       		.byte	0
 3135 0034 05       		.uleb128 0x5
 3136 0035 13       		.uleb128 0x13
 3137 0036 01       		.byte	0x1
 3138 0037 03       		.uleb128 0x3
 3139 0038 0E       		.uleb128 0xe
 3140 0039 0B       		.uleb128 0xb
 3141 003a 0B       		.uleb128 0xb
 3142 003b 3A       		.uleb128 0x3a
 3143 003c 0B       		.uleb128 0xb
 3144 003d 3B       		.uleb128 0x3b
 3145 003e 0B       		.uleb128 0xb
 3146 003f 01       		.uleb128 0x1
 3147 0040 13       		.uleb128 0x13
 3148 0041 00       		.byte	0
 3149 0042 00       		.byte	0
 3150 0043 06       		.uleb128 0x6
 3151 0044 0D       		.uleb128 0xd
 3152 0045 00       		.byte	0
 3153 0046 03       		.uleb128 0x3
 3154 0047 0E       		.uleb128 0xe
 3155 0048 3A       		.uleb128 0x3a
 3156 0049 0B       		.uleb128 0xb
 3157 004a 3B       		.uleb128 0x3b
 3158 004b 0B       		.uleb128 0xb
 3159 004c 49       		.uleb128 0x49
 3160 004d 13       		.uleb128 0x13
 3161 004e 38       		.uleb128 0x38
 3162 004f 0B       		.uleb128 0xb
 3163 0050 00       		.byte	0
 3164 0051 00       		.byte	0
 3165 0052 07       		.uleb128 0x7
 3166 0053 0D       		.uleb128 0xd
 3167 0054 00       		.byte	0
 3168 0055 03       		.uleb128 0x3
 3169 0056 08       		.uleb128 0x8
 3170 0057 3A       		.uleb128 0x3a
 3171 0058 0B       		.uleb128 0xb
 3172 0059 3B       		.uleb128 0x3b
 3173 005a 0B       		.uleb128 0xb
 3174 005b 49       		.uleb128 0x49
 3175 005c 13       		.uleb128 0x13
 3176 005d 38       		.uleb128 0x38
 3177 005e 0B       		.uleb128 0xb
 3178 005f 00       		.byte	0
 3179 0060 00       		.byte	0
 3180 0061 08       		.uleb128 0x8
ARM GAS  /tmp/cc8tOftm.s 			page 57


 3181 0062 13       		.uleb128 0x13
 3182 0063 01       		.byte	0x1
 3183 0064 0B       		.uleb128 0xb
 3184 0065 0B       		.uleb128 0xb
 3185 0066 3A       		.uleb128 0x3a
 3186 0067 0B       		.uleb128 0xb
 3187 0068 3B       		.uleb128 0x3b
 3188 0069 0B       		.uleb128 0xb
 3189 006a 01       		.uleb128 0x1
 3190 006b 13       		.uleb128 0x13
 3191 006c 00       		.byte	0
 3192 006d 00       		.byte	0
 3193 006e 09       		.uleb128 0x9
 3194 006f 0F       		.uleb128 0xf
 3195 0070 00       		.byte	0
 3196 0071 0B       		.uleb128 0xb
 3197 0072 0B       		.uleb128 0xb
 3198 0073 49       		.uleb128 0x49
 3199 0074 13       		.uleb128 0x13
 3200 0075 00       		.byte	0
 3201 0076 00       		.byte	0
 3202 0077 0A       		.uleb128 0xa
 3203 0078 0F       		.uleb128 0xf
 3204 0079 00       		.byte	0
 3205 007a 0B       		.uleb128 0xb
 3206 007b 0B       		.uleb128 0xb
 3207 007c 00       		.byte	0
 3208 007d 00       		.byte	0
 3209 007e 0B       		.uleb128 0xb
 3210 007f 0D       		.uleb128 0xd
 3211 0080 00       		.byte	0
 3212 0081 03       		.uleb128 0x3
 3213 0082 08       		.uleb128 0x8
 3214 0083 3A       		.uleb128 0x3a
 3215 0084 0B       		.uleb128 0xb
 3216 0085 3B       		.uleb128 0x3b
 3217 0086 05       		.uleb128 0x5
 3218 0087 49       		.uleb128 0x49
 3219 0088 13       		.uleb128 0x13
 3220 0089 38       		.uleb128 0x38
 3221 008a 0B       		.uleb128 0xb
 3222 008b 00       		.byte	0
 3223 008c 00       		.byte	0
 3224 008d 0C       		.uleb128 0xc
 3225 008e 13       		.uleb128 0x13
 3226 008f 01       		.byte	0x1
 3227 0090 03       		.uleb128 0x3
 3228 0091 0E       		.uleb128 0xe
 3229 0092 0B       		.uleb128 0xb
 3230 0093 0B       		.uleb128 0xb
 3231 0094 3A       		.uleb128 0x3a
 3232 0095 0B       		.uleb128 0xb
 3233 0096 3B       		.uleb128 0x3b
 3234 0097 05       		.uleb128 0x5
 3235 0098 01       		.uleb128 0x1
 3236 0099 13       		.uleb128 0x13
 3237 009a 00       		.byte	0
ARM GAS  /tmp/cc8tOftm.s 			page 58


 3238 009b 00       		.byte	0
 3239 009c 0D       		.uleb128 0xd
 3240 009d 15       		.uleb128 0x15
 3241 009e 01       		.byte	0x1
 3242 009f 27       		.uleb128 0x27
 3243 00a0 19       		.uleb128 0x19
 3244 00a1 01       		.uleb128 0x1
 3245 00a2 13       		.uleb128 0x13
 3246 00a3 00       		.byte	0
 3247 00a4 00       		.byte	0
 3248 00a5 0E       		.uleb128 0xe
 3249 00a6 05       		.uleb128 0x5
 3250 00a7 00       		.byte	0
 3251 00a8 49       		.uleb128 0x49
 3252 00a9 13       		.uleb128 0x13
 3253 00aa 00       		.byte	0
 3254 00ab 00       		.byte	0
 3255 00ac 0F       		.uleb128 0xf
 3256 00ad 35       		.uleb128 0x35
 3257 00ae 00       		.byte	0
 3258 00af 49       		.uleb128 0x49
 3259 00b0 13       		.uleb128 0x13
 3260 00b1 00       		.byte	0
 3261 00b2 00       		.byte	0
 3262 00b3 10       		.uleb128 0x10
 3263 00b4 17       		.uleb128 0x17
 3264 00b5 01       		.byte	0x1
 3265 00b6 0B       		.uleb128 0xb
 3266 00b7 0B       		.uleb128 0xb
 3267 00b8 3A       		.uleb128 0x3a
 3268 00b9 0B       		.uleb128 0xb
 3269 00ba 3B       		.uleb128 0x3b
 3270 00bb 0B       		.uleb128 0xb
 3271 00bc 01       		.uleb128 0x1
 3272 00bd 13       		.uleb128 0x13
 3273 00be 00       		.byte	0
 3274 00bf 00       		.byte	0
 3275 00c0 11       		.uleb128 0x11
 3276 00c1 0D       		.uleb128 0xd
 3277 00c2 00       		.byte	0
 3278 00c3 03       		.uleb128 0x3
 3279 00c4 0E       		.uleb128 0xe
 3280 00c5 3A       		.uleb128 0x3a
 3281 00c6 0B       		.uleb128 0xb
 3282 00c7 3B       		.uleb128 0x3b
 3283 00c8 0B       		.uleb128 0xb
 3284 00c9 49       		.uleb128 0x49
 3285 00ca 13       		.uleb128 0x13
 3286 00cb 00       		.byte	0
 3287 00cc 00       		.byte	0
 3288 00cd 12       		.uleb128 0x12
 3289 00ce 26       		.uleb128 0x26
 3290 00cf 00       		.byte	0
 3291 00d0 49       		.uleb128 0x49
 3292 00d1 13       		.uleb128 0x13
 3293 00d2 00       		.byte	0
 3294 00d3 00       		.byte	0
ARM GAS  /tmp/cc8tOftm.s 			page 59


 3295 00d4 13       		.uleb128 0x13
 3296 00d5 15       		.uleb128 0x15
 3297 00d6 01       		.byte	0x1
 3298 00d7 27       		.uleb128 0x27
 3299 00d8 19       		.uleb128 0x19
 3300 00d9 49       		.uleb128 0x49
 3301 00da 13       		.uleb128 0x13
 3302 00db 01       		.uleb128 0x1
 3303 00dc 13       		.uleb128 0x13
 3304 00dd 00       		.byte	0
 3305 00de 00       		.byte	0
 3306 00df 14       		.uleb128 0x14
 3307 00e0 15       		.uleb128 0x15
 3308 00e1 00       		.byte	0
 3309 00e2 27       		.uleb128 0x27
 3310 00e3 19       		.uleb128 0x19
 3311 00e4 00       		.byte	0
 3312 00e5 00       		.byte	0
 3313 00e6 15       		.uleb128 0x15
 3314 00e7 2E       		.uleb128 0x2e
 3315 00e8 01       		.byte	0x1
 3316 00e9 03       		.uleb128 0x3
 3317 00ea 0E       		.uleb128 0xe
 3318 00eb 3A       		.uleb128 0x3a
 3319 00ec 0B       		.uleb128 0xb
 3320 00ed 3B       		.uleb128 0x3b
 3321 00ee 05       		.uleb128 0x5
 3322 00ef 27       		.uleb128 0x27
 3323 00f0 19       		.uleb128 0x19
 3324 00f1 20       		.uleb128 0x20
 3325 00f2 0B       		.uleb128 0xb
 3326 00f3 01       		.uleb128 0x1
 3327 00f4 13       		.uleb128 0x13
 3328 00f5 00       		.byte	0
 3329 00f6 00       		.byte	0
 3330 00f7 16       		.uleb128 0x16
 3331 00f8 34       		.uleb128 0x34
 3332 00f9 00       		.byte	0
 3333 00fa 03       		.uleb128 0x3
 3334 00fb 08       		.uleb128 0x8
 3335 00fc 3A       		.uleb128 0x3a
 3336 00fd 0B       		.uleb128 0xb
 3337 00fe 3B       		.uleb128 0x3b
 3338 00ff 05       		.uleb128 0x5
 3339 0100 49       		.uleb128 0x49
 3340 0101 13       		.uleb128 0x13
 3341 0102 00       		.byte	0
 3342 0103 00       		.byte	0
 3343 0104 17       		.uleb128 0x17
 3344 0105 2E       		.uleb128 0x2e
 3345 0106 01       		.byte	0x1
 3346 0107 03       		.uleb128 0x3
 3347 0108 0E       		.uleb128 0xe
 3348 0109 3A       		.uleb128 0x3a
 3349 010a 0B       		.uleb128 0xb
 3350 010b 3B       		.uleb128 0x3b
 3351 010c 0B       		.uleb128 0xb
ARM GAS  /tmp/cc8tOftm.s 			page 60


 3352 010d 27       		.uleb128 0x27
 3353 010e 19       		.uleb128 0x19
 3354 010f 11       		.uleb128 0x11
 3355 0110 01       		.uleb128 0x1
 3356 0111 12       		.uleb128 0x12
 3357 0112 06       		.uleb128 0x6
 3358 0113 40       		.uleb128 0x40
 3359 0114 18       		.uleb128 0x18
 3360 0115 9742     		.uleb128 0x2117
 3361 0117 19       		.uleb128 0x19
 3362 0118 01       		.uleb128 0x1
 3363 0119 13       		.uleb128 0x13
 3364 011a 00       		.byte	0
 3365 011b 00       		.byte	0
 3366 011c 18       		.uleb128 0x18
 3367 011d 34       		.uleb128 0x34
 3368 011e 00       		.byte	0
 3369 011f 03       		.uleb128 0x3
 3370 0120 08       		.uleb128 0x8
 3371 0121 3A       		.uleb128 0x3a
 3372 0122 0B       		.uleb128 0xb
 3373 0123 3B       		.uleb128 0x3b
 3374 0124 0B       		.uleb128 0xb
 3375 0125 49       		.uleb128 0x49
 3376 0126 13       		.uleb128 0x13
 3377 0127 02       		.uleb128 0x2
 3378 0128 18       		.uleb128 0x18
 3379 0129 00       		.byte	0
 3380 012a 00       		.byte	0
 3381 012b 19       		.uleb128 0x19
 3382 012c 898201   		.uleb128 0x4109
 3383 012f 01       		.byte	0x1
 3384 0130 11       		.uleb128 0x11
 3385 0131 01       		.uleb128 0x1
 3386 0132 31       		.uleb128 0x31
 3387 0133 13       		.uleb128 0x13
 3388 0134 01       		.uleb128 0x1
 3389 0135 13       		.uleb128 0x13
 3390 0136 00       		.byte	0
 3391 0137 00       		.byte	0
 3392 0138 1A       		.uleb128 0x1a
 3393 0139 8A8201   		.uleb128 0x410a
 3394 013c 00       		.byte	0
 3395 013d 02       		.uleb128 0x2
 3396 013e 18       		.uleb128 0x18
 3397 013f 9142     		.uleb128 0x2111
 3398 0141 18       		.uleb128 0x18
 3399 0142 00       		.byte	0
 3400 0143 00       		.byte	0
 3401 0144 1B       		.uleb128 0x1b
 3402 0145 898201   		.uleb128 0x4109
 3403 0148 01       		.byte	0x1
 3404 0149 11       		.uleb128 0x11
 3405 014a 01       		.uleb128 0x1
 3406 014b 31       		.uleb128 0x31
 3407 014c 13       		.uleb128 0x13
 3408 014d 00       		.byte	0
ARM GAS  /tmp/cc8tOftm.s 			page 61


 3409 014e 00       		.byte	0
 3410 014f 1C       		.uleb128 0x1c
 3411 0150 2E       		.uleb128 0x2e
 3412 0151 01       		.byte	0x1
 3413 0152 03       		.uleb128 0x3
 3414 0153 08       		.uleb128 0x8
 3415 0154 3A       		.uleb128 0x3a
 3416 0155 0B       		.uleb128 0xb
 3417 0156 3B       		.uleb128 0x3b
 3418 0157 0B       		.uleb128 0xb
 3419 0158 27       		.uleb128 0x27
 3420 0159 19       		.uleb128 0x19
 3421 015a 11       		.uleb128 0x11
 3422 015b 01       		.uleb128 0x1
 3423 015c 12       		.uleb128 0x12
 3424 015d 06       		.uleb128 0x6
 3425 015e 40       		.uleb128 0x40
 3426 015f 18       		.uleb128 0x18
 3427 0160 9742     		.uleb128 0x2117
 3428 0162 19       		.uleb128 0x19
 3429 0163 01       		.uleb128 0x1
 3430 0164 13       		.uleb128 0x13
 3431 0165 00       		.byte	0
 3432 0166 00       		.byte	0
 3433 0167 1D       		.uleb128 0x1d
 3434 0168 05       		.uleb128 0x5
 3435 0169 00       		.byte	0
 3436 016a 03       		.uleb128 0x3
 3437 016b 08       		.uleb128 0x8
 3438 016c 3A       		.uleb128 0x3a
 3439 016d 0B       		.uleb128 0xb
 3440 016e 3B       		.uleb128 0x3b
 3441 016f 0B       		.uleb128 0xb
 3442 0170 49       		.uleb128 0x49
 3443 0171 13       		.uleb128 0x13
 3444 0172 02       		.uleb128 0x2
 3445 0173 17       		.uleb128 0x17
 3446 0174 00       		.byte	0
 3447 0175 00       		.byte	0
 3448 0176 1E       		.uleb128 0x1e
 3449 0177 898201   		.uleb128 0x4109
 3450 017a 01       		.byte	0x1
 3451 017b 11       		.uleb128 0x11
 3452 017c 01       		.uleb128 0x1
 3453 017d 9542     		.uleb128 0x2115
 3454 017f 19       		.uleb128 0x19
 3455 0180 31       		.uleb128 0x31
 3456 0181 13       		.uleb128 0x13
 3457 0182 00       		.byte	0
 3458 0183 00       		.byte	0
 3459 0184 1F       		.uleb128 0x1f
 3460 0185 2E       		.uleb128 0x2e
 3461 0186 01       		.byte	0x1
 3462 0187 03       		.uleb128 0x3
 3463 0188 0E       		.uleb128 0xe
 3464 0189 3A       		.uleb128 0x3a
 3465 018a 0B       		.uleb128 0xb
ARM GAS  /tmp/cc8tOftm.s 			page 62


 3466 018b 3B       		.uleb128 0x3b
 3467 018c 05       		.uleb128 0x5
 3468 018d 27       		.uleb128 0x27
 3469 018e 19       		.uleb128 0x19
 3470 018f 11       		.uleb128 0x11
 3471 0190 01       		.uleb128 0x1
 3472 0191 12       		.uleb128 0x12
 3473 0192 06       		.uleb128 0x6
 3474 0193 40       		.uleb128 0x40
 3475 0194 18       		.uleb128 0x18
 3476 0195 9742     		.uleb128 0x2117
 3477 0197 19       		.uleb128 0x19
 3478 0198 01       		.uleb128 0x1
 3479 0199 13       		.uleb128 0x13
 3480 019a 00       		.byte	0
 3481 019b 00       		.byte	0
 3482 019c 20       		.uleb128 0x20
 3483 019d 34       		.uleb128 0x34
 3484 019e 00       		.byte	0
 3485 019f 03       		.uleb128 0x3
 3486 01a0 08       		.uleb128 0x8
 3487 01a1 3A       		.uleb128 0x3a
 3488 01a2 0B       		.uleb128 0xb
 3489 01a3 3B       		.uleb128 0x3b
 3490 01a4 0B       		.uleb128 0xb
 3491 01a5 49       		.uleb128 0x49
 3492 01a6 13       		.uleb128 0x13
 3493 01a7 02       		.uleb128 0x2
 3494 01a8 17       		.uleb128 0x17
 3495 01a9 00       		.byte	0
 3496 01aa 00       		.byte	0
 3497 01ab 21       		.uleb128 0x21
 3498 01ac 34       		.uleb128 0x34
 3499 01ad 00       		.byte	0
 3500 01ae 03       		.uleb128 0x3
 3501 01af 0E       		.uleb128 0xe
 3502 01b0 3A       		.uleb128 0x3a
 3503 01b1 0B       		.uleb128 0xb
 3504 01b2 3B       		.uleb128 0x3b
 3505 01b3 0B       		.uleb128 0xb
 3506 01b4 49       		.uleb128 0x49
 3507 01b5 13       		.uleb128 0x13
 3508 01b6 02       		.uleb128 0x2
 3509 01b7 17       		.uleb128 0x17
 3510 01b8 00       		.byte	0
 3511 01b9 00       		.byte	0
 3512 01ba 22       		.uleb128 0x22
 3513 01bb 898201   		.uleb128 0x4109
 3514 01be 00       		.byte	0
 3515 01bf 11       		.uleb128 0x11
 3516 01c0 01       		.uleb128 0x1
 3517 01c1 31       		.uleb128 0x31
 3518 01c2 13       		.uleb128 0x13
 3519 01c3 00       		.byte	0
 3520 01c4 00       		.byte	0
 3521 01c5 23       		.uleb128 0x23
 3522 01c6 2E       		.uleb128 0x2e
ARM GAS  /tmp/cc8tOftm.s 			page 63


 3523 01c7 01       		.byte	0x1
 3524 01c8 03       		.uleb128 0x3
 3525 01c9 0E       		.uleb128 0xe
 3526 01ca 3A       		.uleb128 0x3a
 3527 01cb 0B       		.uleb128 0xb
 3528 01cc 3B       		.uleb128 0x3b
 3529 01cd 0B       		.uleb128 0xb
 3530 01ce 27       		.uleb128 0x27
 3531 01cf 19       		.uleb128 0x19
 3532 01d0 49       		.uleb128 0x49
 3533 01d1 13       		.uleb128 0x13
 3534 01d2 11       		.uleb128 0x11
 3535 01d3 01       		.uleb128 0x1
 3536 01d4 12       		.uleb128 0x12
 3537 01d5 06       		.uleb128 0x6
 3538 01d6 40       		.uleb128 0x40
 3539 01d7 18       		.uleb128 0x18
 3540 01d8 9742     		.uleb128 0x2117
 3541 01da 19       		.uleb128 0x19
 3542 01db 01       		.uleb128 0x1
 3543 01dc 13       		.uleb128 0x13
 3544 01dd 00       		.byte	0
 3545 01de 00       		.byte	0
 3546 01df 24       		.uleb128 0x24
 3547 01e0 2E       		.uleb128 0x2e
 3548 01e1 01       		.byte	0x1
 3549 01e2 31       		.uleb128 0x31
 3550 01e3 13       		.uleb128 0x13
 3551 01e4 11       		.uleb128 0x11
 3552 01e5 01       		.uleb128 0x1
 3553 01e6 12       		.uleb128 0x12
 3554 01e7 06       		.uleb128 0x6
 3555 01e8 40       		.uleb128 0x40
 3556 01e9 18       		.uleb128 0x18
 3557 01ea 9742     		.uleb128 0x2117
 3558 01ec 19       		.uleb128 0x19
 3559 01ed 01       		.uleb128 0x1
 3560 01ee 13       		.uleb128 0x13
 3561 01ef 00       		.byte	0
 3562 01f0 00       		.byte	0
 3563 01f1 25       		.uleb128 0x25
 3564 01f2 34       		.uleb128 0x34
 3565 01f3 00       		.byte	0
 3566 01f4 31       		.uleb128 0x31
 3567 01f5 13       		.uleb128 0x13
 3568 01f6 02       		.uleb128 0x2
 3569 01f7 17       		.uleb128 0x17
 3570 01f8 00       		.byte	0
 3571 01f9 00       		.byte	0
 3572 01fa 26       		.uleb128 0x26
 3573 01fb 0B       		.uleb128 0xb
 3574 01fc 01       		.byte	0x1
 3575 01fd 55       		.uleb128 0x55
 3576 01fe 17       		.uleb128 0x17
 3577 01ff 01       		.uleb128 0x1
 3578 0200 13       		.uleb128 0x13
 3579 0201 00       		.byte	0
ARM GAS  /tmp/cc8tOftm.s 			page 64


 3580 0202 00       		.byte	0
 3581 0203 27       		.uleb128 0x27
 3582 0204 01       		.uleb128 0x1
 3583 0205 01       		.byte	0x1
 3584 0206 49       		.uleb128 0x49
 3585 0207 13       		.uleb128 0x13
 3586 0208 01       		.uleb128 0x1
 3587 0209 13       		.uleb128 0x13
 3588 020a 00       		.byte	0
 3589 020b 00       		.byte	0
 3590 020c 28       		.uleb128 0x28
 3591 020d 21       		.uleb128 0x21
 3592 020e 00       		.byte	0
 3593 020f 49       		.uleb128 0x49
 3594 0210 13       		.uleb128 0x13
 3595 0211 2F       		.uleb128 0x2f
 3596 0212 0B       		.uleb128 0xb
 3597 0213 00       		.byte	0
 3598 0214 00       		.byte	0
 3599 0215 29       		.uleb128 0x29
 3600 0216 34       		.uleb128 0x34
 3601 0217 00       		.byte	0
 3602 0218 03       		.uleb128 0x3
 3603 0219 0E       		.uleb128 0xe
 3604 021a 3A       		.uleb128 0x3a
 3605 021b 0B       		.uleb128 0xb
 3606 021c 3B       		.uleb128 0x3b
 3607 021d 0B       		.uleb128 0xb
 3608 021e 49       		.uleb128 0x49
 3609 021f 13       		.uleb128 0x13
 3610 0220 02       		.uleb128 0x2
 3611 0221 18       		.uleb128 0x18
 3612 0222 00       		.byte	0
 3613 0223 00       		.byte	0
 3614 0224 2A       		.uleb128 0x2a
 3615 0225 34       		.uleb128 0x34
 3616 0226 00       		.byte	0
 3617 0227 03       		.uleb128 0x3
 3618 0228 0E       		.uleb128 0xe
 3619 0229 3A       		.uleb128 0x3a
 3620 022a 0B       		.uleb128 0xb
 3621 022b 3B       		.uleb128 0x3b
 3622 022c 0B       		.uleb128 0xb
 3623 022d 49       		.uleb128 0x49
 3624 022e 13       		.uleb128 0x13
 3625 022f 3F       		.uleb128 0x3f
 3626 0230 19       		.uleb128 0x19
 3627 0231 3C       		.uleb128 0x3c
 3628 0232 19       		.uleb128 0x19
 3629 0233 00       		.byte	0
 3630 0234 00       		.byte	0
 3631 0235 2B       		.uleb128 0x2b
 3632 0236 21       		.uleb128 0x21
 3633 0237 00       		.byte	0
 3634 0238 00       		.byte	0
 3635 0239 00       		.byte	0
 3636 023a 2C       		.uleb128 0x2c
ARM GAS  /tmp/cc8tOftm.s 			page 65


 3637 023b 34       		.uleb128 0x34
 3638 023c 00       		.byte	0
 3639 023d 03       		.uleb128 0x3
 3640 023e 08       		.uleb128 0x8
 3641 023f 3A       		.uleb128 0x3a
 3642 0240 0B       		.uleb128 0xb
 3643 0241 3B       		.uleb128 0x3b
 3644 0242 0B       		.uleb128 0xb
 3645 0243 49       		.uleb128 0x49
 3646 0244 13       		.uleb128 0x13
 3647 0245 3F       		.uleb128 0x3f
 3648 0246 19       		.uleb128 0x19
 3649 0247 3C       		.uleb128 0x3c
 3650 0248 19       		.uleb128 0x19
 3651 0249 00       		.byte	0
 3652 024a 00       		.byte	0
 3653 024b 2D       		.uleb128 0x2d
 3654 024c 34       		.uleb128 0x34
 3655 024d 00       		.byte	0
 3656 024e 03       		.uleb128 0x3
 3657 024f 0E       		.uleb128 0xe
 3658 0250 3A       		.uleb128 0x3a
 3659 0251 0B       		.uleb128 0xb
 3660 0252 3B       		.uleb128 0x3b
 3661 0253 0B       		.uleb128 0xb
 3662 0254 49       		.uleb128 0x49
 3663 0255 13       		.uleb128 0x13
 3664 0256 3F       		.uleb128 0x3f
 3665 0257 19       		.uleb128 0x19
 3666 0258 02       		.uleb128 0x2
 3667 0259 18       		.uleb128 0x18
 3668 025a 00       		.byte	0
 3669 025b 00       		.byte	0
 3670 025c 2E       		.uleb128 0x2e
 3671 025d 34       		.uleb128 0x34
 3672 025e 00       		.byte	0
 3673 025f 03       		.uleb128 0x3
 3674 0260 0E       		.uleb128 0xe
 3675 0261 3A       		.uleb128 0x3a
 3676 0262 0B       		.uleb128 0xb
 3677 0263 3B       		.uleb128 0x3b
 3678 0264 05       		.uleb128 0x5
 3679 0265 49       		.uleb128 0x49
 3680 0266 13       		.uleb128 0x13
 3681 0267 3F       		.uleb128 0x3f
 3682 0268 19       		.uleb128 0x19
 3683 0269 02       		.uleb128 0x2
 3684 026a 18       		.uleb128 0x18
 3685 026b 00       		.byte	0
 3686 026c 00       		.byte	0
 3687 026d 2F       		.uleb128 0x2f
 3688 026e 2E       		.uleb128 0x2e
 3689 026f 01       		.byte	0x1
 3690 0270 3F       		.uleb128 0x3f
 3691 0271 19       		.uleb128 0x19
 3692 0272 03       		.uleb128 0x3
 3693 0273 0E       		.uleb128 0xe
ARM GAS  /tmp/cc8tOftm.s 			page 66


 3694 0274 3A       		.uleb128 0x3a
 3695 0275 0B       		.uleb128 0xb
 3696 0276 3B       		.uleb128 0x3b
 3697 0277 0B       		.uleb128 0xb
 3698 0278 27       		.uleb128 0x27
 3699 0279 19       		.uleb128 0x19
 3700 027a 3C       		.uleb128 0x3c
 3701 027b 19       		.uleb128 0x19
 3702 027c 01       		.uleb128 0x1
 3703 027d 13       		.uleb128 0x13
 3704 027e 00       		.byte	0
 3705 027f 00       		.byte	0
 3706 0280 30       		.uleb128 0x30
 3707 0281 2E       		.uleb128 0x2e
 3708 0282 01       		.byte	0x1
 3709 0283 3F       		.uleb128 0x3f
 3710 0284 19       		.uleb128 0x19
 3711 0285 03       		.uleb128 0x3
 3712 0286 0E       		.uleb128 0xe
 3713 0287 3A       		.uleb128 0x3a
 3714 0288 0B       		.uleb128 0xb
 3715 0289 3B       		.uleb128 0x3b
 3716 028a 0B       		.uleb128 0xb
 3717 028b 27       		.uleb128 0x27
 3718 028c 19       		.uleb128 0x19
 3719 028d 49       		.uleb128 0x49
 3720 028e 13       		.uleb128 0x13
 3721 028f 3C       		.uleb128 0x3c
 3722 0290 19       		.uleb128 0x19
 3723 0291 01       		.uleb128 0x1
 3724 0292 13       		.uleb128 0x13
 3725 0293 00       		.byte	0
 3726 0294 00       		.byte	0
 3727 0295 31       		.uleb128 0x31
 3728 0296 2E       		.uleb128 0x2e
 3729 0297 00       		.byte	0
 3730 0298 3F       		.uleb128 0x3f
 3731 0299 19       		.uleb128 0x19
 3732 029a 03       		.uleb128 0x3
 3733 029b 0E       		.uleb128 0xe
 3734 029c 3A       		.uleb128 0x3a
 3735 029d 0B       		.uleb128 0xb
 3736 029e 3B       		.uleb128 0x3b
 3737 029f 0B       		.uleb128 0xb
 3738 02a0 27       		.uleb128 0x27
 3739 02a1 19       		.uleb128 0x19
 3740 02a2 49       		.uleb128 0x49
 3741 02a3 13       		.uleb128 0x13
 3742 02a4 3C       		.uleb128 0x3c
 3743 02a5 19       		.uleb128 0x19
 3744 02a6 00       		.byte	0
 3745 02a7 00       		.byte	0
 3746 02a8 32       		.uleb128 0x32
 3747 02a9 2E       		.uleb128 0x2e
 3748 02aa 01       		.byte	0x1
 3749 02ab 3F       		.uleb128 0x3f
 3750 02ac 19       		.uleb128 0x19
ARM GAS  /tmp/cc8tOftm.s 			page 67


 3751 02ad 03       		.uleb128 0x3
 3752 02ae 0E       		.uleb128 0xe
 3753 02af 3A       		.uleb128 0x3a
 3754 02b0 0B       		.uleb128 0xb
 3755 02b1 3B       		.uleb128 0x3b
 3756 02b2 05       		.uleb128 0x5
 3757 02b3 27       		.uleb128 0x27
 3758 02b4 19       		.uleb128 0x19
 3759 02b5 49       		.uleb128 0x49
 3760 02b6 13       		.uleb128 0x13
 3761 02b7 3C       		.uleb128 0x3c
 3762 02b8 19       		.uleb128 0x19
 3763 02b9 01       		.uleb128 0x1
 3764 02ba 13       		.uleb128 0x13
 3765 02bb 00       		.byte	0
 3766 02bc 00       		.byte	0
 3767 02bd 33       		.uleb128 0x33
 3768 02be 2E       		.uleb128 0x2e
 3769 02bf 00       		.byte	0
 3770 02c0 3F       		.uleb128 0x3f
 3771 02c1 19       		.uleb128 0x19
 3772 02c2 03       		.uleb128 0x3
 3773 02c3 0E       		.uleb128 0xe
 3774 02c4 3A       		.uleb128 0x3a
 3775 02c5 0B       		.uleb128 0xb
 3776 02c6 3B       		.uleb128 0x3b
 3777 02c7 0B       		.uleb128 0xb
 3778 02c8 27       		.uleb128 0x27
 3779 02c9 19       		.uleb128 0x19
 3780 02ca 3C       		.uleb128 0x3c
 3781 02cb 19       		.uleb128 0x19
 3782 02cc 00       		.byte	0
 3783 02cd 00       		.byte	0
 3784 02ce 34       		.uleb128 0x34
 3785 02cf 2E       		.uleb128 0x2e
 3786 02d0 01       		.byte	0x1
 3787 02d1 3F       		.uleb128 0x3f
 3788 02d2 19       		.uleb128 0x19
 3789 02d3 03       		.uleb128 0x3
 3790 02d4 0E       		.uleb128 0xe
 3791 02d5 3A       		.uleb128 0x3a
 3792 02d6 0B       		.uleb128 0xb
 3793 02d7 3B       		.uleb128 0x3b
 3794 02d8 05       		.uleb128 0x5
 3795 02d9 27       		.uleb128 0x27
 3796 02da 19       		.uleb128 0x19
 3797 02db 3C       		.uleb128 0x3c
 3798 02dc 19       		.uleb128 0x19
 3799 02dd 01       		.uleb128 0x1
 3800 02de 13       		.uleb128 0x13
 3801 02df 00       		.byte	0
 3802 02e0 00       		.byte	0
 3803 02e1 35       		.uleb128 0x35
 3804 02e2 2E       		.uleb128 0x2e
 3805 02e3 01       		.byte	0x1
 3806 02e4 3F       		.uleb128 0x3f
 3807 02e5 19       		.uleb128 0x19
ARM GAS  /tmp/cc8tOftm.s 			page 68


 3808 02e6 03       		.uleb128 0x3
 3809 02e7 0E       		.uleb128 0xe
 3810 02e8 3A       		.uleb128 0x3a
 3811 02e9 0B       		.uleb128 0xb
 3812 02ea 3B       		.uleb128 0x3b
 3813 02eb 0B       		.uleb128 0xb
 3814 02ec 27       		.uleb128 0x27
 3815 02ed 19       		.uleb128 0x19
 3816 02ee 49       		.uleb128 0x49
 3817 02ef 13       		.uleb128 0x13
 3818 02f0 3C       		.uleb128 0x3c
 3819 02f1 19       		.uleb128 0x19
 3820 02f2 00       		.byte	0
 3821 02f3 00       		.byte	0
 3822 02f4 00       		.byte	0
 3823              		.section	.debug_loc,"",%progbits
 3824              	.Ldebug_loc0:
 3825              	.LLST0:
 3826 0000 00000000 		.4byte	.LVL9
 3827 0004 02000000 		.4byte	.LVL10
 3828 0008 0100     		.2byte	0x1
 3829 000a 50       		.byte	0x50
 3830 000b 02000000 		.4byte	.LVL10
 3831 000f 06000000 		.4byte	.LFE10
 3832 0013 0400     		.2byte	0x4
 3833 0015 F3       		.byte	0xf3
 3834 0016 01       		.uleb128 0x1
 3835 0017 50       		.byte	0x50
 3836 0018 9F       		.byte	0x9f
 3837 0019 00000000 		.4byte	0
 3838 001d 00000000 		.4byte	0
 3839              	.LLST1:
 3840 0021 00000000 		.4byte	.LVL12
 3841 0025 02000000 		.4byte	.LVL13
 3842 0029 0100     		.2byte	0x1
 3843 002b 50       		.byte	0x50
 3844 002c 02000000 		.4byte	.LVL13
 3845 0030 06000000 		.4byte	.LFE9
 3846 0034 0400     		.2byte	0x4
 3847 0036 F3       		.byte	0xf3
 3848 0037 01       		.uleb128 0x1
 3849 0038 50       		.byte	0x50
 3850 0039 9F       		.byte	0x9f
 3851 003a 00000000 		.4byte	0
 3852 003e 00000000 		.4byte	0
 3853              	.LLST2:
 3854 0042 00000000 		.4byte	.LVL15
 3855 0046 02000000 		.4byte	.LVL16
 3856 004a 0100     		.2byte	0x1
 3857 004c 50       		.byte	0x50
 3858 004d 02000000 		.4byte	.LVL16
 3859 0051 06000000 		.4byte	.LFE8
 3860 0055 0400     		.2byte	0x4
 3861 0057 F3       		.byte	0xf3
 3862 0058 01       		.uleb128 0x1
 3863 0059 50       		.byte	0x50
 3864 005a 9F       		.byte	0x9f
ARM GAS  /tmp/cc8tOftm.s 			page 69


 3865 005b 00000000 		.4byte	0
 3866 005f 00000000 		.4byte	0
 3867              	.LLST3:
 3868 0063 14000000 		.4byte	.LVL22
 3869 0067 1E000000 		.4byte	.LVL23
 3870 006b 0100     		.2byte	0x1
 3871 006d 50       		.byte	0x50
 3872 006e 34000000 		.4byte	.LVL25
 3873 0072 3E000000 		.4byte	.LVL26
 3874 0076 0100     		.2byte	0x1
 3875 0078 50       		.byte	0x50
 3876 0079 50000000 		.4byte	.LVL28
 3877 007d 56000000 		.4byte	.LVL29
 3878 0081 0100     		.2byte	0x1
 3879 0083 50       		.byte	0x50
 3880 0084 96000000 		.4byte	.LVL36
 3881 0088 9C000000 		.4byte	.LVL37
 3882 008c 0100     		.2byte	0x1
 3883 008e 50       		.byte	0x50
 3884 008f 9C000000 		.4byte	.LVL37
 3885 0093 C0000000 		.4byte	.LVL40
 3886 0097 0100     		.2byte	0x1
 3887 0099 59       		.byte	0x59
 3888 009a C0000000 		.4byte	.LVL40
 3889 009e C6000000 		.4byte	.LVL41
 3890 00a2 0100     		.2byte	0x1
 3891 00a4 50       		.byte	0x50
 3892 00a5 E2000000 		.4byte	.LVL45
 3893 00a9 EA000000 		.4byte	.LVL47
 3894 00ad 0100     		.2byte	0x1
 3895 00af 50       		.byte	0x50
 3896 00b0 EA000000 		.4byte	.LVL47
 3897 00b4 FA000000 		.4byte	.LVL49
 3898 00b8 0300     		.2byte	0x3
 3899 00ba 74       		.byte	0x74
 3900 00bb 05       		.sleb128 5
 3901 00bc 9F       		.byte	0x9f
 3902 00bd FA000000 		.4byte	.LVL49
 3903 00c1 00010000 		.4byte	.LVL50
 3904 00c5 0100     		.2byte	0x1
 3905 00c7 50       		.byte	0x50
 3906 00c8 34010000 		.4byte	.LVL57
 3907 00cc 3A010000 		.4byte	.LVL58
 3908 00d0 0100     		.2byte	0x1
 3909 00d2 50       		.byte	0x50
 3910 00d3 3A010000 		.4byte	.LVL58
 3911 00d7 60010000 		.4byte	.LVL61
 3912 00db 0100     		.2byte	0x1
 3913 00dd 59       		.byte	0x59
 3914 00de 60010000 		.4byte	.LVL61
 3915 00e2 66010000 		.4byte	.LVL62
 3916 00e6 0100     		.2byte	0x1
 3917 00e8 50       		.byte	0x50
 3918 00e9 D6010000 		.4byte	.LVL74
 3919 00ed DC010000 		.4byte	.LVL75
 3920 00f1 0100     		.2byte	0x1
 3921 00f3 50       		.byte	0x50
ARM GAS  /tmp/cc8tOftm.s 			page 70


 3922 00f4 00000000 		.4byte	0
 3923 00f8 00000000 		.4byte	0
 3924              	.LLST4:
 3925 00fc 80000000 		.4byte	.LVL32
 3926 0100 94000000 		.4byte	.LVL35
 3927 0104 0300     		.2byte	0x3
 3928 0106 74       		.byte	0x74
 3929 0107 32       		.sleb128 50
 3930 0108 9F       		.byte	0x9f
 3931 0109 94000000 		.4byte	.LVL35
 3932 010d 9F000000 		.4byte	.LVL38-1
 3933 0111 0100     		.2byte	0x1
 3934 0113 51       		.byte	0x51
 3935 0114 9F000000 		.4byte	.LVL38-1
 3936 0118 E4000000 		.4byte	.LVL46
 3937 011c 0300     		.2byte	0x3
 3938 011e 74       		.byte	0x74
 3939 011f 32       		.sleb128 50
 3940 0120 9F       		.byte	0x9f
 3941 0121 20010000 		.4byte	.LVL53
 3942 0125 32010000 		.4byte	.LVL56
 3943 0129 0300     		.2byte	0x3
 3944 012b 74       		.byte	0x74
 3945 012c 32       		.sleb128 50
 3946 012d 9F       		.byte	0x9f
 3947 012e 32010000 		.4byte	.LVL56
 3948 0132 3D010000 		.4byte	.LVL59-1
 3949 0136 0100     		.2byte	0x1
 3950 0138 51       		.byte	0x51
 3951 0139 3D010000 		.4byte	.LVL59-1
 3952 013d 78010000 		.4byte	.LVL64
 3953 0141 0300     		.2byte	0x3
 3954 0143 74       		.byte	0x74
 3955 0144 32       		.sleb128 50
 3956 0145 9F       		.byte	0x9f
 3957 0146 AE010000 		.4byte	.LVL69
 3958 014a BE010000 		.4byte	.LVL72
 3959 014e 0300     		.2byte	0x3
 3960 0150 76       		.byte	0x76
 3961 0151 32       		.sleb128 50
 3962 0152 9F       		.byte	0x9f
 3963 0153 BE010000 		.4byte	.LVL72
 3964 0157 C7010000 		.4byte	.LVL73-1
 3965 015b 0100     		.2byte	0x1
 3966 015d 51       		.byte	0x51
 3967 015e C7010000 		.4byte	.LVL73-1
 3968 0162 48020000 		.4byte	.LFE15
 3969 0166 0300     		.2byte	0x3
 3970 0168 76       		.byte	0x76
 3971 0169 32       		.sleb128 50
 3972 016a 9F       		.byte	0x9f
 3973 016b 00000000 		.4byte	0
 3974 016f 00000000 		.4byte	0
 3975              	.LLST5:
 3976 0173 00000000 		.4byte	.LVL82
 3977 0177 06000000 		.4byte	.LVL83
 3978 017b 0100     		.2byte	0x1
ARM GAS  /tmp/cc8tOftm.s 			page 71


 3979 017d 50       		.byte	0x50
 3980 017e 06000000 		.4byte	.LVL83
 3981 0182 24000000 		.4byte	.LFE14
 3982 0186 0400     		.2byte	0x4
 3983 0188 F3       		.byte	0xf3
 3984 0189 01       		.uleb128 0x1
 3985 018a 50       		.byte	0x50
 3986 018b 9F       		.byte	0x9f
 3987 018c 00000000 		.4byte	0
 3988 0190 00000000 		.4byte	0
 3989              	.LLST6:
 3990 0194 00000000 		.4byte	.LVL87
 3991 0198 06000000 		.4byte	.LVL88
 3992 019c 0100     		.2byte	0x1
 3993 019e 50       		.byte	0x50
 3994 019f 06000000 		.4byte	.LVL88
 3995 01a3 16000000 		.4byte	.LFE13
 3996 01a7 0100     		.2byte	0x1
 3997 01a9 54       		.byte	0x54
 3998 01aa 00000000 		.4byte	0
 3999 01ae 00000000 		.4byte	0
 4000              	.LLST7:
 4001 01b2 0C000000 		.4byte	.LVL91
 4002 01b6 12000000 		.4byte	.LVL92
 4003 01ba 0100     		.2byte	0x1
 4004 01bc 50       		.byte	0x50
 4005 01bd 26000000 		.4byte	.LVL94
 4006 01c1 2C000000 		.4byte	.LVL95
 4007 01c5 0100     		.2byte	0x1
 4008 01c7 50       		.byte	0x50
 4009 01c8 40000000 		.4byte	.LVL97
 4010 01cc 46000000 		.4byte	.LVL98
 4011 01d0 0100     		.2byte	0x1
 4012 01d2 50       		.byte	0x50
 4013 01d3 00000000 		.4byte	0
 4014 01d7 00000000 		.4byte	0
 4015              	.LLST8:
 4016 01db 5A000000 		.4byte	.LVL100
 4017 01df 60000000 		.4byte	.LVL101
 4018 01e3 0100     		.2byte	0x1
 4019 01e5 50       		.byte	0x50
 4020 01e6 74000000 		.4byte	.LVL103
 4021 01ea 7A000000 		.4byte	.LVL104
 4022 01ee 0100     		.2byte	0x1
 4023 01f0 50       		.byte	0x50
 4024 01f1 8E000000 		.4byte	.LVL106
 4025 01f5 98000000 		.4byte	.LVL107
 4026 01f9 0100     		.2byte	0x1
 4027 01fb 50       		.byte	0x50
 4028 01fc 00000000 		.4byte	0
 4029 0200 00000000 		.4byte	0
 4030              		.section	.debug_aranges,"",%progbits
 4031 0000 6C000000 		.4byte	0x6c
 4032 0004 0200     		.2byte	0x2
 4033 0006 00000000 		.4byte	.Ldebug_info0
 4034 000a 04       		.byte	0x4
 4035 000b 00       		.byte	0
ARM GAS  /tmp/cc8tOftm.s 			page 72


 4036 000c 0000     		.2byte	0
 4037 000e 0000     		.2byte	0
 4038 0010 00000000 		.4byte	.LFB11
 4039 0014 84000000 		.4byte	.LFE11-.LFB11
 4040 0018 00000000 		.4byte	.LFB10
 4041 001c 06000000 		.4byte	.LFE10-.LFB10
 4042 0020 00000000 		.4byte	.LFB9
 4043 0024 06000000 		.4byte	.LFE9-.LFB9
 4044 0028 00000000 		.4byte	.LFB8
 4045 002c 06000000 		.4byte	.LFE8-.LFB8
 4046 0030 00000000 		.4byte	.LFB7
 4047 0034 08000000 		.4byte	.LFE7-.LFB7
 4048 0038 00000000 		.4byte	.LFB12
 4049 003c 08000000 		.4byte	.LFE12-.LFB12
 4050 0040 00000000 		.4byte	.LFB16
 4051 0044 08000000 		.4byte	.LFE16-.LFB16
 4052 0048 00000000 		.4byte	.LFB15
 4053 004c 48020000 		.4byte	.LFE15-.LFB15
 4054 0050 00000000 		.4byte	.LFB14
 4055 0054 24000000 		.4byte	.LFE14-.LFB14
 4056 0058 00000000 		.4byte	.LFB13
 4057 005c 16000000 		.4byte	.LFE13-.LFB13
 4058 0060 00000000 		.4byte	.LFB17
 4059 0064 9E000000 		.4byte	.LFE17-.LFB17
 4060 0068 00000000 		.4byte	0
 4061 006c 00000000 		.4byte	0
 4062              		.section	.debug_ranges,"",%progbits
 4063              	.Ldebug_ranges0:
 4064 0000 50000000 		.4byte	.LBB5
 4065 0004 8E000000 		.4byte	.LBE5
 4066 0008 92000000 		.4byte	.LBB6
 4067 000c 9E000000 		.4byte	.LBE6
 4068 0010 00000000 		.4byte	0
 4069 0014 00000000 		.4byte	0
 4070 0018 00000000 		.4byte	.LFB11
 4071 001c 84000000 		.4byte	.LFE11
 4072 0020 00000000 		.4byte	.LFB10
 4073 0024 06000000 		.4byte	.LFE10
 4074 0028 00000000 		.4byte	.LFB9
 4075 002c 06000000 		.4byte	.LFE9
 4076 0030 00000000 		.4byte	.LFB8
 4077 0034 06000000 		.4byte	.LFE8
 4078 0038 00000000 		.4byte	.LFB7
 4079 003c 08000000 		.4byte	.LFE7
 4080 0040 00000000 		.4byte	.LFB12
 4081 0044 08000000 		.4byte	.LFE12
 4082 0048 00000000 		.4byte	.LFB16
 4083 004c 08000000 		.4byte	.LFE16
 4084 0050 00000000 		.4byte	.LFB15
 4085 0054 48020000 		.4byte	.LFE15
 4086 0058 00000000 		.4byte	.LFB14
 4087 005c 24000000 		.4byte	.LFE14
 4088 0060 00000000 		.4byte	.LFB13
 4089 0064 16000000 		.4byte	.LFE13
 4090 0068 00000000 		.4byte	.LFB17
 4091 006c 9E000000 		.4byte	.LFE17
 4092 0070 00000000 		.4byte	0
ARM GAS  /tmp/cc8tOftm.s 			page 73


 4093 0074 00000000 		.4byte	0
 4094              		.section	.debug_line,"",%progbits
 4095              	.Ldebug_line0:
 4096 0000 63040000 		.section	.debug_str,"MS",%progbits,1
 4096      02003803 
 4096      00000201 
 4096      FB0E0D00 
 4096      01010101 
 4097              	.LASF84:
 4098 0000 7466756E 		.ascii	"tfunc_t\000"
 4098      635F7400 
 4099              	.LASF92:
 4100 0008 65767432 		.ascii	"evt2_setup\000"
 4100      5F736574 
 4100      757000
 4101              	.LASF40:
 4102 0013 705F6D73 		.ascii	"p_msg\000"
 4102      6700
 4103              	.LASF2:
 4104 0019 73697A65 		.ascii	"size_t\000"
 4104      5F7400
 4105              	.LASF79:
 4106 0020 7264796D 		.ascii	"rdymsg\000"
 4106      736700
 4107              	.LASF3:
 4108 0027 5F5F7569 		.ascii	"__uint8_t\000"
 4108      6E74385F 
 4108      7400
 4109              	.LASF99:
 4110 0031 76746C69 		.ascii	"vtlist\000"
 4110      737400
 4111              	.LASF125:
 4112 0038 474E5520 		.ascii	"GNU C 4.9.3 20150529 (release) [ARM/embedded-4_9-br"
 4112      4320342E 
 4112      392E3320 
 4112      32303135 
 4112      30353239 
 4113 006b 616E6368 		.ascii	"anch revision 227977] -mcpu=cortex-m3 -mno-thumb-in"
 4113      20726576 
 4113      6973696F 
 4113      6E203232 
 4113      37393737 
 4114 009e 74657277 		.ascii	"terwork -mthumb -ggdb -O2 -std=gnu99 -fomit-frame-p"
 4114      6F726B20 
 4114      2D6D7468 
 4114      756D6220 
 4114      2D676764 
 4115 00d1 6F696E74 		.ascii	"ointer -falign-functions=16 -ffunction-sections -fd"
 4115      6572202D 
 4115      66616C69 
 4115      676E2D66 
 4115      756E6374 
 4116 0104 6174612D 		.ascii	"ata-sections -fno-common\000"
 4116      73656374 
 4116      696F6E73 
 4116      202D666E 
 4116      6F2D636F 
ARM GAS  /tmp/cc8tOftm.s 			page 74


 4117              	.LASF12:
 4118 011d 6C6F6E67 		.ascii	"long long unsigned int\000"
 4118      206C6F6E 
 4118      6720756E 
 4118      7369676E 
 4118      65642069 
 4119              	.LASF80:
 4120 0134 65786974 		.ascii	"exitcode\000"
 4120      636F6465 
 4120      00
 4121              	.LASF123:
 4122 013d 63684576 		.ascii	"chEvtWaitAnyTimeout\000"
 4122      74576169 
 4122      74416E79 
 4122      54696D65 
 4122      6F757400 
 4123              	.LASF29:
 4124 0151 705F7072 		.ascii	"p_prio\000"
 4124      696F00
 4125              	.LASF94:
 4126 0158 65767432 		.ascii	"evt2_execute\000"
 4126      5F657865 
 4126      63757465 
 4126      00
 4127              	.LASF58:
 4128 0165 76745F73 		.ascii	"vt_systime\000"
 4128      79737469 
 4128      6D6500
 4129              	.LASF11:
 4130 0170 6C6F6E67 		.ascii	"long long int\000"
 4130      206C6F6E 
 4130      6720696E 
 4130      7400
 4131              	.LASF1:
 4132 017e 7369676E 		.ascii	"signed char\000"
 4132      65642063 
 4132      68617200 
 4133              	.LASF124:
 4134 018a 63684576 		.ascii	"chEvtWaitAllTimeout\000"
 4134      74576169 
 4134      74416C6C 
 4134      54696D65 
 4134      6F757400 
 4135              	.LASF44:
 4136 019e 705F6D70 		.ascii	"p_mpool\000"
 4136      6F6F6C00 
 4137              	.LASF16:
 4138 01a6 626F6F6C 		.ascii	"bool_t\000"
 4138      5F7400
 4139              	.LASF69:
 4140 01ad 6D5F7175 		.ascii	"m_queue\000"
 4140      65756500 
 4141              	.LASF111:
 4142 01b5 74657374 		.ascii	"test_emit_token\000"
 4142      5F656D69 
 4142      745F746F 
 4142      6B656E00 
ARM GAS  /tmp/cc8tOftm.s 			page 75


 4143              	.LASF113:
 4144 01c5 63684576 		.ascii	"chEvtAddFlags\000"
 4144      74416464 
 4144      466C6167 
 4144      7300
 4145              	.LASF8:
 4146 01d3 6C6F6E67 		.ascii	"long int\000"
 4146      20696E74 
 4146      00
 4147              	.LASF95:
 4148 01dc 74617267 		.ascii	"target_time\000"
 4148      65745F74 
 4148      696D6500 
 4149              	.LASF18:
 4150 01e8 74737461 		.ascii	"tstate_t\000"
 4150      74655F74 
 4150      00
 4151              	.LASF116:
 4152 01f1 5F746573 		.ascii	"_test_assert_time_window\000"
 4152      745F6173 
 4152      73657274 
 4152      5F74696D 
 4152      655F7769 
 4153              	.LASF103:
 4154 020a 74657374 		.ascii	"testevt2\000"
 4154      65767432 
 4154      00
 4155              	.LASF117:
 4156 0213 63684576 		.ascii	"chEvtWaitAny\000"
 4156      74576169 
 4156      74416E79 
 4156      00
 4157              	.LASF104:
 4158 0220 74657374 		.ascii	"testevt3\000"
 4158      65767433 
 4158      00
 4159              	.LASF31:
 4160 0229 705F6E65 		.ascii	"p_newer\000"
 4160      77657200 
 4161              	.LASF9:
 4162 0231 5F5F7569 		.ascii	"__uint32_t\000"
 4162      6E743332 
 4162      5F7400
 4163              	.LASF47:
 4164 023c 72656761 		.ascii	"regarm_t\000"
 4164      726D5F74 
 4164      00
 4165              	.LASF54:
 4166 0245 76745F70 		.ascii	"vt_prev\000"
 4166      72657600 
 4167              	.LASF119:
 4168 024d 63684576 		.ascii	"chEvtBroadcastFlags\000"
 4168      7442726F 
 4168      61646361 
 4168      7374466C 
 4168      61677300 
 4169              	.LASF22:
ARM GAS  /tmp/cc8tOftm.s 			page 76


 4170 0261 6576656E 		.ascii	"eventid_t\000"
 4170      7469645F 
 4170      7400
 4171              	.LASF76:
 4172 026b 4576656E 		.ascii	"EventSource\000"
 4172      74536F75 
 4172      72636500 
 4173              	.LASF78:
 4174 0277 65766861 		.ascii	"evhandler_t\000"
 4174      6E646C65 
 4174      725F7400 
 4175              	.LASF25:
 4176 0283 636E745F 		.ascii	"cnt_t\000"
 4176      7400
 4177              	.LASF121:
 4178 0289 63684576 		.ascii	"chEvtSignalFlags\000"
 4178      74536967 
 4178      6E616C46 
 4178      6C616773 
 4178      00
 4179              	.LASF0:
 4180 029a 756E7369 		.ascii	"unsigned int\000"
 4180      676E6564 
 4180      20696E74 
 4180      00
 4181              	.LASF53:
 4182 02a7 76745F6E 		.ascii	"vt_next\000"
 4182      65787400 
 4183              	.LASF10:
 4184 02af 6C6F6E67 		.ascii	"long unsigned int\000"
 4184      20756E73 
 4184      69676E65 
 4184      6420696E 
 4184      7400
 4185              	.LASF88:
 4186 02c1 74656172 		.ascii	"teardown\000"
 4186      646F776E 
 4186      00
 4187              	.LASF105:
 4188 02ca 70617474 		.ascii	"patternevt\000"
 4188      65726E65 
 4188      767400
 4189              	.LASF51:
 4190 02d5 76746675 		.ascii	"vtfunc_t\000"
 4190      6E635F74 
 4190      00
 4191              	.LASF86:
 4192 02de 6E616D65 		.ascii	"name\000"
 4192      00
 4193              	.LASF49:
 4194 02e3 636F6E74 		.ascii	"context\000"
 4194      65787400 
 4195              	.LASF6:
 4196 02eb 73686F72 		.ascii	"short unsigned int\000"
 4196      7420756E 
 4196      7369676E 
 4196      65642069 
ARM GAS  /tmp/cc8tOftm.s 			page 77


 4196      6E7400
 4197              	.LASF106:
 4198 02fe 63684576 		.ascii	"chEvtRegisterMask\000"
 4198      74526567 
 4198      69737465 
 4198      724D6173 
 4198      6B00
 4199              	.LASF21:
 4200 0310 6D73675F 		.ascii	"msg_t\000"
 4200      7400
 4201              	.LASF63:
 4202 0316 725F6E65 		.ascii	"r_newer\000"
 4202      77657200 
 4203              	.LASF73:
 4204 031e 656C5F6E 		.ascii	"el_next\000"
 4204      65787400 
 4205              	.LASF107:
 4206 0326 63684576 		.ascii	"chEvtUnregister\000"
 4206      74556E72 
 4206      65676973 
 4206      74657200 
 4207              	.LASF17:
 4208 0336 746D6F64 		.ascii	"tmode_t\000"
 4208      655F7400 
 4209              	.LASF46:
 4210 033e 54687265 		.ascii	"ThreadsList\000"
 4210      6164734C 
 4210      69737400 
 4211              	.LASF23:
 4212 034a 6576656E 		.ascii	"eventmask_t\000"
 4212      746D6173 
 4212      6B5F7400 
 4213              	.LASF68:
 4214 0356 4D757465 		.ascii	"Mutex\000"
 4214      7800
 4215              	.LASF115:
 4216 035c 63685468 		.ascii	"chThdCreateStatic\000"
 4216      64437265 
 4216      61746553 
 4216      74617469 
 4216      6300
 4217              	.LASF55:
 4218 036e 76745F74 		.ascii	"vt_time\000"
 4218      696D6500 
 4219              	.LASF91:
 4220 0376 65767431 		.ascii	"evt1_setup\000"
 4220      5F736574 
 4220      757000
 4221              	.LASF50:
 4222 0381 73697A65 		.ascii	"sizetype\000"
 4222      74797065 
 4222      00
 4223              	.LASF56:
 4224 038a 76745F66 		.ascii	"vt_func\000"
 4224      756E6300 
 4225              	.LASF108:
 4226 0392 63684576 		.ascii	"chEvtDispatch\000"
ARM GAS  /tmp/cc8tOftm.s 			page 78


 4226      74446973 
 4226      70617463 
 4226      6800
 4227              	.LASF93:
 4228 03a0 65767433 		.ascii	"evt3_setup\000"
 4228      5F736574 
 4228      757000
 4229              	.LASF129:
 4230 03ab 74657374 		.ascii	"test_wait_threads\000"
 4230      5F776169 
 4230      745F7468 
 4230      72656164 
 4230      7300
 4231              	.LASF32:
 4232 03bd 705F6F6C 		.ascii	"p_older\000"
 4232      64657200 
 4233              	.LASF97:
 4234 03c5 74687265 		.ascii	"thread1\000"
 4234      61643100 
 4235              	.LASF96:
 4236 03cd 74687265 		.ascii	"thread2\000"
 4236      61643200 
 4237              	.LASF62:
 4238 03d5 725F6374 		.ascii	"r_ctx\000"
 4238      7800
 4239              	.LASF45:
 4240 03db 54687265 		.ascii	"ThreadsQueue\000"
 4240      61647351 
 4240      75657565 
 4240      00
 4241              	.LASF87:
 4242 03e8 73657475 		.ascii	"setup\000"
 4242      7000
 4243              	.LASF110:
 4244 03ee 5F746573 		.ascii	"_test_assert_sequence\000"
 4244      745F6173 
 4244      73657274 
 4244      5F736571 
 4244      75656E63 
 4245              	.LASF118:
 4246 0404 63684576 		.ascii	"chEvtWaitAll\000"
 4246      74576169 
 4246      74416C6C 
 4246      00
 4247              	.LASF66:
 4248 0411 725F6375 		.ascii	"r_current\000"
 4248      7272656E 
 4248      7400
 4249              	.LASF64:
 4250 041b 725F6F6C 		.ascii	"r_older\000"
 4250      64657200 
 4251              	.LASF75:
 4252 0423 656C5F6D 		.ascii	"el_mask\000"
 4252      61736B00 
 4253              	.LASF19:
 4254 042b 74726566 		.ascii	"trefs_t\000"
 4254      735F7400 
ARM GAS  /tmp/cc8tOftm.s 			page 79


 4255              	.LASF28:
 4256 0433 705F7072 		.ascii	"p_prev\000"
 4256      657600
 4257              	.LASF89:
 4258 043a 65786563 		.ascii	"execute\000"
 4258      75746500 
 4259              	.LASF20:
 4260 0442 74707269 		.ascii	"tprio_t\000"
 4260      6F5F7400 
 4261              	.LASF112:
 4262 044a 63684576 		.ascii	"chEvtClearFlags\000"
 4262      74436C65 
 4262      6172466C 
 4262      61677300 
 4263              	.LASF14:
 4264 045a 696E7433 		.ascii	"int32_t\000"
 4264      325F7400 
 4265              	.LASF4:
 4266 0462 756E7369 		.ascii	"unsigned char\000"
 4266      676E6564 
 4266      20636861 
 4266      7200
 4267              	.LASF114:
 4268 0470 63684576 		.ascii	"chEvtWaitOne\000"
 4268      74576169 
 4268      744F6E65 
 4268      00
 4269              	.LASF74:
 4270 047d 656C5F6C 		.ascii	"el_listener\000"
 4270      69737465 
 4270      6E657200 
 4271              	.LASF127:
 4272 0489 65767433 		.ascii	"evt3_execute\000"
 4272      5F657865 
 4272      63757465 
 4272      00
 4273              	.LASF42:
 4274 0496 705F6D74 		.ascii	"p_mtxlist\000"
 4274      786C6973 
 4274      7400
 4275              	.LASF5:
 4276 04a0 73686F72 		.ascii	"short int\000"
 4276      7420696E 
 4276      7400
 4277              	.LASF34:
 4278 04aa 705F7374 		.ascii	"p_state\000"
 4278      61746500 
 4279              	.LASF101:
 4280 04b2 74687265 		.ascii	"threads\000"
 4280      61647300 
 4281              	.LASF61:
 4282 04ba 725F7072 		.ascii	"r_prio\000"
 4282      696F00
 4283              	.LASF82:
 4284 04c1 65776D61 		.ascii	"ewmask\000"
 4284      736B00
 4285              	.LASF27:
ARM GAS  /tmp/cc8tOftm.s 			page 80


 4286 04c8 705F6E65 		.ascii	"p_next\000"
 4286      787400
 4287              	.LASF35:
 4288 04cf 705F666C 		.ascii	"p_flags\000"
 4288      61677300 
 4289              	.LASF26:
 4290 04d7 54687265 		.ascii	"Thread\000"
 4290      616400
 4291              	.LASF85:
 4292 04de 74657374 		.ascii	"testcase\000"
 4292      63617365 
 4292      00
 4293              	.LASF41:
 4294 04e7 705F6570 		.ascii	"p_epending\000"
 4294      656E6469 
 4294      6E6700
 4295              	.LASF102:
 4296 04f2 74657374 		.ascii	"testevt1\000"
 4296      65767431 
 4296      00
 4297              	.LASF98:
 4298 04fb 6576686E 		.ascii	"evhndl\000"
 4298      646C00
 4299              	.LASF15:
 4300 0502 75696E74 		.ascii	"uint32_t\000"
 4300      33325F74 
 4300      00
 4301              	.LASF60:
 4302 050b 725F7175 		.ascii	"r_queue\000"
 4302      65756500 
 4303              	.LASF52:
 4304 0513 56697274 		.ascii	"VirtualTimer\000"
 4304      75616C54 
 4304      696D6572 
 4304      00
 4305              	.LASF83:
 4306 0520 63686172 		.ascii	"char\000"
 4306      00
 4307              	.LASF71:
 4308 0525 6D5F6E65 		.ascii	"m_next\000"
 4308      787400
 4309              	.LASF24:
 4310 052c 73797374 		.ascii	"systime_t\000"
 4310      696D655F 
 4310      7400
 4311              	.LASF43:
 4312 0536 705F7265 		.ascii	"p_realprio\000"
 4312      616C7072 
 4312      696F00
 4313              	.LASF7:
 4314 0541 5F5F696E 		.ascii	"__int32_t\000"
 4314      7433325F 
 4314      7400
 4315              	.LASF37:
 4316 054b 705F7469 		.ascii	"p_time\000"
 4316      6D6500
 4317              	.LASF48:
ARM GAS  /tmp/cc8tOftm.s 			page 81


 4318 0552 696E7463 		.ascii	"intctx\000"
 4318      747800
 4319              	.LASF39:
 4320 0559 705F6D73 		.ascii	"p_msgqueue\000"
 4320      67717565 
 4320      756500
 4321              	.LASF57:
 4322 0564 76745F70 		.ascii	"vt_par\000"
 4322      617200
 4323              	.LASF120:
 4324 056b 63685468 		.ascii	"chThdSleep\000"
 4324      64536C65 
 4324      657000
 4325              	.LASF36:
 4326 0576 705F7265 		.ascii	"p_refs\000"
 4326      667300
 4327              	.LASF67:
 4328 057d 52656164 		.ascii	"ReadyList\000"
 4328      794C6973 
 4328      7400
 4329              	.LASF100:
 4330 0587 726C6973 		.ascii	"rlist\000"
 4330      7400
 4331              	.LASF13:
 4332 058d 75696E74 		.ascii	"uint8_t\000"
 4332      385F7400 
 4333              	.LASF72:
 4334 0595 4576656E 		.ascii	"EventListener\000"
 4334      744C6973 
 4334      74656E65 
 4334      7200
 4335              	.LASF122:
 4336 05a3 63684576 		.ascii	"chEvtWaitOneTimeout\000"
 4336      74576169 
 4336      744F6E65 
 4336      54696D65 
 4336      6F757400 
 4337              	.LASF81:
 4338 05b7 77746F62 		.ascii	"wtobjp\000"
 4338      6A7000
 4339              	.LASF33:
 4340 05be 705F6E61 		.ascii	"p_name\000"
 4340      6D6500
 4341              	.LASF109:
 4342 05c5 5F746573 		.ascii	"_test_assert\000"
 4342      745F6173 
 4342      73657274 
 4342      00
 4343              	.LASF126:
 4344 05d2 2F686F6D 		.ascii	"/home/leoperez/Documents/acuerol-stamp_repo-9ea9911"
 4344      652F6C65 
 4344      6F706572 
 4344      657A2F44 
 4344      6F63756D 
 4345 0605 35616138 		.ascii	"5aa86/files/code/ext/ChibiOS/test/testevt.c\000"
 4345      362F6669 
 4345      6C65732F 
ARM GAS  /tmp/cc8tOftm.s 			page 82


 4345      636F6465 
 4345      2F657874 
 4346              	.LASF77:
 4347 0631 65735F6E 		.ascii	"es_next\000"
 4347      65787400 
 4348              	.LASF59:
 4349 0639 56544C69 		.ascii	"VTList\000"
 4349      737400
 4350              	.LASF65:
 4351 0640 725F7072 		.ascii	"r_preempt\000"
 4351      65656D70 
 4351      7400
 4352              	.LASF70:
 4353 064a 6D5F6F77 		.ascii	"m_owner\000"
 4353      6E657200 
 4354              	.LASF128:
 4355 0652 74657374 		.ascii	"test_wait_tick\000"
 4355      5F776169 
 4355      745F7469 
 4355      636B00
 4356              	.LASF90:
 4357 0661 65767431 		.ascii	"evt1_execute\000"
 4357      5F657865 
 4357      63757465 
 4357      00
 4358              	.LASF30:
 4359 066e 705F6374 		.ascii	"p_ctx\000"
 4359      7800
 4360              	.LASF38:
 4361 0674 705F7761 		.ascii	"p_waiting\000"
 4361      6974696E 
 4361      6700
 4362              		.ident	"GCC: (GNU Tools for ARM Embedded Processors) 4.9.3 20150529 (release) [ARM/embedded-4_9-br
ARM GAS  /tmp/cc8tOftm.s 			page 83


DEFINED SYMBOLS
                            *ABS*:00000000 testevt.c
     /tmp/cc8tOftm.s:19     .text.evt1_execute:00000000 $t
     /tmp/cc8tOftm.s:24     .text.evt1_execute:00000000 evt1_execute
     /tmp/cc8tOftm.s:117    .text.evt1_execute:00000078 $d
     /tmp/cc8tOftm.s:124    .text.h3:00000000 $t
     /tmp/cc8tOftm.s:129    .text.h3:00000000 h3
     /tmp/cc8tOftm.s:146    .text.h2:00000000 $t
     /tmp/cc8tOftm.s:151    .text.h2:00000000 h2
     /tmp/cc8tOftm.s:168    .text.h1:00000000 $t
     /tmp/cc8tOftm.s:173    .text.h1:00000000 h1
     /tmp/cc8tOftm.s:190    .text.evt1_setup:00000000 $t
     /tmp/cc8tOftm.s:195    .text.evt1_setup:00000000 evt1_setup
     /tmp/cc8tOftm.s:210    .text.evt2_setup:00000000 $t
     /tmp/cc8tOftm.s:215    .text.evt2_setup:00000000 evt2_setup
     /tmp/cc8tOftm.s:230    .text.evt3_setup:00000000 $t
     /tmp/cc8tOftm.s:235    .text.evt3_setup:00000000 evt3_setup
     /tmp/cc8tOftm.s:250    .text.evt2_execute:00000000 $t
     /tmp/cc8tOftm.s:255    .text.evt2_execute:00000000 evt2_execute
     /tmp/cc8tOftm.s:591    .text.evt2_execute:00000224 $d
     /tmp/cc8tOftm.s:652    .text.thread1:00000000 thread1
     /tmp/cc8tOftm.s:609    .text.thread2:00000000 thread2
     /tmp/cc8tOftm.s:604    .text.thread2:00000000 $t
     /tmp/cc8tOftm.s:641    .text.thread2:0000001c $d
     /tmp/cc8tOftm.s:647    .text.thread1:00000000 $t
     /tmp/cc8tOftm.s:682    .text.evt3_execute:00000000 $t
     /tmp/cc8tOftm.s:687    .text.evt3_execute:00000000 evt3_execute
     /tmp/cc8tOftm.s:805    .rodata.patternevt:00000000 patternevt
     /tmp/cc8tOftm.s:856    .rodata.testevt3:00000000 testevt3
     /tmp/cc8tOftm.s:814    .rodata.testevt2:00000000 testevt2
     /tmp/cc8tOftm.s:838    .rodata.testevt1:00000000 testevt1
     /tmp/cc8tOftm.s:802    .rodata.patternevt:00000000 $d
     /tmp/cc8tOftm.s:811    .rodata.testevt2:00000000 $d
     /tmp/cc8tOftm.s:820    .rodata.str1.4:00000000 $d
     /tmp/cc8tOftm.s:835    .rodata.testevt1:00000000 $d
     /tmp/cc8tOftm.s:844    .rodata.evhndl:00000000 $d
     /tmp/cc8tOftm.s:848    .rodata.evhndl:00000000 evhndl
     /tmp/cc8tOftm.s:853    .rodata.testevt3:00000000 $d
     /tmp/cc8tOftm.s:862    .data.es1:00000000 $d
     /tmp/cc8tOftm.s:866    .data.es1:00000000 es1
     /tmp/cc8tOftm.s:869    .data.es2:00000000 $d
     /tmp/cc8tOftm.s:873    .data.es2:00000000 es2
                     .debug_frame:00000010 $d

UNDEFINED SYMBOLS
chEvtRegisterMask
_test_assert
chEvtUnregister
chEvtDispatch
_test_assert_sequence
test_emit_token
chEvtClearFlags
chEvtAddFlags
chEvtWaitOne
test_wait_tick
chThdCreateStatic
_test_assert_time_window
ARM GAS  /tmp/cc8tOftm.s 			page 84


test_wait_threads
chEvtWaitAny
chEvtWaitAll
rlist
wa
vtlist
threads
chEvtBroadcastFlags
chThdSleep
chEvtSignalFlags
chEvtWaitOneTimeout
chEvtWaitAnyTimeout
chEvtWaitAllTimeout
