ARM GAS  /tmp/ccxqeeXh.s 			page 1


   1              		.syntax unified
   2              		.cpu cortex-m3
   3              		.fpu softvfp
   4              		.eabi_attribute 20, 1
   5              		.eabi_attribute 21, 1
   6              		.eabi_attribute 23, 3
   7              		.eabi_attribute 24, 1
   8              		.eabi_attribute 25, 1
   9              		.eabi_attribute 26, 1
  10              		.eabi_attribute 30, 2
  11              		.eabi_attribute 34, 1
  12              		.eabi_attribute 18, 4
  13              		.thumb
  14              		.file	"testqueues.c"
  15              		.text
  16              	.Ltext0:
  17              		.cfi_sections	.debug_frame
  18              		.section	.text.notify,"ax",%progbits
  19              		.align	2
  20              		.p2align 4,,15
  21              		.thumb
  22              		.thumb_func
  23              		.type	notify, %function
  24              	notify:
  25              	.LFB7:
  26              		.file 1 "/home/nicolas/Desktop/Embebidos/stamp_repo/files/code/ext/ChibiOS/test/testqueues.c"
  27              		.loc 1 68 0
  28              		.cfi_startproc
  29              		@ args = 0, pretend = 0, frame = 0
  30              		@ frame_needed = 0, uses_anonymous_args = 0
  31              		@ link register save eliminated.
  32              	.LVL0:
  33 0000 7047     		bx	lr
  34              		.cfi_endproc
  35              	.LFE7:
  36              		.size	notify, .-notify
  37 0002 00BF     		.section	.text.thread1,"ax",%progbits
  38              		.align	2
  39              		.p2align 4,,15
  40              		.thumb
  41              		.thumb_func
  42              		.type	thread1, %function
  43              	thread1:
  44              	.LFB9:
  45              		.loc 1 94 0
  46              		.cfi_startproc
  47              		@ args = 0, pretend = 0, frame = 0
  48              		@ frame_needed = 0, uses_anonymous_args = 0
  49              	.LVL1:
  50              		.loc 1 94 0
  51 0000 08B5     		push	{r3, lr}
  52              		.cfi_def_cfa_offset 8
  53              		.cfi_offset 3, -8
  54              		.cfi_offset 14, -4
  55              		.loc 1 97 0
  56 0002 C821     		movs	r1, #200
  57 0004 0248     		ldr	r0, .L4
ARM GAS  /tmp/ccxqeeXh.s 			page 2


  58              	.LVL2:
  59 0006 FFF7FEFF 		bl	chIQGetTimeout
  60              	.LVL3:
  61              		.loc 1 99 0
  62 000a 0020     		movs	r0, #0
  63 000c 08BD     		pop	{r3, pc}
  64              	.L5:
  65 000e 00BF     		.align	2
  66              	.L4:
  67 0010 00000000 		.word	.LANCHOR0
  68              		.cfi_endproc
  69              	.LFE9:
  70              		.size	thread1, .-thread1
  71              		.section	.text.queues1_setup,"ax",%progbits
  72              		.align	2
  73              		.p2align 4,,15
  74              		.thumb
  75              		.thumb_func
  76              		.type	queues1_setup, %function
  77              	queues1_setup:
  78              	.LFB8:
  79              		.loc 1 89 0
  80              		.cfi_startproc
  81              		@ args = 0, pretend = 0, frame = 0
  82              		@ frame_needed = 0, uses_anonymous_args = 0
  83              		@ link register save eliminated.
  84              		.loc 1 91 0
  85 0000 034B     		ldr	r3, .L7
  86 0002 0448     		ldr	r0, .L7+4
  87 0004 1968     		ldr	r1, [r3]
  88 0006 0422     		movs	r2, #4
  89 0008 034B     		ldr	r3, .L7+8
  90 000a FFF7FEBF 		b	chIQInit
  91              	.LVL4:
  92              	.L8:
  93 000e 00BF     		.align	2
  94              	.L7:
  95 0010 00000000 		.word	wa
  96 0014 00000000 		.word	.LANCHOR0
  97 0018 00000000 		.word	notify
  98              		.cfi_endproc
  99              	.LFE8:
 100              		.size	queues1_setup, .-queues1_setup
 101              		.section	.text.thread2,"ax",%progbits
 102              		.align	2
 103              		.p2align 4,,15
 104              		.thumb
 105              		.thumb_func
 106              		.type	thread2, %function
 107              	thread2:
 108              	.LFB12:
 109              		.loc 1 181 0
 110              		.cfi_startproc
 111              		@ args = 0, pretend = 0, frame = 0
 112              		@ frame_needed = 0, uses_anonymous_args = 0
 113              	.LVL5:
 114 0000 08B5     		push	{r3, lr}
ARM GAS  /tmp/ccxqeeXh.s 			page 3


 115              		.cfi_def_cfa_offset 8
 116              		.cfi_offset 3, -8
 117              		.cfi_offset 14, -4
 118              		.loc 1 184 0
 119 0002 0021     		movs	r1, #0
 120 0004 C822     		movs	r2, #200
 121 0006 0248     		ldr	r0, .L11
 122              	.LVL6:
 123 0008 FFF7FEFF 		bl	chOQPutTimeout
 124              	.LVL7:
 125              		.loc 1 186 0
 126 000c 0020     		movs	r0, #0
 127 000e 08BD     		pop	{r3, pc}
 128              	.L12:
 129              		.align	2
 130              	.L11:
 131 0010 00000000 		.word	.LANCHOR1
 132              		.cfi_endproc
 133              	.LFE12:
 134              		.size	thread2, .-thread2
 135              		.section	.text.queues2_setup,"ax",%progbits
 136              		.align	2
 137              		.p2align 4,,15
 138              		.thumb
 139              		.thumb_func
 140              		.type	queues2_setup, %function
 141              	queues2_setup:
 142              	.LFB11:
 143              		.loc 1 176 0
 144              		.cfi_startproc
 145              		@ args = 0, pretend = 0, frame = 0
 146              		@ frame_needed = 0, uses_anonymous_args = 0
 147              		@ link register save eliminated.
 148              		.loc 1 178 0
 149 0000 034B     		ldr	r3, .L14
 150 0002 0448     		ldr	r0, .L14+4
 151 0004 1968     		ldr	r1, [r3]
 152 0006 0422     		movs	r2, #4
 153 0008 034B     		ldr	r3, .L14+8
 154 000a FFF7FEBF 		b	chOQInit
 155              	.LVL8:
 156              	.L15:
 157 000e 00BF     		.align	2
 158              	.L14:
 159 0010 00000000 		.word	wa
 160 0014 00000000 		.word	.LANCHOR1
 161 0018 00000000 		.word	notify
 162              		.cfi_endproc
 163              	.LFE11:
 164              		.size	queues2_setup, .-queues2_setup
 165              		.section	.text.queues1_execute,"ax",%progbits
 166              		.align	2
 167              		.p2align 4,,15
 168              		.thumb
 169              		.thumb_func
 170              		.type	queues1_execute, %function
 171              	queues1_execute:
ARM GAS  /tmp/ccxqeeXh.s 			page 4


 172              	.LFB10:
 173              		.loc 1 101 0
 174              		.cfi_startproc
 175              		@ args = 0, pretend = 0, frame = 0
 176              		@ frame_needed = 0, uses_anonymous_args = 0
 177 0000 F0B5     		push	{r4, r5, r6, r7, lr}
 178              		.cfi_def_cfa_offset 20
 179              		.cfi_offset 4, -20
 180              		.cfi_offset 5, -16
 181              		.cfi_offset 6, -12
 182              		.cfi_offset 7, -8
 183              		.cfi_offset 14, -4
 184              	.LBB99:
 185              		.loc 1 106 0
 186 0002 2023     		movs	r3, #32
 187              	.LBE99:
 188              		.loc 1 101 0
 189 0004 83B0     		sub	sp, sp, #12
 190              		.cfi_def_cfa_offset 32
 191              	.LBB100:
 192              		.loc 1 106 0
 193              	@ 106 "/home/nicolas/Desktop/Embebidos/stamp_repo/files/code/ext/ChibiOS/test/testqueues.c" 1
 194 0006 83F31188 		msr     BASEPRI, r3
 195              	@ 0 "" 2
 196              		.thumb
 197              	.LBE100:
 198 000a 974B     		ldr	r3, .L47
 199 000c 0120     		movs	r0, #1
 200 000e 9968     		ldr	r1, [r3, #8]
 201 0010 B1FA81F1 		clz	r1, r1
 202 0014 4909     		lsrs	r1, r1, #5
 203 0016 FFF7FEFF 		bl	_test_assert
 204              	.LVL9:
 205 001a F8B9     		cbnz	r0, .L40
 206              	.LBB101:
 207              	.LBB102:
 208              	.LBB103:
 209 001c 0346     		mov	r3, r0
 210              	@ 106 "/home/nicolas/Desktop/Embebidos/stamp_repo/files/code/ext/ChibiOS/test/testqueues.c" 1
 211 001e 83F31188 		msr     BASEPRI, r3
 212              	@ 0 "" 2
 213              		.thumb
 214              	.LBE103:
 215              	.LBB104:
 216              		.loc 1 109 0
 217 0022 2023     		movs	r3, #32
 218              	@ 109 "/home/nicolas/Desktop/Embebidos/stamp_repo/files/code/ext/ChibiOS/test/testqueues.c" 1
 219 0024 83F31188 		msr     BASEPRI, r3
 220              	@ 0 "" 2
 221              	.LVL10:
 222              		.thumb
 223 0028 4124     		movs	r4, #65
 224              	.LVL11:
 225              	.L19:
 226              	.LBE104:
 227              		.loc 1 111 0
 228 002a 8F4D     		ldr	r5, .L47
ARM GAS  /tmp/ccxqeeXh.s 			page 5


 229 002c 2146     		mov	r1, r4
 230 002e 0134     		adds	r4, r4, #1
 231 0030 2846     		mov	r0, r5
 232 0032 E4B2     		uxtb	r4, r4
 233 0034 FFF7FEFF 		bl	chIQPutI
 234              	.LVL12:
 235              		.loc 1 110 0
 236 0038 452C     		cmp	r4, #69
 237 003a F6D1     		bne	.L19
 238              	.LBB105:
 239              		.loc 1 112 0
 240 003c 0023     		movs	r3, #0
 241              	@ 112 "/home/nicolas/Desktop/Embebidos/stamp_repo/files/code/ext/ChibiOS/test/testqueues.c" 1
 242 003e 83F31188 		msr     BASEPRI, r3
 243              	@ 0 "" 2
 244              		.thumb
 245              	.LBE105:
 246              	.LBB106:
 247              		.loc 1 113 0
 248 0042 2023     		movs	r3, #32
 249              	@ 113 "/home/nicolas/Desktop/Embebidos/stamp_repo/files/code/ext/ChibiOS/test/testqueues.c" 1
 250 0044 83F31188 		msr     BASEPRI, r3
 251              	@ 0 "" 2
 252              		.thumb
 253              	.LBE106:
 254 0048 6A69     		ldr	r2, [r5, #20]
 255 004a AB69     		ldr	r3, [r5, #24]
 256 004c 9A42     		cmp	r2, r3
 257 004e 3DD0     		beq	.L44
 258 0050 0021     		movs	r1, #0
 259              	.L20:
 260 0052 0220     		movs	r0, #2
 261 0054 FFF7FEFF 		bl	_test_assert
 262              	.LVL13:
 263 0058 0446     		mov	r4, r0
 264 005a 20B1     		cbz	r0, .L21
 265              	.L40:
 266              	.LBB107:
 267 005c 0023     		movs	r3, #0
 268              	@ 113 "/home/nicolas/Desktop/Embebidos/stamp_repo/files/code/ext/ChibiOS/test/testqueues.c" 1
 269 005e 83F31188 		msr     BASEPRI, r3
 270              	@ 0 "" 2
 271              		.thumb
 272              	.L16:
 273              	.LBE107:
 274              	.LBE102:
 275              	.LBE101:
 276              		.loc 1 158 0
 277 0062 03B0     		add	sp, sp, #12
 278              		.cfi_remember_state
 279              		.cfi_def_cfa_offset 20
 280              		@ sp needed
 281 0064 F0BD     		pop	{r4, r5, r6, r7, pc}
 282              	.L21:
 283              		.cfi_restore_state
 284              	.LBB135:
 285              	.LBB132:
ARM GAS  /tmp/ccxqeeXh.s 			page 6


 286              	.LBB108:
 287              		.loc 1 113 0
 288 0066 0346     		mov	r3, r0
 289              	@ 113 "/home/nicolas/Desktop/Embebidos/stamp_repo/files/code/ext/ChibiOS/test/testqueues.c" 1
 290 0068 83F31188 		msr     BASEPRI, r3
 291              	@ 0 "" 2
 292              		.thumb
 293              	.LBE108:
 294              	.LBB109:
 295              		.loc 1 114 0
 296 006c 2023     		movs	r3, #32
 297              	@ 114 "/home/nicolas/Desktop/Embebidos/stamp_repo/files/code/ext/ChibiOS/test/testqueues.c" 1
 298 006e 83F31188 		msr     BASEPRI, r3
 299              	@ 0 "" 2
 300              		.thumb
 301              	.LBE109:
 302 0072 7D48     		ldr	r0, .L47
 303 0074 2146     		mov	r1, r4
 304 0076 FFF7FEFF 		bl	chIQPutI
 305              	.LVL14:
 306 007a 0430     		adds	r0, r0, #4
 307 007c 14BF     		ite	ne
 308 007e 0021     		movne	r1, #0
 309 0080 0121     		moveq	r1, #1
 310 0082 0320     		movs	r0, #3
 311 0084 FFF7FEFF 		bl	_test_assert
 312              	.LVL15:
 313 0088 F0B9     		cbnz	r0, .L41
 314              	.LBB110:
 315 008a 0346     		mov	r3, r0
 316              	@ 114 "/home/nicolas/Desktop/Embebidos/stamp_repo/files/code/ext/ChibiOS/test/testqueues.c" 1
 317 008c 83F31188 		msr     BASEPRI, r3
 318              	@ 0 "" 2
 319              	.LVL16:
 320              		.thumb
 321 0090 0424     		movs	r4, #4
 322              	.LVL17:
 323              	.L23:
 324              	.LBE110:
 325              		.loc 1 118 0
 326 0092 754D     		ldr	r5, .L47
 327 0094 4FF0FF31 		mov	r1, #-1
 328 0098 2846     		mov	r0, r5
 329 009a FFF7FEFF 		bl	chIQGetTimeout
 330              	.LVL18:
 331 009e C0B2     		uxtb	r0, r0
 332 00a0 FFF7FEFF 		bl	test_emit_token
 333              	.LVL19:
 334              		.loc 1 117 0
 335 00a4 013C     		subs	r4, r4, #1
 336              	.LVL20:
 337 00a6 F4D1     		bne	.L23
 338              	.LBB111:
 339              		.loc 1 119 0
 340 00a8 2023     		movs	r3, #32
 341              	@ 119 "/home/nicolas/Desktop/Embebidos/stamp_repo/files/code/ext/ChibiOS/test/testqueues.c" 1
 342 00aa 83F31188 		msr     BASEPRI, r3
ARM GAS  /tmp/ccxqeeXh.s 			page 7


 343              	@ 0 "" 2
 344              		.thumb
 345              	.LBE111:
 346 00ae A968     		ldr	r1, [r5, #8]
 347 00b0 0420     		movs	r0, #4
 348 00b2 B1FA81F1 		clz	r1, r1
 349 00b6 4909     		lsrs	r1, r1, #5
 350 00b8 FFF7FEFF 		bl	_test_assert
 351              	.LVL21:
 352              	.LBB112:
 353 00bc 2346     		mov	r3, r4
 354              	.LBE112:
 355 00be 50B1     		cbz	r0, .L45
 356              	.LVL22:
 357              	.L42:
 358              	.LBB113:
 359              		.loc 1 151 0
 360              	@ 151 "/home/nicolas/Desktop/Embebidos/stamp_repo/files/code/ext/ChibiOS/test/testqueues.c" 1
 361 00c0 83F31188 		msr     BASEPRI, r3
 362              	@ 0 "" 2
 363              		.thumb
 364              	.LBE113:
 365              	.LBE132:
 366              	.LBE135:
 367              		.loc 1 158 0
 368 00c4 03B0     		add	sp, sp, #12
 369              		.cfi_remember_state
 370              		.cfi_def_cfa_offset 20
 371              		@ sp needed
 372 00c6 F0BD     		pop	{r4, r5, r6, r7, pc}
 373              	.L41:
 374              		.cfi_restore_state
 375              	.LBB136:
 376              	.LBB133:
 377              	.LBB114:
 378              		.loc 1 151 0
 379 00c8 2346     		mov	r3, r4
 380 00ca F9E7     		b	.L42
 381              	.L44:
 382              	.LBE114:
 383              		.loc 1 113 0
 384 00cc A968     		ldr	r1, [r5, #8]
 385 00ce 0031     		adds	r1, r1, #0
 386 00d0 18BF     		it	ne
 387 00d2 0121     		movne	r1, #1
 388 00d4 BDE7     		b	.L20
 389              	.LVL23:
 390              	.L45:
 391              	.LBB115:
 392              		.loc 1 119 0
 393              	@ 119 "/home/nicolas/Desktop/Embebidos/stamp_repo/files/code/ext/ChibiOS/test/testqueues.c" 1
 394 00d6 83F31188 		msr     BASEPRI, r3
 395              	@ 0 "" 2
 396              		.thumb
 397              	.LBE115:
 398              		.loc 1 120 0
 399 00da 0520     		movs	r0, #5
ARM GAS  /tmp/ccxqeeXh.s 			page 8


 400 00dc 6349     		ldr	r1, .L47+4
 401 00de FFF7FEFF 		bl	_test_assert_sequence
 402              	.LVL24:
 403 00e2 0028     		cmp	r0, #0
 404 00e4 BDD1     		bne	.L16
 405              	.LBB116:
 406              		.loc 1 123 0
 407 00e6 2023     		movs	r3, #32
 408              	@ 123 "/home/nicolas/Desktop/Embebidos/stamp_repo/files/code/ext/ChibiOS/test/testqueues.c" 1
 409 00e8 83F31188 		msr     BASEPRI, r3
 410              	@ 0 "" 2
 411              	.LVL25:
 412              		.thumb
 413 00ec 4124     		movs	r4, #65
 414              	.LVL26:
 415              	.L26:
 416              	.LBE116:
 417              		.loc 1 125 0
 418 00ee 5E4D     		ldr	r5, .L47
 419 00f0 2146     		mov	r1, r4
 420 00f2 0134     		adds	r4, r4, #1
 421 00f4 2846     		mov	r0, r5
 422 00f6 E4B2     		uxtb	r4, r4
 423 00f8 FFF7FEFF 		bl	chIQPutI
 424              	.LVL27:
 425              		.loc 1 124 0
 426 00fc 452C     		cmp	r4, #69
 427 00fe F6D1     		bne	.L26
 428              	.LBB117:
 429              		.loc 1 126 0
 430 0100 0023     		movs	r3, #0
 431              	@ 126 "/home/nicolas/Desktop/Embebidos/stamp_repo/files/code/ext/ChibiOS/test/testqueues.c" 1
 432 0102 83F31188 		msr     BASEPRI, r3
 433              	@ 0 "" 2
 434              		.thumb
 435              	.LBE117:
 436              		.loc 1 129 0
 437 0106 5A4E     		ldr	r6, .L47+8
 438 0108 0822     		movs	r2, #8
 439 010a 7168     		ldr	r1, [r6, #4]
 440 010c 2846     		mov	r0, r5
 441 010e FFF7FEFF 		bl	chIQReadTimeout
 442              	.LVL28:
 443              		.loc 1 130 0
 444 0112 A0F10401 		sub	r1, r0, #4
 445 0116 B1FA81F1 		clz	r1, r1
 446 011a 0620     		movs	r0, #6
 447              	.LVL29:
 448 011c 4909     		lsrs	r1, r1, #5
 449 011e FFF7FEFF 		bl	_test_assert
 450              	.LVL30:
 451 0122 0446     		mov	r4, r0
 452 0124 0028     		cmp	r0, #0
 453 0126 9CD1     		bne	.L16
 454              	.LBB118:
 455              		.loc 1 131 0
 456 0128 2023     		movs	r3, #32
ARM GAS  /tmp/ccxqeeXh.s 			page 9


 457              	@ 131 "/home/nicolas/Desktop/Embebidos/stamp_repo/files/code/ext/ChibiOS/test/testqueues.c" 1
 458 012a 83F31188 		msr     BASEPRI, r3
 459              	@ 0 "" 2
 460              		.thumb
 461              	.LBE118:
 462 012e A968     		ldr	r1, [r5, #8]
 463 0130 0720     		movs	r0, #7
 464 0132 B1FA81F1 		clz	r1, r1
 465 0136 4909     		lsrs	r1, r1, #5
 466 0138 FFF7FEFF 		bl	_test_assert
 467              	.LVL31:
 468 013c 0028     		cmp	r0, #0
 469 013e C3D1     		bne	.L41
 470              	.LBB119:
 471 0140 0346     		mov	r3, r0
 472              	@ 131 "/home/nicolas/Desktop/Embebidos/stamp_repo/files/code/ext/ChibiOS/test/testqueues.c" 1
 473 0142 83F31188 		msr     BASEPRI, r3
 474              	@ 0 "" 2
 475              		.thumb
 476              	.LBE119:
 477              	.LBB120:
 478              		.loc 1 134 0
 479 0146 2023     		movs	r3, #32
 480              	@ 134 "/home/nicolas/Desktop/Embebidos/stamp_repo/files/code/ext/ChibiOS/test/testqueues.c" 1
 481 0148 83F31188 		msr     BASEPRI, r3
 482              	@ 0 "" 2
 483              	.LVL32:
 484              		.thumb
 485 014c 4124     		movs	r4, #65
 486              	.LVL33:
 487              	.L29:
 488              	.LBE120:
 489              		.loc 1 136 0
 490 014e 464D     		ldr	r5, .L47
 491 0150 2146     		mov	r1, r4
 492 0152 0134     		adds	r4, r4, #1
 493 0154 2846     		mov	r0, r5
 494 0156 E4B2     		uxtb	r4, r4
 495 0158 FFF7FEFF 		bl	chIQPutI
 496              	.LVL34:
 497              		.loc 1 135 0
 498 015c 452C     		cmp	r4, #69
 499 015e F6D1     		bne	.L29
 500              	.LBB121:
 501              		.loc 1 137 0
 502 0160 0023     		movs	r3, #0
 503              	@ 137 "/home/nicolas/Desktop/Embebidos/stamp_repo/files/code/ext/ChibiOS/test/testqueues.c" 1
 504 0162 83F31188 		msr     BASEPRI, r3
 505              	@ 0 "" 2
 506              		.thumb
 507              	.LBE121:
 508              		.loc 1 140 0
 509 0166 7468     		ldr	r4, [r6, #4]
 510 0168 0222     		movs	r2, #2
 511 016a 2146     		mov	r1, r4
 512 016c 2846     		mov	r0, r5
 513 016e FFF7FEFF 		bl	chIQReadTimeout
ARM GAS  /tmp/ccxqeeXh.s 			page 10


 514              	.LVL35:
 515              		.loc 1 141 0
 516 0172 A0F10201 		sub	r1, r0, #2
 517 0176 B1FA81F1 		clz	r1, r1
 518 017a 0820     		movs	r0, #8
 519              	.LVL36:
 520 017c 4909     		lsrs	r1, r1, #5
 521 017e FFF7FEFF 		bl	_test_assert
 522              	.LVL37:
 523              		.loc 1 140 0
 524 0182 3B4F     		ldr	r7, .L47+8
 525              		.loc 1 141 0
 526 0184 0028     		cmp	r0, #0
 527 0186 7FF46CAF 		bne	.L16
 528              		.loc 1 142 0
 529 018a 0346     		mov	r3, r0
 530 018c 2146     		mov	r1, r4
 531 018e 0222     		movs	r2, #2
 532 0190 2846     		mov	r0, r5
 533 0192 FFF7FEFF 		bl	chIQReadTimeout
 534              	.LVL38:
 535              		.loc 1 143 0
 536 0196 A0F10201 		sub	r1, r0, #2
 537 019a B1FA81F1 		clz	r1, r1
 538 019e 0920     		movs	r0, #9
 539              	.LVL39:
 540 01a0 4909     		lsrs	r1, r1, #5
 541 01a2 FFF7FEFF 		bl	_test_assert
 542              	.LVL40:
 543 01a6 0646     		mov	r6, r0
 544 01a8 0028     		cmp	r0, #0
 545 01aa 7FF45AAF 		bne	.L16
 546              	.LBB122:
 547              		.loc 1 144 0
 548 01ae 2023     		movs	r3, #32
 549              	@ 144 "/home/nicolas/Desktop/Embebidos/stamp_repo/files/code/ext/ChibiOS/test/testqueues.c" 1
 550 01b0 83F31188 		msr     BASEPRI, r3
 551              	@ 0 "" 2
 552              		.thumb
 553              	.LBE122:
 554 01b4 A968     		ldr	r1, [r5, #8]
 555 01b6 0A20     		movs	r0, #10
 556 01b8 B1FA81F1 		clz	r1, r1
 557 01bc 4909     		lsrs	r1, r1, #5
 558 01be FFF7FEFF 		bl	_test_assert
 559              	.LVL41:
 560 01c2 0446     		mov	r4, r0
 561 01c4 18B1     		cbz	r0, .L46
 562              	.L39:
 563              	.LBB123:
 564              		.loc 1 153 0
 565 01c6 3346     		mov	r3, r6
 566              	@ 153 "/home/nicolas/Desktop/Embebidos/stamp_repo/files/code/ext/ChibiOS/test/testqueues.c" 1
 567 01c8 83F31188 		msr     BASEPRI, r3
 568              	@ 0 "" 2
 569              		.thumb
 570 01cc 49E7     		b	.L16
ARM GAS  /tmp/ccxqeeXh.s 			page 11


 571              	.L46:
 572              	.LBE123:
 573              	.LBB124:
 574              		.loc 1 144 0
 575 01ce 0346     		mov	r3, r0
 576              	@ 144 "/home/nicolas/Desktop/Embebidos/stamp_repo/files/code/ext/ChibiOS/test/testqueues.c" 1
 577 01d0 83F31188 		msr     BASEPRI, r3
 578              	@ 0 "" 2
 579              		.thumb
 580              	.LBE124:
 581              	.LBB125:
 582              		.loc 1 147 0
 583 01d4 2023     		movs	r3, #32
 584              	@ 147 "/home/nicolas/Desktop/Embebidos/stamp_repo/files/code/ext/ChibiOS/test/testqueues.c" 1
 585 01d6 83F31188 		msr     BASEPRI, r3
 586              	@ 0 "" 2
 587              		.thumb
 588              	.LBE125:
 589              		.loc 1 148 0
 590 01da 2146     		mov	r1, r4
 591 01dc 2846     		mov	r0, r5
 592 01de FFF7FEFF 		bl	chIQPutI
 593              	.LVL42:
 594              		.loc 1 149 0
 595 01e2 2846     		mov	r0, r5
 596 01e4 FFF7FEFF 		bl	chIQResetI
 597              	.LVL43:
 598              	.LBB126:
 599              		.loc 1 150 0
 600 01e8 2346     		mov	r3, r4
 601              	@ 150 "/home/nicolas/Desktop/Embebidos/stamp_repo/files/code/ext/ChibiOS/test/testqueues.c" 1
 602 01ea 83F31188 		msr     BASEPRI, r3
 603              	@ 0 "" 2
 604              		.thumb
 605              	.LBE126:
 606              	.LBB127:
 607              		.loc 1 151 0
 608 01ee 2023     		movs	r3, #32
 609              	@ 151 "/home/nicolas/Desktop/Embebidos/stamp_repo/files/code/ext/ChibiOS/test/testqueues.c" 1
 610 01f0 83F31188 		msr     BASEPRI, r3
 611              	@ 0 "" 2
 612              		.thumb
 613              	.LBE127:
 614 01f4 A968     		ldr	r1, [r5, #8]
 615 01f6 0B20     		movs	r0, #11
 616 01f8 B1FA81F1 		clz	r1, r1
 617 01fc 4909     		lsrs	r1, r1, #5
 618 01fe FFF7FEFF 		bl	_test_assert
 619              	.LVL44:
 620 0202 0646     		mov	r6, r0
 621 0204 0028     		cmp	r0, #0
 622 0206 7FF45FAF 		bne	.L41
 623              	.LBB128:
 624 020a 0346     		mov	r3, r0
 625              	@ 151 "/home/nicolas/Desktop/Embebidos/stamp_repo/files/code/ext/ChibiOS/test/testqueues.c" 1
 626 020c 83F31188 		msr     BASEPRI, r3
 627              	@ 0 "" 2
ARM GAS  /tmp/ccxqeeXh.s 			page 12


 628              		.thumb
 629              	.LBE128:
 630              		.loc 1 152 0
 631 0210 184B     		ldr	r3, .L47+12
 632 0212 3868     		ldr	r0, [r7]
 633 0214 DB69     		ldr	r3, [r3, #28]
 634 0216 4FF49871 		mov	r1, #304
 635 021a 9A68     		ldr	r2, [r3, #8]
 636 021c 164B     		ldr	r3, .L47+16
 637 021e 0132     		adds	r2, r2, #1
 638 0220 0096     		str	r6, [sp]
 639 0222 FFF7FEFF 		bl	chThdCreateStatic
 640              	.LVL45:
 641 0226 154A     		ldr	r2, .L47+20
 642              	.LBB129:
 643              		.loc 1 153 0
 644 0228 2023     		movs	r3, #32
 645              	.LBE129:
 646              		.loc 1 152 0
 647 022a 1060     		str	r0, [r2]
 648              	.LBB130:
 649              		.loc 1 153 0
 650              	@ 153 "/home/nicolas/Desktop/Embebidos/stamp_repo/files/code/ext/ChibiOS/test/testqueues.c" 1
 651 022c 83F31188 		msr     BASEPRI, r3
 652              	@ 0 "" 2
 653              		.thumb
 654              	.LBE130:
 655 0230 A968     		ldr	r1, [r5, #8]
 656 0232 0C20     		movs	r0, #12
 657 0234 B1FA81F1 		clz	r1, r1
 658 0238 4909     		lsrs	r1, r1, #5
 659 023a FFF7FEFF 		bl	_test_assert
 660              	.LVL46:
 661 023e 0346     		mov	r3, r0
 662 0240 0028     		cmp	r0, #0
 663 0242 C0D1     		bne	.L39
 664              	.LBB131:
 665              	@ 153 "/home/nicolas/Desktop/Embebidos/stamp_repo/files/code/ext/ChibiOS/test/testqueues.c" 1
 666 0244 83F31188 		msr     BASEPRI, r3
 667              	@ 0 "" 2
 668              		.thumb
 669              	.LBE131:
 670              		.loc 1 154 0
 671 0248 FFF7FEFF 		bl	test_wait_threads
 672              	.LVL47:
 673              		.loc 1 157 0
 674 024c 2846     		mov	r0, r5
 675 024e 0A21     		movs	r1, #10
 676 0250 FFF7FEFF 		bl	chIQGetTimeout
 677              	.LVL48:
 678 0254 431C     		adds	r3, r0, #1
 679 0256 5942     		rsbs	r1, r3, #0
 680 0258 5941     		adcs	r1, r1, r3
 681 025a 0D20     		movs	r0, #13
 682              	.LBE133:
 683              	.LBE136:
 684              		.loc 1 158 0
ARM GAS  /tmp/ccxqeeXh.s 			page 13


 685 025c 03B0     		add	sp, sp, #12
 686              		.cfi_def_cfa_offset 20
 687              		@ sp needed
 688 025e BDE8F040 		pop	{r4, r5, r6, r7, lr}
 689              		.cfi_restore 14
 690              		.cfi_restore 7
 691              		.cfi_restore 6
 692              		.cfi_restore 5
 693              		.cfi_restore 4
 694              		.cfi_def_cfa_offset 0
 695              	.LBB137:
 696              	.LBB134:
 697              		.loc 1 157 0
 698 0262 FFF7FEBF 		b	_test_assert
 699              	.LVL49:
 700              	.L48:
 701 0266 00BF     		.align	2
 702              	.L47:
 703 0268 00000000 		.word	.LANCHOR0
 704 026c 00000000 		.word	.LC0
 705 0270 00000000 		.word	wa
 706 0274 00000000 		.word	rlist
 707 0278 00000000 		.word	thread1
 708 027c 00000000 		.word	threads
 709              	.LBE134:
 710              	.LBE137:
 711              		.cfi_endproc
 712              	.LFE10:
 713              		.size	queues1_execute, .-queues1_execute
 714              		.section	.text.queues2_execute,"ax",%progbits
 715              		.align	2
 716              		.p2align 4,,15
 717              		.thumb
 718              		.thumb_func
 719              		.type	queues2_execute, %function
 720              	queues2_execute:
 721              	.LFB13:
 722              		.loc 1 188 0
 723              		.cfi_startproc
 724              		@ args = 0, pretend = 0, frame = 0
 725              		@ frame_needed = 0, uses_anonymous_args = 0
 726 0000 2DE9F041 		push	{r4, r5, r6, r7, r8, lr}
 727              		.cfi_def_cfa_offset 24
 728              		.cfi_offset 4, -24
 729              		.cfi_offset 5, -20
 730              		.cfi_offset 6, -16
 731              		.cfi_offset 7, -12
 732              		.cfi_offset 8, -8
 733              		.cfi_offset 14, -4
 734              	.LBB171:
 735              		.loc 1 193 0
 736 0004 2023     		movs	r3, #32
 737              	.LBE171:
 738              		.loc 1 188 0
 739 0006 82B0     		sub	sp, sp, #8
 740              		.cfi_def_cfa_offset 32
 741              	.LBB172:
ARM GAS  /tmp/ccxqeeXh.s 			page 14


 742              		.loc 1 193 0
 743              	@ 193 "/home/nicolas/Desktop/Embebidos/stamp_repo/files/code/ext/ChibiOS/test/testqueues.c" 1
 744 0008 83F31188 		msr     BASEPRI, r3
 745              	@ 0 "" 2
 746              		.thumb
 747              	.LBE172:
 748 000c 8D4B     		ldr	r3, .L74
 749 000e 5969     		ldr	r1, [r3, #20]
 750 0010 9A69     		ldr	r2, [r3, #24]
 751 0012 9142     		cmp	r1, r2
 752 0014 60D0     		beq	.L72
 753 0016 0021     		movs	r1, #0
 754              	.L50:
 755              		.loc 1 193 0 is_stmt 0 discriminator 6
 756 0018 0120     		movs	r0, #1
 757 001a FFF7FEFF 		bl	_test_assert
 758              	.LVL50:
 759 001e C0BB     		cbnz	r0, .L71
 760              	.LBB173:
 761              	.LBB174:
 762              	.LBB175:
 763              		.loc 1 193 0
 764 0020 0346     		mov	r3, r0
 765              	@ 193 "/home/nicolas/Desktop/Embebidos/stamp_repo/files/code/ext/ChibiOS/test/testqueues.c" 1
 766 0022 83F31188 		msr     BASEPRI, r3
 767              	@ 0 "" 2
 768              	.LVL51:
 769              		.thumb
 770 0026 4124     		movs	r4, #65
 771              	.LVL52:
 772              	.L53:
 773              	.LBE175:
 774              		.loc 1 197 0 is_stmt 1
 775 0028 864D     		ldr	r5, .L74
 776 002a 2146     		mov	r1, r4
 777 002c 0134     		adds	r4, r4, #1
 778 002e 2846     		mov	r0, r5
 779 0030 4FF0FF32 		mov	r2, #-1
 780 0034 E4B2     		uxtb	r4, r4
 781 0036 FFF7FEFF 		bl	chOQPutTimeout
 782              	.LVL53:
 783              		.loc 1 196 0
 784 003a 452C     		cmp	r4, #69
 785 003c F4D1     		bne	.L53
 786              	.LBB176:
 787              		.loc 1 198 0
 788 003e 2023     		movs	r3, #32
 789              	@ 198 "/home/nicolas/Desktop/Embebidos/stamp_repo/files/code/ext/ChibiOS/test/testqueues.c" 1
 790 0040 83F31188 		msr     BASEPRI, r3
 791              	@ 0 "" 2
 792              		.thumb
 793              	.LBE176:
 794 0044 A968     		ldr	r1, [r5, #8]
 795 0046 0220     		movs	r0, #2
 796 0048 B1FA81F1 		clz	r1, r1
 797 004c 4909     		lsrs	r1, r1, #5
 798 004e FFF7FEFF 		bl	_test_assert
ARM GAS  /tmp/ccxqeeXh.s 			page 15


 799              	.LVL54:
 800 0052 F0B9     		cbnz	r0, .L71
 801              	.LBB177:
 802 0054 0346     		mov	r3, r0
 803              	@ 198 "/home/nicolas/Desktop/Embebidos/stamp_repo/files/code/ext/ChibiOS/test/testqueues.c" 1
 804 0056 83F31188 		msr     BASEPRI, r3
 805              	@ 0 "" 2
 806              	.LVL55:
 807              		.thumb
 808 005a 0424     		movs	r4, #4
 809              	.LVL56:
 810              	.L55:
 811              	.LBE177:
 812              	.LBB178:
 813              	.LBB179:
 814              		.loc 1 204 0
 815 005c 2023     		movs	r3, #32
 816              	@ 204 "/home/nicolas/Desktop/Embebidos/stamp_repo/files/code/ext/ChibiOS/test/testqueues.c" 1
 817 005e 83F31188 		msr     BASEPRI, r3
 818              	@ 0 "" 2
 819              		.thumb
 820              	.LBE179:
 821              		.loc 1 205 0
 822 0062 784D     		ldr	r5, .L74
 823 0064 2846     		mov	r0, r5
 824 0066 FFF7FEFF 		bl	chOQGetI
 825              	.LVL57:
 826              	.LBB180:
 827              		.loc 1 206 0
 828 006a 0023     		movs	r3, #0
 829              	@ 206 "/home/nicolas/Desktop/Embebidos/stamp_repo/files/code/ext/ChibiOS/test/testqueues.c" 1
 830 006c 83F31188 		msr     BASEPRI, r3
 831              	@ 0 "" 2
 832              		.thumb
 833              	.LBE180:
 834              		.loc 1 207 0
 835 0070 C0B2     		uxtb	r0, r0
 836 0072 FFF7FEFF 		bl	test_emit_token
 837              	.LVL58:
 838              	.LBE178:
 839              		.loc 1 201 0
 840 0076 013C     		subs	r4, r4, #1
 841              	.LVL59:
 842 0078 F0D1     		bne	.L55
 843              	.LBB181:
 844              		.loc 1 209 0
 845 007a 2023     		movs	r3, #32
 846              	@ 209 "/home/nicolas/Desktop/Embebidos/stamp_repo/files/code/ext/ChibiOS/test/testqueues.c" 1
 847 007c 83F31188 		msr     BASEPRI, r3
 848              	@ 0 "" 2
 849              		.thumb
 850              	.LBE181:
 851 0080 6A69     		ldr	r2, [r5, #20]
 852 0082 AB69     		ldr	r3, [r5, #24]
 853 0084 9A42     		cmp	r2, r3
 854 0086 2CD0     		beq	.L73
 855 0088 2146     		mov	r1, r4
ARM GAS  /tmp/ccxqeeXh.s 			page 16


 856              	.L56:
 857 008a 0320     		movs	r0, #3
 858 008c FFF7FEFF 		bl	_test_assert
 859              	.LVL60:
 860 0090 28B1     		cbz	r0, .L57
 861              	.LVL61:
 862              	.L71:
 863              	.LBB182:
 864 0092 0023     		movs	r3, #0
 865              	@ 209 "/home/nicolas/Desktop/Embebidos/stamp_repo/files/code/ext/ChibiOS/test/testqueues.c" 1
 866 0094 83F31188 		msr     BASEPRI, r3
 867              	@ 0 "" 2
 868              		.thumb
 869              	.L49:
 870              	.LBE182:
 871              	.LBE174:
 872              	.LBE173:
 873              		.loc 1 236 0
 874 0098 02B0     		add	sp, sp, #8
 875              		.cfi_remember_state
 876              		.cfi_def_cfa_offset 24
 877              		@ sp needed
 878 009a BDE8F081 		pop	{r4, r5, r6, r7, r8, pc}
 879              	.LVL62:
 880              	.L57:
 881              		.cfi_restore_state
 882              	.LBB206:
 883              	.LBB203:
 884              	.LBB183:
 885              		.loc 1 209 0
 886 009e 0346     		mov	r3, r0
 887              	@ 209 "/home/nicolas/Desktop/Embebidos/stamp_repo/files/code/ext/ChibiOS/test/testqueues.c" 1
 888 00a0 83F31188 		msr     BASEPRI, r3
 889              	@ 0 "" 2
 890              		.thumb
 891              	.LBE183:
 892              		.loc 1 210 0
 893 00a4 0420     		movs	r0, #4
 894 00a6 6849     		ldr	r1, .L74+4
 895 00a8 FFF7FEFF 		bl	_test_assert_sequence
 896              	.LVL63:
 897 00ac 0446     		mov	r4, r0
 898              	.LVL64:
 899 00ae 0028     		cmp	r0, #0
 900 00b0 F2D1     		bne	.L49
 901              	.LBB184:
 902              		.loc 1 211 0
 903 00b2 2023     		movs	r3, #32
 904              	@ 211 "/home/nicolas/Desktop/Embebidos/stamp_repo/files/code/ext/ChibiOS/test/testqueues.c" 1
 905 00b4 83F31188 		msr     BASEPRI, r3
 906              	@ 0 "" 2
 907              		.thumb
 908              	.LBE184:
 909 00b8 624D     		ldr	r5, .L74
 910 00ba 2846     		mov	r0, r5
 911 00bc FFF7FEFF 		bl	chOQGetI
 912              	.LVL65:
ARM GAS  /tmp/ccxqeeXh.s 			page 17


 913 00c0 0330     		adds	r0, r0, #3
 914 00c2 14BF     		ite	ne
 915 00c4 0021     		movne	r1, #0
 916 00c6 0121     		moveq	r1, #1
 917 00c8 0520     		movs	r0, #5
 918 00ca FFF7FEFF 		bl	_test_assert
 919              	.LVL66:
 920 00ce 68B1     		cbz	r0, .L59
 921              	.LBB185:
 922 00d0 2346     		mov	r3, r4
 923              	@ 211 "/home/nicolas/Desktop/Embebidos/stamp_repo/files/code/ext/ChibiOS/test/testqueues.c" 1
 924 00d2 83F31188 		msr     BASEPRI, r3
 925              	@ 0 "" 2
 926              		.thumb
 927 00d6 DFE7     		b	.L49
 928              	.L72:
 929              	.LBE185:
 930              	.LBE203:
 931              	.LBE206:
 932              		.loc 1 193 0 discriminator 1
 933 00d8 9968     		ldr	r1, [r3, #8]
 934 00da 0031     		adds	r1, r1, #0
 935 00dc 18BF     		it	ne
 936 00de 0121     		movne	r1, #1
 937 00e0 9AE7     		b	.L50
 938              	.LVL67:
 939              	.L73:
 940              	.LBB207:
 941              	.LBB204:
 942              		.loc 1 209 0
 943 00e2 A968     		ldr	r1, [r5, #8]
 944 00e4 0031     		adds	r1, r1, #0
 945 00e6 18BF     		it	ne
 946 00e8 0121     		movne	r1, #1
 947 00ea CEE7     		b	.L56
 948              	.LVL68:
 949              	.L59:
 950              	.LBB186:
 951              		.loc 1 211 0
 952 00ec 0346     		mov	r3, r0
 953              	@ 211 "/home/nicolas/Desktop/Embebidos/stamp_repo/files/code/ext/ChibiOS/test/testqueues.c" 1
 954 00ee 83F31188 		msr     BASEPRI, r3
 955              	@ 0 "" 2
 956              		.thumb
 957              	.LBE186:
 958              		.loc 1 214 0
 959 00f2 564E     		ldr	r6, .L74+8
 960 00f4 0822     		movs	r2, #8
 961 00f6 7468     		ldr	r4, [r6, #4]
 962 00f8 2846     		mov	r0, r5
 963 00fa 2146     		mov	r1, r4
 964 00fc FFF7FEFF 		bl	chOQWriteTimeout
 965              	.LVL69:
 966              		.loc 1 215 0
 967 0100 A0F10401 		sub	r1, r0, #4
 968 0104 B1FA81F1 		clz	r1, r1
 969 0108 0620     		movs	r0, #6
ARM GAS  /tmp/ccxqeeXh.s 			page 18


 970              	.LVL70:
 971 010a 4909     		lsrs	r1, r1, #5
 972 010c FFF7FEFF 		bl	_test_assert
 973              	.LVL71:
 974 0110 0746     		mov	r7, r0
 975 0112 0028     		cmp	r0, #0
 976 0114 C0D1     		bne	.L49
 977              	.LBB187:
 978              		.loc 1 216 0
 979 0116 2023     		movs	r3, #32
 980              	@ 216 "/home/nicolas/Desktop/Embebidos/stamp_repo/files/code/ext/ChibiOS/test/testqueues.c" 1
 981 0118 83F31188 		msr     BASEPRI, r3
 982              	@ 0 "" 2
 983              		.thumb
 984              	.LBE187:
 985 011c A968     		ldr	r1, [r5, #8]
 986 011e 0720     		movs	r0, #7
 987 0120 B1FA81F1 		clz	r1, r1
 988 0124 4909     		lsrs	r1, r1, #5
 989 0126 FFF7FEFF 		bl	_test_assert
 990              	.LVL72:
 991 012a 8046     		mov	r8, r0
 992 012c 18B1     		cbz	r0, .L61
 993              	.LBB188:
 994 012e 3B46     		mov	r3, r7
 995              	@ 216 "/home/nicolas/Desktop/Embebidos/stamp_repo/files/code/ext/ChibiOS/test/testqueues.c" 1
 996 0130 83F31188 		msr     BASEPRI, r3
 997              	@ 0 "" 2
 998              		.thumb
 999 0134 B0E7     		b	.L49
 1000              	.L61:
 1001              	.LBE188:
 1002              	.LBB189:
 1003 0136 0346     		mov	r3, r0
 1004              	@ 216 "/home/nicolas/Desktop/Embebidos/stamp_repo/files/code/ext/ChibiOS/test/testqueues.c" 1
 1005 0138 83F31188 		msr     BASEPRI, r3
 1006              	@ 0 "" 2
 1007              		.thumb
 1008              	.LBE189:
 1009              		.loc 1 217 0
 1010 013c 444B     		ldr	r3, .L74+12
 1011 013e 3068     		ldr	r0, [r6]
 1012 0140 DB69     		ldr	r3, [r3, #28]
 1013 0142 4FF49871 		mov	r1, #304
 1014 0146 9A68     		ldr	r2, [r3, #8]
 1015 0148 CDF80080 		str	r8, [sp]
 1016 014c 0132     		adds	r2, r2, #1
 1017 014e 414B     		ldr	r3, .L74+16
 1018 0150 FFF7FEFF 		bl	chThdCreateStatic
 1019              	.LVL73:
 1020 0154 404A     		ldr	r2, .L74+20
 1021              	.LBB190:
 1022              		.loc 1 218 0
 1023 0156 2023     		movs	r3, #32
 1024              	.LBE190:
 1025              		.loc 1 217 0
 1026 0158 1060     		str	r0, [r2]
ARM GAS  /tmp/ccxqeeXh.s 			page 19


 1027              	.LBB191:
 1028              		.loc 1 218 0
 1029              	@ 218 "/home/nicolas/Desktop/Embebidos/stamp_repo/files/code/ext/ChibiOS/test/testqueues.c" 1
 1030 015a 83F31188 		msr     BASEPRI, r3
 1031              	@ 0 "" 2
 1032              		.thumb
 1033              	.LBE191:
 1034 015e E968     		ldr	r1, [r5, #12]
 1035 0160 2B69     		ldr	r3, [r5, #16]
 1036 0162 AA68     		ldr	r2, [r5, #8]
 1037 0164 5B1A     		subs	r3, r3, r1
 1038 0166 991A     		subs	r1, r3, r2
 1039 0168 A1F10401 		sub	r1, #4
 1040 016c B1FA81F1 		clz	r1, r1
 1041 0170 0820     		movs	r0, #8
 1042 0172 4909     		lsrs	r1, r1, #5
 1043 0174 FFF7FEFF 		bl	_test_assert
 1044              	.LVL74:
 1045 0178 0646     		mov	r6, r0
 1046 017a 18B1     		cbz	r0, .L62
 1047              	.LBB192:
 1048 017c 4346     		mov	r3, r8
 1049              	@ 218 "/home/nicolas/Desktop/Embebidos/stamp_repo/files/code/ext/ChibiOS/test/testqueues.c" 1
 1050 017e 83F31188 		msr     BASEPRI, r3
 1051              	@ 0 "" 2
 1052              		.thumb
 1053 0182 89E7     		b	.L49
 1054              	.L62:
 1055              	.LBE192:
 1056              	.LBB193:
 1057 0184 0346     		mov	r3, r0
 1058              	@ 218 "/home/nicolas/Desktop/Embebidos/stamp_repo/files/code/ext/ChibiOS/test/testqueues.c" 1
 1059 0186 83F31188 		msr     BASEPRI, r3
 1060              	@ 0 "" 2
 1061              		.thumb
 1062              	.LBE193:
 1063              		.loc 1 219 0
 1064 018a FFF7FEFF 		bl	test_wait_threads
 1065              	.LVL75:
 1066              	.LBB194:
 1067              		.loc 1 222 0
 1068 018e 2023     		movs	r3, #32
 1069              	@ 222 "/home/nicolas/Desktop/Embebidos/stamp_repo/files/code/ext/ChibiOS/test/testqueues.c" 1
 1070 0190 83F31188 		msr     BASEPRI, r3
 1071              	@ 0 "" 2
 1072              		.thumb
 1073              	.LBE194:
 1074              		.loc 1 223 0
 1075 0194 2846     		mov	r0, r5
 1076 0196 FFF7FEFF 		bl	chOQResetI
 1077              	.LVL76:
 1078              	.LBB195:
 1079              		.loc 1 224 0
 1080 019a 3346     		mov	r3, r6
 1081              	@ 224 "/home/nicolas/Desktop/Embebidos/stamp_repo/files/code/ext/ChibiOS/test/testqueues.c" 1
 1082 019c 83F31188 		msr     BASEPRI, r3
 1083              	@ 0 "" 2
ARM GAS  /tmp/ccxqeeXh.s 			page 20


 1084              		.thumb
 1085              	.LBE195:
 1086              	.LBB196:
 1087              		.loc 1 225 0
 1088 01a0 2023     		movs	r3, #32
 1089              	@ 225 "/home/nicolas/Desktop/Embebidos/stamp_repo/files/code/ext/ChibiOS/test/testqueues.c" 1
 1090 01a2 83F31188 		msr     BASEPRI, r3
 1091              	@ 0 "" 2
 1092              		.thumb
 1093              	.LBE196:
 1094 01a6 05F10801 		add	r1, r5, #8
 1095 01aa 0EC9     		ldmia	r1, {r1, r2, r3}
 1096 01ac 9B1A     		subs	r3, r3, r2
 1097 01ae 591A     		subs	r1, r3, r1
 1098 01b0 B1FA81F1 		clz	r1, r1
 1099 01b4 0920     		movs	r0, #9
 1100 01b6 4909     		lsrs	r1, r1, #5
 1101 01b8 FFF7FEFF 		bl	_test_assert
 1102              	.LVL77:
 1103 01bc 0346     		mov	r3, r0
 1104 01be 18B1     		cbz	r0, .L63
 1105              	.LBB197:
 1106 01c0 3346     		mov	r3, r6
 1107              	@ 225 "/home/nicolas/Desktop/Embebidos/stamp_repo/files/code/ext/ChibiOS/test/testqueues.c" 1
 1108 01c2 83F31188 		msr     BASEPRI, r3
 1109              	@ 0 "" 2
 1110              		.thumb
 1111 01c6 67E7     		b	.L49
 1112              	.L63:
 1113              	.LBE197:
 1114              	.LBB198:
 1115              	@ 225 "/home/nicolas/Desktop/Embebidos/stamp_repo/files/code/ext/ChibiOS/test/testqueues.c" 1
 1116 01c8 83F31188 		msr     BASEPRI, r3
 1117              	@ 0 "" 2
 1118              		.thumb
 1119              	.LBE198:
 1120              		.loc 1 228 0
 1121 01cc 0222     		movs	r2, #2
 1122 01ce 2146     		mov	r1, r4
 1123 01d0 2846     		mov	r0, r5
 1124 01d2 FFF7FEFF 		bl	chOQWriteTimeout
 1125              	.LVL78:
 1126              		.loc 1 229 0
 1127 01d6 0238     		subs	r0, r0, #2
 1128              	.LVL79:
 1129 01d8 4142     		rsbs	r1, r0, #0
 1130 01da 4141     		adcs	r1, r1, r0
 1131 01dc 0A20     		movs	r0, #10
 1132              	.LVL80:
 1133 01de FFF7FEFF 		bl	_test_assert
 1134              	.LVL81:
 1135 01e2 0346     		mov	r3, r0
 1136 01e4 0028     		cmp	r0, #0
 1137 01e6 7FF457AF 		bne	.L49
 1138              		.loc 1 230 0
 1139 01ea 2146     		mov	r1, r4
 1140 01ec 0222     		movs	r2, #2
ARM GAS  /tmp/ccxqeeXh.s 			page 21


 1141 01ee 2846     		mov	r0, r5
 1142 01f0 FFF7FEFF 		bl	chOQWriteTimeout
 1143              	.LVL82:
 1144              		.loc 1 231 0
 1145 01f4 821E     		subs	r2, r0, #2
 1146 01f6 5142     		rsbs	r1, r2, #0
 1147 01f8 5141     		adcs	r1, r1, r2
 1148 01fa 0B20     		movs	r0, #11
 1149              	.LVL83:
 1150 01fc FFF7FEFF 		bl	_test_assert
 1151              	.LVL84:
 1152 0200 0028     		cmp	r0, #0
 1153 0202 7FF449AF 		bne	.L49
 1154              	.LBB199:
 1155              		.loc 1 232 0
 1156 0206 2023     		movs	r3, #32
 1157              	@ 232 "/home/nicolas/Desktop/Embebidos/stamp_repo/files/code/ext/ChibiOS/test/testqueues.c" 1
 1158 0208 83F31188 		msr     BASEPRI, r3
 1159              	@ 0 "" 2
 1160              		.thumb
 1161              	.LBE199:
 1162 020c A968     		ldr	r1, [r5, #8]
 1163 020e 0C20     		movs	r0, #12
 1164 0210 B1FA81F1 		clz	r1, r1
 1165 0214 4909     		lsrs	r1, r1, #5
 1166 0216 FFF7FEFF 		bl	_test_assert
 1167              	.LVL85:
 1168              	.LBB200:
 1169 021a 0023     		movs	r3, #0
 1170              	.LBE200:
 1171 021c 10B1     		cbz	r0, .L64
 1172              	.LBB201:
 1173              	@ 232 "/home/nicolas/Desktop/Embebidos/stamp_repo/files/code/ext/ChibiOS/test/testqueues.c" 1
 1174 021e 83F31188 		msr     BASEPRI, r3
 1175              	@ 0 "" 2
 1176              		.thumb
 1177 0222 39E7     		b	.L49
 1178              	.L64:
 1179              	.LBE201:
 1180              	.LBB202:
 1181              	@ 232 "/home/nicolas/Desktop/Embebidos/stamp_repo/files/code/ext/ChibiOS/test/testqueues.c" 1
 1182 0224 83F31188 		msr     BASEPRI, r3
 1183              	@ 0 "" 2
 1184              		.thumb
 1185              	.LBE202:
 1186              		.loc 1 235 0
 1187 0228 0A22     		movs	r2, #10
 1188 022a 1946     		mov	r1, r3
 1189 022c 0548     		ldr	r0, .L74
 1190 022e FFF7FEFF 		bl	chOQPutTimeout
 1191              	.LVL86:
 1192 0232 431C     		adds	r3, r0, #1
 1193 0234 5942     		rsbs	r1, r3, #0
 1194 0236 5941     		adcs	r1, r1, r3
 1195 0238 0D20     		movs	r0, #13
 1196              	.LBE204:
 1197              	.LBE207:
ARM GAS  /tmp/ccxqeeXh.s 			page 22


 1198              		.loc 1 236 0
 1199 023a 02B0     		add	sp, sp, #8
 1200              		.cfi_def_cfa_offset 24
 1201              		@ sp needed
 1202 023c BDE8F041 		pop	{r4, r5, r6, r7, r8, lr}
 1203              		.cfi_restore 14
 1204              		.cfi_restore 8
 1205              		.cfi_restore 7
 1206              		.cfi_restore 6
 1207              		.cfi_restore 5
 1208              		.cfi_restore 4
 1209              		.cfi_def_cfa_offset 0
 1210              	.LBB208:
 1211              	.LBB205:
 1212              		.loc 1 235 0
 1213 0240 FFF7FEBF 		b	_test_assert
 1214              	.LVL87:
 1215              	.L75:
 1216              		.align	2
 1217              	.L74:
 1218 0244 00000000 		.word	.LANCHOR1
 1219 0248 00000000 		.word	.LC0
 1220 024c 00000000 		.word	wa
 1221 0250 00000000 		.word	rlist
 1222 0254 00000000 		.word	thread2
 1223 0258 00000000 		.word	threads
 1224              	.LBE205:
 1225              	.LBE208:
 1226              		.cfi_endproc
 1227              	.LFE13:
 1228              		.size	queues2_execute, .-queues2_execute
 1229              		.global	patternqueues
 1230              		.global	testqueues2
 1231              		.global	testqueues1
 1232              		.section	.rodata.testqueues1,"a",%progbits
 1233              		.align	2
 1234              		.type	testqueues1, %object
 1235              		.size	testqueues1, 16
 1236              	testqueues1:
 1237 0000 20000000 		.word	.LC2
 1238 0004 00000000 		.word	queues1_setup
 1239 0008 00000000 		.word	0
 1240 000c 00000000 		.word	queues1_execute
 1241              		.section	.rodata.testqueues2,"a",%progbits
 1242              		.align	2
 1243              		.type	testqueues2, %object
 1244              		.size	testqueues2, 16
 1245              	testqueues2:
 1246 0000 08000000 		.word	.LC1
 1247 0004 00000000 		.word	queues2_setup
 1248 0008 00000000 		.word	0
 1249 000c 00000000 		.word	queues2_execute
 1250              		.section	.rodata.str1.4,"aMS",%progbits,1
 1251              		.align	2
 1252              	.LC0:
 1253 0000 41424344 		.ascii	"ABCD\000"
 1253      00
ARM GAS  /tmp/ccxqeeXh.s 			page 23


 1254 0005 000000   		.space	3
 1255              	.LC1:
 1256 0008 51756575 		.ascii	"Queues, output queues\000"
 1256      65732C20 
 1256      6F757470 
 1256      75742071 
 1256      75657565 
 1257 001e 0000     		.space	2
 1258              	.LC2:
 1259 0020 51756575 		.ascii	"Queues, input queues\000"
 1259      65732C20 
 1259      696E7075 
 1259      74207175 
 1259      65756573 
 1260              		.section	.rodata.patternqueues,"a",%progbits
 1261              		.align	2
 1262              		.type	patternqueues, %object
 1263              		.size	patternqueues, 12
 1264              	patternqueues:
 1265 0000 00000000 		.word	testqueues1
 1266 0004 00000000 		.word	testqueues2
 1267 0008 00000000 		.word	0
 1268              		.section	.data.oq,"aw",%progbits
 1269              		.align	2
 1270              		.set	.LANCHOR1,. + 0
 1271              		.type	oq, %object
 1272              		.size	oq, 32
 1273              	oq:
 1274 0000 00000000 		.word	oq
 1275 0004 00000000 		.word	oq
 1276 0008 04000000 		.word	4
 1277 000c 30010000 		.word	test+304
 1278 0010 34010000 		.word	test+308
 1279 0014 30010000 		.word	test+304
 1280 0018 30010000 		.word	test+304
 1281 001c 00000000 		.word	notify
 1282              		.section	.data.iq,"aw",%progbits
 1283              		.align	2
 1284              		.set	.LANCHOR0,. + 0
 1285              		.type	iq, %object
 1286              		.size	iq, 32
 1287              	iq:
 1288 0000 00000000 		.word	iq
 1289 0004 00000000 		.word	iq
 1290 0008 00000000 		.word	0
 1291 000c 00000000 		.word	test
 1292 0010 04000000 		.word	test+4
 1293 0014 00000000 		.word	test
 1294 0018 00000000 		.word	test
 1295 001c 00000000 		.word	notify
 1296              		.text
 1297              	.Letext0:
 1298              		.file 2 "/opt/gcc-arm-none-eabi-4_9-2015q3/lib/gcc/arm-none-eabi/4.9.3/include/stddef.h"
 1299              		.file 3 "/opt/gcc-arm-none-eabi-4_9-2015q3/arm-none-eabi/include/machine/_default_types.h"
 1300              		.file 4 "/opt/gcc-arm-none-eabi-4_9-2015q3/arm-none-eabi/include/sys/_stdint.h"
 1301              		.file 5 "/home/nicolas/Desktop/Embebidos/stamp_repo/files/code/ext/ChibiOS/os/ports/GCC/ARMCMx/cht
 1302              		.file 6 "/home/nicolas/Desktop/Embebidos/stamp_repo/files/code/ext/ChibiOS/os/kernel/include/chlis
ARM GAS  /tmp/ccxqeeXh.s 			page 24


 1303              		.file 7 "/home/nicolas/Desktop/Embebidos/stamp_repo/files/code/ext/ChibiOS/os/kernel/include/chthr
 1304              		.file 8 "/home/nicolas/Desktop/Embebidos/stamp_repo/files/code/ext/ChibiOS/os/ports/GCC/ARMCMx/chc
 1305              		.file 9 "/home/nicolas/Desktop/Embebidos/stamp_repo/files/code/ext/ChibiOS/os/kernel/include/chsch
 1306              		.file 10 "/home/nicolas/Desktop/Embebidos/stamp_repo/files/code/ext/ChibiOS/os/kernel/include/chmt
 1307              		.file 11 "/home/nicolas/Desktop/Embebidos/stamp_repo/files/code/ext/ChibiOS/os/kernel/include/chqu
 1308              		.file 12 "/home/nicolas/Desktop/Embebidos/stamp_repo/files/code/ext/ChibiOS/test/test.h"