ARM GAS  /tmp/ccrvPg0b.s 			page 1


   1              		.syntax unified
   2              		.cpu cortex-m3
   3              		.fpu softvfp
   4              		.eabi_attribute 20, 1
   5              		.eabi_attribute 21, 1
   6              		.eabi_attribute 23, 3
   7              		.eabi_attribute 24, 1
   8              		.eabi_attribute 25, 1
   9              		.eabi_attribute 26, 1
  10              		.eabi_attribute 30, 2
  11              		.eabi_attribute 34, 1
  12              		.eabi_attribute 18, 4
  13              		.thumb
  14              		.file	"testbmk.c"
  15              		.text
  16              	.Ltext0:
  17              		.cfi_sections	.debug_frame
  18              		.section	.text.thread2,"ax",%progbits
  19              		.align	2
  20              		.p2align 4,,15
  21              		.thumb
  22              		.thumb_func
  23              		.type	thread2, %function
  24              	thread2:
  25              	.LFB11:
  26              		.file 1 "/home/nicolas/Desktop/Embebidos/stamp_repo/files/code/ext/ChibiOS/test/testbmk.c"
  27              		.loc 1 165 0
  28              		.cfi_startproc
  29              		@ args = 0, pretend = 0, frame = 0
  30              		@ frame_needed = 0, uses_anonymous_args = 0
  31              		@ link register save eliminated.
  32              	.LVL0:
  33              		.loc 1 168 0
  34 0000 7047     		bx	lr
  35              		.cfi_endproc
  36              	.LFE11:
  37              		.size	thread2, .-thread2
  38 0002 00BF     		.section	.text.tmo,"ax",%progbits
  39              		.align	2
  40              		.p2align 4,,15
  41              		.thumb
  42              		.thumb_func
  43              		.type	tmo, %function
  44              	tmo:
  45              	.LFB23:
  46              		.loc 1 511 0
  47              		.cfi_startproc
  48              		@ args = 0, pretend = 0, frame = 0
  49              		@ frame_needed = 0, uses_anonymous_args = 0
  50              		@ link register save eliminated.
  51              	.LVL1:
  52 0000 7047     		bx	lr
  53              		.cfi_endproc
  54              	.LFE23:
  55              		.size	tmo, .-tmo
  56 0002 00BF     		.section	.text.bmk13_execute,"ax",%progbits
  57              		.align	2
ARM GAS  /tmp/ccrvPg0b.s 			page 2


  58              		.p2align 4,,15
  59              		.thumb
  60              		.thumb_func
  61              		.type	bmk13_execute, %function
  62              	bmk13_execute:
  63              	.LFB29:
  64              		.loc 1 644 0
  65              		.cfi_startproc
  66              		@ args = 0, pretend = 0, frame = 0
  67              		@ frame_needed = 0, uses_anonymous_args = 0
  68              		.loc 1 644 0
  69 0000 10B5     		push	{r4, lr}
  70              		.cfi_def_cfa_offset 8
  71              		.cfi_offset 4, -8
  72              		.cfi_offset 14, -4
  73              		.loc 1 646 0
  74 0002 2F48     		ldr	r0, .L5
  75              		.loc 1 652 0
  76 0004 2F4C     		ldr	r4, .L5+4
  77              		.loc 1 646 0
  78 0006 FFF7FEFF 		bl	test_print
  79              	.LVL2:
  80              		.loc 1 647 0
  81 000a 4FF4CC70 		mov	r0, #408
  82 000e FFF7FEFF 		bl	test_printn
  83              	.LVL3:
  84              		.loc 1 652 0
  85 0012 2046     		mov	r0, r4
  86 0014 FFF7FEFF 		bl	test_println
  87              	.LVL4:
  88              		.loc 1 653 0
  89 0018 2B48     		ldr	r0, .L5+8
  90 001a FFF7FEFF 		bl	test_print
  91              	.LVL5:
  92              		.loc 1 654 0
  93 001e 4820     		movs	r0, #72
  94 0020 FFF7FEFF 		bl	test_printn
  95              	.LVL6:
  96              		.loc 1 655 0
  97 0024 2046     		mov	r0, r4
  98 0026 FFF7FEFF 		bl	test_println
  99              	.LVL7:
 100              		.loc 1 656 0
 101 002a 2848     		ldr	r0, .L5+12
 102 002c FFF7FEFF 		bl	test_print
 103              	.LVL8:
 104              		.loc 1 657 0
 105 0030 1420     		movs	r0, #20
 106 0032 FFF7FEFF 		bl	test_printn
 107              	.LVL9:
 108              		.loc 1 658 0
 109 0036 2046     		mov	r0, r4
 110 0038 FFF7FEFF 		bl	test_println
 111              	.LVL10:
 112              		.loc 1 659 0
 113 003c 2448     		ldr	r0, .L5+16
 114 003e FFF7FEFF 		bl	test_print
ARM GAS  /tmp/ccrvPg0b.s 			page 3


 115              	.LVL11:
 116              		.loc 1 660 0
 117 0042 0C20     		movs	r0, #12
 118 0044 FFF7FEFF 		bl	test_printn
 119              	.LVL12:
 120              		.loc 1 661 0
 121 0048 2046     		mov	r0, r4
 122 004a FFF7FEFF 		bl	test_println
 123              	.LVL13:
 124              		.loc 1 663 0
 125 004e 2148     		ldr	r0, .L5+20
 126 0050 FFF7FEFF 		bl	test_print
 127              	.LVL14:
 128              		.loc 1 664 0
 129 0054 0420     		movs	r0, #4
 130 0056 FFF7FEFF 		bl	test_printn
 131              	.LVL15:
 132              		.loc 1 665 0
 133 005a 2046     		mov	r0, r4
 134 005c FFF7FEFF 		bl	test_println
 135              	.LVL16:
 136              		.loc 1 666 0
 137 0060 1D48     		ldr	r0, .L5+24
 138 0062 FFF7FEFF 		bl	test_print
 139              	.LVL17:
 140              		.loc 1 667 0
 141 0066 0C20     		movs	r0, #12
 142 0068 FFF7FEFF 		bl	test_printn
 143              	.LVL18:
 144              		.loc 1 668 0
 145 006c 2046     		mov	r0, r4
 146 006e FFF7FEFF 		bl	test_println
 147              	.LVL19:
 148              		.loc 1 671 0
 149 0072 1A48     		ldr	r0, .L5+28
 150 0074 FFF7FEFF 		bl	test_print
 151              	.LVL20:
 152              		.loc 1 672 0
 153 0078 1020     		movs	r0, #16
 154 007a FFF7FEFF 		bl	test_printn
 155              	.LVL21:
 156              		.loc 1 673 0
 157 007e 2046     		mov	r0, r4
 158 0080 FFF7FEFF 		bl	test_println
 159              	.LVL22:
 160              		.loc 1 676 0
 161 0084 1648     		ldr	r0, .L5+32
 162 0086 FFF7FEFF 		bl	test_print
 163              	.LVL23:
 164              		.loc 1 677 0
 165 008a 0820     		movs	r0, #8
 166 008c FFF7FEFF 		bl	test_printn
 167              	.LVL24:
 168              		.loc 1 678 0
 169 0090 2046     		mov	r0, r4
 170 0092 FFF7FEFF 		bl	test_println
 171              	.LVL25:
ARM GAS  /tmp/ccrvPg0b.s 			page 4


 172              		.loc 1 681 0
 173 0096 1348     		ldr	r0, .L5+36
 174 0098 FFF7FEFF 		bl	test_print
 175              	.LVL26:
 176              		.loc 1 682 0
 177 009c 2020     		movs	r0, #32
 178 009e FFF7FEFF 		bl	test_printn
 179              	.LVL27:
 180              		.loc 1 683 0
 181 00a2 2046     		mov	r0, r4
 182 00a4 FFF7FEFF 		bl	test_println
 183              	.LVL28:
 184              		.loc 1 686 0
 185 00a8 0F48     		ldr	r0, .L5+40
 186 00aa FFF7FEFF 		bl	test_print
 187              	.LVL29:
 188              		.loc 1 687 0
 189 00ae 2820     		movs	r0, #40
 190 00b0 FFF7FEFF 		bl	test_printn
 191              	.LVL30:
 192              		.loc 1 688 0
 193 00b4 2046     		mov	r0, r4
 194              		.loc 1 690 0
 195 00b6 BDE81040 		pop	{r4, lr}
 196              		.cfi_restore 14
 197              		.cfi_restore 4
 198              		.cfi_def_cfa_offset 0
 199              		.loc 1 688 0
 200 00ba FFF7FEBF 		b	test_println
 201              	.LVL31:
 202              	.L6:
 203 00be 00BF     		.align	2
 204              	.L5:
 205 00c0 00000000 		.word	.LC0
 206 00c4 10000000 		.word	.LC1
 207 00c8 18000000 		.word	.LC2
 208 00cc 28000000 		.word	.LC3
 209 00d0 38000000 		.word	.LC4
 210 00d4 48000000 		.word	.LC5
 211 00d8 58000000 		.word	.LC6
 212 00dc 68000000 		.word	.LC7
 213 00e0 78000000 		.word	.LC8
 214 00e4 88000000 		.word	.LC9
 215 00e8 98000000 		.word	.LC10
 216              		.cfi_endproc
 217              	.LFE29:
 218              		.size	bmk13_execute, .-bmk13_execute
 219              		.section	.text.thread1,"ax",%progbits
 220              		.align	2
 221              		.p2align 4,,15
 222              		.thumb
 223              		.thumb_func
 224              		.type	thread1, %function
 225              	thread1:
 226              	.LFB7:
 227              		.loc 1 75 0
 228              		.cfi_startproc
ARM GAS  /tmp/ccrvPg0b.s 			page 5


 229              		@ args = 0, pretend = 0, frame = 0
 230              		@ frame_needed = 0, uses_anonymous_args = 0
 231              	.LVL32:
 232 0000 10B5     		push	{r4, lr}
 233              		.cfi_def_cfa_offset 8
 234              		.cfi_offset 4, -8
 235              		.cfi_offset 14, -4
 236              	.LVL33:
 237              	.L8:
 238              		.loc 1 81 0 discriminator 1
 239 0002 FFF7FEFF 		bl	chMsgWait
 240              	.LVL34:
 241              		.loc 1 82 0 discriminator 1
 242 0006 446B     		ldr	r4, [r0, #52]
 243              	.LVL35:
 244              		.loc 1 83 0 discriminator 1
 245 0008 2146     		mov	r1, r4
 246 000a FFF7FEFF 		bl	chMsgRelease
 247              	.LVL36:
 248              		.loc 1 84 0 discriminator 1
 249 000e 002C     		cmp	r4, #0
 250 0010 F7D1     		bne	.L8
 251              		.loc 1 86 0
 252 0012 2046     		mov	r0, r4
 253 0014 10BD     		pop	{r4, pc}
 254              		.cfi_endproc
 255              	.LFE7:
 256              		.size	thread1, .-thread1
 257 0016 00BF     		.section	.text.bmk6_execute,"ax",%progbits
 258              		.align	2
 259              		.p2align 4,,15
 260              		.thumb
 261              		.thumb_func
 262              		.type	bmk6_execute, %function
 263              	bmk6_execute:
 264              	.LFB16:
 265              		.loc 1 315 0
 266              		.cfi_startproc
 267              		@ args = 0, pretend = 0, frame = 0
 268              		@ frame_needed = 0, uses_anonymous_args = 0
 269              	.LVL37:
 270 0000 2DE9F041 		push	{r4, r5, r6, r7, r8, lr}
 271              		.cfi_def_cfa_offset 24
 272              		.cfi_offset 4, -24
 273              		.cfi_offset 5, -20
 274              		.cfi_offset 6, -16
 275              		.cfi_offset 7, -12
 276              		.cfi_offset 8, -8
 277              		.cfi_offset 14, -4
 278              		.loc 1 319 0
 279 0004 144B     		ldr	r3, .L17
 280              		.loc 1 318 0
 281 0006 154A     		ldr	r2, .L17+4
 282              		.loc 1 319 0
 283 0008 DB69     		ldr	r3, [r3, #28]
 284              		.loc 1 315 0
 285 000a 82B0     		sub	sp, sp, #8
ARM GAS  /tmp/ccrvPg0b.s 			page 6


 286              		.cfi_def_cfa_offset 32
 287              		.loc 1 319 0
 288 000c 9D68     		ldr	r5, [r3, #8]
 289              		.loc 1 318 0
 290 000e D2F80080 		ldr	r8, [r2]
 291              	.LVL38:
 292              		.loc 1 317 0
 293 0012 0024     		movs	r4, #0
 294              		.loc 1 320 0
 295 0014 FFF7FEFF 		bl	test_wait_tick
 296              	.LVL39:
 297              		.loc 1 321 0
 298 0018 4FF47A70 		mov	r0, #1000
 299 001c FFF7FEFF 		bl	test_start_timer
 300              	.LVL40:
 301              		.loc 1 323 0
 302 0020 2746     		mov	r7, r4
 303 0022 0F4E     		ldr	r6, .L17+8
 304              		.loc 1 319 0
 305 0024 0135     		adds	r5, r5, #1
 306              	.LVL41:
 307              	.L13:
 308              		.loc 1 323 0 discriminator 1
 309 0026 0F4B     		ldr	r3, .L17+12
 310 0028 0097     		str	r7, [sp]
 311 002a 4046     		mov	r0, r8
 312 002c 4FF49871 		mov	r1, #304
 313 0030 2A46     		mov	r2, r5
 314 0032 FFF7FEFF 		bl	chThdCreateStatic
 315              	.LVL42:
 316              		.loc 1 328 0 discriminator 1
 317 0036 3368     		ldr	r3, [r6]
 318              		.loc 1 324 0 discriminator 1
 319 0038 0134     		adds	r4, r4, #1
 320              	.LVL43:
 321              		.loc 1 328 0 discriminator 1
 322 003a 002B     		cmp	r3, #0
 323 003c F3D0     		beq	.L13
 324              		.loc 1 329 0
 325 003e 0A48     		ldr	r0, .L17+16
 326 0040 FFF7FEFF 		bl	test_print
 327              	.LVL44:
 328              		.loc 1 330 0
 329 0044 2046     		mov	r0, r4
 330 0046 FFF7FEFF 		bl	test_printn
 331              	.LVL45:
 332              		.loc 1 331 0
 333 004a 0848     		ldr	r0, .L17+20
 334              		.loc 1 332 0
 335 004c 02B0     		add	sp, sp, #8
 336              		.cfi_def_cfa_offset 24
 337              		@ sp needed
 338 004e BDE8F041 		pop	{r4, r5, r6, r7, r8, lr}
 339              		.cfi_restore 14
 340              		.cfi_restore 8
 341              		.cfi_restore 7
 342              		.cfi_restore 6
ARM GAS  /tmp/ccrvPg0b.s 			page 7


 343              		.cfi_restore 5
 344              		.cfi_restore 4
 345              		.cfi_def_cfa_offset 0
 346              	.LVL46:
 347              		.loc 1 331 0
 348 0052 FFF7FEBF 		b	test_println
 349              	.LVL47:
 350              	.L18:
 351 0056 00BF     		.align	2
 352              	.L17:
 353 0058 00000000 		.word	rlist
 354 005c 00000000 		.word	wa
 355 0060 00000000 		.word	test_timer_done
 356 0064 00000000 		.word	thread2
 357 0068 A8000000 		.word	.LC11
 358 006c B8000000 		.word	.LC12
 359              		.cfi_endproc
 360              	.LFE16:
 361              		.size	bmk6_execute, .-bmk6_execute
 362              		.section	.text.msg_loop_test,"ax",%progbits
 363              		.align	2
 364              		.p2align 4,,15
 365              		.thumb
 366              		.thumb_func
 367              		.type	msg_loop_test, %function
 368              	msg_loop_test:
 369              	.LFB8:
 370              		.loc 1 91 0
 371              		.cfi_startproc
 372              		@ args = 0, pretend = 0, frame = 0
 373              		@ frame_needed = 0, uses_anonymous_args = 0
 374              	.LVL48:
 375 0000 70B5     		push	{r4, r5, r6, lr}
 376              		.cfi_def_cfa_offset 16
 377              		.cfi_offset 4, -16
 378              		.cfi_offset 5, -12
 379              		.cfi_offset 6, -8
 380              		.cfi_offset 14, -4
 381              		.loc 1 91 0
 382 0002 0546     		mov	r5, r0
 383              		.loc 1 94 0
 384 0004 FFF7FEFF 		bl	test_wait_tick
 385              	.LVL49:
 386              		.loc 1 95 0
 387 0008 4FF47A70 		mov	r0, #1000
 388 000c FFF7FEFF 		bl	test_start_timer
 389              	.LVL50:
 390 0010 074E     		ldr	r6, .L24
 391              		.loc 1 93 0
 392 0012 0024     		movs	r4, #0
 393              	.LVL51:
 394              	.L20:
 395              		.loc 1 97 0 discriminator 1
 396 0014 2846     		mov	r0, r5
 397 0016 0121     		movs	r1, #1
 398 0018 FFF7FEFF 		bl	chMsgSend
 399              	.LVL52:
ARM GAS  /tmp/ccrvPg0b.s 			page 8


 400              		.loc 1 102 0 discriminator 1
 401 001c 3368     		ldr	r3, [r6]
 402              		.loc 1 98 0 discriminator 1
 403 001e 0134     		adds	r4, r4, #1
 404              	.LVL53:
 405              		.loc 1 102 0 discriminator 1
 406 0020 002B     		cmp	r3, #0
 407 0022 F7D0     		beq	.L20
 408              		.loc 1 103 0
 409 0024 2846     		mov	r0, r5
 410 0026 0021     		movs	r1, #0
 411 0028 FFF7FEFF 		bl	chMsgSend
 412              	.LVL54:
 413              		.loc 1 105 0
 414 002c 2046     		mov	r0, r4
 415 002e 70BD     		pop	{r4, r5, r6, pc}
 416              	.LVL55:
 417              	.L25:
 418              		.align	2
 419              	.L24:
 420 0030 00000000 		.word	test_timer_done
 421              		.cfi_endproc
 422              	.LFE8:
 423              		.size	msg_loop_test, .-msg_loop_test
 424              		.section	.text.bmk1_execute,"ax",%progbits
 425              		.align	2
 426              		.p2align 4,,15
 427              		.thumb
 428              		.thumb_func
 429              		.type	bmk1_execute, %function
 430              	bmk1_execute:
 431              	.LFB9:
 432              		.loc 1 116 0
 433              		.cfi_startproc
 434              		@ args = 0, pretend = 0, frame = 0
 435              		@ frame_needed = 0, uses_anonymous_args = 0
 436 0000 10B5     		push	{r4, lr}
 437              		.cfi_def_cfa_offset 8
 438              		.cfi_offset 4, -8
 439              		.cfi_offset 14, -4
 440              		.loc 1 119 0
 441 0002 134B     		ldr	r3, .L28
 442 0004 134A     		ldr	r2, .L28+4
 443 0006 DB69     		ldr	r3, [r3, #28]
 444 0008 1068     		ldr	r0, [r2]
 445 000a 9A68     		ldr	r2, [r3, #8]
 446              		.loc 1 116 0
 447 000c 82B0     		sub	sp, sp, #8
 448              		.cfi_def_cfa_offset 16
 449              		.loc 1 119 0
 450 000e 0023     		movs	r3, #0
 451 0010 013A     		subs	r2, r2, #1
 452 0012 4FF49871 		mov	r1, #304
 453 0016 0093     		str	r3, [sp]
 454 0018 0F4B     		ldr	r3, .L28+8
 455 001a FFF7FEFF 		bl	chThdCreateStatic
 456              	.LVL56:
ARM GAS  /tmp/ccrvPg0b.s 			page 9


 457 001e 0F4B     		ldr	r3, .L28+12
 458 0020 1860     		str	r0, [r3]
 459              		.loc 1 120 0
 460 0022 FFF7FEFF 		bl	msg_loop_test
 461              	.LVL57:
 462 0026 0446     		mov	r4, r0
 463              	.LVL58:
 464              		.loc 1 121 0
 465 0028 FFF7FEFF 		bl	test_wait_threads
 466              	.LVL59:
 467              		.loc 1 122 0
 468 002c 0C48     		ldr	r0, .L28+16
 469 002e FFF7FEFF 		bl	test_print
 470              	.LVL60:
 471              		.loc 1 123 0
 472 0032 2046     		mov	r0, r4
 473 0034 FFF7FEFF 		bl	test_printn
 474              	.LVL61:
 475              		.loc 1 124 0
 476 0038 0A48     		ldr	r0, .L28+20
 477 003a FFF7FEFF 		bl	test_print
 478              	.LVL62:
 479              		.loc 1 125 0
 480 003e 6000     		lsls	r0, r4, #1
 481 0040 FFF7FEFF 		bl	test_printn
 482              	.LVL63:
 483              		.loc 1 126 0
 484 0044 0848     		ldr	r0, .L28+24
 485              		.loc 1 127 0
 486 0046 02B0     		add	sp, sp, #8
 487              		.cfi_def_cfa_offset 8
 488              		@ sp needed
 489 0048 BDE81040 		pop	{r4, lr}
 490              		.cfi_restore 14
 491              		.cfi_restore 4
 492              		.cfi_def_cfa_offset 0
 493              	.LVL64:
 494              		.loc 1 126 0
 495 004c FFF7FEBF 		b	test_println
 496              	.LVL65:
 497              	.L29:
 498              		.align	2
 499              	.L28:
 500 0050 00000000 		.word	rlist
 501 0054 00000000 		.word	wa
 502 0058 00000000 		.word	thread1
 503 005c 00000000 		.word	threads
 504 0060 A8000000 		.word	.LC11
 505 0064 C4000000 		.word	.LC13
 506 0068 D0000000 		.word	.LC14
 507              		.cfi_endproc
 508              	.LFE9:
 509              		.size	bmk1_execute, .-bmk1_execute
 510              		.section	.text.bmk2_execute,"ax",%progbits
 511              		.align	2
 512              		.p2align 4,,15
 513              		.thumb
ARM GAS  /tmp/ccrvPg0b.s 			page 10


 514              		.thumb_func
 515              		.type	bmk2_execute, %function
 516              	bmk2_execute:
 517              	.LFB10:
 518              		.loc 1 145 0
 519              		.cfi_startproc
 520              		@ args = 0, pretend = 0, frame = 0
 521              		@ frame_needed = 0, uses_anonymous_args = 0
 522 0000 10B5     		push	{r4, lr}
 523              		.cfi_def_cfa_offset 8
 524              		.cfi_offset 4, -8
 525              		.cfi_offset 14, -4
 526              		.loc 1 148 0
 527 0002 134B     		ldr	r3, .L32
 528 0004 134A     		ldr	r2, .L32+4
 529 0006 DB69     		ldr	r3, [r3, #28]
 530 0008 1068     		ldr	r0, [r2]
 531 000a 9A68     		ldr	r2, [r3, #8]
 532              		.loc 1 145 0
 533 000c 82B0     		sub	sp, sp, #8
 534              		.cfi_def_cfa_offset 16
 535              		.loc 1 148 0
 536 000e 0023     		movs	r3, #0
 537 0010 0132     		adds	r2, r2, #1
 538 0012 4FF49871 		mov	r1, #304
 539 0016 0093     		str	r3, [sp]
 540 0018 0F4B     		ldr	r3, .L32+8
 541 001a FFF7FEFF 		bl	chThdCreateStatic
 542              	.LVL66:
 543 001e 0F4B     		ldr	r3, .L32+12
 544 0020 1860     		str	r0, [r3]
 545              		.loc 1 149 0
 546 0022 FFF7FEFF 		bl	msg_loop_test
 547              	.LVL67:
 548 0026 0446     		mov	r4, r0
 549              	.LVL68:
 550              		.loc 1 150 0
 551 0028 FFF7FEFF 		bl	test_wait_threads
 552              	.LVL69:
 553              		.loc 1 151 0
 554 002c 0C48     		ldr	r0, .L32+16
 555 002e FFF7FEFF 		bl	test_print
 556              	.LVL70:
 557              		.loc 1 152 0
 558 0032 2046     		mov	r0, r4
 559 0034 FFF7FEFF 		bl	test_printn
 560              	.LVL71:
 561              		.loc 1 153 0
 562 0038 0A48     		ldr	r0, .L32+20
 563 003a FFF7FEFF 		bl	test_print
 564              	.LVL72:
 565              		.loc 1 154 0
 566 003e 6000     		lsls	r0, r4, #1
 567 0040 FFF7FEFF 		bl	test_printn
 568              	.LVL73:
 569              		.loc 1 155 0
 570 0044 0848     		ldr	r0, .L32+24
ARM GAS  /tmp/ccrvPg0b.s 			page 11


 571              		.loc 1 156 0
 572 0046 02B0     		add	sp, sp, #8
 573              		.cfi_def_cfa_offset 8
 574              		@ sp needed
 575 0048 BDE81040 		pop	{r4, lr}
 576              		.cfi_restore 14
 577              		.cfi_restore 4
 578              		.cfi_def_cfa_offset 0
 579              	.LVL74:
 580              		.loc 1 155 0
 581 004c FFF7FEBF 		b	test_println
 582              	.LVL75:
 583              	.L33:
 584              		.align	2
 585              	.L32:
 586 0050 00000000 		.word	rlist
 587 0054 00000000 		.word	wa
 588 0058 00000000 		.word	thread1
 589 005c 00000000 		.word	threads
 590 0060 A8000000 		.word	.LC11
 591 0064 C4000000 		.word	.LC13
 592 0068 D0000000 		.word	.LC14
 593              		.cfi_endproc
 594              	.LFE10:
 595              		.size	bmk2_execute, .-bmk2_execute
 596              		.section	.text.bmk3_execute,"ax",%progbits
 597              		.align	2
 598              		.p2align 4,,15
 599              		.thumb
 600              		.thumb_func
 601              		.type	bmk3_execute, %function
 602              	bmk3_execute:
 603              	.LFB12:
 604              		.loc 1 180 0
 605              		.cfi_startproc
 606              		@ args = 0, pretend = 0, frame = 0
 607              		@ frame_needed = 0, uses_anonymous_args = 0
 608 0000 2DE9F041 		push	{r4, r5, r6, r7, r8, lr}
 609              		.cfi_def_cfa_offset 24
 610              		.cfi_offset 4, -24
 611              		.cfi_offset 5, -20
 612              		.cfi_offset 6, -16
 613              		.cfi_offset 7, -12
 614              		.cfi_offset 8, -8
 615              		.cfi_offset 14, -4
 616              		.loc 1 183 0
 617 0004 2C4F     		ldr	r7, .L36
 618 0006 2D4E     		ldr	r6, .L36+4
 619 0008 FB69     		ldr	r3, [r7, #28]
 620              		.loc 1 180 0
 621 000a 82B0     		sub	sp, sp, #8
 622              		.cfi_def_cfa_offset 32
 623              		.loc 1 183 0
 624 000c 9A68     		ldr	r2, [r3, #8]
 625 000e 0025     		movs	r5, #0
 626 0010 3068     		ldr	r0, [r6]
 627 0012 0132     		adds	r2, r2, #1
ARM GAS  /tmp/ccrvPg0b.s 			page 12


 628 0014 0095     		str	r5, [sp]
 629 0016 4FF49871 		mov	r1, #304
 630 001a 294B     		ldr	r3, .L36+8
 631 001c FFF7FEFF 		bl	chThdCreateStatic
 632              	.LVL76:
 633              		.loc 1 184 0
 634 0020 FB69     		ldr	r3, [r7, #28]
 635              		.loc 1 183 0
 636 0022 284C     		ldr	r4, .L36+12
 637              		.loc 1 184 0
 638 0024 9A68     		ldr	r2, [r3, #8]
 639 0026 DFF8AC80 		ldr	r8, .L36+28
 640 002a 7368     		ldr	r3, [r6, #4]
 641              		.loc 1 183 0
 642 002c 2060     		str	r0, [r4]
 643              		.loc 1 184 0
 644 002e 023A     		subs	r2, r2, #2
 645 0030 0095     		str	r5, [sp]
 646 0032 1846     		mov	r0, r3
 647 0034 4FF49871 		mov	r1, #304
 648 0038 4346     		mov	r3, r8
 649 003a FFF7FEFF 		bl	chThdCreateStatic
 650              	.LVL77:
 651              		.loc 1 185 0
 652 003e FA69     		ldr	r2, [r7, #28]
 653 0040 B368     		ldr	r3, [r6, #8]
 654 0042 9268     		ldr	r2, [r2, #8]
 655 0044 4FF49871 		mov	r1, #304
 656              		.loc 1 184 0
 657 0048 6060     		str	r0, [r4, #4]
 658              		.loc 1 185 0
 659 004a 033A     		subs	r2, r2, #3
 660 004c 0095     		str	r5, [sp]
 661 004e 1846     		mov	r0, r3
 662 0050 4346     		mov	r3, r8
 663 0052 FFF7FEFF 		bl	chThdCreateStatic
 664              	.LVL78:
 665              		.loc 1 186 0
 666 0056 FA69     		ldr	r2, [r7, #28]
 667 0058 F368     		ldr	r3, [r6, #12]
 668 005a 9268     		ldr	r2, [r2, #8]
 669 005c 4FF49871 		mov	r1, #304
 670              		.loc 1 185 0
 671 0060 A060     		str	r0, [r4, #8]
 672              		.loc 1 186 0
 673 0062 043A     		subs	r2, r2, #4
 674 0064 0095     		str	r5, [sp]
 675 0066 1846     		mov	r0, r3
 676 0068 4346     		mov	r3, r8
 677 006a FFF7FEFF 		bl	chThdCreateStatic
 678              	.LVL79:
 679              		.loc 1 187 0
 680 006e FA69     		ldr	r2, [r7, #28]
 681 0070 3369     		ldr	r3, [r6, #16]
 682 0072 9268     		ldr	r2, [r2, #8]
 683 0074 4FF49871 		mov	r1, #304
 684 0078 053A     		subs	r2, r2, #5
ARM GAS  /tmp/ccrvPg0b.s 			page 13


 685              		.loc 1 186 0
 686 007a E060     		str	r0, [r4, #12]
 687              		.loc 1 187 0
 688 007c 1846     		mov	r0, r3
 689 007e 0095     		str	r5, [sp]
 690 0080 4346     		mov	r3, r8
 691 0082 FFF7FEFF 		bl	chThdCreateStatic
 692              	.LVL80:
 693 0086 2061     		str	r0, [r4, #16]
 694              		.loc 1 188 0
 695 0088 2068     		ldr	r0, [r4]
 696 008a FFF7FEFF 		bl	msg_loop_test
 697              	.LVL81:
 698 008e 0446     		mov	r4, r0
 699              	.LVL82:
 700              		.loc 1 189 0
 701 0090 FFF7FEFF 		bl	test_wait_threads
 702              	.LVL83:
 703              		.loc 1 190 0
 704 0094 0C48     		ldr	r0, .L36+16
 705 0096 FFF7FEFF 		bl	test_print
 706              	.LVL84:
 707              		.loc 1 191 0
 708 009a 2046     		mov	r0, r4
 709 009c FFF7FEFF 		bl	test_printn
 710              	.LVL85:
 711              		.loc 1 192 0
 712 00a0 0A48     		ldr	r0, .L36+20
 713 00a2 FFF7FEFF 		bl	test_print
 714              	.LVL86:
 715              		.loc 1 193 0
 716 00a6 6000     		lsls	r0, r4, #1
 717 00a8 FFF7FEFF 		bl	test_printn
 718              	.LVL87:
 719              		.loc 1 194 0
 720 00ac 0848     		ldr	r0, .L36+24
 721              		.loc 1 195 0
 722 00ae 02B0     		add	sp, sp, #8
 723              		.cfi_def_cfa_offset 24
 724              		@ sp needed
 725 00b0 BDE8F041 		pop	{r4, r5, r6, r7, r8, lr}
 726              		.cfi_restore 14
 727              		.cfi_restore 8
 728              		.cfi_restore 7
 729              		.cfi_restore 6
 730              		.cfi_restore 5
 731              		.cfi_restore 4
 732              		.cfi_def_cfa_offset 0
 733              	.LVL88:
 734              		.loc 1 194 0
 735 00b4 FFF7FEBF 		b	test_println
 736              	.LVL89:
 737              	.L37:
 738              		.align	2
 739              	.L36:
 740 00b8 00000000 		.word	rlist
 741 00bc 00000000 		.word	wa
ARM GAS  /tmp/ccrvPg0b.s 			page 14


 742 00c0 00000000 		.word	thread1
 743 00c4 00000000 		.word	threads
 744 00c8 A8000000 		.word	.LC11
 745 00cc C4000000 		.word	.LC13
 746 00d0 D0000000 		.word	.LC14
 747 00d4 00000000 		.word	thread2
 748              		.cfi_endproc
 749              	.LFE12:
 750              		.size	bmk3_execute, .-bmk3_execute
 751              		.section	.text.thread4,"ax",%progbits
 752              		.align	2
 753              		.p2align 4,,15
 754              		.global	thread4
 755              		.thumb
 756              		.thumb_func
 757              		.type	thread4, %function
 758              	thread4:
 759              	.LFB13:
 760              		.loc 1 214 0
 761              		.cfi_startproc
 762              		@ args = 0, pretend = 0, frame = 0
 763              		@ frame_needed = 0, uses_anonymous_args = 0
 764              	.LVL90:
 765              		.loc 1 216 0
 766 0000 084A     		ldr	r2, .L43
 767              		.loc 1 214 0
 768 0002 10B5     		push	{r4, lr}
 769              		.cfi_def_cfa_offset 8
 770              		.cfi_offset 4, -8
 771              		.cfi_offset 14, -4
 772              	.LBB2:
 773              		.loc 1 219 0
 774 0004 2023     		movs	r3, #32
 775              	.LBE2:
 776              		.loc 1 216 0
 777 0006 D469     		ldr	r4, [r2, #28]
 778              	.LVL91:
 779              	.LBB3:
 780              		.loc 1 219 0
 781              	@ 219 "/home/nicolas/Desktop/Embebidos/stamp_repo/files/code/ext/ChibiOS/test/testbmk.c" 1
 782 0008 83F31188 		msr     BASEPRI, r3
 783              	@ 0 "" 2
 784              	.LVL92:
 785              		.thumb
 786              	.L39:
 787              	.LBE3:
 788              		.loc 1 221 0 discriminator 1
 789 000c 0220     		movs	r0, #2
 790 000e FFF7FEFF 		bl	chSchGoSleepS
 791              	.LVL93:
 792              		.loc 1 223 0 discriminator 1
 793 0012 636A     		ldr	r3, [r4, #36]
 794 0014 002B     		cmp	r3, #0
 795 0016 F9D0     		beq	.L39
 796              	.LBB4:
 797              		.loc 1 224 0
 798 0018 0023     		movs	r3, #0
ARM GAS  /tmp/ccrvPg0b.s 			page 15


 799              	@ 224 "/home/nicolas/Desktop/Embebidos/stamp_repo/files/code/ext/ChibiOS/test/testbmk.c" 1
 800 001a 83F31188 		msr     BASEPRI, r3
 801              	@ 0 "" 2
 802              		.thumb
 803              	.LBE4:
 804              		.loc 1 226 0
 805 001e 1846     		mov	r0, r3
 806 0020 10BD     		pop	{r4, pc}
 807              	.LVL94:
 808              	.L44:
 809 0022 00BF     		.align	2
 810              	.L43:
 811 0024 00000000 		.word	rlist
 812              		.cfi_endproc
 813              	.LFE13:
 814              		.size	thread4, .-thread4
 815              		.section	.text.bmk4_execute,"ax",%progbits
 816              		.align	2
 817              		.p2align 4,,15
 818              		.thumb
 819              		.thumb_func
 820              		.type	bmk4_execute, %function
 821              	bmk4_execute:
 822              	.LFB14:
 823              		.loc 1 228 0
 824              		.cfi_startproc
 825              		@ args = 0, pretend = 0, frame = 0
 826              		@ frame_needed = 0, uses_anonymous_args = 0
 827 0000 70B5     		push	{r4, r5, r6, lr}
 828              		.cfi_def_cfa_offset 16
 829              		.cfi_offset 4, -16
 830              		.cfi_offset 5, -12
 831              		.cfi_offset 6, -8
 832              		.cfi_offset 14, -4
 833              		.loc 1 232 0
 834 0002 254B     		ldr	r3, .L50
 835 0004 254A     		ldr	r2, .L50+4
 836 0006 DB69     		ldr	r3, [r3, #28]
 837 0008 1068     		ldr	r0, [r2]
 838 000a 9A68     		ldr	r2, [r3, #8]
 839              		.loc 1 228 0
 840 000c 82B0     		sub	sp, sp, #8
 841              		.cfi_def_cfa_offset 24
 842              		.loc 1 232 0
 843 000e 0025     		movs	r5, #0
 844 0010 0132     		adds	r2, r2, #1
 845 0012 4FF49871 		mov	r1, #304
 846 0016 224B     		ldr	r3, .L50+8
 847 0018 0095     		str	r5, [sp]
 848 001a FFF7FEFF 		bl	chThdCreateStatic
 849              	.LVL95:
 850 001e 214B     		ldr	r3, .L50+12
 851 0020 0446     		mov	r4, r0
 852 0022 1860     		str	r0, [r3]
 853              	.LVL96:
 854              		.loc 1 234 0
 855 0024 FFF7FEFF 		bl	test_wait_tick
ARM GAS  /tmp/ccrvPg0b.s 			page 16


 856              	.LVL97:
 857              		.loc 1 235 0
 858 0028 4FF47A70 		mov	r0, #1000
 859 002c FFF7FEFF 		bl	test_start_timer
 860              	.LVL98:
 861 0030 1D4E     		ldr	r6, .L50+16
 862              	.LVL99:
 863              	.L46:
 864              	.LBB5:
 865              		.loc 1 237 0 discriminator 1
 866 0032 2023     		movs	r3, #32
 867              	@ 237 "/home/nicolas/Desktop/Embebidos/stamp_repo/files/code/ext/ChibiOS/test/testbmk.c" 1
 868 0034 83F31188 		msr     BASEPRI, r3
 869              	@ 0 "" 2
 870              		.thumb
 871              	.LBE5:
 872              		.loc 1 238 0 discriminator 1
 873 0038 0021     		movs	r1, #0
 874 003a 2046     		mov	r0, r4
 875 003c FFF7FEFF 		bl	chSchWakeupS
 876              	.LVL100:
 877              		.loc 1 239 0 discriminator 1
 878 0040 2046     		mov	r0, r4
 879 0042 0021     		movs	r1, #0
 880 0044 FFF7FEFF 		bl	chSchWakeupS
 881              	.LVL101:
 882              		.loc 1 240 0 discriminator 1
 883 0048 2046     		mov	r0, r4
 884 004a 0021     		movs	r1, #0
 885 004c FFF7FEFF 		bl	chSchWakeupS
 886              	.LVL102:
 887              		.loc 1 241 0 discriminator 1
 888 0050 2046     		mov	r0, r4
 889 0052 0021     		movs	r1, #0
 890 0054 FFF7FEFF 		bl	chSchWakeupS
 891              	.LVL103:
 892              	.LBB6:
 893              		.loc 1 242 0 discriminator 1
 894 0058 0023     		movs	r3, #0
 895              	@ 242 "/home/nicolas/Desktop/Embebidos/stamp_repo/files/code/ext/ChibiOS/test/testbmk.c" 1
 896 005a 83F31188 		msr     BASEPRI, r3
 897              	@ 0 "" 2
 898              		.thumb
 899              	.LBE6:
 900              		.loc 1 247 0 discriminator 1
 901 005e 3368     		ldr	r3, [r6]
 902              		.loc 1 243 0 discriminator 1
 903 0060 0435     		adds	r5, r5, #4
 904              	.LVL104:
 905              		.loc 1 247 0 discriminator 1
 906 0062 002B     		cmp	r3, #0
 907 0064 E5D0     		beq	.L46
 908              	.LBB7:
 909              		.loc 1 248 0
 910 0066 2023     		movs	r3, #32
 911              	@ 248 "/home/nicolas/Desktop/Embebidos/stamp_repo/files/code/ext/ChibiOS/test/testbmk.c" 1
 912 0068 83F31188 		msr     BASEPRI, r3
ARM GAS  /tmp/ccrvPg0b.s 			page 17


 913              	@ 0 "" 2
 914              		.thumb
 915              	.LBE7:
 916              		.loc 1 249 0
 917 006c 4FF0FF31 		mov	r1, #-1
 918 0070 2046     		mov	r0, r4
 919 0072 FFF7FEFF 		bl	chSchWakeupS
 920              	.LVL105:
 921              	.LBB8:
 922              		.loc 1 250 0
 923 0076 0023     		movs	r3, #0
 924              	@ 250 "/home/nicolas/Desktop/Embebidos/stamp_repo/files/code/ext/ChibiOS/test/testbmk.c" 1
 925 0078 83F31188 		msr     BASEPRI, r3
 926              	@ 0 "" 2
 927              		.thumb
 928              	.LBE8:
 929              		.loc 1 252 0
 930 007c FFF7FEFF 		bl	test_wait_threads
 931              	.LVL106:
 932              		.loc 1 253 0
 933 0080 0A48     		ldr	r0, .L50+20
 934 0082 FFF7FEFF 		bl	test_print
 935              	.LVL107:
 936              		.loc 1 254 0
 937 0086 6800     		lsls	r0, r5, #1
 938 0088 FFF7FEFF 		bl	test_printn
 939              	.LVL108:
 940              		.loc 1 255 0
 941 008c 0848     		ldr	r0, .L50+24
 942              		.loc 1 256 0
 943 008e 02B0     		add	sp, sp, #8
 944              		.cfi_def_cfa_offset 16
 945              		@ sp needed
 946 0090 BDE87040 		pop	{r4, r5, r6, lr}
 947              		.cfi_restore 14
 948              		.cfi_restore 6
 949              		.cfi_restore 5
 950              		.cfi_restore 4
 951              		.cfi_def_cfa_offset 0
 952              	.LVL109:
 953              		.loc 1 255 0
 954 0094 FFF7FEBF 		b	test_println
 955              	.LVL110:
 956              	.L51:
 957              		.align	2
 958              	.L50:
 959 0098 00000000 		.word	rlist
 960 009c 00000000 		.word	wa
 961 00a0 00000000 		.word	thread4
 962 00a4 00000000 		.word	threads
 963 00a8 00000000 		.word	test_timer_done
 964 00ac A8000000 		.word	.LC11
 965 00b0 D0000000 		.word	.LC14
 966              		.cfi_endproc
 967              	.LFE14:
 968              		.size	bmk4_execute, .-bmk4_execute
 969              		.section	.text.bmk5_execute,"ax",%progbits
ARM GAS  /tmp/ccrvPg0b.s 			page 18


 970              		.align	2
 971              		.p2align 4,,15
 972              		.thumb
 973              		.thumb_func
 974              		.type	bmk5_execute, %function
 975              	bmk5_execute:
 976              	.LFB15:
 977              		.loc 1 276 0
 978              		.cfi_startproc
 979              		@ args = 0, pretend = 0, frame = 0
 980              		@ frame_needed = 0, uses_anonymous_args = 0
 981              	.LVL111:
 982 0000 2DE9F041 		push	{r4, r5, r6, r7, r8, lr}
 983              		.cfi_def_cfa_offset 24
 984              		.cfi_offset 4, -24
 985              		.cfi_offset 5, -20
 986              		.cfi_offset 6, -16
 987              		.cfi_offset 7, -12
 988              		.cfi_offset 8, -8
 989              		.cfi_offset 14, -4
 990              		.loc 1 280 0
 991 0004 154B     		ldr	r3, .L57
 992              		.loc 1 279 0
 993 0006 164A     		ldr	r2, .L57+4
 994              		.loc 1 280 0
 995 0008 DB69     		ldr	r3, [r3, #28]
 996              		.loc 1 276 0
 997 000a 82B0     		sub	sp, sp, #8
 998              		.cfi_def_cfa_offset 32
 999              		.loc 1 280 0
 1000 000c 9D68     		ldr	r5, [r3, #8]
 1001              		.loc 1 279 0
 1002 000e D2F80080 		ldr	r8, [r2]
 1003              	.LVL112:
 1004              		.loc 1 278 0
 1005 0012 0024     		movs	r4, #0
 1006              		.loc 1 281 0
 1007 0014 FFF7FEFF 		bl	test_wait_tick
 1008              	.LVL113:
 1009              		.loc 1 282 0
 1010 0018 4FF47A70 		mov	r0, #1000
 1011 001c FFF7FEFF 		bl	test_start_timer
 1012              	.LVL114:
 1013              		.loc 1 284 0
 1014 0020 2746     		mov	r7, r4
 1015 0022 104E     		ldr	r6, .L57+8
 1016              		.loc 1 280 0
 1017 0024 013D     		subs	r5, r5, #1
 1018              	.LVL115:
 1019              	.L53:
 1020              		.loc 1 284 0 discriminator 1
 1021 0026 104B     		ldr	r3, .L57+12
 1022 0028 4FF49871 		mov	r1, #304
 1023 002c 2A46     		mov	r2, r5
 1024 002e 0097     		str	r7, [sp]
 1025 0030 4046     		mov	r0, r8
 1026 0032 FFF7FEFF 		bl	chThdCreateStatic
ARM GAS  /tmp/ccrvPg0b.s 			page 19


 1027              	.LVL116:
 1028 0036 FFF7FEFF 		bl	chThdWait
 1029              	.LVL117:
 1030              		.loc 1 289 0 discriminator 1
 1031 003a 3368     		ldr	r3, [r6]
 1032              		.loc 1 285 0 discriminator 1
 1033 003c 0134     		adds	r4, r4, #1
 1034              	.LVL118:
 1035              		.loc 1 289 0 discriminator 1
 1036 003e 002B     		cmp	r3, #0
 1037 0040 F1D0     		beq	.L53
 1038              		.loc 1 290 0
 1039 0042 0A48     		ldr	r0, .L57+16
 1040 0044 FFF7FEFF 		bl	test_print
 1041              	.LVL119:
 1042              		.loc 1 291 0
 1043 0048 2046     		mov	r0, r4
 1044 004a FFF7FEFF 		bl	test_printn
 1045              	.LVL120:
 1046              		.loc 1 292 0
 1047 004e 0848     		ldr	r0, .L57+20
 1048              		.loc 1 293 0
 1049 0050 02B0     		add	sp, sp, #8
 1050              		.cfi_def_cfa_offset 24
 1051              		@ sp needed
 1052 0052 BDE8F041 		pop	{r4, r5, r6, r7, r8, lr}
 1053              		.cfi_restore 14
 1054              		.cfi_restore 8
 1055              		.cfi_restore 7
 1056              		.cfi_restore 6
 1057              		.cfi_restore 5
 1058              		.cfi_restore 4
 1059              		.cfi_def_cfa_offset 0
 1060              	.LVL121:
 1061              		.loc 1 292 0
 1062 0056 FFF7FEBF 		b	test_println
 1063              	.LVL122:
 1064              	.L58:
 1065 005a 00BF     		.align	2
 1066              	.L57:
 1067 005c 00000000 		.word	rlist
 1068 0060 00000000 		.word	wa
 1069 0064 00000000 		.word	test_timer_done
 1070 0068 00000000 		.word	thread2
 1071 006c A8000000 		.word	.LC11
 1072 0070 B8000000 		.word	.LC12
 1073              		.cfi_endproc
 1074              	.LFE15:
 1075              		.size	bmk5_execute, .-bmk5_execute
 1076              		.section	.text.bmk7_execute,"ax",%progbits
 1077              		.align	2
 1078              		.p2align 4,,15
 1079              		.thumb
 1080              		.thumb_func
 1081              		.type	bmk7_execute, %function
 1082              	bmk7_execute:
 1083              	.LFB19:
ARM GAS  /tmp/ccrvPg0b.s 			page 20


 1084              		.loc 1 365 0
 1085              		.cfi_startproc
 1086              		@ args = 0, pretend = 0, frame = 0
 1087              		@ frame_needed = 0, uses_anonymous_args = 0
 1088 0000 F0B5     		push	{r4, r5, r6, r7, lr}
 1089              		.cfi_def_cfa_offset 20
 1090              		.cfi_offset 4, -20
 1091              		.cfi_offset 5, -16
 1092              		.cfi_offset 6, -12
 1093              		.cfi_offset 7, -8
 1094              		.cfi_offset 14, -4
 1095              		.loc 1 368 0
 1096 0002 354F     		ldr	r7, .L64
 1097 0004 354E     		ldr	r6, .L64+4
 1098 0006 FB69     		ldr	r3, [r7, #28]
 1099              		.loc 1 365 0
 1100 0008 83B0     		sub	sp, sp, #12
 1101              		.cfi_def_cfa_offset 32
 1102              		.loc 1 368 0
 1103 000a 9A68     		ldr	r2, [r3, #8]
 1104 000c 0024     		movs	r4, #0
 1105 000e 0532     		adds	r2, r2, #5
 1106 0010 4FF49871 		mov	r1, #304
 1107 0014 324B     		ldr	r3, .L64+8
 1108 0016 3068     		ldr	r0, [r6]
 1109 0018 0094     		str	r4, [sp]
 1110 001a FFF7FEFF 		bl	chThdCreateStatic
 1111              	.LVL123:
 1112              		.loc 1 369 0
 1113 001e FB69     		ldr	r3, [r7, #28]
 1114              		.loc 1 368 0
 1115 0020 304D     		ldr	r5, .L64+12
 1116              		.loc 1 369 0
 1117 0022 9A68     		ldr	r2, [r3, #8]
 1118 0024 7368     		ldr	r3, [r6, #4]
 1119              		.loc 1 368 0
 1120 0026 2860     		str	r0, [r5]
 1121              		.loc 1 369 0
 1122 0028 0432     		adds	r2, r2, #4
 1123 002a 1846     		mov	r0, r3
 1124 002c 4FF49871 		mov	r1, #304
 1125 0030 2B4B     		ldr	r3, .L64+8
 1126 0032 0094     		str	r4, [sp]
 1127 0034 FFF7FEFF 		bl	chThdCreateStatic
 1128              	.LVL124:
 1129              		.loc 1 370 0
 1130 0038 FA69     		ldr	r2, [r7, #28]
 1131 003a B368     		ldr	r3, [r6, #8]
 1132 003c 9268     		ldr	r2, [r2, #8]
 1133 003e 4FF49871 		mov	r1, #304
 1134              		.loc 1 369 0
 1135 0042 6860     		str	r0, [r5, #4]
 1136              		.loc 1 370 0
 1137 0044 0332     		adds	r2, r2, #3
 1138 0046 1846     		mov	r0, r3
 1139 0048 0094     		str	r4, [sp]
 1140 004a 254B     		ldr	r3, .L64+8
ARM GAS  /tmp/ccrvPg0b.s 			page 21


 1141 004c FFF7FEFF 		bl	chThdCreateStatic
 1142              	.LVL125:
 1143              		.loc 1 371 0
 1144 0050 FA69     		ldr	r2, [r7, #28]
 1145 0052 F368     		ldr	r3, [r6, #12]
 1146 0054 9268     		ldr	r2, [r2, #8]
 1147 0056 4FF49871 		mov	r1, #304
 1148              		.loc 1 370 0
 1149 005a A860     		str	r0, [r5, #8]
 1150              		.loc 1 371 0
 1151 005c 0232     		adds	r2, r2, #2
 1152 005e 1846     		mov	r0, r3
 1153 0060 0094     		str	r4, [sp]
 1154 0062 1F4B     		ldr	r3, .L64+8
 1155 0064 FFF7FEFF 		bl	chThdCreateStatic
 1156              	.LVL126:
 1157              		.loc 1 372 0
 1158 0068 FA69     		ldr	r2, [r7, #28]
 1159 006a 3369     		ldr	r3, [r6, #16]
 1160 006c 9268     		ldr	r2, [r2, #8]
 1161 006e 4FF49871 		mov	r1, #304
 1162              		.loc 1 371 0
 1163 0072 E860     		str	r0, [r5, #12]
 1164              		.loc 1 372 0
 1165 0074 0132     		adds	r2, r2, #1
 1166 0076 1846     		mov	r0, r3
 1167 0078 0094     		str	r4, [sp]
 1168 007a 194B     		ldr	r3, .L64+8
 1169 007c FFF7FEFF 		bl	chThdCreateStatic
 1170              	.LVL127:
 1171 0080 2861     		str	r0, [r5, #16]
 1172              	.LVL128:
 1173              		.loc 1 375 0
 1174 0082 FFF7FEFF 		bl	test_wait_tick
 1175              	.LVL129:
 1176              		.loc 1 376 0
 1177 0086 4FF47A70 		mov	r0, #1000
 1178 008a FFF7FEFF 		bl	test_start_timer
 1179              	.LVL130:
 1180 008e 164D     		ldr	r5, .L64+16
 1181              	.LVL131:
 1182              	.L60:
 1183              		.loc 1 378 0 discriminator 1
 1184 0090 1648     		ldr	r0, .L64+20
 1185 0092 0021     		movs	r1, #0
 1186 0094 FFF7FEFF 		bl	chSemReset
 1187              	.LVL132:
 1188              		.loc 1 383 0 discriminator 1
 1189 0098 2B68     		ldr	r3, [r5]
 1190              		.loc 1 379 0 discriminator 1
 1191 009a 0134     		adds	r4, r4, #1
 1192              	.LVL133:
 1193              		.loc 1 383 0 discriminator 1
 1194 009c 002B     		cmp	r3, #0
 1195 009e F7D0     		beq	.L60
 1196              		.loc 1 384 0
 1197 00a0 FFF7FEFF 		bl	test_terminate_threads
ARM GAS  /tmp/ccrvPg0b.s 			page 22


 1198              	.LVL134:
 1199              		.loc 1 385 0
 1200 00a4 0021     		movs	r1, #0
 1201 00a6 1148     		ldr	r0, .L64+20
 1202 00a8 FFF7FEFF 		bl	chSemReset
 1203              	.LVL135:
 1204              		.loc 1 386 0
 1205 00ac FFF7FEFF 		bl	test_wait_threads
 1206              	.LVL136:
 1207              		.loc 1 388 0
 1208 00b0 0F48     		ldr	r0, .L64+24
 1209 00b2 FFF7FEFF 		bl	test_print
 1210              	.LVL137:
 1211              		.loc 1 389 0
 1212 00b6 2046     		mov	r0, r4
 1213 00b8 FFF7FEFF 		bl	test_printn
 1214              	.LVL138:
 1215              		.loc 1 390 0
 1216 00bc 0D48     		ldr	r0, .L64+28
 1217 00be FFF7FEFF 		bl	test_print
 1218              	.LVL139:
 1219              		.loc 1 391 0
 1220 00c2 04EB4400 		add	r0, r4, r4, lsl #1
 1221 00c6 4000     		lsls	r0, r0, #1
 1222 00c8 FFF7FEFF 		bl	test_printn
 1223              	.LVL140:
 1224              		.loc 1 392 0
 1225 00cc 0A48     		ldr	r0, .L64+32
 1226              		.loc 1 393 0
 1227 00ce 03B0     		add	sp, sp, #12
 1228              		.cfi_def_cfa_offset 20
 1229              		@ sp needed
 1230 00d0 BDE8F040 		pop	{r4, r5, r6, r7, lr}
 1231              		.cfi_restore 14
 1232              		.cfi_restore 7
 1233              		.cfi_restore 6
 1234              		.cfi_restore 5
 1235              		.cfi_restore 4
 1236              		.cfi_def_cfa_offset 0
 1237              	.LVL141:
 1238              		.loc 1 392 0
 1239 00d4 FFF7FEBF 		b	test_println
 1240              	.LVL142:
 1241              	.L65:
 1242              		.align	2
 1243              	.L64:
 1244 00d8 00000000 		.word	rlist
 1245 00dc 00000000 		.word	wa
 1246 00e0 00000000 		.word	thread3
 1247 00e4 00000000 		.word	threads
 1248 00e8 00000000 		.word	test_timer_done
 1249 00ec 00000000 		.word	.LANCHOR0
 1250 00f0 A8000000 		.word	.LC11
 1251 00f4 DC000000 		.word	.LC15
 1252 00f8 D0000000 		.word	.LC14
 1253              		.cfi_endproc
 1254              	.LFE19:
ARM GAS  /tmp/ccrvPg0b.s 			page 23


 1255              		.size	bmk7_execute, .-bmk7_execute
 1256              		.section	.text.thread3,"ax",%progbits
 1257              		.align	2
 1258              		.p2align 4,,15
 1259              		.thumb
 1260              		.thumb_func
 1261              		.type	thread3, %function
 1262              	thread3:
 1263              	.LFB17:
 1264              		.loc 1 352 0
 1265              		.cfi_startproc
 1266              		@ args = 0, pretend = 0, frame = 0
 1267              		@ frame_needed = 0, uses_anonymous_args = 0
 1268              	.LVL143:
 1269 0000 10B5     		push	{r4, lr}
 1270              		.cfi_def_cfa_offset 8
 1271              		.cfi_offset 4, -8
 1272              		.cfi_offset 14, -4
 1273              		.loc 1 355 0
 1274 0002 074C     		ldr	r4, .L74
 1275 0004 E369     		ldr	r3, [r4, #28]
 1276 0006 5B7F     		ldrb	r3, [r3, #29]	@ zero_extendqisi2
 1277 0008 5A07     		lsls	r2, r3, #29
 1278 000a 06D4     		bmi	.L72
 1279              	.LVL144:
 1280              	.L67:
 1281              		.loc 1 356 0
 1282 000c 0548     		ldr	r0, .L74+4
 1283 000e FFF7FEFF 		bl	chSemWait
 1284              	.LVL145:
 1285              		.loc 1 355 0
 1286 0012 E369     		ldr	r3, [r4, #28]
 1287 0014 5B7F     		ldrb	r3, [r3, #29]	@ zero_extendqisi2
 1288 0016 5B07     		lsls	r3, r3, #29
 1289 0018 F8D5     		bpl	.L67
 1290              	.L72:
 1291              		.loc 1 358 0
 1292 001a 0020     		movs	r0, #0
 1293 001c 10BD     		pop	{r4, pc}
 1294              	.L75:
 1295 001e 00BF     		.align	2
 1296              	.L74:
 1297 0020 00000000 		.word	rlist
 1298 0024 00000000 		.word	.LANCHOR0
 1299              		.cfi_endproc
 1300              	.LFE17:
 1301              		.size	thread3, .-thread3
 1302              		.section	.text.bmk7_setup,"ax",%progbits
 1303              		.align	2
 1304              		.p2align 4,,15
 1305              		.thumb
 1306              		.thumb_func
 1307              		.type	bmk7_setup, %function
 1308              	bmk7_setup:
 1309              	.LFB18:
 1310              		.loc 1 360 0
 1311              		.cfi_startproc
ARM GAS  /tmp/ccrvPg0b.s 			page 24


 1312              		@ args = 0, pretend = 0, frame = 0
 1313              		@ frame_needed = 0, uses_anonymous_args = 0
 1314              		@ link register save eliminated.
 1315              		.loc 1 362 0
 1316 0000 0148     		ldr	r0, .L77
 1317 0002 0021     		movs	r1, #0
 1318 0004 FFF7FEBF 		b	chSemInit
 1319              	.LVL146:
 1320              	.L78:
 1321              		.align	2
 1322              	.L77:
 1323 0008 00000000 		.word	.LANCHOR0
 1324              		.cfi_endproc
 1325              	.LFE18:
 1326              		.size	bmk7_setup, .-bmk7_setup
 1327              		.section	.text.bmk11_setup,"ax",%progbits
 1328              		.align	2
 1329              		.p2align 4,,15
 1330              		.thumb
 1331              		.thumb_func
 1332              		.type	bmk11_setup, %function
 1333              	bmk11_setup:
 1334              	.LFB25:
 1335              		.loc 1 553 0
 1336              		.cfi_startproc
 1337              		@ args = 0, pretend = 0, frame = 0
 1338              		@ frame_needed = 0, uses_anonymous_args = 0
 1339              		@ link register save eliminated.
 1340              		.loc 1 555 0
 1341 0000 0148     		ldr	r0, .L80
 1342 0002 0121     		movs	r1, #1
 1343 0004 FFF7FEBF 		b	chSemInit
 1344              	.LVL147:
 1345              	.L81:
 1346              		.align	2
 1347              	.L80:
 1348 0008 00000000 		.word	.LANCHOR0
 1349              		.cfi_endproc
 1350              	.LFE25:
 1351              		.size	bmk11_setup, .-bmk11_setup
 1352              		.section	.text.bmk8_execute,"ax",%progbits
 1353              		.align	2
 1354              		.p2align 4,,15
 1355              		.thumb
 1356              		.thumb_func
 1357              		.type	bmk8_execute, %function
 1358              	bmk8_execute:
 1359              	.LFB21:
 1360              		.loc 1 427 0
 1361              		.cfi_startproc
 1362              		@ args = 0, pretend = 0, frame = 8
 1363              		@ frame_needed = 0, uses_anonymous_args = 0
 1364 0000 2DE9F041 		push	{r4, r5, r6, r7, r8, lr}
 1365              		.cfi_def_cfa_offset 24
 1366              		.cfi_offset 4, -24
 1367              		.cfi_offset 5, -20
 1368              		.cfi_offset 6, -16
ARM GAS  /tmp/ccrvPg0b.s 			page 25


 1369              		.cfi_offset 7, -12
 1370              		.cfi_offset 8, -8
 1371              		.cfi_offset 14, -4
 1372              		.loc 1 433 0
 1373 0004 DFF8D080 		ldr	r8, .L84+20
 1374              		.loc 1 427 0
 1375 0008 84B0     		sub	sp, sp, #16
 1376              		.cfi_def_cfa_offset 40
 1377              		.loc 1 430 0
 1378 000a 04AC     		add	r4, sp, #16
 1379 000c 0023     		movs	r3, #0
 1380 000e 44F8043D 		str	r3, [r4, #-4]!
 1381              		.loc 1 431 0
 1382 0012 FFF7FEFF 		bl	test_wait_tick
 1383              	.LVL148:
 1384              		.loc 1 433 0
 1385 0016 D8F81C30 		ldr	r3, [r8, #28]
 1386 001a 2A4F     		ldr	r7, .L84
 1387 001c 2A4E     		ldr	r6, .L84+4
 1388 001e 9A68     		ldr	r2, [r3, #8]
 1389 0020 3868     		ldr	r0, [r7]
 1390 0022 3346     		mov	r3, r6
 1391 0024 013A     		subs	r2, r2, #1
 1392 0026 0094     		str	r4, [sp]
 1393 0028 4FF49871 		mov	r1, #304
 1394 002c FFF7FEFF 		bl	chThdCreateStatic
 1395              	.LVL149:
 1396              		.loc 1 434 0
 1397 0030 D8F81C30 		ldr	r3, [r8, #28]
 1398              		.loc 1 433 0
 1399 0034 254D     		ldr	r5, .L84+8
 1400              		.loc 1 434 0
 1401 0036 9A68     		ldr	r2, [r3, #8]
 1402 0038 7B68     		ldr	r3, [r7, #4]
 1403              		.loc 1 433 0
 1404 003a 2860     		str	r0, [r5]
 1405              		.loc 1 434 0
 1406 003c 013A     		subs	r2, r2, #1
 1407 003e 0094     		str	r4, [sp]
 1408 0040 1846     		mov	r0, r3
 1409 0042 4FF49871 		mov	r1, #304
 1410 0046 3346     		mov	r3, r6
 1411 0048 FFF7FEFF 		bl	chThdCreateStatic
 1412              	.LVL150:
 1413              		.loc 1 435 0
 1414 004c D8F81C20 		ldr	r2, [r8, #28]
 1415 0050 BB68     		ldr	r3, [r7, #8]
 1416 0052 9268     		ldr	r2, [r2, #8]
 1417 0054 4FF49871 		mov	r1, #304
 1418              		.loc 1 434 0
 1419 0058 6860     		str	r0, [r5, #4]
 1420              		.loc 1 435 0
 1421 005a 013A     		subs	r2, r2, #1
 1422 005c 0094     		str	r4, [sp]
 1423 005e 1846     		mov	r0, r3
 1424 0060 3346     		mov	r3, r6
 1425 0062 FFF7FEFF 		bl	chThdCreateStatic
ARM GAS  /tmp/ccrvPg0b.s 			page 26


 1426              	.LVL151:
 1427              		.loc 1 436 0
 1428 0066 D8F81C20 		ldr	r2, [r8, #28]
 1429 006a FB68     		ldr	r3, [r7, #12]
 1430 006c 9268     		ldr	r2, [r2, #8]
 1431 006e 4FF49871 		mov	r1, #304
 1432              		.loc 1 435 0
 1433 0072 A860     		str	r0, [r5, #8]
 1434              		.loc 1 436 0
 1435 0074 013A     		subs	r2, r2, #1
 1436 0076 0094     		str	r4, [sp]
 1437 0078 1846     		mov	r0, r3
 1438 007a 3346     		mov	r3, r6
 1439 007c FFF7FEFF 		bl	chThdCreateStatic
 1440              	.LVL152:
 1441              		.loc 1 437 0
 1442 0080 D8F81C20 		ldr	r2, [r8, #28]
 1443 0084 3B69     		ldr	r3, [r7, #16]
 1444 0086 9268     		ldr	r2, [r2, #8]
 1445 0088 4FF49871 		mov	r1, #304
 1446 008c 013A     		subs	r2, r2, #1
 1447              		.loc 1 436 0
 1448 008e E860     		str	r0, [r5, #12]
 1449              		.loc 1 437 0
 1450 0090 0094     		str	r4, [sp]
 1451 0092 1846     		mov	r0, r3
 1452 0094 3346     		mov	r3, r6
 1453 0096 FFF7FEFF 		bl	chThdCreateStatic
 1454              	.LVL153:
 1455 009a 2861     		str	r0, [r5, #16]
 1456              		.loc 1 439 0
 1457 009c 4FF47A70 		mov	r0, #1000
 1458 00a0 FFF7FEFF 		bl	chThdSleep
 1459              	.LVL154:
 1460              		.loc 1 440 0
 1461 00a4 FFF7FEFF 		bl	test_terminate_threads
 1462              	.LVL155:
 1463              		.loc 1 441 0
 1464 00a8 FFF7FEFF 		bl	test_wait_threads
 1465              	.LVL156:
 1466              		.loc 1 443 0
 1467 00ac 0848     		ldr	r0, .L84+12
 1468 00ae FFF7FEFF 		bl	test_print
 1469              	.LVL157:
 1470              		.loc 1 444 0
 1471 00b2 0398     		ldr	r0, [sp, #12]
 1472 00b4 FFF7FEFF 		bl	test_printn
 1473              	.LVL158:
 1474              		.loc 1 445 0
 1475 00b8 0648     		ldr	r0, .L84+16
 1476 00ba FFF7FEFF 		bl	test_println
 1477              	.LVL159:
 1478              		.loc 1 446 0
 1479 00be 04B0     		add	sp, sp, #16
 1480              		.cfi_def_cfa_offset 24
 1481              		@ sp needed
 1482 00c0 BDE8F081 		pop	{r4, r5, r6, r7, r8, pc}
ARM GAS  /tmp/ccrvPg0b.s 			page 27


 1483              	.L85:
 1484              		.align	2
 1485              	.L84:
 1486 00c4 00000000 		.word	wa
 1487 00c8 00000000 		.word	thread8
 1488 00cc 00000000 		.word	threads
 1489 00d0 A8000000 		.word	.LC11
 1490 00d4 D0000000 		.word	.LC14
 1491 00d8 00000000 		.word	rlist
 1492              		.cfi_endproc
 1493              	.LFE21:
 1494              		.size	bmk8_execute, .-bmk8_execute
 1495              		.section	.text.thread8,"ax",%progbits
 1496              		.align	2
 1497              		.p2align 4,,15
 1498              		.thumb
 1499              		.thumb_func
 1500              		.type	thread8, %function
 1501              	thread8:
 1502              	.LFB20:
 1503              		.loc 1 412 0
 1504              		.cfi_startproc
 1505              		@ args = 0, pretend = 0, frame = 0
 1506              		@ frame_needed = 0, uses_anonymous_args = 0
 1507              	.LVL160:
 1508 0000 38B5     		push	{r3, r4, r5, lr}
 1509              		.cfi_def_cfa_offset 16
 1510              		.cfi_offset 3, -16
 1511              		.cfi_offset 4, -12
 1512              		.cfi_offset 5, -8
 1513              		.cfi_offset 14, -4
 1514              		.loc 1 412 0
 1515 0002 0446     		mov	r4, r0
 1516 0004 084D     		ldr	r5, .L91
 1517              	.LVL161:
 1518              	.L87:
 1519              		.loc 1 415 0 discriminator 1
 1520 0006 FFF7FEFF 		bl	chThdYield
 1521              	.LVL162:
 1522              		.loc 1 416 0 discriminator 1
 1523 000a FFF7FEFF 		bl	chThdYield
 1524              	.LVL163:
 1525              		.loc 1 417 0 discriminator 1
 1526 000e FFF7FEFF 		bl	chThdYield
 1527              	.LVL164:
 1528              		.loc 1 418 0 discriminator 1
 1529 0012 FFF7FEFF 		bl	chThdYield
 1530              	.LVL165:
 1531              		.loc 1 419 0 discriminator 1
 1532 0016 2368     		ldr	r3, [r4]
 1533              		.loc 1 423 0 discriminator 1
 1534 0018 EA69     		ldr	r2, [r5, #28]
 1535              		.loc 1 419 0 discriminator 1
 1536 001a 0433     		adds	r3, r3, #4
 1537 001c 2360     		str	r3, [r4]
 1538              		.loc 1 423 0 discriminator 1
 1539 001e 537F     		ldrb	r3, [r2, #29]	@ zero_extendqisi2
ARM GAS  /tmp/ccrvPg0b.s 			page 28


 1540 0020 5B07     		lsls	r3, r3, #29
 1541 0022 F0D5     		bpl	.L87
 1542              		.loc 1 425 0
 1543 0024 0020     		movs	r0, #0
 1544 0026 38BD     		pop	{r3, r4, r5, pc}
 1545              	.LVL166:
 1546              	.L92:
 1547              		.align	2
 1548              	.L91:
 1549 0028 00000000 		.word	rlist
 1550              		.cfi_endproc
 1551              	.LFE20:
 1552              		.size	thread8, .-thread8
 1553              		.section	.text.bmk9_execute,"ax",%progbits
 1554              		.align	2
 1555              		.p2align 4,,15
 1556              		.thumb
 1557              		.thumb_func
 1558              		.type	bmk9_execute, %function
 1559              	bmk9_execute:
 1560              	.LFB22:
 1561              		.loc 1 465 0
 1562              		.cfi_startproc
 1563              		@ args = 0, pretend = 0, frame = 0
 1564              		@ frame_needed = 0, uses_anonymous_args = 0
 1565 0000 38B5     		push	{r3, r4, r5, lr}
 1566              		.cfi_def_cfa_offset 16
 1567              		.cfi_offset 3, -16
 1568              		.cfi_offset 4, -12
 1569              		.cfi_offset 5, -8
 1570              		.cfi_offset 14, -4
 1571              		.loc 1 470 0
 1572 0002 2349     		ldr	r1, .L98
 1573 0004 1022     		movs	r2, #16
 1574 0006 0023     		movs	r3, #0
 1575 0008 2248     		ldr	r0, .L98+4
 1576 000a FFF7FEFF 		bl	chIQInit
 1577              	.LVL167:
 1578              		.loc 1 472 0
 1579 000e FFF7FEFF 		bl	test_wait_tick
 1580              	.LVL168:
 1581              		.loc 1 473 0
 1582 0012 4FF47A70 		mov	r0, #1000
 1583 0016 FFF7FEFF 		bl	test_start_timer
 1584              	.LVL169:
 1585 001a 1F4D     		ldr	r5, .L98+8
 1586              		.loc 1 471 0
 1587 001c 0024     		movs	r4, #0
 1588              	.LVL170:
 1589              	.L94:
 1590              	.LBB9:
 1591              		.loc 1 475 0 discriminator 1
 1592 001e 2023     		movs	r3, #32
 1593              	@ 475 "/home/nicolas/Desktop/Embebidos/stamp_repo/files/code/ext/ChibiOS/test/testbmk.c" 1
 1594 0020 83F31188 		msr     BASEPRI, r3
 1595              	@ 0 "" 2
 1596              		.thumb
ARM GAS  /tmp/ccrvPg0b.s 			page 29


 1597              	.LBE9:
 1598              		.loc 1 476 0 discriminator 1
 1599 0024 0021     		movs	r1, #0
 1600 0026 1B48     		ldr	r0, .L98+4
 1601 0028 FFF7FEFF 		bl	chIQPutI
 1602              	.LVL171:
 1603              		.loc 1 477 0 discriminator 1
 1604 002c 0121     		movs	r1, #1
 1605 002e 1948     		ldr	r0, .L98+4
 1606 0030 FFF7FEFF 		bl	chIQPutI
 1607              	.LVL172:
 1608              		.loc 1 478 0 discriminator 1
 1609 0034 0221     		movs	r1, #2
 1610 0036 1748     		ldr	r0, .L98+4
 1611 0038 FFF7FEFF 		bl	chIQPutI
 1612              	.LVL173:
 1613              		.loc 1 479 0 discriminator 1
 1614 003c 0321     		movs	r1, #3
 1615 003e 1548     		ldr	r0, .L98+4
 1616 0040 FFF7FEFF 		bl	chIQPutI
 1617              	.LVL174:
 1618              	.LBB10:
 1619              		.loc 1 480 0 discriminator 1
 1620 0044 0023     		movs	r3, #0
 1621              	@ 480 "/home/nicolas/Desktop/Embebidos/stamp_repo/files/code/ext/ChibiOS/test/testbmk.c" 1
 1622 0046 83F31188 		msr     BASEPRI, r3
 1623              	@ 0 "" 2
 1624              		.thumb
 1625              	.LBE10:
 1626              		.loc 1 481 0 discriminator 1
 1627 004a 4FF0FF31 		mov	r1, #-1
 1628 004e 1148     		ldr	r0, .L98+4
 1629 0050 FFF7FEFF 		bl	chIQGetTimeout
 1630              	.LVL175:
 1631              		.loc 1 482 0 discriminator 1
 1632 0054 4FF0FF31 		mov	r1, #-1
 1633 0058 0E48     		ldr	r0, .L98+4
 1634 005a FFF7FEFF 		bl	chIQGetTimeout
 1635              	.LVL176:
 1636              		.loc 1 483 0 discriminator 1
 1637 005e 4FF0FF31 		mov	r1, #-1
 1638 0062 0C48     		ldr	r0, .L98+4
 1639 0064 FFF7FEFF 		bl	chIQGetTimeout
 1640              	.LVL177:
 1641              		.loc 1 484 0 discriminator 1
 1642 0068 0A48     		ldr	r0, .L98+4
 1643 006a 4FF0FF31 		mov	r1, #-1
 1644 006e FFF7FEFF 		bl	chIQGetTimeout
 1645              	.LVL178:
 1646              		.loc 1 489 0 discriminator 1
 1647 0072 2B68     		ldr	r3, [r5]
 1648              		.loc 1 485 0 discriminator 1
 1649 0074 0134     		adds	r4, r4, #1
 1650              	.LVL179:
 1651              		.loc 1 489 0 discriminator 1
 1652 0076 002B     		cmp	r3, #0
 1653 0078 D1D0     		beq	.L94
ARM GAS  /tmp/ccrvPg0b.s 			page 30


 1654              		.loc 1 490 0
 1655 007a 0848     		ldr	r0, .L98+12
 1656 007c FFF7FEFF 		bl	test_print
 1657              	.LVL180:
 1658              		.loc 1 491 0
 1659 0080 A000     		lsls	r0, r4, #2
 1660 0082 FFF7FEFF 		bl	test_printn
 1661              	.LVL181:
 1662              		.loc 1 493 0
 1663 0086 BDE83840 		pop	{r3, r4, r5, lr}
 1664              		.cfi_restore 14
 1665              		.cfi_restore 5
 1666              		.cfi_restore 4
 1667              		.cfi_restore 3
 1668              		.cfi_def_cfa_offset 0
 1669              	.LVL182:
 1670              		.loc 1 492 0
 1671 008a 0548     		ldr	r0, .L98+16
 1672 008c FFF7FEBF 		b	test_println
 1673              	.LVL183:
 1674              	.L99:
 1675              		.align	2
 1676              	.L98:
 1677 0090 00000000 		.word	.LANCHOR2
 1678 0094 00000000 		.word	.LANCHOR1
 1679 0098 00000000 		.word	test_timer_done
 1680 009c A8000000 		.word	.LC11
 1681 00a0 F0000000 		.word	.LC16
 1682              		.cfi_endproc
 1683              	.LFE22:
 1684              		.size	bmk9_execute, .-bmk9_execute
 1685              		.section	.text.bmk10_execute,"ax",%progbits
 1686              		.align	2
 1687              		.p2align 4,,15
 1688              		.thumb
 1689              		.thumb_func
 1690              		.type	bmk10_execute, %function
 1691              	bmk10_execute:
 1692              	.LFB24:
 1693              		.loc 1 513 0
 1694              		.cfi_startproc
 1695              		@ args = 0, pretend = 0, frame = 0
 1696              		@ frame_needed = 0, uses_anonymous_args = 0
 1697              	.LVL184:
 1698 0000 38B5     		push	{r3, r4, r5, lr}
 1699              		.cfi_def_cfa_offset 16
 1700              		.cfi_offset 3, -16
 1701              		.cfi_offset 4, -12
 1702              		.cfi_offset 5, -8
 1703              		.cfi_offset 14, -4
 1704              		.loc 1 517 0
 1705 0002 FFF7FEFF 		bl	test_wait_tick
 1706              	.LVL185:
 1707              		.loc 1 518 0
 1708 0006 4FF47A70 		mov	r0, #1000
 1709 000a FFF7FEFF 		bl	test_start_timer
 1710              	.LVL186:
ARM GAS  /tmp/ccrvPg0b.s 			page 31


 1711 000e 154D     		ldr	r5, .L105
 1712              		.loc 1 515 0
 1713 0010 0024     		movs	r4, #0
 1714              	.LVL187:
 1715              	.L101:
 1716              	.LBB11:
 1717              		.loc 1 520 0 discriminator 1
 1718 0012 2023     		movs	r3, #32
 1719              	@ 520 "/home/nicolas/Desktop/Embebidos/stamp_repo/files/code/ext/ChibiOS/test/testbmk.c" 1
 1720 0014 83F31188 		msr     BASEPRI, r3
 1721              	@ 0 "" 2
 1722              		.thumb
 1723              	.LBE11:
 1724              		.loc 1 521 0 discriminator 1
 1725 0018 1348     		ldr	r0, .L105+4
 1726 001a 0121     		movs	r1, #1
 1727 001c 134A     		ldr	r2, .L105+8
 1728 001e 0023     		movs	r3, #0
 1729 0020 FFF7FEFF 		bl	chVTSetI
 1730              	.LVL188:
 1731              		.loc 1 522 0 discriminator 1
 1732 0024 42F21071 		movw	r1, #10000
 1733 0028 104A     		ldr	r2, .L105+8
 1734 002a 0023     		movs	r3, #0
 1735 002c 1048     		ldr	r0, .L105+12
 1736 002e FFF7FEFF 		bl	chVTSetI
 1737              	.LVL189:
 1738              		.loc 1 523 0 discriminator 1
 1739 0032 0D48     		ldr	r0, .L105+4
 1740 0034 FFF7FEFF 		bl	chVTResetI
 1741              	.LVL190:
 1742              		.loc 1 524 0 discriminator 1
 1743 0038 0D48     		ldr	r0, .L105+12
 1744 003a FFF7FEFF 		bl	chVTResetI
 1745              	.LVL191:
 1746              	.LBB12:
 1747              		.loc 1 525 0 discriminator 1
 1748 003e 0023     		movs	r3, #0
 1749              	@ 525 "/home/nicolas/Desktop/Embebidos/stamp_repo/files/code/ext/ChibiOS/test/testbmk.c" 1
 1750 0040 83F31188 		msr     BASEPRI, r3
 1751              	@ 0 "" 2
 1752              		.thumb
 1753              	.LBE12:
 1754              		.loc 1 530 0 discriminator 1
 1755 0044 2B68     		ldr	r3, [r5]
 1756              		.loc 1 526 0 discriminator 1
 1757 0046 0134     		adds	r4, r4, #1
 1758              	.LVL192:
 1759              		.loc 1 530 0 discriminator 1
 1760 0048 002B     		cmp	r3, #0
 1761 004a E2D0     		beq	.L101
 1762              		.loc 1 531 0
 1763 004c 0948     		ldr	r0, .L105+16
 1764 004e FFF7FEFF 		bl	test_print
 1765              	.LVL193:
 1766              		.loc 1 532 0
 1767 0052 6000     		lsls	r0, r4, #1
ARM GAS  /tmp/ccrvPg0b.s 			page 32


 1768 0054 FFF7FEFF 		bl	test_printn
 1769              	.LVL194:
 1770              		.loc 1 534 0
 1771 0058 BDE83840 		pop	{r3, r4, r5, lr}
 1772              		.cfi_restore 14
 1773              		.cfi_restore 5
 1774              		.cfi_restore 4
 1775              		.cfi_restore 3
 1776              		.cfi_def_cfa_offset 0
 1777              	.LVL195:
 1778              		.loc 1 533 0
 1779 005c 0648     		ldr	r0, .L105+20
 1780 005e FFF7FEBF 		b	test_println
 1781              	.LVL196:
 1782              	.L106:
 1783 0062 00BF     		.align	2
 1784              	.L105:
 1785 0064 00000000 		.word	test_timer_done
 1786 0068 00000000 		.word	.LANCHOR3
 1787 006c 00000000 		.word	tmo
 1788 0070 00000000 		.word	.LANCHOR4
 1789 0074 A8000000 		.word	.LC11
 1790 0078 FC000000 		.word	.LC17
 1791              		.cfi_endproc
 1792              	.LFE24:
 1793              		.size	bmk10_execute, .-bmk10_execute
 1794              		.section	.text.bmk11_execute,"ax",%progbits
 1795              		.align	2
 1796              		.p2align 4,,15
 1797              		.thumb
 1798              		.thumb_func
 1799              		.type	bmk11_execute, %function
 1800              	bmk11_execute:
 1801              	.LFB26:
 1802              		.loc 1 558 0
 1803              		.cfi_startproc
 1804              		@ args = 0, pretend = 0, frame = 0
 1805              		@ frame_needed = 0, uses_anonymous_args = 0
 1806              	.LVL197:
 1807 0000 38B5     		push	{r3, r4, r5, lr}
 1808              		.cfi_def_cfa_offset 16
 1809              		.cfi_offset 3, -16
 1810              		.cfi_offset 4, -12
 1811              		.cfi_offset 5, -8
 1812              		.cfi_offset 14, -4
 1813              		.loc 1 561 0
 1814 0002 FFF7FEFF 		bl	test_wait_tick
 1815              	.LVL198:
 1816              		.loc 1 562 0
 1817 0006 4FF47A70 		mov	r0, #1000
 1818 000a FFF7FEFF 		bl	test_start_timer
 1819              	.LVL199:
 1820 000e 144D     		ldr	r5, .L112
 1821              		.loc 1 559 0
 1822 0010 0024     		movs	r4, #0
 1823              	.LVL200:
 1824              	.L108:
ARM GAS  /tmp/ccrvPg0b.s 			page 33


 1825              		.loc 1 564 0 discriminator 1
 1826 0012 1448     		ldr	r0, .L112+4
 1827 0014 FFF7FEFF 		bl	chSemWait
 1828              	.LVL201:
 1829              		.loc 1 565 0 discriminator 1
 1830 0018 1248     		ldr	r0, .L112+4
 1831 001a FFF7FEFF 		bl	chSemSignal
 1832              	.LVL202:
 1833              		.loc 1 566 0 discriminator 1
 1834 001e 1148     		ldr	r0, .L112+4
 1835 0020 FFF7FEFF 		bl	chSemWait
 1836              	.LVL203:
 1837              		.loc 1 567 0 discriminator 1
 1838 0024 0F48     		ldr	r0, .L112+4
 1839 0026 FFF7FEFF 		bl	chSemSignal
 1840              	.LVL204:
 1841              		.loc 1 568 0 discriminator 1
 1842 002a 0E48     		ldr	r0, .L112+4
 1843 002c FFF7FEFF 		bl	chSemWait
 1844              	.LVL205:
 1845              		.loc 1 569 0 discriminator 1
 1846 0030 0C48     		ldr	r0, .L112+4
 1847 0032 FFF7FEFF 		bl	chSemSignal
 1848              	.LVL206:
 1849              		.loc 1 570 0 discriminator 1
 1850 0036 0B48     		ldr	r0, .L112+4
 1851 0038 FFF7FEFF 		bl	chSemWait
 1852              	.LVL207:
 1853              		.loc 1 571 0 discriminator 1
 1854 003c 0948     		ldr	r0, .L112+4
 1855 003e FFF7FEFF 		bl	chSemSignal
 1856              	.LVL208:
 1857              		.loc 1 576 0 discriminator 1
 1858 0042 2B68     		ldr	r3, [r5]
 1859              		.loc 1 572 0 discriminator 1
 1860 0044 0134     		adds	r4, r4, #1
 1861              	.LVL209:
 1862              		.loc 1 576 0 discriminator 1
 1863 0046 002B     		cmp	r3, #0
 1864 0048 E3D0     		beq	.L108
 1865              		.loc 1 577 0
 1866 004a 0748     		ldr	r0, .L112+8
 1867 004c FFF7FEFF 		bl	test_print
 1868              	.LVL210:
 1869              		.loc 1 578 0
 1870 0050 A000     		lsls	r0, r4, #2
 1871 0052 FFF7FEFF 		bl	test_printn
 1872              	.LVL211:
 1873              		.loc 1 580 0
 1874 0056 BDE83840 		pop	{r3, r4, r5, lr}
 1875              		.cfi_restore 14
 1876              		.cfi_restore 5
 1877              		.cfi_restore 4
 1878              		.cfi_restore 3
 1879              		.cfi_def_cfa_offset 0
 1880              	.LVL212:
 1881              		.loc 1 579 0
ARM GAS  /tmp/ccrvPg0b.s 			page 34


 1882 005a 0448     		ldr	r0, .L112+12
 1883 005c FFF7FEBF 		b	test_println
 1884              	.LVL213:
 1885              	.L113:
 1886              		.align	2
 1887              	.L112:
 1888 0060 00000000 		.word	test_timer_done
 1889 0064 00000000 		.word	.LANCHOR0
 1890 0068 A8000000 		.word	.LC11
 1891 006c 08010000 		.word	.LC18
 1892              		.cfi_endproc
 1893              	.LFE26:
 1894              		.size	bmk11_execute, .-bmk11_execute
 1895              		.section	.text.bmk12_execute,"ax",%progbits
 1896              		.align	2
 1897              		.p2align 4,,15
 1898              		.thumb
 1899              		.thumb_func
 1900              		.type	bmk12_execute, %function
 1901              	bmk12_execute:
 1902              	.LFB28:
 1903              		.loc 1 605 0
 1904              		.cfi_startproc
 1905              		@ args = 0, pretend = 0, frame = 0
 1906              		@ frame_needed = 0, uses_anonymous_args = 0
 1907              	.LVL214:
 1908 0000 38B5     		push	{r3, r4, r5, lr}
 1909              		.cfi_def_cfa_offset 16
 1910              		.cfi_offset 3, -16
 1911              		.cfi_offset 4, -12
 1912              		.cfi_offset 5, -8
 1913              		.cfi_offset 14, -4
 1914              		.loc 1 608 0
 1915 0002 FFF7FEFF 		bl	test_wait_tick
 1916              	.LVL215:
 1917              		.loc 1 609 0
 1918 0006 4FF47A70 		mov	r0, #1000
 1919 000a FFF7FEFF 		bl	test_start_timer
 1920              	.LVL216:
 1921 000e 124D     		ldr	r5, .L119
 1922              		.loc 1 606 0
 1923 0010 0024     		movs	r4, #0
 1924              	.LVL217:
 1925              	.L115:
 1926              		.loc 1 611 0 discriminator 1
 1927 0012 1248     		ldr	r0, .L119+4
 1928 0014 FFF7FEFF 		bl	chMtxLock
 1929              	.LVL218:
 1930              		.loc 1 612 0 discriminator 1
 1931 0018 FFF7FEFF 		bl	chMtxUnlock
 1932              	.LVL219:
 1933              		.loc 1 613 0 discriminator 1
 1934 001c 0F48     		ldr	r0, .L119+4
 1935 001e FFF7FEFF 		bl	chMtxLock
 1936              	.LVL220:
 1937              		.loc 1 614 0 discriminator 1
 1938 0022 FFF7FEFF 		bl	chMtxUnlock
ARM GAS  /tmp/ccrvPg0b.s 			page 35


 1939              	.LVL221:
 1940              		.loc 1 615 0 discriminator 1
 1941 0026 0D48     		ldr	r0, .L119+4
 1942 0028 FFF7FEFF 		bl	chMtxLock
 1943              	.LVL222:
 1944              		.loc 1 616 0 discriminator 1
 1945 002c FFF7FEFF 		bl	chMtxUnlock
 1946              	.LVL223:
 1947              		.loc 1 617 0 discriminator 1
 1948 0030 0A48     		ldr	r0, .L119+4
 1949 0032 FFF7FEFF 		bl	chMtxLock
 1950              	.LVL224:
 1951              		.loc 1 618 0 discriminator 1
 1952 0036 FFF7FEFF 		bl	chMtxUnlock
 1953              	.LVL225:
 1954              		.loc 1 623 0 discriminator 1
 1955 003a 2B68     		ldr	r3, [r5]
 1956              		.loc 1 619 0 discriminator 1
 1957 003c 0134     		adds	r4, r4, #1
 1958              	.LVL226:
 1959              		.loc 1 623 0 discriminator 1
 1960 003e 002B     		cmp	r3, #0
 1961 0040 E7D0     		beq	.L115
 1962              		.loc 1 624 0
 1963 0042 0748     		ldr	r0, .L119+8
 1964 0044 FFF7FEFF 		bl	test_print
 1965              	.LVL227:
 1966              		.loc 1 625 0
 1967 0048 A000     		lsls	r0, r4, #2
 1968 004a FFF7FEFF 		bl	test_printn
 1969              	.LVL228:
 1970              		.loc 1 627 0
 1971 004e BDE83840 		pop	{r3, r4, r5, lr}
 1972              		.cfi_restore 14
 1973              		.cfi_restore 5
 1974              		.cfi_restore 4
 1975              		.cfi_restore 3
 1976              		.cfi_def_cfa_offset 0
 1977              	.LVL229:
 1978              		.loc 1 626 0
 1979 0052 0448     		ldr	r0, .L119+12
 1980 0054 FFF7FEBF 		b	test_println
 1981              	.LVL230:
 1982              	.L120:
 1983              		.align	2
 1984              	.L119:
 1985 0058 00000000 		.word	test_timer_done
 1986 005c 00000000 		.word	.LANCHOR5
 1987 0060 A8000000 		.word	.LC11
 1988 0064 18010000 		.word	.LC19
 1989              		.cfi_endproc
 1990              	.LFE28:
 1991              		.size	bmk12_execute, .-bmk12_execute
 1992              		.section	.text.bmk12_setup,"ax",%progbits
 1993              		.align	2
 1994              		.p2align 4,,15
 1995              		.thumb
ARM GAS  /tmp/ccrvPg0b.s 			page 36


 1996              		.thumb_func
 1997              		.type	bmk12_setup, %function
 1998              	bmk12_setup:
 1999              	.LFB27:
 2000              		.loc 1 600 0
 2001              		.cfi_startproc
 2002              		@ args = 0, pretend = 0, frame = 0
 2003              		@ frame_needed = 0, uses_anonymous_args = 0
 2004              		@ link register save eliminated.
 2005              		.loc 1 602 0
 2006 0000 0148     		ldr	r0, .L122
 2007 0002 FFF7FEBF 		b	chMtxInit
 2008              	.LVL231:
 2009              	.L123:
 2010 0006 00BF     		.align	2
 2011              	.L122:
 2012 0008 00000000 		.word	.LANCHOR5
 2013              		.cfi_endproc
 2014              	.LFE27:
 2015              		.size	bmk12_setup, .-bmk12_setup
 2016              		.global	patternbmk
 2017              		.global	testbmk13
 2018              		.global	testbmk12
 2019              		.global	testbmk11
 2020              		.global	testbmk10
 2021              		.global	testbmk9
 2022              		.global	testbmk8
 2023              		.global	testbmk7
 2024              		.global	testbmk6
 2025              		.global	testbmk5
 2026              		.global	testbmk4
 2027              		.global	testbmk3
 2028              		.global	testbmk2
 2029              		.global	testbmk1
 2030              		.section	.bss.vt1.4997,"aw",%nobits
 2031              		.align	2
 2032              		.set	.LANCHOR3,. + 0
 2033              		.type	vt1.4997, %object
 2034              		.size	vt1.4997, 20
 2035              	vt1.4997:
 2036 0000 00000000 		.space	20
 2036      00000000 
 2036      00000000 
 2036      00000000 
 2036      00000000 
 2037              		.section	.rodata.patternbmk,"a",%progbits
 2038              		.align	2
 2039              		.type	patternbmk, %object
 2040              		.size	patternbmk, 56
 2041              	patternbmk:
 2042 0000 00000000 		.word	testbmk1
 2043 0004 00000000 		.word	testbmk2
 2044 0008 00000000 		.word	testbmk3
 2045 000c 00000000 		.word	testbmk4
 2046 0010 00000000 		.word	testbmk5
 2047 0014 00000000 		.word	testbmk6
 2048 0018 00000000 		.word	testbmk7
ARM GAS  /tmp/ccrvPg0b.s 			page 37


 2049 001c 00000000 		.word	testbmk8
 2050 0020 00000000 		.word	testbmk9
 2051 0024 00000000 		.word	testbmk10
 2052 0028 00000000 		.word	testbmk11
 2053 002c 00000000 		.word	testbmk12
 2054 0030 00000000 		.word	testbmk13
 2055 0034 00000000 		.word	0
 2056              		.section	.rodata.testbmk8,"a",%progbits
 2057              		.align	2
 2058              		.type	testbmk8, %object
 2059              		.size	testbmk8, 16
 2060              	testbmk8:
 2061 0000 D0010000 		.word	.LC25
 2062 0004 00000000 		.word	0
 2063 0008 00000000 		.word	0
 2064 000c 00000000 		.word	bmk8_execute
 2065              		.section	.rodata.testbmk3,"a",%progbits
 2066              		.align	2
 2067              		.type	testbmk3, %object
 2068              		.size	testbmk3, 16
 2069              	testbmk3:
 2070 0000 80020000 		.word	.LC30
 2071 0004 00000000 		.word	0
 2072 0008 00000000 		.word	0
 2073 000c 00000000 		.word	bmk3_execute
 2074              		.section	.rodata.testbmk10,"a",%progbits
 2075              		.align	2
 2076              		.type	testbmk10, %object
 2077              		.size	testbmk10, 16
 2078              	testbmk10:
 2079 0000 88010000 		.word	.LC23
 2080 0004 00000000 		.word	0
 2081 0008 00000000 		.word	0
 2082 000c 00000000 		.word	bmk10_execute
 2083              		.section	.bss.iq.4985,"aw",%nobits
 2084              		.align	2
 2085              		.set	.LANCHOR1,. + 0
 2086              		.type	iq.4985, %object
 2087              		.size	iq.4985, 32
 2088              	iq.4985:
 2089 0000 00000000 		.space	32
 2089      00000000 
 2089      00000000 
 2089      00000000 
 2089      00000000 
 2090              		.section	.rodata.testbmk4,"a",%progbits
 2091              		.align	2
 2092              		.type	testbmk4, %object
 2093              		.size	testbmk4, 16
 2094              	testbmk4:
 2095 0000 64020000 		.word	.LC29
 2096 0004 00000000 		.word	0
 2097 0008 00000000 		.word	0
 2098 000c 00000000 		.word	bmk4_execute
 2099              		.section	.bss.mtx1,"aw",%nobits
 2100              		.align	2
 2101              		.set	.LANCHOR5,. + 0
ARM GAS  /tmp/ccrvPg0b.s 			page 38


 2102              		.type	mtx1, %object
 2103              		.size	mtx1, 16
 2104              	mtx1:
 2105 0000 00000000 		.space	16
 2105      00000000 
 2105      00000000 
 2105      00000000 
 2106              		.section	.rodata.testbmk12,"a",%progbits
 2107              		.align	2
 2108              		.type	testbmk12, %object
 2109              		.size	testbmk12, 16
 2110              	testbmk12:
 2111 0000 44010000 		.word	.LC21
 2112 0004 00000000 		.word	bmk12_setup
 2113 0008 00000000 		.word	0
 2114 000c 00000000 		.word	bmk12_execute
 2115              		.section	.bss.ib.4984,"aw",%nobits
 2116              		.align	2
 2117              		.set	.LANCHOR2,. + 0
 2118              		.type	ib.4984, %object
 2119              		.size	ib.4984, 16
 2120              	ib.4984:
 2121 0000 00000000 		.space	16
 2121      00000000 
 2121      00000000 
 2121      00000000 
 2122              		.section	.rodata.testbmk2,"a",%progbits
 2123              		.align	2
 2124              		.type	testbmk2, %object
 2125              		.size	testbmk2, 16
 2126              	testbmk2:
 2127 0000 98020000 		.word	.LC31
 2128 0004 00000000 		.word	0
 2129 0008 00000000 		.word	0
 2130 000c 00000000 		.word	bmk2_execute
 2131              		.section	.rodata.str1.4,"aMS",%progbits,1
 2132              		.align	2
 2133              	.LC0:
 2134 0000 2D2D2D20 		.ascii	"--- System: \000"
 2134      53797374 
 2134      656D3A20 
 2134      00
 2135 000d 000000   		.space	3
 2136              	.LC1:
 2137 0010 20627974 		.ascii	" bytes\000"
 2137      657300
 2138 0017 00       		.space	1
 2139              	.LC2:
 2140 0018 2D2D2D20 		.ascii	"--- Thread: \000"
 2140      54687265 
 2140      61643A20 
 2140      00
 2141 0025 000000   		.space	3
 2142              	.LC3:
 2143 0028 2D2D2D20 		.ascii	"--- Timer : \000"
 2143      54696D65 
 2143      72203A20 
ARM GAS  /tmp/ccrvPg0b.s 			page 39


 2143      00
 2144 0035 000000   		.space	3
 2145              	.LC4:
 2146 0038 2D2D2D20 		.ascii	"--- Semaph: \000"
 2146      53656D61 
 2146      70683A20 
 2146      00
 2147 0045 000000   		.space	3
 2148              	.LC5:
 2149 0048 2D2D2D20 		.ascii	"--- EventS: \000"
 2149      4576656E 
 2149      74533A20 
 2149      00
 2150 0055 000000   		.space	3
 2151              	.LC6:
 2152 0058 2D2D2D20 		.ascii	"--- EventL: \000"
 2152      4576656E 
 2152      744C3A20 
 2152      00
 2153 0065 000000   		.space	3
 2154              	.LC7:
 2155 0068 2D2D2D20 		.ascii	"--- Mutex : \000"
 2155      4D757465 
 2155      78203A20 
 2155      00
 2156 0075 000000   		.space	3
 2157              	.LC8:
 2158 0078 2D2D2D20 		.ascii	"--- CondV.: \000"
 2158      436F6E64 
 2158      562E3A20 
 2158      00
 2159 0085 000000   		.space	3
 2160              	.LC9:
 2161 0088 2D2D2D20 		.ascii	"--- Queue : \000"
 2161      51756575 
 2161      65203A20 
 2161      00
 2162 0095 000000   		.space	3
 2163              	.LC10:
 2164 0098 2D2D2D20 		.ascii	"--- MailB.: \000"
 2164      4D61696C 
 2164      422E3A20 
 2164      00
 2165 00a5 000000   		.space	3
 2166              	.LC11:
 2167 00a8 2D2D2D20 		.ascii	"--- Score : \000"
 2167      53636F72 
 2167      65203A20 
 2167      00
 2168 00b5 000000   		.space	3
 2169              	.LC12:
 2170 00b8 20746872 		.ascii	" threads/S\000"
 2170      65616473 
 2170      2F5300
 2171 00c3 00       		.space	1
 2172              	.LC13:
 2173 00c4 206D7367 		.ascii	" msgs/S, \000"
ARM GAS  /tmp/ccrvPg0b.s 			page 40


 2173      732F532C 
 2173      2000
 2174 00ce 0000     		.space	2
 2175              	.LC14:
 2176 00d0 20637478 		.ascii	" ctxswc/S\000"
 2176      7377632F 
 2176      5300
 2177 00da 0000     		.space	2
 2178              	.LC15:
 2179 00dc 20726573 		.ascii	" reschedules/S, \000"
 2179      63686564 
 2179      756C6573 
 2179      2F532C20 
 2179      00
 2180 00ed 000000   		.space	3
 2181              	.LC16:
 2182 00f0 20627974 		.ascii	" bytes/S\000"
 2182      65732F53 
 2182      00
 2183 00f9 000000   		.space	3
 2184              	.LC17:
 2185 00fc 2074696D 		.ascii	" timers/S\000"
 2185      6572732F 
 2185      5300
 2186 0106 0000     		.space	2
 2187              	.LC18:
 2188 0108 20776169 		.ascii	" wait+signal/S\000"
 2188      742B7369 
 2188      676E616C 
 2188      2F5300
 2189 0117 00       		.space	1
 2190              	.LC19:
 2191 0118 206C6F63 		.ascii	" lock+unlock/S\000"
 2191      6B2B756E 
 2191      6C6F636B 
 2191      2F5300
 2192 0127 00       		.space	1
 2193              	.LC20:
 2194 0128 42656E63 		.ascii	"Benchmark, RAM footprint\000"
 2194      686D6172 
 2194      6B2C2052 
 2194      414D2066 
 2194      6F6F7470 
 2195 0141 000000   		.space	3
 2196              	.LC21:
 2197 0144 42656E63 		.ascii	"Benchmark, mutexes lock/unlock\000"
 2197      686D6172 
 2197      6B2C206D 
 2197      75746578 
 2197      6573206C 
 2198 0163 00       		.space	1
 2199              	.LC22:
 2200 0164 42656E63 		.ascii	"Benchmark, semaphores wait/signal\000"
 2200      686D6172 
 2200      6B2C2073 
 2200      656D6170 
 2200      686F7265 
ARM GAS  /tmp/ccrvPg0b.s 			page 41


 2201 0186 0000     		.space	2
 2202              	.LC23:
 2203 0188 42656E63 		.ascii	"Benchmark, virtual timers set/reset\000"
 2203      686D6172 
 2203      6B2C2076 
 2203      69727475 
 2203      616C2074 
 2204              	.LC24:
 2205 01ac 42656E63 		.ascii	"Benchmark, I/O Queues throughput\000"
 2205      686D6172 
 2205      6B2C2049 
 2205      2F4F2051 
 2205      75657565 
 2206 01cd 000000   		.space	3
 2207              	.LC25:
 2208 01d0 42656E63 		.ascii	"Benchmark, round robin context switching\000"
 2208      686D6172 
 2208      6B2C2072 
 2208      6F756E64 
 2208      20726F62 
 2209 01f9 000000   		.space	3
 2210              	.LC26:
 2211 01fc 42656E63 		.ascii	"Benchmark, mass reschedule, 5 threads\000"
 2211      686D6172 
 2211      6B2C206D 
 2211      61737320 
 2211      72657363 
 2212 0222 0000     		.space	2
 2213              	.LC27:
 2214 0224 42656E63 		.ascii	"Benchmark, threads, create only\000"
 2214      686D6172 
 2214      6B2C2074 
 2214      68726561 
 2214      64732C20 
 2215              	.LC28:
 2216 0244 42656E63 		.ascii	"Benchmark, threads, full cycle\000"
 2216      686D6172 
 2216      6B2C2074 
 2216      68726561 
 2216      64732C20 
 2217 0263 00       		.space	1
 2218              	.LC29:
 2219 0264 42656E63 		.ascii	"Benchmark, context switch\000"
 2219      686D6172 
 2219      6B2C2063 
 2219      6F6E7465 
 2219      78742073 
 2220 027e 0000     		.space	2
 2221              	.LC30:
 2222 0280 42656E63 		.ascii	"Benchmark, messages #3\000"
 2222      686D6172 
 2222      6B2C206D 
 2222      65737361 
 2222      67657320 
 2223 0297 00       		.space	1
 2224              	.LC31:
 2225 0298 42656E63 		.ascii	"Benchmark, messages #2\000"
ARM GAS  /tmp/ccrvPg0b.s 			page 42


 2225      686D6172 
 2225      6B2C206D 
 2225      65737361 
 2225      67657320 
 2226 02af 00       		.space	1
 2227              	.LC32:
 2228 02b0 42656E63 		.ascii	"Benchmark, messages #1\000"
 2228      686D6172 
 2228      6B2C206D 
 2228      65737361 
 2228      67657320 
 2229              		.section	.rodata.testbmk9,"a",%progbits
 2230              		.align	2
 2231              		.type	testbmk9, %object
 2232              		.size	testbmk9, 16
 2233              	testbmk9:
 2234 0000 AC010000 		.word	.LC24
 2235 0004 00000000 		.word	0
 2236 0008 00000000 		.word	0
 2237 000c 00000000 		.word	bmk9_execute
 2238              		.section	.bss.sem1,"aw",%nobits
 2239              		.align	2
 2240              		.set	.LANCHOR0,. + 0
 2241              		.type	sem1, %object
 2242              		.size	sem1, 12
 2243              	sem1:
 2244 0000 00000000 		.space	12
 2244      00000000 
 2244      00000000 
 2245              		.section	.rodata.testbmk1,"a",%progbits
 2246              		.align	2
 2247              		.type	testbmk1, %object
 2248              		.size	testbmk1, 16
 2249              	testbmk1:
 2250 0000 B0020000 		.word	.LC32
 2251 0004 00000000 		.word	0
 2252 0008 00000000 		.word	0
 2253 000c 00000000 		.word	bmk1_execute
 2254              		.section	.rodata.testbmk11,"a",%progbits
 2255              		.align	2
 2256              		.type	testbmk11, %object
 2257              		.size	testbmk11, 16
 2258              	testbmk11:
 2259 0000 64010000 		.word	.LC22
 2260 0004 00000000 		.word	bmk11_setup
 2261 0008 00000000 		.word	0
 2262 000c 00000000 		.word	bmk11_execute
 2263              		.section	.bss.vt2.4998,"aw",%nobits
 2264              		.align	2
 2265              		.set	.LANCHOR4,. + 0
 2266              		.type	vt2.4998, %object
 2267              		.size	vt2.4998, 20
 2268              	vt2.4998:
 2269 0000 00000000 		.space	20
 2269      00000000 
 2269      00000000 
 2269      00000000 
ARM GAS  /tmp/ccrvPg0b.s 			page 43


 2269      00000000 
 2270              		.section	.rodata.testbmk13,"a",%progbits
 2271              		.align	2
 2272              		.type	testbmk13, %object
 2273              		.size	testbmk13, 16
 2274              	testbmk13:
 2275 0000 28010000 		.word	.LC20
 2276 0004 00000000 		.word	0
 2277 0008 00000000 		.word	0
 2278 000c 00000000 		.word	bmk13_execute
 2279              		.section	.rodata.testbmk5,"a",%progbits
 2280              		.align	2
 2281              		.type	testbmk5, %object
 2282              		.size	testbmk5, 16
 2283              	testbmk5:
 2284 0000 44020000 		.word	.LC28
 2285 0004 00000000 		.word	0
 2286 0008 00000000 		.word	0
 2287 000c 00000000 		.word	bmk5_execute
 2288              		.section	.rodata.testbmk6,"a",%progbits
 2289              		.align	2
 2290              		.type	testbmk6, %object
 2291              		.size	testbmk6, 16
 2292              	testbmk6:
 2293 0000 24020000 		.word	.LC27
 2294 0004 00000000 		.word	0
 2295 0008 00000000 		.word	0
 2296 000c 00000000 		.word	bmk6_execute
 2297              		.section	.rodata.testbmk7,"a",%progbits
 2298              		.align	2
 2299              		.type	testbmk7, %object
 2300              		.size	testbmk7, 16
 2301              	testbmk7:
 2302 0000 FC010000 		.word	.LC26
 2303 0004 00000000 		.word	bmk7_setup
 2304 0008 00000000 		.word	0
 2305 000c 00000000 		.word	bmk7_execute
 2306              		.text
 2307              	.Letext0:
 2308              		.file 2 "/opt/gcc-arm-none-eabi-4_9-2015q3/lib/gcc/arm-none-eabi/4.9.3/include/stddef.h"
 2309              		.file 3 "/opt/gcc-arm-none-eabi-4_9-2015q3/arm-none-eabi/include/machine/_default_types.h"
 2310              		.file 4 "/opt/gcc-arm-none-eabi-4_9-2015q3/arm-none-eabi/include/sys/_stdint.h"
 2311              		.file 5 "/home/nicolas/Desktop/Embebidos/stamp_repo/files/code/ext/ChibiOS/os/ports/GCC/ARMCMx/cht
 2312              		.file 6 "/home/nicolas/Desktop/Embebidos/stamp_repo/files/code/ext/ChibiOS/os/kernel/include/chlis
 2313              		.file 7 "/home/nicolas/Desktop/Embebidos/stamp_repo/files/code/ext/ChibiOS/os/kernel/include/chthr
 2314              		.file 8 "/home/nicolas/Desktop/Embebidos/stamp_repo/files/code/ext/ChibiOS/os/ports/GCC/ARMCMx/chc
 2315              		.file 9 "/home/nicolas/Desktop/Embebidos/stamp_repo/files/code/ext/ChibiOS/os/kernel/include/chvt.
 2316              		.file 10 "/home/nicolas/Desktop/Embebidos/stamp_repo/files/code/ext/ChibiOS/os/kernel/include/chsc
 2317              		.file 11 "/home/nicolas/Desktop/Embebidos/stamp_repo/files/code/ext/ChibiOS/os/kernel/include/chse
 2318              		.file 12 "/home/nicolas/Desktop/Embebidos/stamp_repo/files/code/ext/ChibiOS/os/kernel/include/chmt
 2319              		.file 13 "/home/nicolas/Desktop/Embebidos/stamp_repo/files/code/ext/ChibiOS/os/kernel/include/chqu
 2320              		.file 14 "/home/nicolas/Desktop/Embebidos/stamp_repo/files/code/ext/ChibiOS/test/test.h"
 2321              		.file 15 "/home/nicolas/Desktop/Embebidos/stamp_repo/files/code/ext/ChibiOS/os/kernel/include/chms